
../../../Binaries/DimmerSwitch_NtagIcode_Ota_RamOpt_OM15082/DimmerSwitch_NtagIcode_Ota_RamOpt_OM15082.axf:     file format elf32-littlearm


Disassembly of section .text:

00000200 <ResetISR>:
     200:	4804      	ldr	r0, [pc, #16]	; (214 <masterboot+0x4>)
     202:	6800      	ldr	r0, [r0, #0]
     204:	0000      	movs	r0, r0
     206:	d003      	beq.n	210 <masterboot>
     208:	4903      	ldr	r1, [pc, #12]	; (218 <masterboot+0x8>)
     20a:	6809      	ldr	r1, [r1, #0]
     20c:	468d      	mov	sp, r1
     20e:	4700      	bx	r0

00000210 <masterboot>:
     210:	4802      	ldr	r0, [pc, #8]	; (21c <masterboot+0xc>)
     212:	4700      	bx	r0
     214:	40000804 	.word	0x40000804
     218:	40000808 	.word	0x40000808
     21c:	000002b3 	.word	0x000002b3

00000220 <ADC_SEQA_IRQHandler>:
     220:	e7fe      	b.n	220 <ADC_SEQA_IRQHandler>

00000222 <NMI_Handler>:
     222:	e7fe      	b.n	222 <NMI_Handler>
     224:	e7fe      	b.n	224 <NMI_Handler+0x2>
     226:	e7fe      	b.n	226 <NMI_Handler+0x4>
     228:	e7fe      	b.n	228 <NMI_Handler+0x6>
     22a:	e7fe      	b.n	22a <NMI_Handler+0x8>

0000022c <SVC_Handler>:
     22c:	e7fe      	b.n	22c <SVC_Handler>

0000022e <DebugMon_Handler>:
     22e:	e7fe      	b.n	22e <DebugMon_Handler>

00000230 <PendSV_Handler>:
     230:	e7fe      	b.n	230 <PendSV_Handler>
     232:	e7fe      	b.n	232 <PendSV_Handler+0x2>

00000234 <MAC_154_IRQHandler>:
     234:	b508      	push	{r3, lr}
     236:	4b06      	ldr	r3, [pc, #24]	; (250 <MAC_154_IRQHandler+0x1c>)
     238:	b113      	cbz	r3, 240 <MAC_154_IRQHandler+0xc>
     23a:	f024 fdf7 	bl	24e2c <vMMAC_IntHandlerBbc>
     23e:	bd08      	pop	{r3, pc}
     240:	4b04      	ldr	r3, [pc, #16]	; (254 <MAC_154_IRQHandler+0x20>)
     242:	b113      	cbz	r3, 24a <MAC_154_IRQHandler+0x16>
     244:	f029 fd50 	bl	29ce8 <__ZIGBEE_MAC_IRQHandler_veneer>
     248:	e7f9      	b.n	23e <MAC_154_IRQHandler+0xa>
     24a:	f7ff ffe9 	bl	220 <ADC_SEQA_IRQHandler>
     24e:	bf00      	nop
     250:	00024e2d 	.word	0x00024e2d
     254:	03006b65 	.word	0x03006b65

00000258 <MODEM_154_IRQHandler>:
     258:	b508      	push	{r3, lr}
     25a:	4b06      	ldr	r3, [pc, #24]	; (274 <MODEM_154_IRQHandler+0x1c>)
     25c:	b113      	cbz	r3, 264 <MODEM_154_IRQHandler+0xc>
     25e:	f024 fdfd 	bl	24e5c <vMMAC_IntHandlerPhy>
     262:	bd08      	pop	{r3, pc}
     264:	4b04      	ldr	r3, [pc, #16]	; (278 <MODEM_154_IRQHandler+0x20>)
     266:	b113      	cbz	r3, 26e <MODEM_154_IRQHandler+0x16>
     268:	f029 fd3a 	bl	29ce0 <__ZIGBEE_MODEM_IRQHandler_veneer>
     26c:	e7f9      	b.n	262 <MODEM_154_IRQHandler+0xa>
     26e:	f7ff ffd7 	bl	220 <ADC_SEQA_IRQHandler>
     272:	bf00      	nop
     274:	00024e5d 	.word	0x00024e5d
     278:	03000151 	.word	0x03000151

0000027c <data_init>:
     27c:	440a      	add	r2, r1
     27e:	4291      	cmp	r1, r2
     280:	d205      	bcs.n	28e <data_init+0x12>
     282:	1a40      	subs	r0, r0, r1
     284:	580b      	ldr	r3, [r1, r0]
     286:	f841 3b04 	str.w	r3, [r1], #4
     28a:	428a      	cmp	r2, r1
     28c:	d8fa      	bhi.n	284 <data_init+0x8>
     28e:	4770      	bx	lr

00000290 <bss_init>:
     290:	1842      	adds	r2, r0, r1
     292:	4290      	cmp	r0, r2
     294:	4603      	mov	r3, r0
     296:	d20b      	bcs.n	2b0 <bss_init+0x20>
     298:	3901      	subs	r1, #1
     29a:	f021 0103 	bic.w	r1, r1, #3
     29e:	3104      	adds	r1, #4
     2a0:	3301      	adds	r3, #1
     2a2:	429a      	cmp	r2, r3
     2a4:	bf2c      	ite	cs
     2a6:	460a      	movcs	r2, r1
     2a8:	2204      	movcc	r2, #4
     2aa:	2100      	movs	r1, #0
     2ac:	f029 bace 	b.w	2984c <memset>
     2b0:	4770      	bx	lr

000002b2 <ResetISR2>:
     2b2:	b538      	push	{r3, r4, r5, lr}
     2b4:	4b2f      	ldr	r3, [pc, #188]	; (374 <HEAP_SIZE+0x80>)
     2b6:	b98b      	cbnz	r3, 2dc <ResetISR2+0x2a>
     2b8:	4c2f      	ldr	r4, [pc, #188]	; (378 <HEAP_SIZE+0x84>)
     2ba:	4d30      	ldr	r5, [pc, #192]	; (37c <HEAP_SIZE+0x88>)
     2bc:	42ac      	cmp	r4, r5
     2be:	d34a      	bcc.n	356 <HEAP_SIZE+0x62>
     2c0:	4c2f      	ldr	r4, [pc, #188]	; (380 <HEAP_SIZE+0x8c>)
     2c2:	4d30      	ldr	r5, [pc, #192]	; (384 <HEAP_SIZE+0x90>)
     2c4:	42ac      	cmp	r4, r5
     2c6:	d34d      	bcc.n	364 <HEAP_SIZE+0x70>
     2c8:	4b2f      	ldr	r3, [pc, #188]	; (388 <HEAP_SIZE+0x94>)
     2ca:	4a30      	ldr	r2, [pc, #192]	; (38c <HEAP_SIZE+0x98>)
     2cc:	601a      	str	r2, [r3, #0]
     2ce:	4b30      	ldr	r3, [pc, #192]	; (390 <HEAP_SIZE+0x9c>)
     2d0:	b10b      	cbz	r3, 2d6 <ResetISR2+0x24>
     2d2:	f003 fe87 	bl	3fe4 <SystemInit>
     2d6:	f003 fc93 	bl	3c00 <main>
     2da:	e7fe      	b.n	2da <ResetISR2+0x28>
     2dc:	4b2d      	ldr	r3, [pc, #180]	; (394 <HEAP_SIZE+0xa0>)
     2de:	6f1c      	ldr	r4, [r3, #112]	; 0x70
     2e0:	f8d3 50b0 	ldr.w	r5, [r3, #176]	; 0xb0
     2e4:	4b2c      	ldr	r3, [pc, #176]	; (398 <HEAP_SIZE+0xa4>)
     2e6:	f004 047f 	and.w	r4, r4, #127	; 0x7f
     2ea:	4798      	blx	r3
     2ec:	2c40      	cmp	r4, #64	; 0x40
     2ee:	d1e3      	bne.n	2b8 <ResetISR2+0x6>
     2f0:	4b2a      	ldr	r3, [pc, #168]	; (39c <HEAP_SIZE+0xa8>)
     2f2:	402b      	ands	r3, r5
     2f4:	2b04      	cmp	r3, #4
     2f6:	d1df      	bne.n	2b8 <ResetISR2+0x6>
     2f8:	2802      	cmp	r0, #2
     2fa:	d1dd      	bne.n	2b8 <ResetISR2+0x6>
     2fc:	f04f 4380 	mov.w	r3, #1073741824	; 0x40000000
     300:	f8d3 3808 	ldr.w	r3, [r3, #2056]	; 0x808
     304:	b113      	cbz	r3, 30c <HEAP_SIZE+0x18>
     306:	4928      	ldr	r1, [pc, #160]	; (3a8 <HEAP_SIZE+0xb4>)
     308:	6809      	ldr	r1, [r1, #0]
     30a:	468d      	mov	sp, r1
     30c:	4c24      	ldr	r4, [pc, #144]	; (3a0 <HEAP_SIZE+0xac>)
     30e:	b994      	cbnz	r4, 336 <HEAP_SIZE+0x42>
     310:	4c24      	ldr	r4, [pc, #144]	; (3a4 <HEAP_SIZE+0xb0>)
     312:	b9dc      	cbnz	r4, 34c <HEAP_SIZE+0x58>
     314:	4b1c      	ldr	r3, [pc, #112]	; (388 <HEAP_SIZE+0x94>)
     316:	4a1d      	ldr	r2, [pc, #116]	; (38c <HEAP_SIZE+0x98>)
     318:	601a      	str	r2, [r3, #0]
     31a:	4b1d      	ldr	r3, [pc, #116]	; (390 <HEAP_SIZE+0x9c>)
     31c:	b9c3      	cbnz	r3, 350 <HEAP_SIZE+0x5c>
     31e:	f007 fcdf 	bl	7ce0 <WarmMain>
     322:	e7fe      	b.n	322 <HEAP_SIZE+0x2e>
     324:	e9d4 0100 	ldrd	r0, r1, [r4]
     328:	68a2      	ldr	r2, [r4, #8]
     32a:	340c      	adds	r4, #12
     32c:	f7ff ffa6 	bl	27c <data_init>
     330:	42ac      	cmp	r4, r5
     332:	d3f7      	bcc.n	324 <HEAP_SIZE+0x30>
     334:	e7ec      	b.n	310 <HEAP_SIZE+0x1c>
     336:	4d11      	ldr	r5, [pc, #68]	; (37c <HEAP_SIZE+0x88>)
     338:	e7fa      	b.n	330 <HEAP_SIZE+0x3c>
     33a:	f854 0b08 	ldr.w	r0, [r4], #8
     33e:	f854 1c04 	ldr.w	r1, [r4, #-4]
     342:	f7ff ffa5 	bl	290 <bss_init>
     346:	42ac      	cmp	r4, r5
     348:	d3f7      	bcc.n	33a <HEAP_SIZE+0x46>
     34a:	e7e3      	b.n	314 <HEAP_SIZE+0x20>
     34c:	4d0d      	ldr	r5, [pc, #52]	; (384 <HEAP_SIZE+0x90>)
     34e:	e7fa      	b.n	346 <HEAP_SIZE+0x52>
     350:	f003 fe48 	bl	3fe4 <SystemInit>
     354:	e7e3      	b.n	31e <HEAP_SIZE+0x2a>
     356:	e9d4 0100 	ldrd	r0, r1, [r4]
     35a:	68a2      	ldr	r2, [r4, #8]
     35c:	340c      	adds	r4, #12
     35e:	f7ff ff8d 	bl	27c <data_init>
     362:	e7ab      	b.n	2bc <ResetISR2+0xa>
     364:	f854 0b08 	ldr.w	r0, [r4], #8
     368:	f854 1c04 	ldr.w	r1, [r4, #-4]
     36c:	f7ff ff90 	bl	290 <bss_init>
     370:	e7a8      	b.n	2c4 <ResetISR2+0x12>
     372:	bf00      	nop
     374:	00007ce1 	.word	0x00007ce1
     378:	00000120 	.word	0x00000120
     37c:	00000144 	.word	0x00000144
     380:	000001c0 	.word	0x000001c0
     384:	000001d8 	.word	0x000001d8
     388:	e000ed08 	.word	0xe000ed08
     38c:	00000000 	.word	0x00000000
     390:	00003fe5 	.word	0x00003fe5
     394:	40012000 	.word	0x40012000
     398:	03000e9d 	.word	0x03000e9d
     39c:	00020004 	.word	0x00020004
     3a0:	00000138 	.word	0x00000138
     3a4:	000001d0 	.word	0x000001d0
     3a8:	40000808 	.word	0x40000808

000003ac <System_IRQHandler>:
     3ac:	4b18      	ldr	r3, [pc, #96]	; (410 <BOOT_RESUME_STACK_SIZE+0x10>)
     3ae:	4919      	ldr	r1, [pc, #100]	; (414 <BOOT_RESUME_STACK_SIZE+0x14>)
     3b0:	681a      	ldr	r2, [r3, #0]
     3b2:	6f09      	ldr	r1, [r1, #112]	; 0x70
     3b4:	06c9      	lsls	r1, r1, #27
     3b6:	b510      	push	{r4, lr}
     3b8:	f002 040c 	and.w	r4, r2, #12
     3bc:	d50d      	bpl.n	3da <System_IRQHandler+0x2e>
     3be:	f044 0404 	orr.w	r4, r4, #4
     3c2:	681a      	ldr	r2, [r3, #0]
     3c4:	4812      	ldr	r0, [pc, #72]	; (410 <BOOT_RESUME_STACK_SIZE+0x10>)
     3c6:	f022 0201 	bic.w	r2, r2, #1
     3ca:	601a      	str	r2, [r3, #0]
     3cc:	2104      	movs	r1, #4
     3ce:	f003 ff13 	bl	41f8 <WWDT_ClearStatusFlags>
     3d2:	4811      	ldr	r0, [pc, #68]	; (418 <BOOT_RESUME_STACK_SIZE+0x18>)
     3d4:	f001 fc7a 	bl	1ccc <DbgConsole_Printf>
     3d8:	e001      	b.n	3de <System_IRQHandler+0x32>
     3da:	0752      	lsls	r2, r2, #29
     3dc:	d4f1      	bmi.n	3c2 <System_IRQHandler+0x16>
     3de:	0723      	lsls	r3, r4, #28
     3e0:	d514      	bpl.n	40c <BOOT_RESUME_STACK_SIZE+0xc>
     3e2:	4c0e      	ldr	r4, [pc, #56]	; (41c <BOOT_RESUME_STACK_SIZE+0x1c>)
     3e4:	480a      	ldr	r0, [pc, #40]	; (410 <BOOT_RESUME_STACK_SIZE+0x10>)
     3e6:	2108      	movs	r1, #8
     3e8:	f003 ff06 	bl	41f8 <WWDT_ClearStatusFlags>
     3ec:	7823      	ldrb	r3, [r4, #0]
     3ee:	2b07      	cmp	r3, #7
     3f0:	d80c      	bhi.n	40c <BOOT_RESUME_STACK_SIZE+0xc>
     3f2:	7823      	ldrb	r3, [r4, #0]
     3f4:	4806      	ldr	r0, [pc, #24]	; (410 <BOOT_RESUME_STACK_SIZE+0x10>)
     3f6:	3301      	adds	r3, #1
     3f8:	b2db      	uxtb	r3, r3
     3fa:	7023      	strb	r3, [r4, #0]
     3fc:	f003 fef2 	bl	41e4 <WWDT_Refresh>
     400:	7821      	ldrb	r1, [r4, #0]
     402:	4807      	ldr	r0, [pc, #28]	; (420 <BOOT_RESUME_STACK_SIZE+0x20>)
     404:	e8bd 4010 	ldmia.w	sp!, {r4, lr}
     408:	f001 bc60 	b.w	1ccc <DbgConsole_Printf>
     40c:	bd10      	pop	{r4, pc}
     40e:	bf00      	nop
     410:	4000a000 	.word	0x4000a000
     414:	40012000 	.word	0x40012000
     418:	00029cf0 	.word	0x00029cf0
     41c:	04015665 	.word	0x04015665
     420:	00029d08 	.word	0x00029d08

00000424 <main_task>:
     424:	b570      	push	{r4, r5, r6, lr}
     426:	4b13      	ldr	r3, [pc, #76]	; (474 <main_task+0x50>)
     428:	781a      	ldrb	r2, [r3, #0]
     42a:	b962      	cbnz	r2, 446 <main_task+0x22>
     42c:	2401      	movs	r4, #1
     42e:	701c      	strb	r4, [r3, #0]
     430:	f006 fbb6 	bl	6ba0 <RNG_Init>
     434:	f006 fa68 	bl	6908 <SecLib_Init>
     438:	f006 fc40 	bl	6cbc <MEM_Init>
     43c:	f006 fd12 	bl	6e64 <TMR_Init>
     440:	4620      	mov	r0, r4
     442:	f000 fad7 	bl	9f4 <vAppMain>
     446:	4e0c      	ldr	r6, [pc, #48]	; (478 <main_task+0x54>)
     448:	4d0c      	ldr	r5, [pc, #48]	; (47c <main_task+0x58>)
     44a:	4c0d      	ldr	r4, [pc, #52]	; (480 <main_task+0x5c>)
     44c:	f012 fbfa 	bl	12c44 <zps_taskZPS>
     450:	f00d fff2 	bl	e438 <bdb_taskBDB>
     454:	f003 fa56 	bl	3904 <ZTIMER_vTask>
     458:	f000 fd06 	bl	e68 <APP_taskSwitch>
     45c:	4630      	mov	r0, r6
     45e:	f003 fec1 	bl	41e4 <WWDT_Refresh>
     462:	2300      	movs	r3, #0
     464:	702b      	strb	r3, [r5, #0]
     466:	f007 fa89 	bl	797c <PWR_EnterLowPower>
     46a:	7823      	ldrb	r3, [r4, #0]
     46c:	2b00      	cmp	r3, #0
     46e:	d1ed      	bne.n	44c <main_task+0x28>
     470:	bd70      	pop	{r4, r5, r6, pc}
     472:	bf00      	nop
     474:	04015660 	.word	0x04015660
     478:	4000a000 	.word	0x4000a000
     47c:	04015665 	.word	0x04015665
     480:	0002b346 	.word	0x0002b346

00000484 <APP_vSetUpHardware>:
     484:	b570      	push	{r4, r5, r6, lr}
     486:	b086      	sub	sp, #24
     488:	f001 fca4 	bl	1dd4 <BOARD_InitHardware>
     48c:	2200      	movs	r2, #0
     48e:	4611      	mov	r1, r2
     490:	4b1f      	ldr	r3, [pc, #124]	; (510 <APP_vSetUpHardware+0x8c>)
     492:	4820      	ldr	r0, [pc, #128]	; (514 <APP_vSetUpHardware+0x90>)
     494:	4d20      	ldr	r5, [pc, #128]	; (518 <APP_vSetUpHardware+0x94>)
     496:	f001 fc39 	bl	1d0c <GPIO_PinInit>
     49a:	2203      	movs	r2, #3
     49c:	2100      	movs	r1, #0
     49e:	4b1c      	ldr	r3, [pc, #112]	; (510 <APP_vSetUpHardware+0x8c>)
     4a0:	481c      	ldr	r0, [pc, #112]	; (514 <APP_vSetUpHardware+0x90>)
     4a2:	f001 fc33 	bl	1d0c <GPIO_PinInit>
     4a6:	2016      	movs	r0, #22
     4a8:	f004 f8c6 	bl	4638 <CLOCK_GetFreq>
     4ac:	2401      	movs	r4, #1
     4ae:	0886      	lsrs	r6, r0, #2
     4b0:	602c      	str	r4, [r5, #0]
     4b2:	a801      	add	r0, sp, #4
     4b4:	f003 fe10 	bl	40d8 <WWDT_GetDefaultConfig>
     4b8:	f44f 7300 	mov.w	r3, #512	; 0x200
     4bc:	2016      	movs	r0, #22
     4be:	9304      	str	r3, [sp, #16]
     4c0:	9603      	str	r6, [sp, #12]
     4c2:	9602      	str	r6, [sp, #8]
     4c4:	f88d 4005 	strb.w	r4, [sp, #5]
     4c8:	f004 f8b6 	bl	4638 <CLOCK_GetFreq>
     4cc:	a901      	add	r1, sp, #4
     4ce:	9005      	str	r0, [sp, #20]
     4d0:	4812      	ldr	r0, [pc, #72]	; (51c <APP_vSetUpHardware+0x98>)
     4d2:	f003 fe1f 	bl	4114 <WWDT_Init>
     4d6:	4811      	ldr	r0, [pc, #68]	; (51c <APP_vSetUpHardware+0x98>)
     4d8:	f003 fe84 	bl	41e4 <WWDT_Refresh>
     4dc:	4623      	mov	r3, r4
     4de:	21a0      	movs	r1, #160	; 0xa0
     4e0:	18ea      	adds	r2, r5, r3
     4e2:	3301      	adds	r3, #1
     4e4:	2b38      	cmp	r3, #56	; 0x38
     4e6:	f882 1300 	strb.w	r1, [r2, #768]	; 0x300
     4ea:	d1f9      	bne.n	4e0 <APP_vSetUpHardware+0x5c>
     4ec:	f04f 4480 	mov.w	r4, #1073741824	; 0x40000000
     4f0:	2320      	movs	r3, #32
     4f2:	f885 3300 	strb.w	r3, [r5, #768]	; 0x300
     4f6:	2303      	movs	r3, #3
     4f8:	f8c4 3280 	str.w	r3, [r4, #640]	; 0x280
     4fc:	f003 fd22 	bl	3f44 <SystemCoreClockUpdate>
     500:	f003 fb2c 	bl	3b5c <OSA_TimeInit>
     504:	2310      	movs	r3, #16
     506:	f8c4 3240 	str.w	r3, [r4, #576]	; 0x240
     50a:	b006      	add	sp, #24
     50c:	bd70      	pop	{r4, r5, r6, pc}
     50e:	bf00      	nop
     510:	04015550 	.word	0x04015550
     514:	40080000 	.word	0x40080000
     518:	e000e100 	.word	0xe000e100
     51c:	4000a000 	.word	0x4000a000

00000520 <APP_vInitResources>:
     520:	b510      	push	{r4, lr}
     522:	2107      	movs	r1, #7
     524:	4820      	ldr	r0, [pc, #128]	; (5a8 <APP_vInitResources+0x88>)
     526:	f003 f9db 	bl	38e0 <ZTIMER_eInit>
     52a:	4920      	ldr	r1, [pc, #128]	; (5ac <APP_vInitResources+0x8c>)
     52c:	4820      	ldr	r0, [pc, #128]	; (5b0 <APP_vInitResources+0x90>)
     52e:	2301      	movs	r3, #1
     530:	2200      	movs	r2, #0
     532:	f003 fa2f 	bl	3994 <ZTIMER_eOpen>
     536:	491f      	ldr	r1, [pc, #124]	; (5b4 <APP_vInitResources+0x94>)
     538:	481f      	ldr	r0, [pc, #124]	; (5b8 <APP_vInitResources+0x98>)
     53a:	2301      	movs	r3, #1
     53c:	2200      	movs	r2, #0
     53e:	f003 fa29 	bl	3994 <ZTIMER_eOpen>
     542:	491e      	ldr	r1, [pc, #120]	; (5bc <APP_vInitResources+0x9c>)
     544:	481e      	ldr	r0, [pc, #120]	; (5c0 <APP_vInitResources+0xa0>)
     546:	2301      	movs	r3, #1
     548:	2200      	movs	r2, #0
     54a:	f003 fa23 	bl	3994 <ZTIMER_eOpen>
     54e:	491d      	ldr	r1, [pc, #116]	; (5c4 <APP_vInitResources+0xa4>)
     550:	481d      	ldr	r0, [pc, #116]	; (5c8 <APP_vInitResources+0xa8>)
     552:	2301      	movs	r3, #1
     554:	2200      	movs	r2, #0
     556:	f003 fa1d 	bl	3994 <ZTIMER_eOpen>
     55a:	481c      	ldr	r0, [pc, #112]	; (5cc <APP_vInitResources+0xac>)
     55c:	2300      	movs	r3, #0
     55e:	2240      	movs	r2, #64	; 0x40
     560:	2103      	movs	r1, #3
     562:	f003 f96f 	bl	3844 <ZQ_vQueueCreate>
     566:	481a      	ldr	r0, [pc, #104]	; (5d0 <APP_vInitResources+0xb0>)
     568:	2300      	movs	r3, #0
     56a:	220c      	movs	r2, #12
     56c:	2104      	movs	r1, #4
     56e:	f003 f969 	bl	3844 <ZQ_vQueueCreate>
     572:	4818      	ldr	r0, [pc, #96]	; (5d4 <APP_vInitResources+0xb4>)
     574:	2300      	movs	r3, #0
     576:	222c      	movs	r2, #44	; 0x2c
     578:	2104      	movs	r1, #4
     57a:	f003 f963 	bl	3844 <ZQ_vQueueCreate>
     57e:	4816      	ldr	r0, [pc, #88]	; (5d8 <APP_vInitResources+0xb8>)
     580:	2300      	movs	r3, #0
     582:	222c      	movs	r2, #44	; 0x2c
     584:	2102      	movs	r1, #2
     586:	f003 f95d 	bl	3844 <ZQ_vQueueCreate>
     58a:	4814      	ldr	r0, [pc, #80]	; (5dc <APP_vInitResources+0xbc>)
     58c:	2300      	movs	r3, #0
     58e:	2202      	movs	r2, #2
     590:	2104      	movs	r1, #4
     592:	f003 f957 	bl	3844 <ZQ_vQueueCreate>
     596:	e8bd 4010 	ldmia.w	sp!, {r4, lr}
     59a:	4811      	ldr	r0, [pc, #68]	; (5e0 <APP_vInitResources+0xc0>)
     59c:	2300      	movs	r3, #0
     59e:	220c      	movs	r2, #12
     5a0:	2109      	movs	r1, #9
     5a2:	f003 b94f 	b.w	3844 <ZQ_vQueueCreate>
     5a6:	bf00      	nop
     5a8:	0400151c 	.word	0x0400151c
     5ac:	00000fe9 	.word	0x00000fe9
     5b0:	04015663 	.word	0x04015663
     5b4:	00001839 	.word	0x00001839
     5b8:	04015661 	.word	0x04015661
     5bc:	000016f9 	.word	0x000016f9
     5c0:	04015664 	.word	0x04015664
     5c4:	00002949 	.word	0x00002949
     5c8:	04015662 	.word	0x04015662
     5cc:	04015650 	.word	0x04015650
     5d0:	04015640 	.word	0x04015640
     5d4:	04002e94 	.word	0x04002e94
     5d8:	04002e84 	.word	0x04002e84
     5dc:	04002e74 	.word	0x04002e74
     5e0:	04002e64 	.word	0x04002e64

000005e4 <APP_vInitLeds>:
     5e4:	b513      	push	{r0, r1, r4, lr}
     5e6:	4c12      	ldr	r4, [pc, #72]	; (630 <APP_vInitLeds+0x4c>)
     5e8:	2301      	movs	r3, #1
     5ea:	f8ad 3004 	strh.w	r3, [sp, #4]
     5ee:	4620      	mov	r0, r4
     5f0:	ab01      	add	r3, sp, #4
     5f2:	2210      	movs	r2, #16
     5f4:	2100      	movs	r1, #0
     5f6:	f001 fb89 	bl	1d0c <GPIO_PinInit>
     5fa:	ab01      	add	r3, sp, #4
     5fc:	4620      	mov	r0, r4
     5fe:	2206      	movs	r2, #6
     600:	2100      	movs	r1, #0
     602:	f001 fb83 	bl	1d0c <GPIO_PinInit>
     606:	ab01      	add	r3, sp, #4
     608:	4620      	mov	r0, r4
     60a:	2203      	movs	r2, #3
     60c:	2100      	movs	r1, #0
     60e:	f001 fb7d 	bl	1d0c <GPIO_PinInit>
     612:	2200      	movs	r2, #0
     614:	ab01      	add	r3, sp, #4
     616:	4611      	mov	r1, r2
     618:	4620      	mov	r0, r4
     61a:	f001 fb77 	bl	1d0c <GPIO_PinInit>
     61e:	ab01      	add	r3, sp, #4
     620:	2203      	movs	r2, #3
     622:	2100      	movs	r1, #0
     624:	4620      	mov	r0, r4
     626:	f001 fb71 	bl	1d0c <GPIO_PinInit>
     62a:	b002      	add	sp, #8
     62c:	bd10      	pop	{r4, pc}
     62e:	bf00      	nop
     630:	40080000 	.word	0x40080000

00000634 <APP_vSetLED>:
     634:	2804      	cmp	r0, #4
     636:	d807      	bhi.n	648 <APP_vSetLED+0x14>
     638:	e8df f000 	tbb	[pc, r0]
     63c:	07030c0e 	.word	0x07030c0e
     640:	07          	.byte	0x07
     641:	00          	.byte	0x00
     642:	2303      	movs	r3, #3
     644:	4a05      	ldr	r2, [pc, #20]	; (65c <APP_vSetLED+0x28>)
     646:	54d1      	strb	r1, [r2, r3]
     648:	4770      	bx	lr
     64a:	fab1 f181 	clz	r1, r1
     64e:	0949      	lsrs	r1, r1, #5
     650:	2300      	movs	r3, #0
     652:	e7f7      	b.n	644 <APP_vSetLED+0x10>
     654:	2306      	movs	r3, #6
     656:	e7f5      	b.n	644 <APP_vSetLED+0x10>
     658:	2310      	movs	r3, #16
     65a:	e7f3      	b.n	644 <APP_vSetLED+0x10>
     65c:	40080000 	.word	0x40080000

00000660 <APP_vRadioTempUpdate>:
     660:	b51f      	push	{r0, r1, r2, r3, r4, lr}
     662:	4604      	mov	r4, r0
     664:	f003 fa92 	bl	3b8c <OSA_TimeGetMsec>
     668:	4622      	mov	r2, r4
     66a:	4601      	mov	r1, r0
     66c:	481b      	ldr	r0, [pc, #108]	; (6dc <APP_vRadioTempUpdate+0x7c>)
     66e:	f001 fb2d 	bl	1ccc <DbgConsole_Printf>
     672:	bb24      	cbnz	r4, 6be <APP_vRadioTempUpdate+0x5e>
     674:	f003 fa8a 	bl	3b8c <OSA_TimeGetMsec>
     678:	4601      	mov	r1, r0
     67a:	4819      	ldr	r0, [pc, #100]	; (6e0 <APP_vRadioTempUpdate+0x80>)
     67c:	f001 fb26 	bl	1ccc <DbgConsole_Printf>
     680:	ab03      	add	r3, sp, #12
     682:	9300      	str	r3, [sp, #0]
     684:	2107      	movs	r1, #7
     686:	4817      	ldr	r0, [pc, #92]	; (6e4 <APP_vRadioTempUpdate+0x84>)
     688:	2308      	movs	r3, #8
     68a:	f44f 7296 	mov.w	r2, #300	; 0x12c
     68e:	f001 fd71 	bl	2174 <get_temperature>
     692:	4604      	mov	r4, r0
     694:	4601      	mov	r1, r0
     696:	4814      	ldr	r0, [pc, #80]	; (6e8 <APP_vRadioTempUpdate+0x88>)
     698:	f001 fb18 	bl	1ccc <DbgConsole_Printf>
     69c:	b1e4      	cbz	r4, 6d8 <APP_vRadioTempUpdate+0x78>
     69e:	9903      	ldr	r1, [sp, #12]
     6a0:	4812      	ldr	r0, [pc, #72]	; (6ec <APP_vRadioTempUpdate+0x8c>)
     6a2:	2900      	cmp	r1, #0
     6a4:	460c      	mov	r4, r1
     6a6:	bfb8      	it	lt
     6a8:	f101 043f 	addlt.w	r4, r1, #63	; 0x3f
     6ac:	f344 148f 	sbfx	r4, r4, #6, #16
     6b0:	4622      	mov	r2, r4
     6b2:	f001 fb0b 	bl	1ccc <DbgConsole_Printf>
     6b6:	4620      	mov	r0, r4
     6b8:	f026 fc3a 	bl	26f30 <vRadio_Temp_Update>
     6bc:	e00c      	b.n	6d8 <APP_vRadioTempUpdate+0x78>
     6be:	4809      	ldr	r0, [pc, #36]	; (6e4 <APP_vRadioTempUpdate+0x84>)
     6c0:	f001 fd16 	bl	20f0 <load_calibration_param_from_flash>
     6c4:	4604      	mov	r4, r0
     6c6:	f003 fa61 	bl	3b8c <OSA_TimeGetMsec>
     6ca:	4622      	mov	r2, r4
     6cc:	4601      	mov	r1, r0
     6ce:	4808      	ldr	r0, [pc, #32]	; (6f0 <APP_vRadioTempUpdate+0x90>)
     6d0:	f001 fafc 	bl	1ccc <DbgConsole_Printf>
     6d4:	2c00      	cmp	r4, #0
     6d6:	d1cd      	bne.n	674 <APP_vRadioTempUpdate+0x14>
     6d8:	b004      	add	sp, #16
     6da:	bd10      	pop	{r4, pc}
     6dc:	00029d23 	.word	0x00029d23
     6e0:	00029d42 	.word	0x00029d42
     6e4:	40089000 	.word	0x40089000
     6e8:	0002b0be 	.word	0x0002b0be
     6ec:	00029d8c 	.word	0x00029d8c
     6f0:	00029d5d 	.word	0x00029d5d

000006f4 <bRadioCB_WriteNVM>:
     6f4:	460a      	mov	r2, r1
     6f6:	b508      	push	{r3, lr}
     6f8:	4601      	mov	r1, r0
     6fa:	f44f 407f 	mov.w	r0, #65280	; 0xff00
     6fe:	f011 fa3b 	bl	11b78 <PDM_eSaveRecordData>
     702:	fab0 f080 	clz	r0, r0
     706:	0940      	lsrs	r0, r0, #5
     708:	bd08      	pop	{r3, pc}

0000070a <u16RadioCB_ReadNVM>:
     70a:	b507      	push	{r0, r1, r2, lr}
     70c:	460a      	mov	r2, r1
     70e:	f10d 0306 	add.w	r3, sp, #6
     712:	4601      	mov	r1, r0
     714:	f44f 407f 	mov.w	r0, #65280	; 0xff00
     718:	f00f fd20 	bl	1015c <PDM_eReadDataFromRecord>
     71c:	b920      	cbnz	r0, 728 <u16RadioCB_ReadNVM+0x1e>
     71e:	f8bd 0006 	ldrh.w	r0, [sp, #6]
     722:	b003      	add	sp, #12
     724:	f85d fb04 	ldr.w	pc, [sp], #4
     728:	2000      	movs	r0, #0
     72a:	e7fa      	b.n	722 <u16RadioCB_ReadNVM+0x18>

0000072c <ZPS_u8GrabMutexLock>:
     72c:	b538      	push	{r3, r4, r5, lr}
     72e:	460d      	mov	r5, r1
     730:	4604      	mov	r4, r0
     732:	b128      	cbz	r0, 740 <ZPS_u8GrabMutexLock+0x14>
     734:	4780      	blx	r0
     736:	7803      	ldrb	r3, [r0, #0]
     738:	b113      	cbz	r3, 740 <ZPS_u8GrabMutexLock+0x14>
     73a:	4b07      	ldr	r3, [pc, #28]	; (758 <ZPS_u8GrabMutexLock+0x2c>)
     73c:	2201      	movs	r2, #1
     73e:	601a      	str	r2, [r3, #0]
     740:	4628      	mov	r0, r5
     742:	f003 fa33 	bl	3bac <OSA_InterruptEnableRestricted>
     746:	b114      	cbz	r4, 74e <ZPS_u8GrabMutexLock+0x22>
     748:	47a0      	blx	r4
     74a:	2301      	movs	r3, #1
     74c:	7003      	strb	r3, [r0, #0]
     74e:	4628      	mov	r0, r5
     750:	f003 fa39 	bl	3bc6 <OSA_InterruptEnableRestore>
     754:	2000      	movs	r0, #0
     756:	bd38      	pop	{r3, r4, r5, pc}
     758:	badadd04 	.word	0xbadadd04

0000075c <ZPS_u8ReleaseMutexLock>:
     75c:	b538      	push	{r3, r4, r5, lr}
     75e:	4605      	mov	r5, r0
     760:	4608      	mov	r0, r1
     762:	460c      	mov	r4, r1
     764:	f003 fa22 	bl	3bac <OSA_InterruptEnableRestricted>
     768:	b115      	cbz	r5, 770 <ZPS_u8ReleaseMutexLock+0x14>
     76a:	47a8      	blx	r5
     76c:	2300      	movs	r3, #0
     76e:	7003      	strb	r3, [r0, #0]
     770:	4620      	mov	r0, r4
     772:	f003 fa28 	bl	3bc6 <OSA_InterruptEnableRestore>
     776:	2000      	movs	r0, #0
     778:	bd38      	pop	{r3, r4, r5, pc}
     77a:	Address 0x0000077a is out of bounds.


0000077c <ZPS_eEnterCriticalSection>:
     77c:	b538      	push	{r3, r4, r5, lr}
     77e:	460d      	mov	r5, r1
     780:	4604      	mov	r4, r0
     782:	b128      	cbz	r0, 790 <ZPS_eEnterCriticalSection+0x14>
     784:	4780      	blx	r0
     786:	7803      	ldrb	r3, [r0, #0]
     788:	b113      	cbz	r3, 790 <ZPS_eEnterCriticalSection+0x14>
     78a:	4b06      	ldr	r3, [pc, #24]	; (7a4 <ZPS_eEnterCriticalSection+0x28>)
     78c:	2201      	movs	r2, #1
     78e:	601a      	str	r2, [r3, #0]
     790:	4628      	mov	r0, r5
     792:	f003 fa0b 	bl	3bac <OSA_InterruptEnableRestricted>
     796:	b114      	cbz	r4, 79e <ZPS_eEnterCriticalSection+0x22>
     798:	47a0      	blx	r4
     79a:	2301      	movs	r3, #1
     79c:	7003      	strb	r3, [r0, #0]
     79e:	2000      	movs	r0, #0
     7a0:	bd38      	pop	{r3, r4, r5, pc}
     7a2:	bf00      	nop
     7a4:	badadd08 	.word	0xbadadd08

000007a8 <ZPS_eExitCriticalSection>:
     7a8:	b510      	push	{r4, lr}
     7aa:	460c      	mov	r4, r1
     7ac:	b110      	cbz	r0, 7b4 <ZPS_eExitCriticalSection+0xc>
     7ae:	4780      	blx	r0
     7b0:	2300      	movs	r3, #0
     7b2:	7003      	strb	r3, [r0, #0]
     7b4:	4620      	mov	r0, r4
     7b6:	f003 fa06 	bl	3bc6 <OSA_InterruptEnableRestore>
     7ba:	2000      	movs	r0, #0
     7bc:	bd10      	pop	{r4, pc}
     7be:	Address 0x000007be is out of bounds.


000007c0 <PDUM_vInit>:
     7c0:	b510      	push	{r4, lr}
     7c2:	4c07      	ldr	r4, [pc, #28]	; (7e0 <PDUM_vInit+0x20>)
     7c4:	4807      	ldr	r0, [pc, #28]	; (7e4 <PDUM_vInit+0x24>)
     7c6:	2300      	movs	r3, #0
     7c8:	2109      	movs	r1, #9
     7ca:	80a3      	strh	r3, [r4, #4]
     7cc:	8223      	strh	r3, [r4, #16]
     7ce:	f00f f873 	bl	f8b8 <pdum_vNPduInit>
     7d2:	4620      	mov	r0, r4
     7d4:	2102      	movs	r1, #2
     7d6:	e8bd 4010 	ldmia.w	sp!, {r4, lr}
     7da:	f00f b97b 	b.w	fad4 <pdum_vAPduInit>
     7de:	bf00      	nop
     7e0:	04000a40 	.word	0x04000a40
     7e4:	04002ea4 	.word	0x04002ea4

000007e8 <zps_vGetZpsMutex>:
     7e8:	4800      	ldr	r0, [pc, #0]	; (7ec <zps_vGetZpsMutex+0x4>)
     7ea:	4770      	bx	lr
     7ec:	04001f68 	.word	0x04001f68

000007f0 <vZdoServersInit>:
     7f0:	b510      	push	{r4, lr}
     7f2:	4c24      	ldr	r4, [pc, #144]	; (884 <vZdoServersInit+0x94>)
     7f4:	4824      	ldr	r0, [pc, #144]	; (888 <vZdoServersInit+0x98>)
     7f6:	4621      	mov	r1, r4
     7f8:	f017 fb1c 	bl	17e34 <zps_vAplZdoDefaultServerInit>
     7fc:	4621      	mov	r1, r4
     7fe:	4823      	ldr	r0, [pc, #140]	; (88c <vZdoServersInit+0x9c>)
     800:	f01a f810 	bl	1a824 <zps_vAplZdoZdoClientInit>
     804:	4822      	ldr	r0, [pc, #136]	; (890 <vZdoServersInit+0xa0>)
     806:	f018 fb3f 	bl	18e88 <zps_vAplZdoDeviceAnnceServerInit>
     80a:	4621      	mov	r1, r4
     80c:	4821      	ldr	r0, [pc, #132]	; (894 <vZdoServersInit+0xa4>)
     80e:	f018 facd 	bl	18dac <zps_vAplZdoActiveEpServerInit>
     812:	4621      	mov	r1, r4
     814:	4820      	ldr	r0, [pc, #128]	; (898 <vZdoServersInit+0xa8>)
     816:	f017 fd78 	bl	1830a <zps_vAplZdoNwkAddrServerInit>
     81a:	4621      	mov	r1, r4
     81c:	481f      	ldr	r0, [pc, #124]	; (89c <vZdoServersInit+0xac>)
     81e:	f017 fe4b 	bl	184b8 <zps_vAplZdoIeeeAddrServerInit>
     822:	4621      	mov	r1, r4
     824:	481e      	ldr	r0, [pc, #120]	; (8a0 <vZdoServersInit+0xb0>)
     826:	f018 fc09 	bl	1903c <zps_vAplZdoSystemServerDiscoveryServerInit>
     82a:	4621      	mov	r1, r4
     82c:	481d      	ldr	r0, [pc, #116]	; (8a4 <vZdoServersInit+0xb4>)
     82e:	f018 f881 	bl	18934 <zps_vAplZdoNodeDescServerInit>
     832:	4621      	mov	r1, r4
     834:	481c      	ldr	r0, [pc, #112]	; (8a8 <vZdoServersInit+0xb8>)
     836:	f018 fa35 	bl	18ca4 <zps_vAplZdoPowerDescServerInit>
     83a:	4621      	mov	r1, r4
     83c:	481b      	ldr	r0, [pc, #108]	; (8ac <vZdoServersInit+0xbc>)
     83e:	f017 ff07 	bl	18650 <zps_vAplZdoMatchDescServerInit>
     842:	4621      	mov	r1, r4
     844:	481a      	ldr	r0, [pc, #104]	; (8b0 <vZdoServersInit+0xc0>)
     846:	f018 f91f 	bl	18a88 <zps_vAplZdoSimpleDescServerInit>
     84a:	4621      	mov	r1, r4
     84c:	4819      	ldr	r0, [pc, #100]	; (8b4 <vZdoServersInit+0xc4>)
     84e:	f018 fc3b 	bl	190c8 <zps_vAplZdoMgmtLqiServerInit>
     852:	4621      	mov	r1, r4
     854:	4818      	ldr	r0, [pc, #96]	; (8b8 <vZdoServersInit+0xc8>)
     856:	f018 fd55 	bl	19304 <zps_vAplZdoMgmtLeaveServerInit>
     85a:	4a18      	ldr	r2, [pc, #96]	; (8bc <vZdoServersInit+0xcc>)
     85c:	4818      	ldr	r0, [pc, #96]	; (8c0 <vZdoServersInit+0xd0>)
     85e:	4621      	mov	r1, r4
     860:	f018 fea2 	bl	195a8 <zps_vAplZdoMgmtNWKUpdateServerInit>
     864:	4621      	mov	r1, r4
     866:	4817      	ldr	r0, [pc, #92]	; (8c4 <vZdoServersInit+0xd4>)
     868:	f019 f97d 	bl	19b66 <zps_vAplZdoBindUnbindServerInit>
     86c:	4816      	ldr	r0, [pc, #88]	; (8c8 <vZdoServersInit+0xd8>)
     86e:	4b17      	ldr	r3, [pc, #92]	; (8cc <vZdoServersInit+0xdc>)
     870:	2101      	movs	r1, #1
     872:	220a      	movs	r2, #10
     874:	f019 fc0e 	bl	1a094 <zps_vAplZdoBindRequestServerInit>
     878:	4621      	mov	r1, r4
     87a:	4815      	ldr	r0, [pc, #84]	; (8d0 <vZdoServersInit+0xe0>)
     87c:	e8bd 4010 	ldmia.w	sp!, {r4, lr}
     880:	f01a b85a 	b.w	1a938 <zps_vAplZdoMgmtBindServerInit>
     884:	04000a40 	.word	0x04000a40
     888:	040025e4 	.word	0x040025e4
     88c:	04002e5c 	.word	0x04002e5c
     890:	040025e8 	.word	0x040025e8
     894:	04002504 	.word	0x04002504
     898:	0400267c 	.word	0x0400267c
     89c:	040025e8 	.word	0x040025e8
     8a0:	04002e58 	.word	0x04002e58
     8a4:	04002678 	.word	0x04002678
     8a8:	04002e50 	.word	0x04002e50
     8ac:	040025ec 	.word	0x040025ec
     8b0:	04002e54 	.word	0x04002e54
     8b4:	0400261c 	.word	0x0400261c
     8b8:	040025f4 	.word	0x040025f4
     8bc:	04000750 	.word	0x04000750
     8c0:	04002620 	.word	0x04002620
     8c4:	040025b4 	.word	0x040025b4
     8c8:	04002560 	.word	0x04002560
     8cc:	04002540 	.word	0x04002540
     8d0:	040025f0 	.word	0x040025f0

000008d4 <ZPS_pvAplZdoGetAplHandle>:
     8d4:	4b01      	ldr	r3, [pc, #4]	; (8dc <ZPS_pvAplZdoGetAplHandle+0x8>)
     8d6:	6818      	ldr	r0, [r3, #0]
     8d8:	4770      	bx	lr
     8da:	bf00      	nop
     8dc:	040009b8 	.word	0x040009b8

000008e0 <ZPS_u32ApsFcSaveCountBitShift>:
     8e0:	200a      	movs	r0, #10
     8e2:	4770      	bx	lr

000008e4 <ZPS_psAplDefaultDistributedAPSLinkKey>:
     8e4:	4800      	ldr	r0, [pc, #0]	; (8e8 <ZPS_psAplDefaultDistributedAPSLinkKey+0x4>)
     8e6:	4770      	bx	lr
     8e8:	0400068c 	.word	0x0400068c

000008ec <ZPS_psAplDefaultGlobalAPSLinkKey>:
     8ec:	4800      	ldr	r0, [pc, #0]	; (8f0 <ZPS_psAplDefaultGlobalAPSLinkKey+0x4>)
     8ee:	4770      	bx	lr
     8f0:	04000690 	.word	0x04000690

000008f4 <ZPS_ps_groupPdmTable>:
     8f4:	4800      	ldr	r0, [pc, #0]	; (8f8 <ZPS_ps_groupPdmTable+0x4>)
     8f6:	4770      	bx	lr
     8f8:	040024fc 	.word	0x040024fc

000008fc <ZPS_pu8MaxZpsConfigEp>:
     8fc:	4800      	ldr	r0, [pc, #0]	; (900 <ZPS_pu8MaxZpsConfigEp+0x4>)
     8fe:	4770      	bx	lr
     900:	040009b4 	.word	0x040009b4

00000904 <ZPS_pau8EpMapPresent>:
     904:	4800      	ldr	r0, [pc, #0]	; (908 <ZPS_pau8EpMapPresent+0x4>)
     906:	4770      	bx	lr
     908:	0400064d 	.word	0x0400064d

0000090c <ZPS_u8ConfigStackProfileId>:
     90c:	4b01      	ldr	r3, [pc, #4]	; (914 <ZPS_u8ConfigStackProfileId+0x8>)
     90e:	7818      	ldrb	r0, [r3, #0]
     910:	4770      	bx	lr
     912:	bf00      	nop
     914:	040009b5 	.word	0x040009b5

00000918 <ZPS_u32NwkFcSaveCountBitShift>:
     918:	200a      	movs	r0, #10
     91a:	4770      	bx	lr

0000091c <ZPS_psMacIFTGetTable>:
     91c:	4800      	ldr	r0, [pc, #0]	; (920 <ZPS_psMacIFTGetTable+0x4>)
     91e:	4770      	bx	lr
     920:	04000650 	.word	0x04000650

00000924 <ZPS_psMacIFTGetInterface>:
     924:	4b04      	ldr	r3, [pc, #16]	; (938 <ZPS_psMacIFTGetInterface+0x14>)
     926:	f893 2028 	ldrb.w	r2, [r3, #40]	; 0x28
     92a:	4282      	cmp	r2, r0
     92c:	bf86      	itte	hi
     92e:	685b      	ldrhi	r3, [r3, #4]
     930:	eb03 0080 	addhi.w	r0, r3, r0, lsl #2
     934:	2000      	movls	r0, #0
     936:	4770      	bx	lr
     938:	04000650 	.word	0x04000650

0000093c <ZPS_vGetGpContext>:
     93c:	4b01      	ldr	r3, [pc, #4]	; (944 <ZPS_vGetGpContext+0x8>)
     93e:	6818      	ldr	r0, [r3, #0]
     940:	4770      	bx	lr
     942:	bf00      	nop
     944:	04001f6c 	.word	0x04001f6c

00000948 <ZPS_vGetOptionalFeatures>:
     948:	4770      	bx	lr
     94a:	Address 0x0000094a is out of bounds.


0000094c <vfExtendedStatusCallBack>:
     94c:	4601      	mov	r1, r0
     94e:	4801      	ldr	r0, [pc, #4]	; (954 <vfExtendedStatusCallBack+0x8>)
     950:	f001 b9bc 	b.w	1ccc <DbgConsole_Printf>
     954:	0002a18c 	.word	0x0002a18c

00000958 <PreSleep>:
     958:	b510      	push	{r4, lr}
     95a:	481f      	ldr	r0, [pc, #124]	; (9d8 <PreSleep+0x80>)
     95c:	4c1f      	ldr	r4, [pc, #124]	; (9dc <PreSleep+0x84>)
     95e:	f001 f9b5 	bl	1ccc <DbgConsole_Printf>
     962:	f000 f9ff 	bl	d64 <bGoingDeepSleep>
     966:	4601      	mov	r1, r0
     968:	481d      	ldr	r0, [pc, #116]	; (9e0 <PreSleep+0x88>)
     96a:	f001 f9af 	bl	1ccc <DbgConsole_Printf>
     96e:	f000 f9f9 	bl	d64 <bGoingDeepSleep>
     972:	b328      	cbz	r0, 9c0 <PreSleep+0x68>
     974:	2300      	movs	r3, #0
     976:	7023      	strb	r3, [r4, #0]
     978:	f000 f9f4 	bl	d64 <bGoingDeepSleep>
     97c:	2100      	movs	r1, #0
     97e:	4604      	mov	r4, r0
     980:	4608      	mov	r0, r1
     982:	f7ff fe57 	bl	634 <APP_vSetLED>
     986:	2100      	movs	r1, #0
     988:	2001      	movs	r0, #1
     98a:	f7ff fe53 	bl	634 <APP_vSetLED>
     98e:	2100      	movs	r1, #0
     990:	2002      	movs	r0, #2
     992:	f7ff fe4f 	bl	634 <APP_vSetLED>
     996:	4a13      	ldr	r2, [pc, #76]	; (9e4 <PreSleep+0x8c>)
     998:	4913      	ldr	r1, [pc, #76]	; (9e8 <PreSleep+0x90>)
     99a:	4814      	ldr	r0, [pc, #80]	; (9ec <PreSleep+0x94>)
     99c:	f001 f996 	bl	1ccc <DbgConsole_Printf>
     9a0:	b1c4      	cbz	r4, 9d4 <PreSleep+0x7c>
     9a2:	4810      	ldr	r0, [pc, #64]	; (9e4 <PreSleep+0x8c>)
     9a4:	f007 f81c 	bl	79e0 <PWR_vWakeUpConfig>
     9a8:	f000 f9dc 	bl	d64 <bGoingDeepSleep>
     9ac:	4601      	mov	r1, r0
     9ae:	4810      	ldr	r0, [pc, #64]	; (9f0 <PreSleep+0x98>)
     9b0:	f001 f98c 	bl	1ccc <DbgConsole_Printf>
     9b4:	f001 f96e 	bl	1c94 <DbgConsole_Deinit>
     9b8:	e8bd 4010 	ldmia.w	sp!, {r4, lr}
     9bc:	f001 ba3e 	b.w	1e3c <BOARD_SetPinsForPowerMode>
     9c0:	2302      	movs	r3, #2
     9c2:	7023      	strb	r3, [r4, #0]
     9c4:	f002 fb52 	bl	306c <vSetOTAPersistedDatForMinRetention>
     9c8:	7823      	ldrb	r3, [r4, #0]
     9ca:	2b02      	cmp	r3, #2
     9cc:	d1d4      	bne.n	978 <PreSleep+0x20>
     9ce:	f023 fc79 	bl	242c4 <vAppApiSaveMacSettings>
     9d2:	e7d1      	b.n	978 <PreSleep+0x20>
     9d4:	4804      	ldr	r0, [pc, #16]	; (9e8 <PreSleep+0x90>)
     9d6:	e7e5      	b.n	9a4 <PreSleep+0x4c>
     9d8:	0002a1aa 	.word	0x0002a1aa
     9dc:	04015552 	.word	0x04015552
     9e0:	0002a1b6 	.word	0x0002a1b6
     9e4:	00488080 	.word	0x00488080
     9e8:	00488082 	.word	0x00488082
     9ec:	0002a1d7 	.word	0x0002a1d7
     9f0:	0002a1ff 	.word	0x0002a1ff

000009f4 <vAppMain>:
     9f4:	b530      	push	{r4, r5, lr}
     9f6:	b087      	sub	sp, #28
     9f8:	4604      	mov	r4, r0
     9fa:	f005 f8f5 	bl	5be8 <vDebugExceptionHandlersInitialise>
     9fe:	a801      	add	r0, sp, #4
     a00:	f003 fb6a 	bl	40d8 <WWDT_GetDefaultConfig>
     a04:	4b3b      	ldr	r3, [pc, #236]	; (af4 <vAppMain+0x100>)
     a06:	6f1b      	ldr	r3, [r3, #112]	; 0x70
     a08:	06db      	lsls	r3, r3, #27
     a0a:	d527      	bpl.n	a5c <vAppMain+0x68>
     a0c:	2016      	movs	r0, #22
     a0e:	f003 ffe1 	bl	49d4 <CLOCK_EnableClock>
     a12:	2016      	movs	r0, #22
     a14:	f004 f8a4 	bl	4b60 <RESET_PeripheralReset>
     a18:	4837      	ldr	r0, [pc, #220]	; (af8 <vAppMain+0x104>)
     a1a:	4d38      	ldr	r5, [pc, #224]	; (afc <vAppMain+0x108>)
     a1c:	f003 fbda 	bl	41d4 <WWDT_Deinit>
     a20:	4837      	ldr	r0, [pc, #220]	; (b00 <vAppMain+0x10c>)
     a22:	f001 f953 	bl	1ccc <DbgConsole_Printf>
     a26:	f004 fceb 	bl	5400 <POWER_ClearResetCause>
     a2a:	4a36      	ldr	r2, [pc, #216]	; (b04 <vAppMain+0x110>)
     a2c:	2300      	movs	r3, #0
     a2e:	4610      	mov	r0, r2
     a30:	2401      	movs	r4, #1
     a32:	9300      	str	r3, [sp, #0]
     a34:	9900      	ldr	r1, [sp, #0]
     a36:	42a9      	cmp	r1, r5
     a38:	d908      	bls.n	a4c <vAppMain+0x58>
     a3a:	7013      	strb	r3, [r2, #0]
     a3c:	70d3      	strb	r3, [r2, #3]
     a3e:	9300      	str	r3, [sp, #0]
     a40:	9900      	ldr	r1, [sp, #0]
     a42:	42a9      	cmp	r1, r5
     a44:	d906      	bls.n	a54 <vAppMain+0x60>
     a46:	7004      	strb	r4, [r0, #0]
     a48:	70c4      	strb	r4, [r0, #3]
     a4a:	e7f2      	b.n	a32 <vAppMain+0x3e>
     a4c:	9900      	ldr	r1, [sp, #0]
     a4e:	3101      	adds	r1, #1
     a50:	9100      	str	r1, [sp, #0]
     a52:	e7ef      	b.n	a34 <vAppMain+0x40>
     a54:	9900      	ldr	r1, [sp, #0]
     a56:	3101      	adds	r1, #1
     a58:	9100      	str	r1, [sp, #0]
     a5a:	e7f1      	b.n	a40 <vAppMain+0x4c>
     a5c:	b144      	cbz	r4, a70 <vAppMain+0x7c>
     a5e:	482a      	ldr	r0, [pc, #168]	; (b08 <vAppMain+0x114>)
     a60:	f001 f934 	bl	1ccc <DbgConsole_Printf>
     a64:	4829      	ldr	r0, [pc, #164]	; (b0c <vAppMain+0x118>)
     a66:	f001 f931 	bl	1ccc <DbgConsole_Printf>
     a6a:	4827      	ldr	r0, [pc, #156]	; (b08 <vAppMain+0x114>)
     a6c:	f001 f92e 	bl	1ccc <DbgConsole_Printf>
     a70:	f7ff fd56 	bl	520 <APP_vInitResources>
     a74:	b184      	cbz	r4, a98 <vAppMain+0xa4>
     a76:	4b26      	ldr	r3, [pc, #152]	; (b10 <vAppMain+0x11c>)
     a78:	2202      	movs	r2, #2
     a7a:	2001      	movs	r0, #1
     a7c:	701a      	strb	r2, [r3, #0]
     a7e:	f006 fe85 	bl	778c <PWR_ChangeDeepSleepMode>
     a82:	f006 fea5 	bl	77d0 <PWR_Init>
     a86:	2001      	movs	r0, #1
     a88:	f006 ffde 	bl	7a48 <PWR_vForceRadioRetention>
     a8c:	2200      	movs	r2, #0
     a8e:	213f      	movs	r1, #63	; 0x3f
     a90:	f44f 6096 	mov.w	r0, #1200	; 0x4b0
     a94:	f00f fa4a 	bl	ff2c <PDM_eInitialise>
     a98:	f7ff fe92 	bl	7c0 <PDUM_vInit>
     a9c:	481d      	ldr	r0, [pc, #116]	; (b14 <vAppMain+0x120>)
     a9e:	f01c f8cf 	bl	1cc40 <ZPS_vExtendedStatusSetCallback>
     aa2:	4620      	mov	r0, r4
     aa4:	f000 fce0 	bl	1468 <APP_vInitialiseNode>
     aa8:	b1b4      	cbz	r4, ad8 <vAppMain+0xe4>
     aaa:	481b      	ldr	r0, [pc, #108]	; (b18 <vAppMain+0x124>)
     aac:	f001 f90e 	bl	1ccc <DbgConsole_Printf>
     ab0:	f001 fce0 	bl	2474 <APP_bNtagPdmLoad>
     ab4:	b920      	cbnz	r0, ac0 <vAppMain+0xcc>
     ab6:	4819      	ldr	r0, [pc, #100]	; (b1c <vAppMain+0x128>)
     ab8:	f001 f908 	bl	1ccc <DbgConsole_Printf>
     abc:	f00d fc72 	bl	e3a4 <BDB_vStart>
     ac0:	f004 fc78 	bl	53b4 <POWER_GetResetCause>
     ac4:	f010 0f60 	tst.w	r0, #96	; 0x60
     ac8:	d108      	bne.n	adc <vAppMain+0xe8>
     aca:	4815      	ldr	r0, [pc, #84]	; (b20 <vAppMain+0x12c>)
     acc:	f001 f8fe 	bl	1ccc <DbgConsole_Printf>
     ad0:	2001      	movs	r0, #1
     ad2:	f001 fdf7 	bl	26c4 <APP_vNtagStart>
     ad6:	e001      	b.n	adc <vAppMain+0xe8>
     ad8:	f00d fc67 	bl	e3aa <BDB_vRestart>
     adc:	f04f 4380 	mov.w	r3, #1073741824	; 0x40000000
     ae0:	2202      	movs	r2, #2
     ae2:	f8c3 2280 	str.w	r2, [r3, #640]	; 0x280
     ae6:	f003 fa2d 	bl	3f44 <SystemCoreClockUpdate>
     aea:	f003 f837 	bl	3b5c <OSA_TimeInit>
     aee:	b007      	add	sp, #28
     af0:	bd30      	pop	{r4, r5, pc}
     af2:	bf00      	nop
     af4:	40012000 	.word	0x40012000
     af8:	4000a000 	.word	0x4000a000
     afc:	0001869f 	.word	0x0001869f
     b00:	0002a227 	.word	0x0002a227
     b04:	40080000 	.word	0x40080000
     b08:	0002a24f 	.word	0x0002a24f
     b0c:	0002a281 	.word	0x0002a281
     b10:	04015552 	.word	0x04015552
     b14:	0000094d 	.word	0x0000094d
     b18:	0002a2b3 	.word	0x0002a2b3
     b1c:	0002a2d5 	.word	0x0002a2d5
     b20:	0002a2f1 	.word	0x0002a2f1

00000b24 <Wakeup>:
     b24:	b508      	push	{r3, lr}
     b26:	4b0d      	ldr	r3, [pc, #52]	; (b5c <Wakeup+0x38>)
     b28:	6f1b      	ldr	r3, [r3, #112]	; 0x70
     b2a:	f013 0f60 	tst.w	r3, #96	; 0x60
     b2e:	d014      	beq.n	b5a <Wakeup+0x36>
     b30:	4b0b      	ldr	r3, [pc, #44]	; (b60 <Wakeup+0x3c>)
     b32:	781b      	ldrb	r3, [r3, #0]
     b34:	2b02      	cmp	r3, #2
     b36:	d110      	bne.n	b5a <Wakeup+0x36>
     b38:	f7ff fca4 	bl	484 <APP_vSetUpHardware>
     b3c:	f006 f830 	bl	6ba0 <RNG_Init>
     b40:	f005 fee2 	bl	6908 <SecLib_Init>
     b44:	f006 f8ba 	bl	6cbc <MEM_Init>
     b48:	f006 f98c 	bl	6e64 <TMR_Init>
     b4c:	2000      	movs	r0, #0
     b4e:	f7ff ff51 	bl	9f4 <vAppMain>
     b52:	e8bd 4008 	ldmia.w	sp!, {r3, lr}
     b56:	f000 ba79 	b.w	104c <APP_vStartUpHW>
     b5a:	bd08      	pop	{r3, pc}
     b5c:	40012000 	.word	0x40012000
     b60:	04015552 	.word	0x04015552

00000b64 <vAppRegisterPWRCallbacks>:
     b64:	b508      	push	{r3, lr}
     b66:	4804      	ldr	r0, [pc, #16]	; (b78 <vAppRegisterPWRCallbacks+0x14>)
     b68:	f006 ff2e 	bl	79c8 <PWR_RegisterLowPowerEnterCallback>
     b6c:	e8bd 4008 	ldmia.w	sp!, {r3, lr}
     b70:	4802      	ldr	r0, [pc, #8]	; (b7c <vAppRegisterPWRCallbacks+0x18>)
     b72:	f006 bf2f 	b.w	79d4 <PWR_RegisterLowPowerExitCallback>
     b76:	bf00      	nop
     b78:	00000959 	.word	0x00000959
     b7c:	00000b25 	.word	0x00000b25

00000b80 <hardware_init>:
     b80:	b510      	push	{r4, lr}
     b82:	4c08      	ldr	r4, [pc, #32]	; (ba4 <hardware_init+0x24>)
     b84:	7822      	ldrb	r2, [r4, #0]
     b86:	b962      	cbnz	r2, ba2 <hardware_init+0x22>
     b88:	4b07      	ldr	r3, [pc, #28]	; (ba8 <hardware_init+0x28>)
     b8a:	6f1b      	ldr	r3, [r3, #112]	; 0x70
     b8c:	f013 0f60 	tst.w	r3, #96	; 0x60
     b90:	bf1c      	itt	ne
     b92:	4b06      	ldrne	r3, [pc, #24]	; (bac <hardware_init+0x2c>)
     b94:	701a      	strbne	r2, [r3, #0]
     b96:	f7ff fc75 	bl	484 <APP_vSetUpHardware>
     b9a:	f006 fffd 	bl	7b98 <PWR_vColdStart>
     b9e:	2301      	movs	r3, #1
     ba0:	7023      	strb	r3, [r4, #0]
     ba2:	bd10      	pop	{r4, pc}
     ba4:	04015666 	.word	0x04015666
     ba8:	40012000 	.word	0x40012000
     bac:	04015552 	.word	0x04015552

00000bb0 <eApp_ZCL_RegisterEndpoint>:
     bb0:	4601      	mov	r1, r0
     bb2:	4a02      	ldr	r2, [pc, #8]	; (bbc <eApp_ZCL_RegisterEndpoint+0xc>)
     bb4:	2001      	movs	r0, #1
     bb6:	f008 bc2d 	b.w	9414 <eZLO_RegisterDimmerSwitchEndPoint>
     bba:	bf00      	nop
     bbc:	04001590 	.word	0x04001590

00000bc0 <vAPP_ZCL_DeviceSpecific_Init>:
     bc0:	b513      	push	{r0, r1, r4, lr}
     bc2:	4c16      	ldr	r4, [pc, #88]	; (c1c <vAPP_ZCL_DeviceSpecific_Init+0x5c>)
     bc4:	4b16      	ldr	r3, [pc, #88]	; (c20 <vAPP_ZCL_DeviceSpecific_Init+0x60>)
     bc6:	4917      	ldr	r1, [pc, #92]	; (c24 <vAPP_ZCL_DeviceSpecific_Init+0x64>)
     bc8:	9301      	str	r3, [sp, #4]
     bca:	2203      	movs	r2, #3
     bcc:	f504 7090 	add.w	r0, r4, #288	; 0x120
     bd0:	f028 fda2 	bl	29718 <memcpy>
     bd4:	4914      	ldr	r1, [pc, #80]	; (c28 <vAPP_ZCL_DeviceSpecific_Init+0x68>)
     bd6:	2210      	movs	r2, #16
     bd8:	f504 70a4 	add.w	r0, r4, #328	; 0x148
     bdc:	f028 fd9c 	bl	29718 <memcpy>
     be0:	4912      	ldr	r1, [pc, #72]	; (c2c <vAPP_ZCL_DeviceSpecific_Init+0x6c>)
     be2:	2208      	movs	r2, #8
     be4:	f504 70b8 	add.w	r0, r4, #368	; 0x170
     be8:	f028 fd96 	bl	29718 <memcpy>
     bec:	4910      	ldr	r1, [pc, #64]	; (c30 <vAPP_ZCL_DeviceSpecific_Init+0x70>)
     bee:	2209      	movs	r2, #9
     bf0:	f504 70e6 	add.w	r0, r4, #460	; 0x1cc
     bf4:	f028 fd90 	bl	29718 <memcpy>
     bf8:	23e1      	movs	r3, #225	; 0xe1
     bfa:	490e      	ldr	r1, [pc, #56]	; (c34 <vAPP_ZCL_DeviceSpecific_Init+0x74>)
     bfc:	f884 3182 	strb.w	r3, [r4, #386]	; 0x182
     c00:	220c      	movs	r2, #12
     c02:	f504 70d2 	add.w	r0, r4, #420	; 0x1a4
     c06:	f028 fd87 	bl	29718 <memcpy>
     c0a:	2204      	movs	r2, #4
     c0c:	eb0d 0102 	add.w	r1, sp, r2
     c10:	f504 70c6 	add.w	r0, r4, #396	; 0x18c
     c14:	f028 fd80 	bl	29718 <memcpy>
     c18:	b002      	add	sp, #8
     c1a:	bd10      	pop	{r4, pc}
     c1c:	04001590 	.word	0x04001590
     c20:	04030201 	.word	0x04030201
     c24:	0002a311 	.word	0x0002a311
     c28:	0002a315 	.word	0x0002a315
     c2c:	0002a326 	.word	0x0002a326
     c30:	0002a32f 	.word	0x0002a32f
     c34:	0002a339 	.word	0x0002a339

00000c38 <vAPP_ZCL_DeviceSpecific_SetIdentifyTime>:
     c38:	4b01      	ldr	r3, [pc, #4]	; (c40 <vAPP_ZCL_DeviceSpecific_SetIdentifyTime+0x8>)
     c3a:	f8a3 01e4 	strh.w	r0, [r3, #484]	; 0x1e4
     c3e:	4770      	bx	lr
     c40:	04001590 	.word	0x04001590

00000c44 <vAPP_ZCL_DeviceSpecific_UpdateIdentify>:
     c44:	4b03      	ldr	r3, [pc, #12]	; (c54 <vAPP_ZCL_DeviceSpecific_UpdateIdentify+0x10>)
     c46:	f893 11e4 	ldrb.w	r1, [r3, #484]	; 0x1e4
     c4a:	2000      	movs	r0, #0
     c4c:	f001 0101 	and.w	r1, r1, #1
     c50:	f7ff bcf0 	b.w	634 <APP_vSetLED>
     c54:	04001590 	.word	0x04001590

00000c58 <vAPP_ZCL_DeviceSpecific_IdentifyOff>:
     c58:	2100      	movs	r1, #0
     c5a:	4b03      	ldr	r3, [pc, #12]	; (c68 <vAPP_ZCL_DeviceSpecific_IdentifyOff+0x10>)
     c5c:	4608      	mov	r0, r1
     c5e:	f8a3 11e4 	strh.w	r1, [r3, #484]	; 0x1e4
     c62:	f7ff bce7 	b.w	634 <APP_vSetLED>
     c66:	bf00      	nop
     c68:	04001590 	.word	0x04001590

00000c6c <app_u8GetDeviceEndpoint>:
     c6c:	2001      	movs	r0, #1
     c6e:	4770      	bx	lr

00000c70 <vHandleJoinAndRejoin>:
     c70:	b538      	push	{r3, r4, r5, lr}
     c72:	4818      	ldr	r0, [pc, #96]	; (cd4 <vHandleJoinAndRejoin+0x64>)
     c74:	f001 f82a 	bl	1ccc <DbgConsole_Printf>
     c78:	4817      	ldr	r0, [pc, #92]	; (cd8 <vHandleJoinAndRejoin+0x68>)
     c7a:	f001 f827 	bl	1ccc <DbgConsole_Printf>
     c7e:	f7ff fe29 	bl	8d4 <ZPS_pvAplZdoGetAplHandle>
     c82:	f015 fc8f 	bl	165a4 <zps_pvAplZdoGetNwkHandle>
     c86:	f01d fda6 	bl	1e7d6 <ZPS_u64NwkNibGetEpid>
     c8a:	460c      	mov	r4, r1
     c8c:	4605      	mov	r5, r0
     c8e:	f7ff fe21 	bl	8d4 <ZPS_pvAplZdoGetAplHandle>
     c92:	462a      	mov	r2, r5
     c94:	4623      	mov	r3, r4
     c96:	f014 fe48 	bl	1592a <zps_eAplAibSetApsUseExtendedPanId>
     c9a:	4910      	ldr	r1, [pc, #64]	; (cdc <vHandleJoinAndRejoin+0x6c>)
     c9c:	2303      	movs	r3, #3
     c9e:	2201      	movs	r2, #1
     ca0:	2005      	movs	r0, #5
     ca2:	700b      	strb	r3, [r1, #0]
     ca4:	f010 ff68 	bl	11b78 <PDM_eSaveRecordData>
     ca8:	f7ff fe14 	bl	8d4 <ZPS_pvAplZdoGetAplHandle>
     cac:	f015 f96a 	bl	15f84 <zps_vSaveAllZpsRecords>
     cb0:	4b0b      	ldr	r3, [pc, #44]	; (ce0 <vHandleJoinAndRejoin+0x70>)
     cb2:	2200      	movs	r2, #0
     cb4:	801a      	strh	r2, [r3, #0]
     cb6:	4b0b      	ldr	r3, [pc, #44]	; (ce4 <vHandleJoinAndRejoin+0x74>)
     cb8:	f44f 717a 	mov.w	r1, #1000	; 0x3e8
     cbc:	7818      	ldrb	r0, [r3, #0]
     cbe:	f002 fe85 	bl	39cc <ZTIMER_eStart>
     cc2:	4b09      	ldr	r3, [pc, #36]	; (ce8 <vHandleJoinAndRejoin+0x78>)
     cc4:	f44f 717a 	mov.w	r1, #1000	; 0x3e8
     cc8:	7818      	ldrb	r0, [r3, #0]
     cca:	e8bd 4038 	ldmia.w	sp!, {r3, r4, r5, lr}
     cce:	f002 be7d 	b.w	39cc <ZTIMER_eStart>
     cd2:	bf00      	nop
     cd4:	0002a346 	.word	0x0002a346
     cd8:	0002a35b 	.word	0x0002a35b
     cdc:	04015667 	.word	0x04015667
     ce0:	04015678 	.word	0x04015678
     ce4:	04015663 	.word	0x04015663
     ce8:	04015664 	.word	0x04015664

00000cec <vLoadKeepAliveTime>:
     cec:	b510      	push	{r4, lr}
     cee:	4b0b      	ldr	r3, [pc, #44]	; (d1c <vLoadKeepAliveTime+0x30>)
     cf0:	4c0b      	ldr	r4, [pc, #44]	; (d20 <vLoadKeepAliveTime+0x34>)
     cf2:	7018      	strb	r0, [r3, #0]
     cf4:	7820      	ldrb	r0, [r4, #0]
     cf6:	f002 fe91 	bl	3a1c <ZTIMER_eStop>
     cfa:	7820      	ldrb	r0, [r4, #0]
     cfc:	4c09      	ldr	r4, [pc, #36]	; (d24 <vLoadKeepAliveTime+0x38>)
     cfe:	f44f 717a 	mov.w	r1, #1000	; 0x3e8
     d02:	f002 fe63 	bl	39cc <ZTIMER_eStart>
     d06:	7820      	ldrb	r0, [r4, #0]
     d08:	f002 fe88 	bl	3a1c <ZTIMER_eStop>
     d0c:	7820      	ldrb	r0, [r4, #0]
     d0e:	f44f 717a 	mov.w	r1, #1000	; 0x3e8
     d12:	e8bd 4010 	ldmia.w	sp!, {r4, lr}
     d16:	f002 be59 	b.w	39cc <ZTIMER_eStart>
     d1a:	bf00      	nop
     d1c:	04015554 	.word	0x04015554
     d20:	04015663 	.word	0x04015663
     d24:	04015664 	.word	0x04015664

00000d28 <vWakeCallBack>:
     d28:	b510      	push	{r4, lr}
     d2a:	4c08      	ldr	r4, [pc, #32]	; (d4c <vWakeCallBack+0x24>)
     d2c:	7823      	ldrb	r3, [r4, #0]
     d2e:	b12b      	cbz	r3, d3c <vWakeCallBack+0x14>
     d30:	f002 f9cc 	bl	30cc <bOTADeepSleepAllowed>
     d34:	b140      	cbz	r0, d48 <vWakeCallBack+0x20>
     d36:	7823      	ldrb	r3, [r4, #0]
     d38:	3b01      	subs	r3, #1
     d3a:	7023      	strb	r3, [r4, #0]
     d3c:	e8bd 4010 	ldmia.w	sp!, {r4, lr}
     d40:	f44f 707a 	mov.w	r0, #1000	; 0x3e8
     d44:	f002 ba96 	b.w	3274 <vRunAppOTAStateMachine>
     d48:	2305      	movs	r3, #5
     d4a:	e7f6      	b.n	d3a <vWakeCallBack+0x12>
     d4c:	04015553 	.word	0x04015553

00000d50 <vLoadDeepSleepTimer>:
     d50:	4b02      	ldr	r3, [pc, #8]	; (d5c <vLoadDeepSleepTimer+0xc>)
     d52:	4601      	mov	r1, r0
     d54:	7018      	strb	r0, [r3, #0]
     d56:	4802      	ldr	r0, [pc, #8]	; (d60 <vLoadDeepSleepTimer+0x10>)
     d58:	f000 bfb8 	b.w	1ccc <DbgConsole_Printf>
     d5c:	04015553 	.word	0x04015553
     d60:	0002a38a 	.word	0x0002a38a

00000d64 <bGoingDeepSleep>:
     d64:	4b02      	ldr	r3, [pc, #8]	; (d70 <bGoingDeepSleep+0xc>)
     d66:	7818      	ldrb	r0, [r3, #0]
     d68:	fab0 f080 	clz	r0, r0
     d6c:	0940      	lsrs	r0, r0, #5
     d6e:	4770      	bx	lr
     d70:	04015553 	.word	0x04015553

00000d74 <bWaitingToSleep>:
     d74:	4b02      	ldr	r3, [pc, #8]	; (d80 <bWaitingToSleep+0xc>)
     d76:	7818      	ldrb	r0, [r3, #0]
     d78:	fab0 f080 	clz	r0, r0
     d7c:	0940      	lsrs	r0, r0, #5
     d7e:	4770      	bx	lr
     d80:	04015554 	.word	0x04015554

00000d84 <vAppOnOff>:
     d84:	b510      	push	{r4, lr}
     d86:	b088      	sub	sp, #32
     d88:	2309      	movs	r3, #9
     d8a:	2802      	cmp	r0, #2
     d8c:	f88d 3010 	strb.w	r3, [sp, #16]
     d90:	d811      	bhi.n	db6 <vAppOnOff+0x32>
     d92:	9000      	str	r0, [sp, #0]
     d94:	4809      	ldr	r0, [pc, #36]	; (dbc <vAppOnOff+0x38>)
     d96:	f10d 030f 	add.w	r3, sp, #15
     d9a:	7800      	ldrb	r0, [r0, #0]
     d9c:	aa04      	add	r2, sp, #16
     d9e:	2100      	movs	r1, #0
     da0:	f008 fa22 	bl	91e8 <eCLD_OnOffCommandSend>
     da4:	4604      	mov	r4, r0
     da6:	b130      	cbz	r0, db6 <vAppOnOff+0x32>
     da8:	f00a ff5e 	bl	bc68 <eZCL_GetLastZpsError>
     dac:	4621      	mov	r1, r4
     dae:	4602      	mov	r2, r0
     db0:	4803      	ldr	r0, [pc, #12]	; (dc0 <vAppOnOff+0x3c>)
     db2:	f000 ff8b 	bl	1ccc <DbgConsole_Printf>
     db6:	b008      	add	sp, #32
     db8:	bd10      	pop	{r4, pc}
     dba:	bf00      	nop
     dbc:	0002a345 	.word	0x0002a345
     dc0:	0002a397 	.word	0x0002a397

00000dc4 <vAppLevelMove>:
     dc4:	b510      	push	{r4, lr}
     dc6:	b088      	sub	sp, #32
     dc8:	460b      	mov	r3, r1
     dca:	f88d 000c 	strb.w	r0, [sp, #12]
     dce:	480e      	ldr	r0, [pc, #56]	; (e08 <vAppLevelMove+0x44>)
     dd0:	f88d 300d 	strb.w	r3, [sp, #13]
     dd4:	ab03      	add	r3, sp, #12
     dd6:	e9cd 2300 	strd	r2, r3, [sp]
     dda:	2100      	movs	r1, #0
     ddc:	2409      	movs	r4, #9
     dde:	7800      	ldrb	r0, [r0, #0]
     de0:	f88d 4010 	strb.w	r4, [sp, #16]
     de4:	f10d 030b 	add.w	r3, sp, #11
     de8:	aa04      	add	r2, sp, #16
     dea:	f8ad 100e 	strh.w	r1, [sp, #14]
     dee:	f008 f977 	bl	90e0 <eCLD_LevelControlCommandMoveCommandSend>
     df2:	4604      	mov	r4, r0
     df4:	b130      	cbz	r0, e04 <vAppLevelMove+0x40>
     df6:	f00a ff37 	bl	bc68 <eZCL_GetLastZpsError>
     dfa:	4621      	mov	r1, r4
     dfc:	4602      	mov	r2, r0
     dfe:	4803      	ldr	r0, [pc, #12]	; (e0c <vAppLevelMove+0x48>)
     e00:	f000 ff64 	bl	1ccc <DbgConsole_Printf>
     e04:	b008      	add	sp, #32
     e06:	bd10      	pop	{r4, pc}
     e08:	0002a345 	.word	0x0002a345
     e0c:	0002a3c2 	.word	0x0002a3c2

00000e10 <vAppLevelStop>:
     e10:	b510      	push	{r4, lr}
     e12:	b088      	sub	sp, #32
     e14:	2309      	movs	r3, #9
     e16:	480d      	ldr	r0, [pc, #52]	; (e4c <vAppLevelStop+0x3c>)
     e18:	f88d 3010 	strb.w	r3, [sp, #16]
     e1c:	2100      	movs	r1, #0
     e1e:	ab03      	add	r3, sp, #12
     e20:	e9cd 1300 	strd	r1, r3, [sp]
     e24:	7800      	ldrb	r0, [r0, #0]
     e26:	f8ad 100c 	strh.w	r1, [sp, #12]
     e2a:	f10d 030b 	add.w	r3, sp, #11
     e2e:	aa04      	add	r2, sp, #16
     e30:	f008 f98a 	bl	9148 <eCLD_LevelControlCommandStopCommandSend>
     e34:	4604      	mov	r4, r0
     e36:	b130      	cbz	r0, e46 <vAppLevelStop+0x36>
     e38:	f00a ff16 	bl	bc68 <eZCL_GetLastZpsError>
     e3c:	4621      	mov	r1, r4
     e3e:	4602      	mov	r2, r0
     e40:	4803      	ldr	r0, [pc, #12]	; (e50 <vAppLevelStop+0x40>)
     e42:	f000 ff43 	bl	1ccc <DbgConsole_Printf>
     e46:	b008      	add	sp, #32
     e48:	bd10      	pop	{r4, pc}
     e4a:	bf00      	nop
     e4c:	0002a345 	.word	0x0002a345
     e50:	0002a3f1 	.word	0x0002a3f1

00000e54 <vReloadSleepTimers>:
     e54:	b508      	push	{r3, lr}
     e56:	2014      	movs	r0, #20
     e58:	f7ff ff48 	bl	cec <vLoadKeepAliveTime>
     e5c:	e8bd 4008 	ldmia.w	sp!, {r3, lr}
     e60:	2005      	movs	r0, #5
     e62:	f7ff bf75 	b.w	d50 <vLoadDeepSleepTimer>
     e66:	Address 0x00000e66 is out of bounds.


00000e68 <APP_taskSwitch>:
     e68:	b57f      	push	{r0, r1, r2, r3, r4, r5, r6, lr}
     e6a:	ac01      	add	r4, sp, #4
     e6c:	2300      	movs	r3, #0
     e6e:	481c      	ldr	r0, [pc, #112]	; (ee0 <APP_taskSwitch+0x78>)
     e70:	f88d 3004 	strb.w	r3, [sp, #4]
     e74:	4621      	mov	r1, r4
     e76:	f002 fd11 	bl	389c <ZQ_bQueueReceive>
     e7a:	2801      	cmp	r0, #1
     e7c:	4606      	mov	r6, r0
     e7e:	d113      	bne.n	ea8 <APP_taskSwitch+0x40>
     e80:	4d18      	ldr	r5, [pc, #96]	; (ee4 <APP_taskSwitch+0x7c>)
     e82:	f89d 1004 	ldrb.w	r1, [sp, #4]
     e86:	782a      	ldrb	r2, [r5, #0]
     e88:	4817      	ldr	r0, [pc, #92]	; (ee8 <APP_taskSwitch+0x80>)
     e8a:	f000 ff1f 	bl	1ccc <DbgConsole_Printf>
     e8e:	f89d 3004 	ldrb.w	r3, [sp, #4]
     e92:	3b01      	subs	r3, #1
     e94:	b2da      	uxtb	r2, r3
     e96:	2a01      	cmp	r2, #1
     e98:	d808      	bhi.n	eac <APP_taskSwitch+0x44>
     e9a:	f89d 2008 	ldrb.w	r2, [sp, #8]
     e9e:	2a05      	cmp	r2, #5
     ea0:	d104      	bne.n	eac <APP_taskSwitch+0x44>
     ea2:	4630      	mov	r0, r6
     ea4:	f001 fc0e 	bl	26c4 <APP_vNtagStart>
     ea8:	b004      	add	sp, #16
     eaa:	bd70      	pop	{r4, r5, r6, pc}
     eac:	782a      	ldrb	r2, [r5, #0]
     eae:	2a03      	cmp	r2, #3
     eb0:	d108      	bne.n	ec4 <APP_taskSwitch+0x5c>
     eb2:	2b01      	cmp	r3, #1
     eb4:	d8f8      	bhi.n	ea8 <APP_taskSwitch+0x40>
     eb6:	e894 0007 	ldmia.w	r4, {r0, r1, r2}
     eba:	f000 fdf7 	bl	1aac <vApp_ProcessKeyCombination>
     ebe:	f7ff ffc9 	bl	e54 <vReloadSleepTimers>
     ec2:	e7f1      	b.n	ea8 <APP_taskSwitch+0x40>
     ec4:	2a00      	cmp	r2, #0
     ec6:	d1ef      	bne.n	ea8 <APP_taskSwitch+0x40>
     ec8:	4808      	ldr	r0, [pc, #32]	; (eec <APP_taskSwitch+0x84>)
     eca:	f000 feff 	bl	1ccc <DbgConsole_Printf>
     ece:	4b08      	ldr	r3, [pc, #32]	; (ef0 <APP_taskSwitch+0x88>)
     ed0:	4a08      	ldr	r2, [pc, #32]	; (ef4 <APP_taskSwitch+0x8c>)
     ed2:	62da      	str	r2, [r3, #44]	; 0x2c
     ed4:	4a08      	ldr	r2, [pc, #32]	; (ef8 <APP_taskSwitch+0x90>)
     ed6:	635a      	str	r2, [r3, #52]	; 0x34
     ed8:	f00d fc74 	bl	e7c4 <BDB_eNsStartNwkSteering>
     edc:	e7e4      	b.n	ea8 <APP_taskSwitch+0x40>
     ede:	bf00      	nop
     ee0:	04015640 	.word	0x04015640
     ee4:	04015667 	.word	0x04015667
     ee8:	0002a420 	.word	0x0002a420
     eec:	0002a442 	.word	0x0002a442
     ef0:	040038c0 	.word	0x040038c0
     ef4:	02108800 	.word	0x02108800
     ef8:	05ef7000 	.word	0x05ef7000

00000efc <vUpdateKeepAliveTimer>:
     efc:	e92d 41f0 	stmdb	sp!, {r4, r5, r6, r7, r8, lr}
     f00:	f000 fe30 	bl	1b64 <eGetSwitchState>
     f04:	2801      	cmp	r0, #1
     f06:	d83c      	bhi.n	f82 <vUpdateKeepAliveTimer+0x86>
     f08:	f002 f8f6 	bl	30f8 <bOTASleepAllowed>
     f0c:	4a2c      	ldr	r2, [pc, #176]	; (fc0 <vUpdateKeepAliveTimer+0xc4>)
     f0e:	2800      	cmp	r0, #0
     f10:	d03b      	beq.n	f8a <vUpdateKeepAliveTimer+0x8e>
     f12:	7813      	ldrb	r3, [r2, #0]
     f14:	b123      	cbz	r3, f20 <vUpdateKeepAliveTimer+0x24>
     f16:	3b01      	subs	r3, #1
     f18:	b2db      	uxtb	r3, r3
     f1a:	7013      	strb	r3, [r2, #0]
     f1c:	2b00      	cmp	r3, #0
     f1e:	d136      	bne.n	f8e <vUpdateKeepAliveTimer+0x92>
     f20:	4d28      	ldr	r5, [pc, #160]	; (fc4 <vUpdateKeepAliveTimer+0xc8>)
     f22:	4e29      	ldr	r6, [pc, #164]	; (fc8 <vUpdateKeepAliveTimer+0xcc>)
     f24:	7828      	ldrb	r0, [r5, #0]
     f26:	7834      	ldrb	r4, [r6, #0]
     f28:	f002 fd9c 	bl	3a64 <ZTIMER_eGetState>
     f2c:	2802      	cmp	r0, #2
     f2e:	46a8      	mov	r8, r5
     f30:	d102      	bne.n	f38 <vUpdateKeepAliveTimer+0x3c>
     f32:	b10c      	cbz	r4, f38 <vUpdateKeepAliveTimer+0x3c>
     f34:	3c01      	subs	r4, #1
     f36:	b2a4      	uxth	r4, r4
     f38:	4f24      	ldr	r7, [pc, #144]	; (fcc <vUpdateKeepAliveTimer+0xd0>)
     f3a:	7838      	ldrb	r0, [r7, #0]
     f3c:	f002 fd92 	bl	3a64 <ZTIMER_eGetState>
     f40:	2802      	cmp	r0, #2
     f42:	d102      	bne.n	f4a <vUpdateKeepAliveTimer+0x4e>
     f44:	b10c      	cbz	r4, f4a <vUpdateKeepAliveTimer+0x4e>
     f46:	3c01      	subs	r4, #1
     f48:	b2a4      	uxth	r4, r4
     f4a:	4d21      	ldr	r5, [pc, #132]	; (fd0 <vUpdateKeepAliveTimer+0xd4>)
     f4c:	7828      	ldrb	r0, [r5, #0]
     f4e:	f002 fd89 	bl	3a64 <ZTIMER_eGetState>
     f52:	2802      	cmp	r0, #2
     f54:	d102      	bne.n	f5c <vUpdateKeepAliveTimer+0x60>
     f56:	b114      	cbz	r4, f5e <vUpdateKeepAliveTimer+0x62>
     f58:	3c01      	subs	r4, #1
     f5a:	b2a4      	uxth	r4, r4
     f5c:	b9bc      	cbnz	r4, f8e <vUpdateKeepAliveTimer+0x92>
     f5e:	f898 0000 	ldrb.w	r0, [r8]
     f62:	f002 fd5b 	bl	3a1c <ZTIMER_eStop>
     f66:	7838      	ldrb	r0, [r7, #0]
     f68:	f002 fd58 	bl	3a1c <ZTIMER_eStop>
     f6c:	7828      	ldrb	r0, [r5, #0]
     f6e:	4d19      	ldr	r5, [pc, #100]	; (fd4 <vUpdateKeepAliveTimer+0xd8>)
     f70:	f002 fd54 	bl	3a1c <ZTIMER_eStop>
     f74:	782c      	ldrb	r4, [r5, #0]
     f76:	b1cc      	cbz	r4, fac <vUpdateKeepAliveTimer+0xb0>
     f78:	7833      	ldrb	r3, [r6, #0]
     f7a:	b153      	cbz	r3, f92 <vUpdateKeepAliveTimer+0x96>
     f7c:	4816      	ldr	r0, [pc, #88]	; (fd8 <vUpdateKeepAliveTimer+0xdc>)
     f7e:	f000 fea5 	bl	1ccc <DbgConsole_Printf>
     f82:	e8bd 41f0 	ldmia.w	sp!, {r4, r5, r6, r7, r8, lr}
     f86:	f7ff bf65 	b.w	e54 <vReloadSleepTimers>
     f8a:	2314      	movs	r3, #20
     f8c:	7013      	strb	r3, [r2, #0]
     f8e:	e8bd 81f0 	ldmia.w	sp!, {r4, r5, r6, r7, r8, pc}
     f92:	4a12      	ldr	r2, [pc, #72]	; (fdc <vUpdateKeepAliveTimer+0xe0>)
     f94:	4812      	ldr	r0, [pc, #72]	; (fe0 <STACK_SIZE>)
     f96:	f44f 717a 	mov.w	r1, #1000	; 0x3e8
     f9a:	f006 fd61 	bl	7a60 <PWR_eScheduleActivity>
     f9e:	782a      	ldrb	r2, [r5, #0]
     fa0:	4601      	mov	r1, r0
     fa2:	e8bd 41f0 	ldmia.w	sp!, {r4, r5, r6, r7, r8, lr}
     fa6:	480f      	ldr	r0, [pc, #60]	; (fe4 <STACK_SIZE+0x4>)
     fa8:	f000 be90 	b.w	1ccc <DbgConsole_Printf>
     fac:	2006      	movs	r0, #6
     fae:	f006 fbed 	bl	778c <PWR_ChangeDeepSleepMode>
     fb2:	f006 fc0d 	bl	77d0 <PWR_Init>
     fb6:	4620      	mov	r0, r4
     fb8:	e8bd 41f0 	ldmia.w	sp!, {r4, r5, r6, r7, r8, lr}
     fbc:	f006 bd44 	b.w	7a48 <PWR_vForceRadioRetention>
     fc0:	04015554 	.word	0x04015554
     fc4:	04015663 	.word	0x04015663
     fc8:	04015bac 	.word	0x04015bac
     fcc:	04015661 	.word	0x04015661
     fd0:	04015664 	.word	0x04015664
     fd4:	04015553 	.word	0x04015553
     fd8:	0002a455 	.word	0x0002a455
     fdc:	00000d29 	.word	0x00000d29
     fe0:	04015668 	.word	0x04015668
     fe4:	0002a476 	.word	0x0002a476

00000fe8 <APP_cbTimerPoll>:
     fe8:	b538      	push	{r3, r4, r5, lr}
     fea:	f7ff fec3 	bl	d74 <bWaitingToSleep>
     fee:	bb18      	cbnz	r0, 1038 <APP_cbTimerPoll+0x50>
     ff0:	4b12      	ldr	r3, [pc, #72]	; (103c <APP_cbTimerPoll+0x54>)
     ff2:	781b      	ldrb	r3, [r3, #0]
     ff4:	f003 03fd 	and.w	r3, r3, #253	; 0xfd
     ff8:	2b01      	cmp	r3, #1
     ffa:	d11d      	bne.n	1038 <APP_cbTimerPoll+0x50>
     ffc:	4a10      	ldr	r2, [pc, #64]	; (1040 <APP_cbTimerPoll+0x58>)
     ffe:	8813      	ldrh	r3, [r2, #0]
    1000:	b1bb      	cbz	r3, 1032 <APP_cbTimerPoll+0x4a>
    1002:	3b01      	subs	r3, #1
    1004:	8013      	strh	r3, [r2, #0]
    1006:	f7ff ff25 	bl	e54 <vReloadSleepTimers>
    100a:	25fa      	movs	r5, #250	; 0xfa
    100c:	4c0d      	ldr	r4, [pc, #52]	; (1044 <APP_cbTimerPoll+0x5c>)
    100e:	7820      	ldrb	r0, [r4, #0]
    1010:	f002 fd04 	bl	3a1c <ZTIMER_eStop>
    1014:	4629      	mov	r1, r5
    1016:	7820      	ldrb	r0, [r4, #0]
    1018:	f002 fcd8 	bl	39cc <ZTIMER_eStart>
    101c:	f7ff fc5a 	bl	8d4 <ZPS_pvAplZdoGetAplHandle>
    1020:	f015 fb32 	bl	16688 <zps_eAplZdoPoll>
    1024:	4601      	mov	r1, r0
    1026:	b138      	cbz	r0, 1038 <APP_cbTimerPoll+0x50>
    1028:	e8bd 4038 	ldmia.w	sp!, {r3, r4, r5, lr}
    102c:	4806      	ldr	r0, [pc, #24]	; (1048 <APP_cbTimerPoll+0x60>)
    102e:	f000 be4d 	b.w	1ccc <DbgConsole_Printf>
    1032:	f44f 757a 	mov.w	r5, #1000	; 0x3e8
    1036:	e7e9      	b.n	100c <APP_cbTimerPoll+0x24>
    1038:	bd38      	pop	{r3, r4, r5, pc}
    103a:	bf00      	nop
    103c:	04015667 	.word	0x04015667
    1040:	04015678 	.word	0x04015678
    1044:	04015663 	.word	0x04015663
    1048:	0002a4a3 	.word	0x0002a4a3

0000104c <APP_vStartUpHW>:
    104c:	b508      	push	{r3, lr}
    104e:	f7ff fc41 	bl	8d4 <ZPS_pvAplZdoGetAplHandle>
    1052:	f015 fb19 	bl	16688 <zps_eAplZdoPoll>
    1056:	4b07      	ldr	r3, [pc, #28]	; (1074 <APP_vStartUpHW+0x28>)
    1058:	f44f 717a 	mov.w	r1, #1000	; 0x3e8
    105c:	7818      	ldrb	r0, [r3, #0]
    105e:	f002 fcb5 	bl	39cc <ZTIMER_eStart>
    1062:	4b05      	ldr	r3, [pc, #20]	; (1078 <APP_vStartUpHW+0x2c>)
    1064:	f44f 717a 	mov.w	r1, #1000	; 0x3e8
    1068:	7818      	ldrb	r0, [r3, #0]
    106a:	e8bd 4008 	ldmia.w	sp!, {r3, lr}
    106e:	f002 bcad 	b.w	39cc <ZTIMER_eStart>
    1072:	bf00      	nop
    1074:	04015663 	.word	0x04015663
    1078:	04015664 	.word	0x04015664

0000107c <sGetOTACallBackPersistdata>:
    107c:	b510      	push	{r4, lr}
    107e:	4903      	ldr	r1, [pc, #12]	; (108c <sGetOTACallBackPersistdata+0x10>)
    1080:	4604      	mov	r4, r0
    1082:	22a8      	movs	r2, #168	; 0xa8
    1084:	f028 fb48 	bl	29718 <memcpy>
    1088:	4620      	mov	r0, r4
    108a:	bd10      	pop	{r4, pc}
    108c:	04001ad0 	.word	0x04001ad0

00001090 <APP_vFactoryResetRecords>:
    1090:	b510      	push	{r4, lr}
    1092:	f7ff fc1f 	bl	8d4 <ZPS_pvAplZdoGetAplHandle>
    1096:	f016 f829 	bl	170ec <zps_vDefaultStack>
    109a:	f7ff fc1b 	bl	8d4 <ZPS_pvAplZdoGetAplHandle>
    109e:	2200      	movs	r2, #0
    10a0:	2300      	movs	r3, #0
    10a2:	f014 fc42 	bl	1592a <zps_eAplAibSetApsUseExtendedPanId>
    10a6:	4c0b      	ldr	r4, [pc, #44]	; (10d4 <APP_vFactoryResetRecords+0x44>)
    10a8:	f014 ff92 	bl	15fd0 <ZPS_vSetKeys>
    10ac:	480a      	ldr	r0, [pc, #40]	; (10d8 <APP_vFactoryResetRecords+0x48>)
    10ae:	f000 fe0d 	bl	1ccc <DbgConsole_Printf>
    10b2:	2300      	movs	r3, #0
    10b4:	7023      	strb	r3, [r4, #0]
    10b6:	f002 f8cb 	bl	3250 <vResetOTADiscovery>
    10ba:	f002 fa4d 	bl	3558 <vOTAResetPersist>
    10be:	4621      	mov	r1, r4
    10c0:	2201      	movs	r2, #1
    10c2:	2005      	movs	r0, #5
    10c4:	f010 fd58 	bl	11b78 <PDM_eSaveRecordData>
    10c8:	f7ff fc04 	bl	8d4 <ZPS_pvAplZdoGetAplHandle>
    10cc:	e8bd 4010 	ldmia.w	sp!, {r4, lr}
    10d0:	f014 bf58 	b.w	15f84 <zps_vSaveAllZpsRecords>
    10d4:	04015667 	.word	0x04015667
    10d8:	0002a4b6 	.word	0x0002a4b6

000010dc <APP_vBdbCallback>:
    10dc:	b530      	push	{r4, r5, lr}
    10de:	7801      	ldrb	r1, [r0, #0]
    10e0:	b089      	sub	sp, #36	; 0x24
    10e2:	4604      	mov	r4, r0
    10e4:	2915      	cmp	r1, #21
    10e6:	f200 8176 	bhi.w	13d6 <APP_vBdbCallback+0x2fa>
    10ea:	e8df f011 	tbh	[pc, r1, lsl #1]
    10ee:	00e1      	.short	0x00e1
    10f0:	00e30016 	.word	0x00e30016
    10f4:	00e700f9 	.word	0x00e700f9
    10f8:	010100ff 	.word	0x010100ff
    10fc:	01740174 	.word	0x01740174
    1100:	01740110 	.word	0x01740110
    1104:	01220174 	.word	0x01220174
    1108:	0134012e 	.word	0x0134012e
    110c:	01530138 	.word	0x01530138
    1110:	015a015c 	.word	0x015a015c
    1114:	0160015e 	.word	0x0160015e
    1118:	0172      	.short	0x0172
    111a:	7a05      	ldrb	r5, [r0, #8]
    111c:	f7ff fda6 	bl	c6c <app_u8GetDeviceEndpoint>
    1120:	4285      	cmp	r5, r0
    1122:	d113      	bne.n	114c <APP_vBdbCallback+0x70>
    1124:	7c23      	ldrb	r3, [r4, #16]
    1126:	2b01      	cmp	r3, #1
    1128:	d001      	beq.n	112e <APP_vBdbCallback+0x52>
    112a:	2b16      	cmp	r3, #22
    112c:	d106      	bne.n	113c <APP_vBdbCallback+0x60>
    112e:	48ab      	ldr	r0, [pc, #684]	; (13dc <APP_vBdbCallback+0x300>)
    1130:	f000 fdcc 	bl	1ccc <DbgConsole_Printf>
    1134:	f104 0010 	add.w	r0, r4, #16
    1138:	f000 fb2e 	bl	1798 <APP_ZCL_vEventHandler>
    113c:	7c23      	ldrb	r3, [r4, #16]
    113e:	2b01      	cmp	r3, #1
    1140:	f040 80b3 	bne.w	12aa <APP_vBdbCallback+0x1ce>
    1144:	6aa0      	ldr	r0, [r4, #40]	; 0x28
    1146:	f00e fc75 	bl	fa34 <PDUM_eAPduFreeAPduInstance>
    114a:	e0b1      	b.n	12b0 <APP_vBdbCallback+0x1d4>
    114c:	7a23      	ldrb	r3, [r4, #8]
    114e:	2b00      	cmp	r3, #0
    1150:	d1f4      	bne.n	113c <APP_vBdbCallback+0x60>
    1152:	4ba3      	ldr	r3, [pc, #652]	; (13e0 <APP_vBdbCallback+0x304>)
    1154:	781b      	ldrb	r3, [r3, #0]
    1156:	2b03      	cmp	r3, #3
    1158:	d1f0      	bne.n	113c <APP_vBdbCallback+0x60>
    115a:	48a2      	ldr	r0, [pc, #648]	; (13e4 <APP_vBdbCallback+0x308>)
    115c:	f000 fdb6 	bl	1ccc <DbgConsole_Printf>
    1160:	7c23      	ldrb	r3, [r4, #16]
    1162:	3b01      	subs	r3, #1
    1164:	2b0e      	cmp	r3, #14
    1166:	d8e9      	bhi.n	113c <APP_vBdbCallback+0x60>
    1168:	a201      	add	r2, pc, #4	; (adr r2, 1170 <APP_vBdbCallback+0x94>)
    116a:	f852 f023 	ldr.w	pc, [r2, r3, lsl #2]
    116e:	bf00      	nop
    1170:	00001249 	.word	0x00001249
    1174:	0000113d 	.word	0x0000113d
    1178:	0000113d 	.word	0x0000113d
    117c:	0000113d 	.word	0x0000113d
    1180:	0000113d 	.word	0x0000113d
    1184:	000011ad 	.word	0x000011ad
    1188:	0000113d 	.word	0x0000113d
    118c:	000011bf 	.word	0x000011bf
    1190:	0000113d 	.word	0x0000113d
    1194:	0000113d 	.word	0x0000113d
    1198:	00001205 	.word	0x00001205
    119c:	00001243 	.word	0x00001243
    11a0:	0000113d 	.word	0x0000113d
    11a4:	0000113d 	.word	0x0000113d
    11a8:	00001281 	.word	0x00001281
    11ac:	f7ff fd60 	bl	c70 <vHandleJoinAndRejoin>
    11b0:	7ea3      	ldrb	r3, [r4, #26]
    11b2:	2b00      	cmp	r3, #0
    11b4:	d1c2      	bne.n	113c <APP_vBdbCallback+0x60>
    11b6:	2001      	movs	r0, #1
    11b8:	f001 fa84 	bl	26c4 <APP_vNtagStart>
    11bc:	e7be      	b.n	113c <APP_vBdbCallback+0x60>
    11be:	488a      	ldr	r0, [pc, #552]	; (13e8 <APP_vBdbCallback+0x30c>)
    11c0:	f000 fd84 	bl	1ccc <DbgConsole_Printf>
    11c4:	f7ff fb86 	bl	8d4 <ZPS_pvAplZdoGetAplHandle>
    11c8:	f014 fbad 	bl	15926 <zps_psAplAibGetAib>
    11cc:	e9d0 2302 	ldrd	r2, r3, [r0, #8]
    11d0:	4313      	orrs	r3, r2
    11d2:	d0b3      	beq.n	113c <APP_vBdbCallback+0x60>
    11d4:	f7ff fb7e 	bl	8d4 <ZPS_pvAplZdoGetAplHandle>
    11d8:	f014 fba5 	bl	15926 <zps_psAplAibGetAib>
    11dc:	e9d0 2302 	ldrd	r2, r3, [r0, #8]
    11e0:	4882      	ldr	r0, [pc, #520]	; (13ec <APP_vBdbCallback+0x310>)
    11e2:	f000 fd73 	bl	1ccc <DbgConsole_Printf>
    11e6:	f7ff fb75 	bl	8d4 <ZPS_pvAplZdoGetAplHandle>
    11ea:	f015 f9db 	bl	165a4 <zps_pvAplZdoGetNwkHandle>
    11ee:	4605      	mov	r5, r0
    11f0:	f7ff fb70 	bl	8d4 <ZPS_pvAplZdoGetAplHandle>
    11f4:	f014 fb97 	bl	15926 <zps_psAplAibGetAib>
    11f8:	e9d0 2302 	ldrd	r2, r3, [r0, #8]
    11fc:	4628      	mov	r0, r5
    11fe:	f01d fd43 	bl	1ec88 <ZPS_vNwkNibSetExtPanId>
    1202:	e79b      	b.n	113c <APP_vBdbCallback+0x60>
    1204:	f894 3020 	ldrb.w	r3, [r4, #32]
    1208:	9300      	str	r3, [sp, #0]
    120a:	e9d4 2306 	ldrd	r2, r3, [r4, #24]
    120e:	4878      	ldr	r0, [pc, #480]	; (13f0 <APP_vBdbCallback+0x314>)
    1210:	f000 fd5c 	bl	1ccc <DbgConsole_Printf>
    1214:	e9d4 2306 	ldrd	r2, r3, [r4, #24]
    1218:	4313      	orrs	r3, r2
    121a:	d18f      	bne.n	113c <APP_vBdbCallback+0x60>
    121c:	f894 3020 	ldrb.w	r3, [r4, #32]
    1220:	2b00      	cmp	r3, #0
    1222:	d18b      	bne.n	113c <APP_vBdbCallback+0x60>
    1224:	4873      	ldr	r0, [pc, #460]	; (13f4 <APP_vBdbCallback+0x318>)
    1226:	f000 fd51 	bl	1ccc <DbgConsole_Printf>
    122a:	4873      	ldr	r0, [pc, #460]	; (13f8 <APP_vBdbCallback+0x31c>)
    122c:	f000 fd4e 	bl	1ccc <DbgConsole_Printf>
    1230:	f7ff ff2e 	bl	1090 <APP_vFactoryResetRecords>
    1234:	4871      	ldr	r0, [pc, #452]	; (13fc <APP_vBdbCallback+0x320>)
    1236:	f000 fd49 	bl	1ccc <DbgConsole_Printf>
    123a:	b672      	cpsid	i
    123c:	f003 fc9a 	bl	4b74 <RESET_SystemReset>
    1240:	e77c      	b.n	113c <APP_vBdbCallback+0x60>
    1242:	f7ff ff25 	bl	1090 <APP_vFactoryResetRecords>
    1246:	e7f8      	b.n	123a <APP_vBdbCallback+0x15e>
    1248:	f894 3038 	ldrb.w	r3, [r4, #56]	; 0x38
    124c:	2b00      	cmp	r3, #0
    124e:	f47f af75 	bne.w	113c <APP_vBdbCallback+0x60>
    1252:	f894 3035 	ldrb.w	r3, [r4, #53]	; 0x35
    1256:	2b00      	cmp	r3, #0
    1258:	f47f af70 	bne.w	113c <APP_vBdbCallback+0x60>
    125c:	8e63      	ldrh	r3, [r4, #50]	; 0x32
    125e:	f248 0206 	movw	r2, #32774	; 0x8006
    1262:	4293      	cmp	r3, r2
    1264:	f104 0010 	add.w	r0, r4, #16
    1268:	d102      	bne.n	1270 <APP_vBdbCallback+0x194>
    126a:	f001 ff55 	bl	3118 <vHandleMatchDescriptor>
    126e:	e765      	b.n	113c <APP_vBdbCallback+0x60>
    1270:	f248 0201 	movw	r2, #32769	; 0x8001
    1274:	4293      	cmp	r3, r2
    1276:	f47f af61 	bne.w	113c <APP_vBdbCallback+0x60>
    127a:	f001 ff89 	bl	3190 <vHandleIeeeAddressRsp>
    127e:	e75d      	b.n	113c <APP_vBdbCallback+0x60>
    1280:	7e23      	ldrb	r3, [r4, #24]
    1282:	4d5f      	ldr	r5, [pc, #380]	; (1400 <APP_vBdbCallback+0x324>)
    1284:	2be9      	cmp	r3, #233	; 0xe9
    1286:	d002      	beq.n	128e <APP_vBdbCallback+0x1b2>
    1288:	2300      	movs	r3, #0
    128a:	702b      	strb	r3, [r5, #0]
    128c:	e756      	b.n	113c <APP_vBdbCallback+0x60>
    128e:	782b      	ldrb	r3, [r5, #0]
    1290:	3301      	adds	r3, #1
    1292:	b2db      	uxtb	r3, r3
    1294:	2b03      	cmp	r3, #3
    1296:	702b      	strb	r3, [r5, #0]
    1298:	f67f af50 	bls.w	113c <APP_vBdbCallback+0x60>
    129c:	4859      	ldr	r0, [pc, #356]	; (1404 <APP_vBdbCallback+0x328>)
    129e:	f000 fd15 	bl	1ccc <DbgConsole_Printf>
    12a2:	2001      	movs	r0, #1
    12a4:	f00c ff5a 	bl	e15c <BDB_vRejoinCycle>
    12a8:	e7ee      	b.n	1288 <APP_vBdbCallback+0x1ac>
    12aa:	2b16      	cmp	r3, #22
    12ac:	f43f af4a 	beq.w	1144 <APP_vBdbCallback+0x68>
    12b0:	b009      	add	sp, #36	; 0x24
    12b2:	bd30      	pop	{r4, r5, pc}
    12b4:	4854      	ldr	r0, [pc, #336]	; (1408 <APP_vBdbCallback+0x32c>)
    12b6:	f000 fd09 	bl	1ccc <DbgConsole_Printf>
    12ba:	e7f9      	b.n	12b0 <APP_vBdbCallback+0x1d4>
    12bc:	4853      	ldr	r0, [pc, #332]	; (140c <APP_vBdbCallback+0x330>)
    12be:	f000 fd05 	bl	1ccc <DbgConsole_Printf>
    12c2:	4853      	ldr	r0, [pc, #332]	; (1410 <APP_vBdbCallback+0x334>)
    12c4:	f000 fd02 	bl	1ccc <DbgConsole_Printf>
    12c8:	2000      	movs	r0, #0
    12ca:	f7ff fd0f 	bl	cec <vLoadKeepAliveTime>
    12ce:	2000      	movs	r0, #0
    12d0:	f7ff fd3e 	bl	d50 <vLoadDeepSleepTimer>
    12d4:	4b4f      	ldr	r3, [pc, #316]	; (1414 <APP_vBdbCallback+0x338>)
    12d6:	210a      	movs	r1, #10
    12d8:	7818      	ldrb	r0, [r3, #0]
    12da:	f002 fb77 	bl	39cc <ZTIMER_eStart>
    12de:	e7e7      	b.n	12b0 <APP_vBdbCallback+0x1d4>
    12e0:	484d      	ldr	r0, [pc, #308]	; (1418 <APP_vBdbCallback+0x33c>)
    12e2:	f000 fcf3 	bl	1ccc <DbgConsole_Printf>
    12e6:	f7ff fcc3 	bl	c70 <vHandleJoinAndRejoin>
    12ea:	e7e1      	b.n	12b0 <APP_vBdbCallback+0x1d4>
    12ec:	484b      	ldr	r0, [pc, #300]	; (141c <APP_vBdbCallback+0x340>)
    12ee:	e7f8      	b.n	12e2 <APP_vBdbCallback+0x206>
    12f0:	484b      	ldr	r0, [pc, #300]	; (1420 <APP_vBdbCallback+0x344>)
    12f2:	f000 fceb 	bl	1ccc <DbgConsole_Printf>
    12f6:	2000      	movs	r0, #0
    12f8:	f7ff fcf8 	bl	cec <vLoadKeepAliveTime>
    12fc:	2000      	movs	r0, #0
    12fe:	f7ff fd27 	bl	d50 <vLoadDeepSleepTimer>
    1302:	f7ff fdfb 	bl	efc <vUpdateKeepAliveTimer>
    1306:	4b36      	ldr	r3, [pc, #216]	; (13e0 <APP_vBdbCallback+0x304>)
    1308:	2204      	movs	r2, #4
    130a:	701a      	strb	r2, [r3, #0]
    130c:	e7d0      	b.n	12b0 <APP_vBdbCallback+0x1d4>
    130e:	4845      	ldr	r0, [pc, #276]	; (1424 <APP_vBdbCallback+0x348>)
    1310:	f000 fcdc 	bl	1ccc <DbgConsole_Printf>
    1314:	4844      	ldr	r0, [pc, #272]	; (1428 <APP_vBdbCallback+0x34c>)
    1316:	f000 fcd9 	bl	1ccc <DbgConsole_Printf>
    131a:	4b31      	ldr	r3, [pc, #196]	; (13e0 <APP_vBdbCallback+0x304>)
    131c:	2201      	movs	r2, #1
    131e:	701a      	strb	r2, [r3, #0]
    1320:	4b42      	ldr	r3, [pc, #264]	; (142c <APP_vBdbCallback+0x350>)
    1322:	21fa      	movs	r1, #250	; 0xfa
    1324:	7818      	ldrb	r0, [r3, #0]
    1326:	f002 fb51 	bl	39cc <ZTIMER_eStart>
    132a:	4b41      	ldr	r3, [pc, #260]	; (1430 <APP_vBdbCallback+0x354>)
    132c:	2214      	movs	r2, #20
    132e:	801a      	strh	r2, [r3, #0]
    1330:	e7be      	b.n	12b0 <APP_vBdbCallback+0x1d4>
    1332:	6880      	ldr	r0, [r0, #8]
    1334:	7a04      	ldrb	r4, [r0, #8]
    1336:	8883      	ldrh	r3, [r0, #4]
    1338:	8842      	ldrh	r2, [r0, #2]
    133a:	7841      	ldrb	r1, [r0, #1]
    133c:	9401      	str	r4, [sp, #4]
    133e:	88c0      	ldrh	r0, [r0, #6]
    1340:	9000      	str	r0, [sp, #0]
    1342:	483c      	ldr	r0, [pc, #240]	; (1434 <APP_vBdbCallback+0x358>)
    1344:	f000 fcc2 	bl	1ccc <DbgConsole_Printf>
    1348:	e7b2      	b.n	12b0 <APP_vBdbCallback+0x1d4>
    134a:	6883      	ldr	r3, [r0, #8]
    134c:	483a      	ldr	r0, [pc, #232]	; (1438 <APP_vBdbCallback+0x35c>)
    134e:	8959      	ldrh	r1, [r3, #10]
    1350:	f000 fcbc 	bl	1ccc <DbgConsole_Printf>
    1354:	e7ac      	b.n	12b0 <APP_vBdbCallback+0x1d4>
    1356:	6883      	ldr	r3, [r0, #8]
    1358:	4838      	ldr	r0, [pc, #224]	; (143c <APP_vBdbCallback+0x360>)
    135a:	8959      	ldrh	r1, [r3, #10]
    135c:	e7f8      	b.n	1350 <APP_vBdbCallback+0x274>
    135e:	6883      	ldr	r3, [r0, #8]
    1360:	4837      	ldr	r0, [pc, #220]	; (1440 <APP_vBdbCallback+0x364>)
    1362:	7859      	ldrb	r1, [r3, #1]
    1364:	f000 fcb2 	bl	1ccc <DbgConsole_Printf>
    1368:	4a36      	ldr	r2, [pc, #216]	; (1444 <APP_vBdbCallback+0x368>)
    136a:	2300      	movs	r3, #0
    136c:	7013      	strb	r3, [r2, #0]
    136e:	f8ad 300c 	strh.w	r3, [sp, #12]
    1372:	2307      	movs	r3, #7
    1374:	f88d 3010 	strb.w	r3, [sp, #16]
    1378:	68a3      	ldr	r3, [r4, #8]
    137a:	885a      	ldrh	r2, [r3, #2]
    137c:	f8ad 2018 	strh.w	r2, [sp, #24]
    1380:	7859      	ldrb	r1, [r3, #1]
    1382:	7818      	ldrb	r0, [r3, #0]
    1384:	ab03      	add	r3, sp, #12
    1386:	9300      	str	r3, [sp, #0]
    1388:	aa04      	add	r2, sp, #16
    138a:	f10d 030b 	add.w	r3, sp, #11
    138e:	f007 fd51 	bl	8e34 <eCLD_IdentifyCommandIdentifyRequestSend>
    1392:	e78d      	b.n	12b0 <APP_vBdbCallback+0x1d4>
    1394:	6883      	ldr	r3, [r0, #8]
    1396:	482c      	ldr	r0, [pc, #176]	; (1448 <APP_vBdbCallback+0x36c>)
    1398:	885a      	ldrh	r2, [r3, #2]
    139a:	8959      	ldrh	r1, [r3, #10]
    139c:	f000 fc96 	bl	1ccc <DbgConsole_Printf>
    13a0:	e7e2      	b.n	1368 <APP_vBdbCallback+0x28c>
    13a2:	482a      	ldr	r0, [pc, #168]	; (144c <APP_vBdbCallback+0x370>)
    13a4:	e787      	b.n	12b6 <APP_vBdbCallback+0x1da>
    13a6:	482a      	ldr	r0, [pc, #168]	; (1450 <APP_vBdbCallback+0x374>)
    13a8:	e785      	b.n	12b6 <APP_vBdbCallback+0x1da>
    13aa:	482a      	ldr	r0, [pc, #168]	; (1454 <APP_vBdbCallback+0x378>)
    13ac:	e783      	b.n	12b6 <APP_vBdbCallback+0x1da>
    13ae:	482a      	ldr	r0, [pc, #168]	; (1458 <APP_vBdbCallback+0x37c>)
    13b0:	f000 fc8c 	bl	1ccc <DbgConsole_Printf>
    13b4:	4a23      	ldr	r2, [pc, #140]	; (1444 <APP_vBdbCallback+0x368>)
    13b6:	7813      	ldrb	r3, [r2, #0]
    13b8:	2b01      	cmp	r3, #1
    13ba:	d907      	bls.n	13cc <APP_vBdbCallback+0x2f0>
    13bc:	2000      	movs	r0, #0
    13be:	7010      	strb	r0, [r2, #0]
    13c0:	f7ff fc3a 	bl	c38 <vAPP_ZCL_DeviceSpecific_SetIdentifyTime>
    13c4:	f00d fc2e 	bl	ec24 <BDB_vFbExitAsInitiator>
    13c8:	4824      	ldr	r0, [pc, #144]	; (145c <APP_vBdbCallback+0x380>)
    13ca:	e774      	b.n	12b6 <APP_vBdbCallback+0x1da>
    13cc:	3301      	adds	r3, #1
    13ce:	7013      	strb	r3, [r2, #0]
    13d0:	e76e      	b.n	12b0 <APP_vBdbCallback+0x1d4>
    13d2:	4823      	ldr	r0, [pc, #140]	; (1460 <APP_vBdbCallback+0x384>)
    13d4:	e76f      	b.n	12b6 <APP_vBdbCallback+0x1da>
    13d6:	4823      	ldr	r0, [pc, #140]	; (1464 <APP_vBdbCallback+0x388>)
    13d8:	e7ba      	b.n	1350 <APP_vBdbCallback+0x274>
    13da:	bf00      	nop
    13dc:	0002a4e5 	.word	0x0002a4e5
    13e0:	04015667 	.word	0x04015667
    13e4:	0002a37e 	.word	0x0002a37e
    13e8:	0002a4f3 	.word	0x0002a4f3
    13ec:	0002a50c 	.word	0x0002a50c
    13f0:	0002a523 	.word	0x0002a523
    13f4:	0002a548 	.word	0x0002a548
    13f8:	0002a568 	.word	0x0002a568
    13fc:	0002a589 	.word	0x0002a589
    1400:	0401567d 	.word	0x0401567d
    1404:	0002a59f 	.word	0x0002a59f
    1408:	0002a5da 	.word	0x0002a5da
    140c:	0002a5f3 	.word	0x0002a5f3
    1410:	0002a611 	.word	0x0002a611
    1414:	04015664 	.word	0x04015664
    1418:	0002a628 	.word	0x0002a628
    141c:	0002a644 	.word	0x0002a644
    1420:	0002a656 	.word	0x0002a656
    1424:	0002a663 	.word	0x0002a663
    1428:	0002a674 	.word	0x0002a674
    142c:	04015663 	.word	0x04015663
    1430:	04015678 	.word	0x04015678
    1434:	0002a6a4 	.word	0x0002a6a4
    1438:	0002a6f2 	.word	0x0002a6f2
    143c:	0002a714 	.word	0x0002a714
    1440:	0002a735 	.word	0x0002a735
    1444:	0401567c 	.word	0x0401567c
    1448:	0002a759 	.word	0x0002a759
    144c:	0002a77f 	.word	0x0002a77f
    1450:	0002a796 	.word	0x0002a796
    1454:	0002a7a2 	.word	0x0002a7a2
    1458:	0002a7af 	.word	0x0002a7af
    145c:	0002a7d0 	.word	0x0002a7d0
    1460:	0002a7e4 	.word	0x0002a7e4
    1464:	0002a7f3 	.word	0x0002a7f3

00001468 <APP_vInitialiseNode>:
    1468:	b5f0      	push	{r4, r5, r6, r7, lr}
    146a:	4604      	mov	r4, r0
    146c:	b085      	sub	sp, #20
    146e:	b160      	cbz	r0, 148a <APP_vInitialiseNode+0x22>
    1470:	483f      	ldr	r0, [pc, #252]	; (1570 <APP_vInitialiseNode+0x108>)
    1472:	f000 fc2b 	bl	1ccc <DbgConsole_Printf>
    1476:	f7ff fced 	bl	e54 <vReloadSleepTimers>
    147a:	f001 fe09 	bl	3090 <vLoadOTAPersistedData>
    147e:	493d      	ldr	r1, [pc, #244]	; (1574 <APP_vInitialiseNode+0x10c>)
    1480:	ab03      	add	r3, sp, #12
    1482:	2201      	movs	r2, #1
    1484:	2005      	movs	r0, #5
    1486:	f00e fe69 	bl	1015c <PDM_eReadDataFromRecord>
    148a:	f7ff fa23 	bl	8d4 <ZPS_pvAplZdoGetAplHandle>
    148e:	f014 fa4a 	bl	15926 <zps_psAplAibGetAib>
    1492:	2501      	movs	r5, #1
    1494:	f880 502d 	strb.w	r5, [r0, #45]	; 0x2d
    1498:	2c00      	cmp	r4, #0
    149a:	d04e      	beq.n	153a <APP_vInitialiseNode+0xd2>
    149c:	4628      	mov	r0, r5
    149e:	f7ff f8df 	bl	660 <APP_vRadioTempUpdate>
    14a2:	f7ff fa17 	bl	8d4 <ZPS_pvAplZdoGetAplHandle>
    14a6:	4629      	mov	r1, r5
    14a8:	f010 ff3c 	bl	12324 <zps_eAplAfInit>
    14ac:	4f31      	ldr	r7, [pc, #196]	; (1574 <APP_vInitialiseNode+0x10c>)
    14ae:	4d32      	ldr	r5, [pc, #200]	; (1578 <APP_vInitialiseNode+0x110>)
    14b0:	4620      	mov	r0, r4
    14b2:	f000 f8db 	bl	166c <APP_ZCL_vInitialise>
    14b6:	f7ff fa0d 	bl	8d4 <ZPS_pvAplZdoGetAplHandle>
    14ba:	210e      	movs	r1, #14
    14bc:	f011 f84c 	bl	12558 <zps_bAplAfSetEndDeviceTimeout>
    14c0:	783b      	ldrb	r3, [r7, #0]
    14c2:	2b03      	cmp	r3, #3
    14c4:	d141      	bne.n	154a <APP_vInitialiseNode+0xe2>
    14c6:	2301      	movs	r3, #1
    14c8:	f885 302a 	strb.w	r3, [r5, #42]	; 0x2a
    14cc:	4b2b      	ldr	r3, [pc, #172]	; (157c <APP_vInitialiseNode+0x114>)
    14ce:	62eb      	str	r3, [r5, #44]	; 0x2c
    14d0:	4b2b      	ldr	r3, [pc, #172]	; (1580 <APP_vInitialiseNode+0x118>)
    14d2:	636b      	str	r3, [r5, #52]	; 0x34
    14d4:	a803      	add	r0, sp, #12
    14d6:	4b2b      	ldr	r3, [pc, #172]	; (1584 <APP_vInitialiseNode+0x11c>)
    14d8:	9303      	str	r3, [sp, #12]
    14da:	f00c fd39 	bl	df50 <BDB_vInit>
    14de:	f7ff f9f9 	bl	8d4 <ZPS_pvAplZdoGetAplHandle>
    14e2:	f015 f85f 	bl	165a4 <zps_pvAplZdoGetNwkHandle>
    14e6:	f01d f96c 	bl	1e7c2 <ZPS_u64NwkNibGetExtAddr>
    14ea:	0c03      	lsrs	r3, r0, #16
    14ec:	4a26      	ldr	r2, [pc, #152]	; (1588 <APP_vInitialiseNode+0x120>)
    14ee:	ea43 4301 	orr.w	r3, r3, r1, lsl #16
    14f2:	4043      	eors	r3, r0
    14f4:	8013      	strh	r3, [r2, #0]
    14f6:	f7ff f875 	bl	5e4 <APP_vInitLeds>
    14fa:	f000 fa05 	bl	1908 <APP_bButtonInitialise>
    14fe:	b1d4      	cbz	r4, 1536 <APP_vInitialiseNode+0xce>
    1500:	f000 f96e 	bl	17e0 <APP_u32GetSwitchIOState>
    1504:	0782      	lsls	r2, r0, #30
    1506:	d416      	bmi.n	1536 <APP_vInitialiseNode+0xce>
    1508:	f000 f96a 	bl	17e0 <APP_u32GetSwitchIOState>
    150c:	0783      	lsls	r3, r0, #30
    150e:	d5fb      	bpl.n	1508 <APP_vInitialiseNode+0xa0>
    1510:	f7ff f9e0 	bl	8d4 <ZPS_pvAplZdoGetAplHandle>
    1514:	2300      	movs	r3, #0
    1516:	e9cd 3300 	strd	r3, r3, [sp]
    151a:	2200      	movs	r2, #0
    151c:	2300      	movs	r3, #0
    151e:	f015 f895 	bl	1664c <zps_eAplZdoLeaveNetwork>
    1522:	4601      	mov	r1, r0
    1524:	b1f8      	cbz	r0, 1566 <APP_vInitialiseNode+0xfe>
    1526:	4819      	ldr	r0, [pc, #100]	; (158c <APP_vInitialiseNode+0x124>)
    1528:	f000 fbd0 	bl	1ccc <DbgConsole_Printf>
    152c:	f7ff fdb0 	bl	1090 <APP_vFactoryResetRecords>
    1530:	b672      	cpsid	i
    1532:	f003 fb1f 	bl	4b74 <RESET_SystemReset>
    1536:	b005      	add	sp, #20
    1538:	bdf0      	pop	{r4, r5, r6, r7, pc}
    153a:	f44f 707a 	mov.w	r0, #1000	; 0x3e8
    153e:	f000 f8d3 	bl	16e8 <APP_vRadioTempUpdateMs>
    1542:	f7ff f9c7 	bl	8d4 <ZPS_pvAplZdoGetAplHandle>
    1546:	4621      	mov	r1, r4
    1548:	e7ae      	b.n	14a8 <APP_vInitialiseNode+0x40>
    154a:	4811      	ldr	r0, [pc, #68]	; (1590 <APP_vInitialiseNode+0x128>)
    154c:	f000 fbbe 	bl	1ccc <DbgConsole_Printf>
    1550:	4810      	ldr	r0, [pc, #64]	; (1594 <APP_vInitialiseNode+0x12c>)
    1552:	f000 fbbb 	bl	1ccc <DbgConsole_Printf>
    1556:	2600      	movs	r6, #0
    1558:	480d      	ldr	r0, [pc, #52]	; (1590 <APP_vInitialiseNode+0x128>)
    155a:	703e      	strb	r6, [r7, #0]
    155c:	f000 fbb6 	bl	1ccc <DbgConsole_Printf>
    1560:	f885 602a 	strb.w	r6, [r5, #42]	; 0x2a
    1564:	e7b2      	b.n	14cc <APP_vInitialiseNode+0x64>
    1566:	480c      	ldr	r0, [pc, #48]	; (1598 <APP_vInitialiseNode+0x130>)
    1568:	f000 fbb0 	bl	1ccc <DbgConsole_Printf>
    156c:	e7e3      	b.n	1536 <APP_vInitialiseNode+0xce>
    156e:	bf00      	nop
    1570:	0002a80c 	.word	0x0002a80c
    1574:	04015667 	.word	0x04015667
    1578:	040038c0 	.word	0x040038c0
    157c:	02108800 	.word	0x02108800
    1580:	05ef7000 	.word	0x05ef7000
    1584:	04015650 	.word	0x04015650
    1588:	0401567a 	.word	0x0401567a
    158c:	0002a869 	.word	0x0002a869
    1590:	0002a822 	.word	0x0002a822
    1594:	0002a836 	.word	0x0002a836
    1598:	0002a893 	.word	0x0002a893

0000159c <APP_bIsRunning>:
    159c:	4b02      	ldr	r3, [pc, #8]	; (15a8 <APP_bIsRunning+0xc>)
    159e:	7818      	ldrb	r0, [r3, #0]
    15a0:	1ec3      	subs	r3, r0, #3
    15a2:	4258      	negs	r0, r3
    15a4:	4158      	adcs	r0, r3
    15a6:	4770      	bx	lr
    15a8:	04015667 	.word	0x04015667

000015ac <APP_ZCL_cbGeneralCallback>:
    15ac:	4770      	bx	lr

000015ae <vSetThreeLeds>:
    15ae:	b538      	push	{r3, r4, r5, lr}
    15b0:	460d      	mov	r5, r1
    15b2:	4601      	mov	r1, r0
    15b4:	2000      	movs	r0, #0
    15b6:	4614      	mov	r4, r2
    15b8:	f7ff f83c 	bl	634 <APP_vSetLED>
    15bc:	4629      	mov	r1, r5
    15be:	2001      	movs	r0, #1
    15c0:	f7ff f838 	bl	634 <APP_vSetLED>
    15c4:	4621      	mov	r1, r4
    15c6:	2002      	movs	r0, #2
    15c8:	e8bd 4038 	ldmia.w	sp!, {r3, r4, r5, lr}
    15cc:	f7ff b832 	b.w	634 <APP_vSetLED>

000015d0 <APP_ZCL_cbEndpointCallback>:
    15d0:	b507      	push	{r0, r1, r2, lr}
    15d2:	7803      	ldrb	r3, [r0, #0]
    15d4:	2b0a      	cmp	r3, #10
    15d6:	d00c      	beq.n	15f2 <APP_ZCL_cbEndpointCallback+0x22>
    15d8:	2b1b      	cmp	r3, #27
    15da:	d036      	beq.n	164a <APP_ZCL_cbEndpointCallback+0x7a>
    15dc:	2b03      	cmp	r3, #3
    15de:	d105      	bne.n	15ec <APP_ZCL_cbEndpointCallback+0x1c>
    15e0:	68c3      	ldr	r3, [r0, #12]
    15e2:	7ac1      	ldrb	r1, [r0, #11]
    15e4:	781a      	ldrb	r2, [r3, #0]
    15e6:	481e      	ldr	r0, [pc, #120]	; (1660 <APP_ZCL_cbEndpointCallback+0x90>)
    15e8:	f000 fb70 	bl	1ccc <DbgConsole_Printf>
    15ec:	b003      	add	sp, #12
    15ee:	f85d fb04 	ldr.w	pc, [sp], #4
    15f2:	8903      	ldrh	r3, [r0, #8]
    15f4:	2b03      	cmp	r3, #3
    15f6:	d018      	beq.n	162a <APP_ZCL_cbEndpointCallback+0x5a>
    15f8:	2b19      	cmp	r3, #25
    15fa:	d012      	beq.n	1622 <APP_ZCL_cbEndpointCallback+0x52>
    15fc:	2b00      	cmp	r3, #0
    15fe:	d1f5      	bne.n	15ec <APP_ZCL_cbEndpointCallback+0x1c>
    1600:	68c3      	ldr	r3, [r0, #12]
    1602:	7819      	ldrb	r1, [r3, #0]
    1604:	2900      	cmp	r1, #0
    1606:	d1f1      	bne.n	15ec <APP_ZCL_cbEndpointCallback+0x1c>
    1608:	f44f 62cb 	mov.w	r2, #1624	; 0x658
    160c:	4815      	ldr	r0, [pc, #84]	; (1664 <APP_ZCL_cbEndpointCallback+0x94>)
    160e:	f028 f91d 	bl	2984c <memset>
    1612:	4815      	ldr	r0, [pc, #84]	; (1668 <APP_ZCL_cbEndpointCallback+0x98>)
    1614:	f7ff facc 	bl	bb0 <eApp_ZCL_RegisterEndpoint>
    1618:	f7ff fad2 	bl	bc0 <vAPP_ZCL_DeviceSpecific_Init>
    161c:	f001 fcc2 	bl	2fa4 <vAppInitOTA>
    1620:	e7e4      	b.n	15ec <APP_ZCL_cbEndpointCallback+0x1c>
    1622:	68c0      	ldr	r0, [r0, #12]
    1624:	f001 ffb4 	bl	3590 <vHandleAppOtaClient>
    1628:	e7e0      	b.n	15ec <APP_ZCL_cbEndpointCallback+0x1c>
    162a:	6ac3      	ldr	r3, [r0, #44]	; 0x2c
    162c:	781b      	ldrb	r3, [r3, #0]
    162e:	2b00      	cmp	r3, #0
    1630:	d1dc      	bne.n	15ec <APP_ZCL_cbEndpointCallback+0x1c>
    1632:	68c3      	ldr	r3, [r0, #12]
    1634:	781b      	ldrb	r3, [r3, #0]
    1636:	2b00      	cmp	r3, #0
    1638:	d1d8      	bne.n	15ec <APP_ZCL_cbEndpointCallback+0x1c>
    163a:	2308      	movs	r3, #8
    163c:	9001      	str	r0, [sp, #4]
    163e:	4668      	mov	r0, sp
    1640:	f88d 3000 	strb.w	r3, [sp]
    1644:	f00c ff24 	bl	e490 <BDB_vZclEventHandler>
    1648:	e7d0      	b.n	15ec <APP_ZCL_cbEndpointCallback+0x1c>
    164a:	6ac3      	ldr	r3, [r0, #44]	; 0x2c
    164c:	685b      	ldr	r3, [r3, #4]
    164e:	881b      	ldrh	r3, [r3, #0]
    1650:	2b03      	cmp	r3, #3
    1652:	d1cb      	bne.n	15ec <APP_ZCL_cbEndpointCallback+0x1c>
    1654:	f7ff faf6 	bl	c44 <vAPP_ZCL_DeviceSpecific_UpdateIdentify>
    1658:	f7ff fbfc 	bl	e54 <vReloadSleepTimers>
    165c:	e7c6      	b.n	15ec <APP_ZCL_cbEndpointCallback+0x1c>
    165e:	bf00      	nop
    1660:	0002a8a7 	.word	0x0002a8a7
    1664:	04001590 	.word	0x04001590
    1668:	000015d1 	.word	0x000015d1

0000166c <APP_ZCL_vInitialise>:
    166c:	b510      	push	{r4, lr}
    166e:	4916      	ldr	r1, [pc, #88]	; (16c8 <APP_ZCL_vInitialise+0x5c>)
    1670:	4604      	mov	r4, r0
    1672:	4816      	ldr	r0, [pc, #88]	; (16cc <APP_ZCL_vInitialise+0x60>)
    1674:	f00b fb10 	bl	cc98 <eZCL_Initialise>
    1678:	4815      	ldr	r0, [pc, #84]	; (16d0 <APP_ZCL_vInitialise+0x64>)
    167a:	f7ff fa99 	bl	bb0 <eApp_ZCL_RegisterEndpoint>
    167e:	4601      	mov	r1, r0
    1680:	b110      	cbz	r0, 1688 <APP_ZCL_vInitialise+0x1c>
    1682:	4814      	ldr	r0, [pc, #80]	; (16d4 <APP_ZCL_vInitialise+0x68>)
    1684:	f000 fb22 	bl	1ccc <DbgConsole_Printf>
    1688:	f7ff fa9a 	bl	bc0 <vAPP_ZCL_DeviceSpecific_Init>
    168c:	b14c      	cbz	r4, 16a2 <APP_ZCL_vInitialise+0x36>
    168e:	f001 fc89 	bl	2fa4 <vAppInitOTA>
    1692:	4b11      	ldr	r3, [pc, #68]	; (16d8 <APP_ZCL_vInitialise+0x6c>)
    1694:	e8bd 4010 	ldmia.w	sp!, {r4, lr}
    1698:	7818      	ldrb	r0, [r3, #0]
    169a:	f44f 717a 	mov.w	r1, #1000	; 0x3e8
    169e:	f002 b995 	b.w	39cc <ZTIMER_eStart>
    16a2:	4b0e      	ldr	r3, [pc, #56]	; (16dc <APP_ZCL_vInitialise+0x70>)
    16a4:	6818      	ldr	r0, [r3, #0]
    16a6:	f00c fa71 	bl	db8c <vZCL_SetUTCTime>
    16aa:	f001 fc57 	bl	2f5c <bInitialiseOTAClusterAndAttributes>
    16ae:	4a0c      	ldr	r2, [pc, #48]	; (16e0 <APP_ZCL_vInitialise+0x74>)
    16b0:	4621      	mov	r1, r4
    16b2:	2005      	movs	r0, #5
    16b4:	f00c f9e2 	bl	da7c <eZCL_TimerRegister>
    16b8:	b120      	cbz	r0, 16c4 <APP_ZCL_vInitialise+0x58>
    16ba:	e8bd 4010 	ldmia.w	sp!, {r4, lr}
    16be:	4809      	ldr	r0, [pc, #36]	; (16e4 <APP_ZCL_vInitialise+0x78>)
    16c0:	f000 bb04 	b.w	1ccc <DbgConsole_Printf>
    16c4:	bd10      	pop	{r4, pc}
    16c6:	bf00      	nop
    16c8:	04000a4c 	.word	0x04000a4c
    16cc:	000015ad 	.word	0x000015ad
    16d0:	000015d1 	.word	0x000015d1
    16d4:	0002a8c1 	.word	0x0002a8c1
    16d8:	04015664 	.word	0x04015664
    16dc:	04015810 	.word	0x04015810
    16e0:	000096e5 	.word	0x000096e5
    16e4:	0002a8e7 	.word	0x0002a8e7

000016e8 <APP_vRadioTempUpdateMs>:
    16e8:	4a02      	ldr	r2, [pc, #8]	; (16f4 <APP_vRadioTempUpdateMs+0xc>)
    16ea:	6813      	ldr	r3, [r2, #0]
    16ec:	4403      	add	r3, r0
    16ee:	6013      	str	r3, [r2, #0]
    16f0:	4770      	bx	lr
    16f2:	bf00      	nop
    16f4:	04015680 	.word	0x04015680

000016f8 <APP_cbTimerZclTick>:
    16f8:	b530      	push	{r4, r5, lr}
    16fa:	b08d      	sub	sp, #52	; 0x34
    16fc:	2308      	movs	r3, #8
    16fe:	f88d 3000 	strb.w	r3, [sp]
    1702:	4b1f      	ldr	r3, [pc, #124]	; (1780 <APP_cbTimerZclTick+0x88>)
    1704:	4c1f      	ldr	r4, [pc, #124]	; (1784 <APP_cbTimerZclTick+0x8c>)
    1706:	7818      	ldrb	r0, [r3, #0]
    1708:	4d1f      	ldr	r5, [pc, #124]	; (1788 <APP_cbTimerZclTick+0x90>)
    170a:	f44f 717a 	mov.w	r1, #1000	; 0x3e8
    170e:	f002 f95d 	bl	39cc <ZTIMER_eStart>
    1712:	4668      	mov	r0, sp
    1714:	f00b fbb2 	bl	ce7c <vZCL_EventHandler>
    1718:	4b1c      	ldr	r3, [pc, #112]	; (178c <APP_cbTimerZclTick+0x94>)
    171a:	7820      	ldrb	r0, [r4, #0]
    171c:	7819      	ldrb	r1, [r3, #0]
    171e:	2803      	cmp	r0, #3
    1720:	f081 0201 	eor.w	r2, r1, #1
    1724:	701a      	strb	r2, [r3, #0]
    1726:	d009      	beq.n	173c <APP_cbTimerZclTick+0x44>
    1728:	4610      	mov	r0, r2
    172a:	f7ff ff40 	bl	15ae <vSetThreeLeds>
    172e:	2304      	movs	r3, #4
    1730:	702b      	strb	r3, [r5, #0]
    1732:	7823      	ldrb	r3, [r4, #0]
    1734:	3b03      	subs	r3, #3
    1736:	2b01      	cmp	r3, #1
    1738:	d804      	bhi.n	1744 <APP_cbTimerZclTick+0x4c>
    173a:	e001      	b.n	1740 <APP_cbTimerZclTick+0x48>
    173c:	782b      	ldrb	r3, [r5, #0]
    173e:	b973      	cbnz	r3, 175e <APP_cbTimerZclTick+0x66>
    1740:	f7ff fbdc 	bl	efc <vUpdateKeepAliveTimer>
    1744:	f44f 707a 	mov.w	r0, #1000	; 0x3e8
    1748:	f001 fd94 	bl	3274 <vRunAppOTAStateMachine>
    174c:	4a10      	ldr	r2, [pc, #64]	; (1790 <APP_cbTimerZclTick+0x98>)
    174e:	4911      	ldr	r1, [pc, #68]	; (1794 <APP_cbTimerZclTick+0x9c>)
    1750:	6813      	ldr	r3, [r2, #0]
    1752:	3364      	adds	r3, #100	; 0x64
    1754:	428b      	cmp	r3, r1
    1756:	d80d      	bhi.n	1774 <APP_cbTimerZclTick+0x7c>
    1758:	6013      	str	r3, [r2, #0]
    175a:	b00d      	add	sp, #52	; 0x34
    175c:	bd30      	pop	{r4, r5, pc}
    175e:	3b01      	subs	r3, #1
    1760:	b2db      	uxtb	r3, r3
    1762:	2b01      	cmp	r3, #1
    1764:	bf98      	it	ls
    1766:	2200      	movls	r2, #0
    1768:	4611      	mov	r1, r2
    176a:	4610      	mov	r0, r2
    176c:	702b      	strb	r3, [r5, #0]
    176e:	f7ff ff1e 	bl	15ae <vSetThreeLeds>
    1772:	e7de      	b.n	1732 <APP_cbTimerZclTick+0x3a>
    1774:	2000      	movs	r0, #0
    1776:	6010      	str	r0, [r2, #0]
    1778:	f7fe ff72 	bl	660 <APP_vRadioTempUpdate>
    177c:	e7ed      	b.n	175a <APP_cbTimerZclTick+0x62>
    177e:	bf00      	nop
    1780:	04015664 	.word	0x04015664
    1784:	04015667 	.word	0x04015667
    1788:	04015688 	.word	0x04015688
    178c:	0401567e 	.word	0x0401567e
    1790:	04015684 	.word	0x04015684
    1794:	000493df 	.word	0x000493df

00001798 <APP_ZCL_vEventHandler>:
    1798:	b500      	push	{lr}
    179a:	b08d      	sub	sp, #52	; 0x34
    179c:	2309      	movs	r3, #9
    179e:	900a      	str	r0, [sp, #40]	; 0x28
    17a0:	4668      	mov	r0, sp
    17a2:	f88d 3000 	strb.w	r3, [sp]
    17a6:	f00b fb69 	bl	ce7c <vZCL_EventHandler>
    17aa:	b00d      	add	sp, #52	; 0x34
    17ac:	f85d fb04 	ldr.w	pc, [sp], #4

000017b0 <gint_callback.part.0>:
    17b0:	b513      	push	{r0, r1, r4, lr}
    17b2:	4809      	ldr	r0, [pc, #36]	; (17d8 <gint_callback.part.0+0x28>)
    17b4:	4c09      	ldr	r4, [pc, #36]	; (17dc <gint_callback.part.0+0x2c>)
    17b6:	f000 fbad 	bl	1f14 <GINT_DisableCallback>
    17ba:	4668      	mov	r0, sp
    17bc:	f001 fbb4 	bl	2f28 <NTAG_GetDefaultConfig>
    17c0:	4668      	mov	r0, sp
    17c2:	f001 fbb5 	bl	2f30 <NTAG_Init>
    17c6:	7820      	ldrb	r0, [r4, #0]
    17c8:	f002 f928 	bl	3a1c <ZTIMER_eStop>
    17cc:	7820      	ldrb	r0, [r4, #0]
    17ce:	210a      	movs	r1, #10
    17d0:	f002 f8fc 	bl	39cc <ZTIMER_eStart>
    17d4:	b002      	add	sp, #8
    17d6:	bd10      	pop	{r4, pc}
    17d8:	40011000 	.word	0x40011000
    17dc:	04015661 	.word	0x04015661

000017e0 <APP_u32GetSwitchIOState>:
    17e0:	4b05      	ldr	r3, [pc, #20]	; (17f8 <APP_u32GetSwitchIOState+0x18>)
    17e2:	b510      	push	{r4, lr}
    17e4:	681c      	ldr	r4, [r3, #0]
    17e6:	f001 fbb1 	bl	2f4c <NTAG_PollFieldDetect>
    17ea:	2801      	cmp	r0, #1
    17ec:	4803      	ldr	r0, [pc, #12]	; (17fc <APP_u32GetSwitchIOState+0x1c>)
    17ee:	bf08      	it	eq
    17f0:	f444 0480 	orreq.w	r4, r4, #4194304	; 0x400000
    17f4:	4020      	ands	r0, r4
    17f6:	bd10      	pop	{r4, pc}
    17f8:	40082100 	.word	0x40082100
    17fc:	00488092 	.word	0x00488092

00001800 <gint_callback>:
    1800:	b508      	push	{r3, lr}
    1802:	f7ff ffed 	bl	17e0 <APP_u32GetSwitchIOState>
    1806:	4b04      	ldr	r3, [pc, #16]	; (1818 <gint_callback+0x18>)
    1808:	4298      	cmp	r0, r3
    180a:	d003      	beq.n	1814 <gint_callback+0x14>
    180c:	e8bd 4008 	ldmia.w	sp!, {r3, lr}
    1810:	f7ff bfce 	b.w	17b0 <gint_callback.part.0>
    1814:	bd08      	pop	{r3, pc}
    1816:	bf00      	nop
    1818:	00488092 	.word	0x00488092

0000181c <ntag_callback>:
    181c:	b508      	push	{r3, lr}
    181e:	f7ff ffdf 	bl	17e0 <APP_u32GetSwitchIOState>
    1822:	4b04      	ldr	r3, [pc, #16]	; (1834 <ntag_callback+0x18>)
    1824:	4298      	cmp	r0, r3
    1826:	d003      	beq.n	1830 <ntag_callback+0x14>
    1828:	e8bd 4008 	ldmia.w	sp!, {r3, lr}
    182c:	f7ff bfc0 	b.w	17b0 <gint_callback.part.0>
    1830:	bd08      	pop	{r3, pc}
    1832:	bf00      	nop
    1834:	00488092 	.word	0x00488092

00001838 <APP_cbTimerButtonScan>:
    1838:	e92d 4ff0 	stmdb	sp!, {r4, r5, r6, r7, r8, r9, sl, fp, lr}
    183c:	b085      	sub	sp, #20
    183e:	f7ff ffcf 	bl	17e0 <APP_u32GetSwitchIOState>
    1842:	f8df 80b8 	ldr.w	r8, [pc, #184]	; 18fc <APP_cbTimerButtonScan+0xc4>
    1846:	f8df b0b8 	ldr.w	fp, [pc, #184]	; 1900 <APP_cbTimerButtonScan+0xc8>
    184a:	4d28      	ldr	r5, [pc, #160]	; (18ec <APP_cbTimerButtonScan+0xb4>)
    184c:	f8df a0b4 	ldr.w	sl, [pc, #180]	; 1904 <APP_cbTimerButtonScan+0xcc>
    1850:	4606      	mov	r6, r0
    1852:	2400      	movs	r4, #0
    1854:	27ff      	movs	r7, #255	; 0xff
    1856:	f04f 0901 	mov.w	r9, #1
    185a:	f818 3b01 	ldrb.w	r3, [r8], #1
    185e:	f89b 1000 	ldrb.w	r1, [fp]
    1862:	fa26 f303 	lsr.w	r3, r6, r3
    1866:	f003 0301 	and.w	r3, r3, #1
    186a:	ea43 0341 	orr.w	r3, r3, r1, lsl #1
    186e:	b2db      	uxtb	r3, r3
    1870:	f80b 3b01 	strb.w	r3, [fp], #1
    1874:	401f      	ands	r7, r3
    1876:	bb33      	cbnz	r3, 18c6 <APP_cbTimerButtonScan+0x8e>
    1878:	782b      	ldrb	r3, [r5, #0]
    187a:	b95b      	cbnz	r3, 1894 <APP_cbTimerButtonScan+0x5c>
    187c:	2302      	movs	r3, #2
    187e:	f885 9000 	strb.w	r9, [r5]
    1882:	f88d 3004 	strb.w	r3, [sp, #4]
    1886:	a901      	add	r1, sp, #4
    1888:	4650      	mov	r0, sl
    188a:	f88d 4008 	strb.w	r4, [sp, #8]
    188e:	9603      	str	r6, [sp, #12]
    1890:	f001 ffdf 	bl	3852 <ZQ_bQueueSend>
    1894:	3401      	adds	r4, #1
    1896:	2c06      	cmp	r4, #6
    1898:	f105 0501 	add.w	r5, r5, #1
    189c:	d1dd      	bne.n	185a <APP_cbTimerButtonScan+0x22>
    189e:	2fff      	cmp	r7, #255	; 0xff
    18a0:	4c13      	ldr	r4, [pc, #76]	; (18f0 <APP_cbTimerButtonScan+0xb8>)
    18a2:	d11b      	bne.n	18dc <APP_cbTimerButtonScan+0xa4>
    18a4:	4813      	ldr	r0, [pc, #76]	; (18f4 <APP_cbTimerButtonScan+0xbc>)
    18a6:	f000 fb25 	bl	1ef4 <GINT_EnableCallback>
    18aa:	a801      	add	r0, sp, #4
    18ac:	f001 fb3c 	bl	2f28 <NTAG_GetDefaultConfig>
    18b0:	4b11      	ldr	r3, [pc, #68]	; (18f8 <APP_cbTimerButtonScan+0xc0>)
    18b2:	9301      	str	r3, [sp, #4]
    18b4:	a801      	add	r0, sp, #4
    18b6:	f001 fb3b 	bl	2f30 <NTAG_Init>
    18ba:	7820      	ldrb	r0, [r4, #0]
    18bc:	f002 f8ae 	bl	3a1c <ZTIMER_eStop>
    18c0:	b005      	add	sp, #20
    18c2:	e8bd 8ff0 	ldmia.w	sp!, {r4, r5, r6, r7, r8, r9, sl, fp, pc}
    18c6:	2bff      	cmp	r3, #255	; 0xff
    18c8:	d1e4      	bne.n	1894 <APP_cbTimerButtonScan+0x5c>
    18ca:	782b      	ldrb	r3, [r5, #0]
    18cc:	2b00      	cmp	r3, #0
    18ce:	d0e1      	beq.n	1894 <APP_cbTimerButtonScan+0x5c>
    18d0:	f04f 0300 	mov.w	r3, #0
    18d4:	702b      	strb	r3, [r5, #0]
    18d6:	f88d 9004 	strb.w	r9, [sp, #4]
    18da:	e7d4      	b.n	1886 <APP_cbTimerButtonScan+0x4e>
    18dc:	7820      	ldrb	r0, [r4, #0]
    18de:	f002 f89d 	bl	3a1c <ZTIMER_eStop>
    18e2:	7820      	ldrb	r0, [r4, #0]
    18e4:	210a      	movs	r1, #10
    18e6:	f002 f871 	bl	39cc <ZTIMER_eStart>
    18ea:	e7e9      	b.n	18c0 <APP_cbTimerButtonScan+0x88>
    18ec:	04015689 	.word	0x04015689
    18f0:	04015661 	.word	0x04015661
    18f4:	40011000 	.word	0x40011000
    18f8:	0000181d 	.word	0x0000181d
    18fc:	0002a905 	.word	0x0002a905
    1900:	04015555 	.word	0x04015555
    1904:	04015640 	.word	0x04015640

00001908 <APP_bButtonInitialise>:
    1908:	e92d 41ff 	stmdb	sp!, {r0, r1, r2, r3, r4, r5, r6, r7, r8, lr}
    190c:	2300      	movs	r3, #0
    190e:	4d1e      	ldr	r5, [pc, #120]	; (1988 <APP_bButtonInitialise+0x80>)
    1910:	4e1e      	ldr	r6, [pc, #120]	; (198c <APP_bButtonInitialise+0x84>)
    1912:	f8df 8090 	ldr.w	r8, [pc, #144]	; 19a4 <APP_bButtonInitialise+0x9c>
    1916:	f8ad 3004 	strh.w	r3, [sp, #4]
    191a:	2406      	movs	r4, #6
    191c:	2780      	movs	r7, #128	; 0x80
    191e:	f815 2b01 	ldrb.w	r2, [r5], #1
    1922:	2a15      	cmp	r2, #21
    1924:	d806      	bhi.n	1934 <APP_bButtonInitialise+0x2c>
    1926:	f846 7022 	str.w	r7, [r6, r2, lsl #2]
    192a:	ab01      	add	r3, sp, #4
    192c:	2100      	movs	r1, #0
    192e:	4640      	mov	r0, r8
    1930:	f000 f9ec 	bl	1d0c <GPIO_PinInit>
    1934:	3c01      	subs	r4, #1
    1936:	f014 04ff 	ands.w	r4, r4, #255	; 0xff
    193a:	d1f0      	bne.n	191e <APP_bButtonInitialise+0x16>
    193c:	4814      	ldr	r0, [pc, #80]	; (1990 <APP_bButtonInitialise+0x88>)
    193e:	f000 faab 	bl	1e98 <GINT_Init>
    1942:	4622      	mov	r2, r4
    1944:	4621      	mov	r1, r4
    1946:	4b13      	ldr	r3, [pc, #76]	; (1994 <APP_bButtonInitialise+0x8c>)
    1948:	4811      	ldr	r0, [pc, #68]	; (1990 <APP_bButtonInitialise+0x88>)
    194a:	f000 fab7 	bl	1ebc <GINT_SetCtrl>
    194e:	4622      	mov	r2, r4
    1950:	4621      	mov	r1, r4
    1952:	4b11      	ldr	r3, [pc, #68]	; (1998 <APP_bButtonInitialise+0x90>)
    1954:	480e      	ldr	r0, [pc, #56]	; (1990 <APP_bButtonInitialise+0x88>)
    1956:	f000 fac7 	bl	1ee8 <GINT_ConfigPins>
    195a:	480d      	ldr	r0, [pc, #52]	; (1990 <APP_bButtonInitialise+0x88>)
    195c:	f000 faca 	bl	1ef4 <GINT_EnableCallback>
    1960:	a802      	add	r0, sp, #8
    1962:	f001 fae1 	bl	2f28 <NTAG_GetDefaultConfig>
    1966:	4b0d      	ldr	r3, [pc, #52]	; (199c <APP_bButtonInitialise+0x94>)
    1968:	9302      	str	r3, [sp, #8]
    196a:	a802      	add	r0, sp, #8
    196c:	f001 fae0 	bl	2f30 <NTAG_Init>
    1970:	4620      	mov	r0, r4
    1972:	f7ff ff61 	bl	1838 <APP_cbTimerButtonScan>
    1976:	f7ff ff33 	bl	17e0 <APP_u32GetSwitchIOState>
    197a:	4b09      	ldr	r3, [pc, #36]	; (19a0 <APP_bButtonInitialise+0x98>)
    197c:	1ac0      	subs	r0, r0, r3
    197e:	bf18      	it	ne
    1980:	2001      	movne	r0, #1
    1982:	b004      	add	sp, #16
    1984:	e8bd 81f0 	ldmia.w	sp!, {r4, r5, r6, r7, r8, pc}
    1988:	0002a905 	.word	0x0002a905
    198c:	4000f000 	.word	0x4000f000
    1990:	40011000 	.word	0x40011000
    1994:	00001801 	.word	0x00001801
    1998:	00088092 	.word	0x00088092
    199c:	0000181d 	.word	0x0000181d
    19a0:	00488092 	.word	0x00488092
    19a4:	40080000 	.word	0x40080000

000019a8 <vSwitchStateMachine>:
    19a8:	b510      	push	{r4, lr}
    19aa:	4c3b      	ldr	r4, [pc, #236]	; (1a98 <vSwitchStateMachine+0xf0>)
    19ac:	7823      	ldrb	r3, [r4, #0]
    19ae:	b113      	cbz	r3, 19b6 <vSwitchStateMachine+0xe>
    19b0:	2b02      	cmp	r3, #2
    19b2:	d043      	beq.n	1a3c <vSwitchStateMachine+0x94>
    19b4:	bd10      	pop	{r4, pc}
    19b6:	2810      	cmp	r0, #16
    19b8:	d8fc      	bhi.n	19b4 <vSwitchStateMachine+0xc>
    19ba:	a301      	add	r3, pc, #4	; (adr r3, 19c0 <vSwitchStateMachine+0x18>)
    19bc:	f853 f020 	ldr.w	pc, [r3, r0, lsl #2]
    19c0:	00001a29 	.word	0x00001a29
    19c4:	00001a05 	.word	0x00001a05
    19c8:	00001a0f 	.word	0x00001a0f
    19cc:	00001a13 	.word	0x00001a13
    19d0:	00001a21 	.word	0x00001a21
    19d4:	000019b5 	.word	0x000019b5
    19d8:	000019b5 	.word	0x000019b5
    19dc:	000019b5 	.word	0x000019b5
    19e0:	000019b5 	.word	0x000019b5
    19e4:	000019b5 	.word	0x000019b5
    19e8:	000019b5 	.word	0x000019b5
    19ec:	000019b5 	.word	0x000019b5
    19f0:	000019b5 	.word	0x000019b5
    19f4:	000019b5 	.word	0x000019b5
    19f8:	000019b5 	.word	0x000019b5
    19fc:	00001a35 	.word	0x00001a35
    1a00:	00001a35 	.word	0x00001a35
    1a04:	2001      	movs	r0, #1
    1a06:	e8bd 4010 	ldmia.w	sp!, {r4, lr}
    1a0a:	f7ff b9bb 	b.w	d84 <vAppOnOff>
    1a0e:	2000      	movs	r0, #0
    1a10:	e7f9      	b.n	1a06 <vSwitchStateMachine+0x5e>
    1a12:	2201      	movs	r2, #1
    1a14:	2141      	movs	r1, #65	; 0x41
    1a16:	2000      	movs	r0, #0
    1a18:	e8bd 4010 	ldmia.w	sp!, {r4, lr}
    1a1c:	f7ff b9d2 	b.w	dc4 <vAppLevelMove>
    1a20:	2200      	movs	r2, #0
    1a22:	2141      	movs	r1, #65	; 0x41
    1a24:	2001      	movs	r0, #1
    1a26:	e7f7      	b.n	1a18 <vSwitchStateMachine+0x70>
    1a28:	20ff      	movs	r0, #255	; 0xff
    1a2a:	f7ff f905 	bl	c38 <vAPP_ZCL_DeviceSpecific_SetIdentifyTime>
    1a2e:	2302      	movs	r3, #2
    1a30:	7023      	strb	r3, [r4, #0]
    1a32:	e7bf      	b.n	19b4 <vSwitchStateMachine+0xc>
    1a34:	e8bd 4010 	ldmia.w	sp!, {r4, lr}
    1a38:	f7ff b9ea 	b.w	e10 <vAppLevelStop>
    1a3c:	380a      	subs	r0, #10
    1a3e:	2804      	cmp	r0, #4
    1a40:	d8b8      	bhi.n	19b4 <vSwitchStateMachine+0xc>
    1a42:	a301      	add	r3, pc, #4	; (adr r3, 1a48 <vSwitchStateMachine+0xa0>)
    1a44:	f853 f020 	ldr.w	pc, [r3, r0, lsl #2]
    1a48:	00001a5d 	.word	0x00001a5d
    1a4c:	00001a6f 	.word	0x00001a6f
    1a50:	00001a83 	.word	0x00001a83
    1a54:	000019b5 	.word	0x000019b5
    1a58:	00001a8b 	.word	0x00001a8b
    1a5c:	4b0f      	ldr	r3, [pc, #60]	; (1a9c <vSwitchStateMachine+0xf4>)
    1a5e:	4a10      	ldr	r2, [pc, #64]	; (1aa0 <vSwitchStateMachine+0xf8>)
    1a60:	62da      	str	r2, [r3, #44]	; 0x2c
    1a62:	e8bd 4010 	ldmia.w	sp!, {r4, lr}
    1a66:	4a0f      	ldr	r2, [pc, #60]	; (1aa4 <vSwitchStateMachine+0xfc>)
    1a68:	635a      	str	r2, [r3, #52]	; 0x34
    1a6a:	f00c beab 	b.w	e7c4 <BDB_eNsStartNwkSteering>
    1a6e:	4b0b      	ldr	r3, [pc, #44]	; (1a9c <vSwitchStateMachine+0xf4>)
    1a70:	f64f 72ff 	movw	r2, #65535	; 0xffff
    1a74:	811a      	strh	r2, [r3, #8]
    1a76:	f7ff f8f9 	bl	c6c <app_u8GetDeviceEndpoint>
    1a7a:	e8bd 4010 	ldmia.w	sp!, {r4, lr}
    1a7e:	f00d b849 	b.w	eb14 <BDB_eFbTriggerAsInitiator>
    1a82:	4b09      	ldr	r3, [pc, #36]	; (1aa8 <vSwitchStateMachine+0x100>)
    1a84:	881a      	ldrh	r2, [r3, #0]
    1a86:	4b05      	ldr	r3, [pc, #20]	; (1a9c <vSwitchStateMachine+0xf4>)
    1a88:	e7f4      	b.n	1a74 <vSwitchStateMachine+0xcc>
    1a8a:	f7ff f8e5 	bl	c58 <vAPP_ZCL_DeviceSpecific_IdentifyOff>
    1a8e:	f00d f8c9 	bl	ec24 <BDB_vFbExitAsInitiator>
    1a92:	2300      	movs	r3, #0
    1a94:	e7cc      	b.n	1a30 <vSwitchStateMachine+0x88>
    1a96:	bf00      	nop
    1a98:	0401568f 	.word	0x0401568f
    1a9c:	040038c0 	.word	0x040038c0
    1aa0:	02108800 	.word	0x02108800
    1aa4:	05ef7000 	.word	0x05ef7000
    1aa8:	0401567a 	.word	0x0401567a

00001aac <vApp_ProcessKeyCombination>:
    1aac:	b530      	push	{r4, r5, lr}
    1aae:	b085      	sub	sp, #20
    1ab0:	ab04      	add	r3, sp, #16
    1ab2:	e903 0007 	stmdb	r3, {r0, r1, r2}
    1ab6:	f89d 3004 	ldrb.w	r3, [sp, #4]
    1aba:	f89d 4008 	ldrb.w	r4, [sp, #8]
    1abe:	2b01      	cmp	r3, #1
    1ac0:	d03b      	beq.n	1b3a <vApp_ProcessKeyCombination+0x8e>
    1ac2:	2b02      	cmp	r3, #2
    1ac4:	d13f      	bne.n	1b46 <vApp_ProcessKeyCombination+0x9a>
    1ac6:	9d03      	ldr	r5, [sp, #12]
    1ac8:	4b20      	ldr	r3, [pc, #128]	; (1b4c <vApp_ProcessKeyCombination+0xa0>)
    1aca:	402b      	ands	r3, r5
    1acc:	2b00      	cmp	r3, #0
    1ace:	f248 0380 	movw	r3, #32896	; 0x8080
    1ad2:	bf08      	it	eq
    1ad4:	2406      	moveq	r4, #6
    1ad6:	421d      	tst	r5, r3
    1ad8:	f248 0310 	movw	r3, #32784	; 0x8010
    1adc:	bf08      	it	eq
    1ade:	2407      	moveq	r4, #7
    1ae0:	421d      	tst	r5, r3
    1ae2:	f503 23f0 	add.w	r3, r3, #491520	; 0x78000
    1ae6:	ea03 0305 	and.w	r3, r3, r5
    1aea:	bf08      	it	eq
    1aec:	2408      	moveq	r4, #8
    1aee:	2b00      	cmp	r3, #0
    1af0:	4b17      	ldr	r3, [pc, #92]	; (1b50 <vApp_ProcessKeyCombination+0xa4>)
    1af2:	ea03 0305 	and.w	r3, r3, r5
    1af6:	bf08      	it	eq
    1af8:	2409      	moveq	r4, #9
    1afa:	2b00      	cmp	r3, #0
    1afc:	f248 0302 	movw	r3, #32770	; 0x8002
    1b00:	bf08      	it	eq
    1b02:	240a      	moveq	r4, #10
    1b04:	421d      	tst	r5, r3
    1b06:	bf08      	it	eq
    1b08:	240b      	moveq	r4, #11
    1b0a:	f015 0f82 	tst.w	r5, #130	; 0x82
    1b0e:	d103      	bne.n	1b18 <vApp_ProcessKeyCombination+0x6c>
    1b10:	4810      	ldr	r0, [pc, #64]	; (1b54 <vApp_ProcessKeyCombination+0xa8>)
    1b12:	f000 f8db 	bl	1ccc <DbgConsole_Printf>
    1b16:	240c      	movs	r4, #12
    1b18:	f015 0f12 	tst.w	r5, #18
    1b1c:	d103      	bne.n	1b26 <vApp_ProcessKeyCombination+0x7a>
    1b1e:	480e      	ldr	r0, [pc, #56]	; (1b58 <vApp_ProcessKeyCombination+0xac>)
    1b20:	f000 f8d4 	bl	1ccc <DbgConsole_Printf>
    1b24:	240d      	movs	r4, #13
    1b26:	480d      	ldr	r0, [pc, #52]	; (1b5c <vApp_ProcessKeyCombination+0xb0>)
    1b28:	4621      	mov	r1, r4
    1b2a:	f000 f8cf 	bl	1ccc <DbgConsole_Printf>
    1b2e:	4620      	mov	r0, r4
    1b30:	b005      	add	sp, #20
    1b32:	e8bd 4030 	ldmia.w	sp!, {r4, r5, lr}
    1b36:	f7ff bf37 	b.w	19a8 <vSwitchStateMachine>
    1b3a:	2c04      	cmp	r4, #4
    1b3c:	bf96      	itet	ls
    1b3e:	4b08      	ldrls	r3, [pc, #32]	; (1b60 <vApp_ProcessKeyCombination+0xb4>)
    1b40:	2012      	movhi	r0, #18
    1b42:	5d18      	ldrbls	r0, [r3, r4]
    1b44:	e7f4      	b.n	1b30 <vApp_ProcessKeyCombination+0x84>
    1b46:	b005      	add	sp, #20
    1b48:	bd30      	pop	{r4, r5, pc}
    1b4a:	bf00      	nop
    1b4c:	00080080 	.word	0x00080080
    1b50:	00080002 	.word	0x00080002
    1b54:	0002a90b 	.word	0x0002a90b
    1b58:	0002a92a 	.word	0x0002a92a
    1b5c:	0002a94b 	.word	0x0002a94b
    1b60:	0002a962 	.word	0x0002a962

00001b64 <eGetSwitchState>:
    1b64:	4b01      	ldr	r3, [pc, #4]	; (1b6c <eGetSwitchState+0x8>)
    1b66:	7818      	ldrb	r0, [r3, #0]
    1b68:	4770      	bx	lr
    1b6a:	bf00      	nop
    1b6c:	0401568f 	.word	0x0401568f

00001b70 <DbgConsole_SendDataReliable>:
    1b70:	b510      	push	{r4, lr}
    1b72:	460c      	mov	r4, r1
    1b74:	4601      	mov	r1, r0
    1b76:	b930      	cbnz	r0, 1b86 <DbgConsole_SendDataReliable+0x16>
    1b78:	4b0b      	ldr	r3, [pc, #44]	; (1ba8 <DbgConsole_SendDataReliable+0x38>)
    1b7a:	4a0c      	ldr	r2, [pc, #48]	; (1bac <DbgConsole_SendDataReliable+0x3c>)
    1b7c:	f240 11d1 	movw	r1, #465	; 0x1d1
    1b80:	480b      	ldr	r0, [pc, #44]	; (1bb0 <DbgConsole_SendDataReliable+0x40>)
    1b82:	f006 fe3b 	bl	87fc <__assert_func>
    1b86:	b924      	cbnz	r4, 1b92 <DbgConsole_SendDataReliable+0x22>
    1b88:	4b0a      	ldr	r3, [pc, #40]	; (1bb4 <DbgConsole_SendDataReliable+0x44>)
    1b8a:	4a08      	ldr	r2, [pc, #32]	; (1bac <DbgConsole_SendDataReliable+0x3c>)
    1b8c:	f44f 71e9 	mov.w	r1, #466	; 0x1d2
    1b90:	e7f6      	b.n	1b80 <DbgConsole_SendDataReliable+0x10>
    1b92:	4622      	mov	r2, r4
    1b94:	4808      	ldr	r0, [pc, #32]	; (1bb8 <DbgConsole_SendDataReliable+0x48>)
    1b96:	f006 fcf1 	bl	857c <SerialManager_WriteBlocking>
    1b9a:	2800      	cmp	r0, #0
    1b9c:	bf0c      	ite	eq
    1b9e:	4620      	moveq	r0, r4
    1ba0:	f04f 30ff 	movne.w	r0, #4294967295
    1ba4:	bd10      	pop	{r4, pc}
    1ba6:	bf00      	nop
    1ba8:	0002a967 	.word	0x0002a967
    1bac:	0002aa06 	.word	0x0002aa06
    1bb0:	0002a972 	.word	0x0002a972
    1bb4:	0002a9d4 	.word	0x0002a9d4
    1bb8:	040156a8 	.word	0x040156a8

00001bbc <DbgConsole_PrintCallback>:
    1bbc:	e92d 43f8 	stmdb	sp!, {r3, r4, r5, r6, r7, r8, r9, lr}
    1bc0:	2500      	movs	r5, #0
    1bc2:	4606      	mov	r6, r0
    1bc4:	460c      	mov	r4, r1
    1bc6:	4690      	mov	r8, r2
    1bc8:	461f      	mov	r7, r3
    1bca:	46a9      	mov	r9, r5
    1bcc:	42bd      	cmp	r5, r7
    1bce:	db01      	blt.n	1bd4 <DbgConsole_PrintCallback+0x18>
    1bd0:	e8bd 83f8 	ldmia.w	sp!, {r3, r4, r5, r6, r7, r8, r9, pc}
    1bd4:	6821      	ldr	r1, [r4, #0]
    1bd6:	1c4b      	adds	r3, r1, #1
    1bd8:	2b7f      	cmp	r3, #127	; 0x7f
    1bda:	d904      	bls.n	1be6 <DbgConsole_PrintCallback+0x2a>
    1bdc:	4630      	mov	r0, r6
    1bde:	f7ff ffc7 	bl	1b70 <DbgConsole_SendDataReliable>
    1be2:	f8c4 9000 	str.w	r9, [r4]
    1be6:	6823      	ldr	r3, [r4, #0]
    1be8:	f806 8003 	strb.w	r8, [r6, r3]
    1bec:	6823      	ldr	r3, [r4, #0]
    1bee:	3301      	adds	r3, #1
    1bf0:	6023      	str	r3, [r4, #0]
    1bf2:	3501      	adds	r5, #1
    1bf4:	e7ea      	b.n	1bcc <DbgConsole_PrintCallback+0x10>
    1bf6:	Address 0x00001bf6 is out of bounds.


00001bf8 <DbgConsole_Init>:
    1bf8:	b510      	push	{r4, lr}
    1bfa:	b088      	sub	sp, #32
    1bfc:	e9cd 3104 	strd	r3, r1, [sp, #16]
    1c00:	2301      	movs	r3, #1
    1c02:	2100      	movs	r1, #0
    1c04:	429a      	cmp	r2, r3
    1c06:	f8ad 1018 	strh.w	r1, [sp, #24]
    1c0a:	f88d 001a 	strb.w	r0, [sp, #26]
    1c0e:	f88d 301b 	strb.w	r3, [sp, #27]
    1c12:	f88d 301c 	strb.w	r3, [sp, #28]
    1c16:	f88d 2008 	strb.w	r2, [sp, #8]
    1c1a:	d12e      	bne.n	1c7a <DbgConsole_Init+0x82>
    1c1c:	4c18      	ldr	r4, [pc, #96]	; (1c80 <DbgConsole_Init+0x88>)
    1c1e:	ab04      	add	r3, sp, #16
    1c20:	221c      	movs	r2, #28
    1c22:	4620      	mov	r0, r4
    1c24:	9303      	str	r3, [sp, #12]
    1c26:	f027 fe11 	bl	2984c <memset>
    1c2a:	4669      	mov	r1, sp
    1c2c:	4620      	mov	r0, r4
    1c2e:	6124      	str	r4, [r4, #16]
    1c30:	f006 fbaa 	bl	8388 <SerialManager_Init>
    1c34:	b130      	cbz	r0, 1c44 <DbgConsole_Init+0x4c>
    1c36:	4b13      	ldr	r3, [pc, #76]	; (1c84 <DbgConsole_Init+0x8c>)
    1c38:	4a13      	ldr	r2, [pc, #76]	; (1c88 <DbgConsole_Init+0x90>)
    1c3a:	f44f 7133 	mov.w	r1, #716	; 0x2cc
    1c3e:	4813      	ldr	r0, [pc, #76]	; (1c8c <DbgConsole_Init+0x94>)
    1c40:	f006 fddc 	bl	87fc <__assert_func>
    1c44:	6920      	ldr	r0, [r4, #16]
    1c46:	f104 0114 	add.w	r1, r4, #20
    1c4a:	f006 fbef 	bl	842c <SerialManager_OpenWriteHandle>
    1c4e:	b120      	cbz	r0, 1c5a <DbgConsole_Init+0x62>
    1c50:	4b0c      	ldr	r3, [pc, #48]	; (1c84 <DbgConsole_Init+0x8c>)
    1c52:	4a0d      	ldr	r2, [pc, #52]	; (1c88 <DbgConsole_Init+0x90>)
    1c54:	f240 21d6 	movw	r1, #726	; 0x2d6
    1c58:	e7f1      	b.n	1c3e <DbgConsole_Init+0x46>
    1c5a:	6920      	ldr	r0, [r4, #16]
    1c5c:	f104 0118 	add.w	r1, r4, #24
    1c60:	f006 fc36 	bl	84d0 <SerialManager_OpenReadHandle>
    1c64:	b120      	cbz	r0, 1c70 <DbgConsole_Init+0x78>
    1c66:	4b07      	ldr	r3, [pc, #28]	; (1c84 <DbgConsole_Init+0x8c>)
    1c68:	4a07      	ldr	r2, [pc, #28]	; (1c88 <DbgConsole_Init+0x90>)
    1c6a:	f240 21e1 	movw	r1, #737	; 0x2e1
    1c6e:	e7e6      	b.n	1c3e <DbgConsole_Init+0x46>
    1c70:	4b07      	ldr	r3, [pc, #28]	; (1c90 <DbgConsole_Init+0x98>)
    1c72:	6922      	ldr	r2, [r4, #16]
    1c74:	601a      	str	r2, [r3, #0]
    1c76:	b008      	add	sp, #32
    1c78:	bd10      	pop	{r4, pc}
    1c7a:	f243 5021 	movw	r0, #13601	; 0x3521
    1c7e:	e7fa      	b.n	1c76 <DbgConsole_Init+0x7e>
    1c80:	04015694 	.word	0x04015694
    1c84:	0002a9de 	.word	0x0002a9de
    1c88:	0002aa22 	.word	0x0002aa22
    1c8c:	0002a972 	.word	0x0002a972
    1c90:	04015690 	.word	0x04015690

00001c94 <DbgConsole_Deinit>:
    1c94:	b510      	push	{r4, lr}
    1c96:	4c0b      	ldr	r4, [pc, #44]	; (1cc4 <DbgConsole_Deinit+0x30>)
    1c98:	6923      	ldr	r3, [r4, #16]
    1c9a:	b14b      	cbz	r3, 1cb0 <DbgConsole_Deinit+0x1c>
    1c9c:	f104 0014 	add.w	r0, r4, #20
    1ca0:	f006 fbee 	bl	8480 <SerialManager_CloseWriteHandle>
    1ca4:	6923      	ldr	r3, [r4, #16]
    1ca6:	b11b      	cbz	r3, 1cb0 <DbgConsole_Deinit+0x1c>
    1ca8:	f104 0018 	add.w	r0, r4, #24
    1cac:	f006 fc3e 	bl	852c <SerialManager_CloseReadHandle>
    1cb0:	6920      	ldr	r0, [r4, #16]
    1cb2:	b128      	cbz	r0, 1cc0 <DbgConsole_Deinit+0x2c>
    1cb4:	f006 fb94 	bl	83e0 <SerialManager_Deinit>
    1cb8:	b910      	cbnz	r0, 1cc0 <DbgConsole_Deinit+0x2c>
    1cba:	4b03      	ldr	r3, [pc, #12]	; (1cc8 <DbgConsole_Deinit+0x34>)
    1cbc:	6120      	str	r0, [r4, #16]
    1cbe:	6018      	str	r0, [r3, #0]
    1cc0:	2000      	movs	r0, #0
    1cc2:	bd10      	pop	{r4, pc}
    1cc4:	04015694 	.word	0x04015694
    1cc8:	04015690 	.word	0x04015690

00001ccc <DbgConsole_Printf>:
    1ccc:	b40f      	push	{r0, r1, r2, r3}
    1cce:	b500      	push	{lr}
    1cd0:	b0a3      	sub	sp, #140	; 0x8c
    1cd2:	2100      	movs	r1, #0
    1cd4:	227c      	movs	r2, #124	; 0x7c
    1cd6:	a803      	add	r0, sp, #12
    1cd8:	9102      	str	r1, [sp, #8]
    1cda:	f027 fdb7 	bl	2984c <memset>
    1cde:	4b09      	ldr	r3, [pc, #36]	; (1d04 <DbgConsole_Printf+0x38>)
    1ce0:	6818      	ldr	r0, [r3, #0]
    1ce2:	b150      	cbz	r0, 1cfa <DbgConsole_Printf+0x2e>
    1ce4:	a925      	add	r1, sp, #148	; 0x94
    1ce6:	4b08      	ldr	r3, [pc, #32]	; (1d08 <DbgConsole_Printf+0x3c>)
    1ce8:	9824      	ldr	r0, [sp, #144]	; 0x90
    1cea:	9101      	str	r1, [sp, #4]
    1cec:	aa02      	add	r2, sp, #8
    1cee:	f006 f88d 	bl	7e0c <StrFormatPrintf>
    1cf2:	4601      	mov	r1, r0
    1cf4:	a802      	add	r0, sp, #8
    1cf6:	f7ff ff3b 	bl	1b70 <DbgConsole_SendDataReliable>
    1cfa:	b023      	add	sp, #140	; 0x8c
    1cfc:	f85d eb04 	ldr.w	lr, [sp], #4
    1d00:	b004      	add	sp, #16
    1d02:	4770      	bx	lr
    1d04:	04015690 	.word	0x04015690
    1d08:	00001bbd 	.word	0x00001bbd

00001d0c <GPIO_PinInit>:
    1d0c:	b510      	push	{r4, lr}
    1d0e:	2401      	movs	r4, #1
    1d10:	fa04 f202 	lsl.w	r2, r4, r2
    1d14:	781c      	ldrb	r4, [r3, #0]
    1d16:	b924      	cbnz	r4, 1d22 <GPIO_PinInit+0x16>
    1d18:	f501 6110 	add.w	r1, r1, #2304	; 0x900
    1d1c:	f840 2021 	str.w	r2, [r0, r1, lsl #2]
    1d20:	bd10      	pop	{r4, pc}
    1d22:	785b      	ldrb	r3, [r3, #1]
    1d24:	b933      	cbnz	r3, 1d34 <GPIO_PinInit+0x28>
    1d26:	f501 630a 	add.w	r3, r1, #2208	; 0x8a0
    1d2a:	f840 2023 	str.w	r2, [r0, r3, lsl #2]
    1d2e:	f501 610e 	add.w	r1, r1, #2272	; 0x8e0
    1d32:	e7f3      	b.n	1d1c <GPIO_PinInit+0x10>
    1d34:	f501 6308 	add.w	r3, r1, #2176	; 0x880
    1d38:	e7f7      	b.n	1d2a <GPIO_PinInit+0x1e>
    1d3a:	Address 0x00001d3a is out of bounds.


00001d3c <BOARD_InitClocks>:
    1d3c:	b510      	push	{r4, lr}
    1d3e:	f002 fd60 	bl	4802 <CLOCK_EnableAPBBridge>
    1d42:	4820      	ldr	r0, [pc, #128]	; (1dc4 <BOARD_InitClocks+0x88>)
    1d44:	4c20      	ldr	r4, [pc, #128]	; (1dc8 <BOARD_InitClocks+0x8c>)
    1d46:	f002 fe45 	bl	49d4 <CLOCK_EnableClock>
    1d4a:	4820      	ldr	r0, [pc, #128]	; (1dcc <BOARD_InitClocks+0x90>)
    1d4c:	f002 fe42 	bl	49d4 <CLOCK_EnableClock>
    1d50:	481f      	ldr	r0, [pc, #124]	; (1dd0 <BOARD_InitClocks+0x94>)
    1d52:	f002 fe3f 	bl	49d4 <CLOCK_EnableClock>
    1d56:	200d      	movs	r0, #13
    1d58:	f002 fe3c 	bl	49d4 <CLOCK_EnableClock>
    1d5c:	200b      	movs	r0, #11
    1d5e:	f002 fe39 	bl	49d4 <CLOCK_EnableClock>
    1d62:	200e      	movs	r0, #14
    1d64:	f002 fe36 	bl	49d4 <CLOCK_EnableClock>
    1d68:	201b      	movs	r0, #27
    1d6a:	f002 fe33 	bl	49d4 <CLOCK_EnableClock>
    1d6e:	f8d4 30b8 	ldr.w	r3, [r4, #184]	; 0xb8
    1d72:	f443 0380 	orr.w	r3, r3, #4194304	; 0x400000
    1d76:	f8c4 30b8 	str.w	r3, [r4, #184]	; 0xb8
    1d7a:	f241 00ac 	movw	r0, #4268	; 0x10ac
    1d7e:	f002 fa61 	bl	4244 <CLOCK_AttachClk>
    1d82:	f44f 708c 	mov.w	r0, #280	; 0x118
    1d86:	f002 fe25 	bl	49d4 <CLOCK_EnableClock>
    1d8a:	f240 100d 	movw	r0, #269	; 0x10d
    1d8e:	f002 fe21 	bl	49d4 <CLOCK_EnableClock>
    1d92:	f241 00ad 	movw	r0, #4269	; 0x10ad
    1d96:	f002 fa55 	bl	4244 <CLOCK_AttachClk>
    1d9a:	f241 00a9 	movw	r0, #4265	; 0x10a9
    1d9e:	f002 fa51 	bl	4244 <CLOCK_AttachClk>
    1da2:	f8d4 30b8 	ldr.w	r3, [r4, #184]	; 0xb8
    1da6:	f443 0380 	orr.w	r3, r3, #4194304	; 0x400000
    1daa:	f8c4 30b8 	str.w	r3, [r4, #184]	; 0xb8
    1dae:	f242 00b1 	movw	r0, #8369	; 0x20b1
    1db2:	f002 fa47 	bl	4244 <CLOCK_AttachClk>
    1db6:	2201      	movs	r2, #1
    1db8:	e8bd 4010 	ldmia.w	sp!, {r4, lr}
    1dbc:	4611      	mov	r1, r2
    1dbe:	20db      	movs	r0, #219	; 0xdb
    1dc0:	f002 bac4 	b.w	434c <CLOCK_SetClkDiv>
    1dc4:	00010008 	.word	0x00010008
    1dc8:	40012000 	.word	0x40012000
    1dcc:	00010004 	.word	0x00010004
    1dd0:	00010005 	.word	0x00010005

00001dd4 <BOARD_InitHardware>:
    1dd4:	b508      	push	{r3, lr}
    1dd6:	f04f 4380 	mov.w	r3, #1073741824	; 0x40000000
    1dda:	4a0d      	ldr	r2, [pc, #52]	; (1e10 <BOARD_InitHardware+0x3c>)
    1ddc:	f8c3 2ff0 	str.w	r2, [r3, #4080]	; 0xff0
    1de0:	f003 fbd0 	bl	5584 <POWER_Init>
    1de4:	480b      	ldr	r0, [pc, #44]	; (1e14 <BOARD_InitHardware+0x40>)
    1de6:	f002 febb 	bl	4b60 <RESET_PeripheralReset>
    1dea:	200e      	movs	r0, #14
    1dec:	f002 feb8 	bl	4b60 <RESET_PeripheralReset>
    1df0:	4809      	ldr	r0, [pc, #36]	; (1e18 <BOARD_InitHardware+0x44>)
    1df2:	f002 feb5 	bl	4b60 <RESET_PeripheralReset>
    1df6:	4a09      	ldr	r2, [pc, #36]	; (1e1c <BOARD_InitHardware+0x48>)
    1df8:	6813      	ldr	r3, [r2, #0]
    1dfa:	f043 0308 	orr.w	r3, r3, #8
    1dfe:	6013      	str	r3, [r2, #0]
    1e00:	f7ff ff9c 	bl	1d3c <BOARD_InitClocks>
    1e04:	f002 f886 	bl	3f14 <BOARD_InitDebugConsole>
    1e08:	e8bd 4008 	ldmia.w	sp!, {r3, lr}
    1e0c:	f000 b808 	b.w	1e20 <BOARD_InitPins>
    1e10:	87654320 	.word	0x87654320
    1e14:	0001000b 	.word	0x0001000b
    1e18:	0001000d 	.word	0x0001000d
    1e1c:	40012000 	.word	0x40012000

00001e20 <BOARD_InitPins>:
    1e20:	4b05      	ldr	r3, [pc, #20]	; (1e38 <BOARD_InitPins+0x18>)
    1e22:	2292      	movs	r2, #146	; 0x92
    1e24:	621a      	str	r2, [r3, #32]
    1e26:	625a      	str	r2, [r3, #36]	; 0x24
    1e28:	631a      	str	r2, [r3, #48]	; 0x30
    1e2a:	635a      	str	r2, [r3, #52]	; 0x34
    1e2c:	f240 1285 	movw	r2, #389	; 0x185
    1e30:	629a      	str	r2, [r3, #40]	; 0x28
    1e32:	62da      	str	r2, [r3, #44]	; 0x2c
    1e34:	4770      	bx	lr
    1e36:	bf00      	nop
    1e38:	4000f000 	.word	0x4000f000

00001e3c <BOARD_SetPinsForPowerMode>:
    1e3c:	b5f7      	push	{r0, r1, r2, r4, r5, r6, r7, lr}
    1e3e:	4e0a      	ldr	r6, [pc, #40]	; (1e68 <BOARD_SetPinsForPowerMode+0x2c>)
    1e40:	4d0a      	ldr	r5, [pc, #40]	; (1e6c <BOARD_SetPinsForPowerMode+0x30>)
    1e42:	2400      	movs	r4, #0
    1e44:	f44f 7780 	mov.w	r7, #256	; 0x100
    1e48:	ab01      	add	r3, sp, #4
    1e4a:	4622      	mov	r2, r4
    1e4c:	2100      	movs	r1, #0
    1e4e:	4630      	mov	r0, r6
    1e50:	f8ad 7004 	strh.w	r7, [sp, #4]
    1e54:	f7ff ff5a 	bl	1d0c <GPIO_PinInit>
    1e58:	2310      	movs	r3, #16
    1e5a:	f845 3024 	str.w	r3, [r5, r4, lsl #2]
    1e5e:	3401      	adds	r4, #1
    1e60:	2c16      	cmp	r4, #22
    1e62:	d1f1      	bne.n	1e48 <BOARD_SetPinsForPowerMode+0xc>
    1e64:	b003      	add	sp, #12
    1e66:	bdf0      	pop	{r4, r5, r6, r7, pc}
    1e68:	40080000 	.word	0x40080000
    1e6c:	4000f000 	.word	0x4000f000

00001e70 <GINT_GetInstance>:
    1e70:	b508      	push	{r3, lr}
    1e72:	4b05      	ldr	r3, [pc, #20]	; (1e88 <GINT_GetInstance+0x18>)
    1e74:	4298      	cmp	r0, r3
    1e76:	d005      	beq.n	1e84 <GINT_GetInstance+0x14>
    1e78:	4b04      	ldr	r3, [pc, #16]	; (1e8c <GINT_GetInstance+0x1c>)
    1e7a:	4a05      	ldr	r2, [pc, #20]	; (1e90 <GINT_GetInstance+0x20>)
    1e7c:	4805      	ldr	r0, [pc, #20]	; (1e94 <GINT_GetInstance+0x24>)
    1e7e:	2137      	movs	r1, #55	; 0x37
    1e80:	f006 fcbc 	bl	87fc <__assert_func>
    1e84:	2000      	movs	r0, #0
    1e86:	bd08      	pop	{r3, pc}
    1e88:	40011000 	.word	0x40011000
    1e8c:	0002aa32 	.word	0x0002aa32
    1e90:	0002aa9e 	.word	0x0002aa9e
    1e94:	0002aa55 	.word	0x0002aa55

00001e98 <GINT_Init>:
    1e98:	b508      	push	{r3, lr}
    1e9a:	f7ff ffe9 	bl	1e70 <GINT_GetInstance>
    1e9e:	4b06      	ldr	r3, [pc, #24]	; (1eb8 <GINT_Init+0x20>)
    1ea0:	2200      	movs	r2, #0
    1ea2:	f843 2020 	str.w	r2, [r3, r0, lsl #2]
    1ea6:	2013      	movs	r0, #19
    1ea8:	f002 fd94 	bl	49d4 <CLOCK_EnableClock>
    1eac:	e8bd 4008 	ldmia.w	sp!, {r3, lr}
    1eb0:	2013      	movs	r0, #19
    1eb2:	f002 be55 	b.w	4b60 <RESET_PeripheralReset>
    1eb6:	bf00      	nop
    1eb8:	040156b0 	.word	0x040156b0

00001ebc <GINT_SetCtrl>:
    1ebc:	b5f8      	push	{r3, r4, r5, r6, r7, lr}
    1ebe:	460c      	mov	r4, r1
    1ec0:	4615      	mov	r5, r2
    1ec2:	461f      	mov	r7, r3
    1ec4:	4606      	mov	r6, r0
    1ec6:	0064      	lsls	r4, r4, #1
    1ec8:	f7ff ffd2 	bl	1e70 <GINT_GetInstance>
    1ecc:	00ad      	lsls	r5, r5, #2
    1ece:	4b05      	ldr	r3, [pc, #20]	; (1ee4 <GINT_SetCtrl+0x28>)
    1ed0:	f004 0402 	and.w	r4, r4, #2
    1ed4:	f005 0504 	and.w	r5, r5, #4
    1ed8:	432c      	orrs	r4, r5
    1eda:	6034      	str	r4, [r6, #0]
    1edc:	f843 7020 	str.w	r7, [r3, r0, lsl #2]
    1ee0:	bdf8      	pop	{r3, r4, r5, r6, r7, pc}
    1ee2:	bf00      	nop
    1ee4:	040156b0 	.word	0x040156b0

00001ee8 <GINT_ConfigPins>:
    1ee8:	eb00 0181 	add.w	r1, r0, r1, lsl #2
    1eec:	620a      	str	r2, [r1, #32]
    1eee:	640b      	str	r3, [r1, #64]	; 0x40
    1ef0:	4770      	bx	lr
    1ef2:	Address 0x00001ef2 is out of bounds.


00001ef4 <GINT_EnableCallback>:
    1ef4:	b510      	push	{r4, lr}
    1ef6:	4604      	mov	r4, r0
    1ef8:	f7ff ffba 	bl	1e70 <GINT_GetInstance>
    1efc:	6823      	ldr	r3, [r4, #0]
    1efe:	f043 0301 	orr.w	r3, r3, #1
    1f02:	6023      	str	r3, [r4, #0]
    1f04:	4b02      	ldr	r3, [pc, #8]	; (1f10 <GINT_EnableCallback+0x1c>)
    1f06:	2204      	movs	r2, #4
    1f08:	f8c3 2180 	str.w	r2, [r3, #384]	; 0x180
    1f0c:	601a      	str	r2, [r3, #0]
    1f0e:	bd10      	pop	{r4, pc}
    1f10:	e000e100 	.word	0xe000e100

00001f14 <GINT_DisableCallback>:
    1f14:	b510      	push	{r4, lr}
    1f16:	4604      	mov	r4, r0
    1f18:	f7ff ffaa 	bl	1e70 <GINT_GetInstance>
    1f1c:	4a07      	ldr	r2, [pc, #28]	; (1f3c <GINT_DisableCallback+0x28>)
    1f1e:	2104      	movs	r1, #4
    1f20:	f8c2 1080 	str.w	r1, [r2, #128]	; 0x80
    1f24:	f3bf 8f4f 	dsb	sy
    1f28:	f3bf 8f6f 	isb	sy
    1f2c:	6823      	ldr	r3, [r4, #0]
    1f2e:	f043 0301 	orr.w	r3, r3, #1
    1f32:	6023      	str	r3, [r4, #0]
    1f34:	f8c2 1180 	str.w	r1, [r2, #384]	; 0x180
    1f38:	bd10      	pop	{r4, pc}
    1f3a:	bf00      	nop
    1f3c:	e000e100 	.word	0xe000e100

00001f40 <GINT0_DriverIRQHandler>:
    1f40:	4a06      	ldr	r2, [pc, #24]	; (1f5c <GINT0_DriverIRQHandler+0x1c>)
    1f42:	b508      	push	{r3, lr}
    1f44:	6813      	ldr	r3, [r2, #0]
    1f46:	f043 0301 	orr.w	r3, r3, #1
    1f4a:	6013      	str	r3, [r2, #0]
    1f4c:	4b04      	ldr	r3, [pc, #16]	; (1f60 <GINT0_DriverIRQHandler+0x20>)
    1f4e:	681b      	ldr	r3, [r3, #0]
    1f50:	b103      	cbz	r3, 1f54 <GINT0_DriverIRQHandler+0x14>
    1f52:	4798      	blx	r3
    1f54:	f3bf 8f4f 	dsb	sy
    1f58:	bd08      	pop	{r3, pc}
    1f5a:	bf00      	nop
    1f5c:	40011000 	.word	0x40011000
    1f60:	040156b0 	.word	0x040156b0

00001f64 <flashConfig_ExtractGpAdcTrimValues>:
    1f64:	490b      	ldr	r1, [pc, #44]	; (1f94 <flashConfig_ExtractGpAdcTrimValues+0x30>)
    1f66:	680a      	ldr	r2, [r1, #0]
    1f68:	4603      	mov	r3, r0
    1f6a:	f012 0001 	ands.w	r0, r2, #1
    1f6e:	b510      	push	{r4, lr}
    1f70:	d00f      	beq.n	1f92 <flashConfig_ExtractGpAdcTrimValues+0x2e>
    1f72:	f3c2 0449 	ubfx	r4, r2, #1, #10
    1f76:	801c      	strh	r4, [r3, #0]
    1f78:	f3c2 24c9 	ubfx	r4, r2, #11, #10
    1f7c:	f3c2 5249 	ubfx	r2, r2, #21, #10
    1f80:	809a      	strh	r2, [r3, #4]
    1f82:	684a      	ldr	r2, [r1, #4]
    1f84:	805c      	strh	r4, [r3, #2]
    1f86:	f3c2 010b 	ubfx	r1, r2, #0, #12
    1f8a:	f3c2 320b 	ubfx	r2, r2, #12, #12
    1f8e:	80d9      	strh	r1, [r3, #6]
    1f90:	811a      	strh	r2, [r3, #8]
    1f92:	bd10      	pop	{r4, pc}
    1f94:	0009fc80 	.word	0x0009fc80

00001f98 <flashConfig_ExtractTempSensorTrimValues>:
    1f98:	4a15      	ldr	r2, [pc, #84]	; (1ff0 <flashConfig_ExtractTempSensorTrimValues+0x58>)
    1f9a:	4603      	mov	r3, r0
    1f9c:	6810      	ldr	r0, [r2, #0]
    1f9e:	f010 0001 	ands.w	r0, r0, #1
    1fa2:	b510      	push	{r4, lr}
    1fa4:	d023      	beq.n	1fee <flashConfig_ExtractTempSensorTrimValues+0x56>
    1fa6:	6951      	ldr	r1, [r2, #20]
    1fa8:	8019      	strh	r1, [r3, #0]
    1faa:	0c09      	lsrs	r1, r1, #16
    1fac:	8059      	strh	r1, [r3, #2]
    1fae:	6991      	ldr	r1, [r2, #24]
    1fb0:	8099      	strh	r1, [r3, #4]
    1fb2:	0c09      	lsrs	r1, r1, #16
    1fb4:	80d9      	strh	r1, [r3, #6]
    1fb6:	69d1      	ldr	r1, [r2, #28]
    1fb8:	8119      	strh	r1, [r3, #8]
    1fba:	0c09      	lsrs	r1, r1, #16
    1fbc:	8159      	strh	r1, [r3, #10]
    1fbe:	6a11      	ldr	r1, [r2, #32]
    1fc0:	8199      	strh	r1, [r3, #12]
    1fc2:	0c09      	lsrs	r1, r1, #16
    1fc4:	81d9      	strh	r1, [r3, #14]
    1fc6:	490b      	ldr	r1, [pc, #44]	; (1ff4 <flashConfig_ExtractTempSensorTrimValues+0x5c>)
    1fc8:	880c      	ldrh	r4, [r1, #0]
    1fca:	6a51      	ldr	r1, [r2, #36]	; 0x24
    1fcc:	821c      	strh	r4, [r3, #16]
    1fce:	0c09      	lsrs	r1, r1, #16
    1fd0:	8259      	strh	r1, [r3, #18]
    1fd2:	3214      	adds	r2, #20
    1fd4:	6951      	ldr	r1, [r2, #20]
    1fd6:	6992      	ldr	r2, [r2, #24]
    1fd8:	835a      	strh	r2, [r3, #26]
    1fda:	f3c1 040b 	ubfx	r4, r1, #0, #12
    1fde:	829c      	strh	r4, [r3, #20]
    1fe0:	0c12      	lsrs	r2, r2, #16
    1fe2:	f3c1 3409 	ubfx	r4, r1, #12, #10
    1fe6:	0d89      	lsrs	r1, r1, #22
    1fe8:	82dc      	strh	r4, [r3, #22]
    1fea:	8319      	strh	r1, [r3, #24]
    1fec:	839a      	strh	r2, [r3, #28]
    1fee:	bd10      	pop	{r4, pc}
    1ff0:	0009fc8c 	.word	0x0009fc8c
    1ff4:	0009fcb0 	.word	0x0009fcb0

00001ff8 <temp_computation>:
    1ff8:	4b1e      	ldr	r3, [pc, #120]	; (2074 <temp_computation+0x7c>)
    1ffa:	b5f0      	push	{r4, r5, r6, r7, lr}
    1ffc:	681c      	ldr	r4, [r3, #0]
    1ffe:	f9b4 3014 	ldrsh.w	r3, [r4, #20]
    2002:	fb03 0312 	mls	r3, r3, r2, r0
    2006:	8ba0      	ldrh	r0, [r4, #28]
    2008:	fb10 f003 	smulbb	r0, r0, r3
    200c:	1406      	asrs	r6, r0, #16
    200e:	f5c6 2680 	rsb	r6, r6, #262144	; 0x40000
    2012:	b21d      	sxth	r5, r3
    2014:	fbb6 f3f2 	udiv	r3, r6, r2
    2018:	0776      	lsls	r6, r6, #29
    201a:	d504      	bpl.n	2026 <temp_computation+0x2e>
    201c:	2800      	cmp	r0, #0
    201e:	bfb4      	ite	lt
    2020:	f103 33ff 	addlt.w	r3, r3, #4294967295
    2024:	3301      	addge	r3, #1
    2026:	f9b4 001a 	ldrsh.w	r0, [r4, #26]
    202a:	f9b4 c012 	ldrsh.w	ip, [r4, #18]
    202e:	f994 7011 	ldrsb.w	r7, [r4, #17]
    2032:	4343      	muls	r3, r0
    2034:	1418      	asrs	r0, r3, #16
    2036:	f9b4 300c 	ldrsh.w	r3, [r4, #12]
    203a:	1acb      	subs	r3, r1, r3
    203c:	4343      	muls	r3, r0
    203e:	f994 1010 	ldrsb.w	r1, [r4, #16]
    2042:	eb0c 3363 	add.w	r3, ip, r3, asr #13
    2046:	ebc1 16e3 	rsb	r6, r1, r3, asr #7
    204a:	4376      	muls	r6, r6
    204c:	ebc1 11ec 	rsb	r1, r1, ip, asr #7
    2050:	11b0      	asrs	r0, r6, #6
    2052:	4349      	muls	r1, r1
    2054:	4378      	muls	r0, r7
    2056:	1189      	asrs	r1, r1, #6
    2058:	eb03 13a0 	add.w	r3, r3, r0, asr #6
    205c:	4379      	muls	r1, r7
    205e:	8ae0      	ldrh	r0, [r4, #22]
    2060:	eba3 13a1 	sub.w	r3, r3, r1, asr #6
    2064:	fb10 f505 	smulbb	r5, r0, r5
    2068:	fb95 f2f2 	sdiv	r2, r5, r2
    206c:	eba3 2062 	sub.w	r0, r3, r2, asr #9
    2070:	bdf0      	pop	{r4, r5, r6, r7, pc}
    2072:	bf00      	nop
    2074:	0401555c 	.word	0x0401555c

00002078 <ADC_Configuration>:
    2078:	b5f8      	push	{r3, r4, r5, r6, r7, lr}
    207a:	4d19      	ldr	r5, [pc, #100]	; (20e0 <ADC_Configuration+0x68>)
    207c:	2201      	movs	r2, #1
    207e:	f04f 4380 	mov.w	r3, #1073741824	; 0x40000000
    2082:	702a      	strb	r2, [r5, #0]
    2084:	f8d3 32a4 	ldr.w	r3, [r3, #676]	; 0x2a4
    2088:	f013 0303 	ands.w	r3, r3, #3
    208c:	4604      	mov	r4, r0
    208e:	460f      	mov	r7, r1
    2090:	d006      	beq.n	20a0 <ADC_Configuration+0x28>
    2092:	4293      	cmp	r3, r2
    2094:	d020      	beq.n	20d8 <ADC_Configuration+0x60>
    2096:	4813      	ldr	r0, [pc, #76]	; (20e4 <ADC_Configuration+0x6c>)
    2098:	f7ff fe18 	bl	1ccc <DbgConsole_Printf>
    209c:	2000      	movs	r0, #0
    209e:	e01a      	b.n	20d6 <ADC_Configuration+0x5e>
    20a0:	2108      	movs	r1, #8
    20a2:	20e5      	movs	r0, #229	; 0xe5
    20a4:	f002 f952 	bl	434c <CLOCK_SetClkDiv>
    20a8:	2600      	movs	r6, #0
    20aa:	490d      	ldr	r1, [pc, #52]	; (20e0 <ADC_Configuration+0x68>)
    20ac:	722e      	strb	r6, [r5, #8]
    20ae:	4620      	mov	r0, r4
    20b0:	60ee      	str	r6, [r5, #12]
    20b2:	f000 f8f9 	bl	22a8 <ADC_Init>
    20b6:	490c      	ldr	r1, [pc, #48]	; (20e8 <ADC_Configuration+0x70>)
    20b8:	4b0c      	ldr	r3, [pc, #48]	; (20ec <ADC_Configuration+0x74>)
    20ba:	608b      	str	r3, [r1, #8]
    20bc:	4620      	mov	r0, r4
    20be:	e9c1 6600 	strd	r6, r6, [r1]
    20c2:	f000 f943 	bl	234c <ADC_SetConvSeqAConfig>
    20c6:	4638      	mov	r0, r7
    20c8:	f002 fba2 	bl	4810 <CLOCK_uDelay>
    20cc:	68a3      	ldr	r3, [r4, #8]
    20ce:	f043 4300 	orr.w	r3, r3, #2147483648	; 0x80000000
    20d2:	60a3      	str	r3, [r4, #8]
    20d4:	2001      	movs	r0, #1
    20d6:	bdf8      	pop	{r3, r4, r5, r6, r7, pc}
    20d8:	461a      	mov	r2, r3
    20da:	2103      	movs	r1, #3
    20dc:	e7e1      	b.n	20a2 <ADC_Configuration+0x2a>
    20de:	bf00      	nop
    20e0:	040156b4 	.word	0x040156b4
    20e4:	0002aaaf 	.word	0x0002aaaf
    20e8:	040156c4 	.word	0x040156c4
    20ec:	01000001 	.word	0x01000001

000020f0 <load_calibration_param_from_flash>:
    20f0:	b570      	push	{r4, r5, r6, lr}
    20f2:	4606      	mov	r6, r0
    20f4:	4819      	ldr	r0, [pc, #100]	; (215c <load_calibration_param_from_flash+0x6c>)
    20f6:	f7ff ff35 	bl	1f64 <flashConfig_ExtractGpAdcTrimValues>
    20fa:	4604      	mov	r4, r0
    20fc:	b920      	cbnz	r0, 2108 <load_calibration_param_from_flash+0x18>
    20fe:	4818      	ldr	r0, [pc, #96]	; (2160 <load_calibration_param_from_flash+0x70>)
    2100:	f7ff fde4 	bl	1ccc <DbgConsole_Printf>
    2104:	4620      	mov	r0, r4
    2106:	bd70      	pop	{r4, r5, r6, pc}
    2108:	4d16      	ldr	r5, [pc, #88]	; (2164 <load_calibration_param_from_flash+0x74>)
    210a:	4628      	mov	r0, r5
    210c:	f7ff ff44 	bl	1f98 <flashConfig_ExtractTempSensorTrimValues>
    2110:	4604      	mov	r4, r0
    2112:	b908      	cbnz	r0, 2118 <load_calibration_param_from_flash+0x28>
    2114:	4814      	ldr	r0, [pc, #80]	; (2168 <load_calibration_param_from_flash+0x78>)
    2116:	e7f3      	b.n	2100 <load_calibration_param_from_flash+0x10>
    2118:	f9b5 2016 	ldrsh.w	r2, [r5, #22]
    211c:	0590      	lsls	r0, r2, #22
    211e:	bf42      	ittt	mi
    2120:	ea6f 5282 	mvnmi.w	r2, r2, lsl #22
    2124:	ea6f 5292 	mvnmi.w	r2, r2, lsr #22
    2128:	82ea      	strhmi	r2, [r5, #22]
    212a:	f9b5 2018 	ldrsh.w	r2, [r5, #24]
    212e:	0591      	lsls	r1, r2, #22
    2130:	490a      	ldr	r1, [pc, #40]	; (215c <load_calibration_param_from_flash+0x6c>)
    2132:	bf48      	it	mi
    2134:	ea6f 5282 	mvnmi.w	r2, r2, lsl #22
    2138:	880b      	ldrh	r3, [r1, #0]
    213a:	8849      	ldrh	r1, [r1, #2]
    213c:	bf44      	itt	mi
    213e:	ea6f 5292 	mvnmi.w	r2, r2, lsr #22
    2142:	832a      	strhmi	r2, [r5, #24]
    2144:	f3c3 0209 	ubfx	r2, r3, #0, #10
    2148:	4b08      	ldr	r3, [pc, #32]	; (216c <load_calibration_param_from_flash+0x7c>)
    214a:	ea03 2381 	and.w	r3, r3, r1, lsl #10
    214e:	4313      	orrs	r3, r2
    2150:	6773      	str	r3, [r6, #116]	; 0x74
    2152:	4b07      	ldr	r3, [pc, #28]	; (2170 <load_calibration_param_from_flash+0x80>)
    2154:	2201      	movs	r2, #1
    2156:	701a      	strb	r2, [r3, #0]
    2158:	e7d4      	b.n	2104 <load_calibration_param_from_flash+0x14>
    215a:	bf00      	nop
    215c:	040156d0 	.word	0x040156d0
    2160:	0002aaf1 	.word	0x0002aaf1
    2164:	040156dc 	.word	0x040156dc
    2168:	0002ab36 	.word	0x0002ab36
    216c:	000ffc00 	.word	0x000ffc00
    2170:	040156da 	.word	0x040156da

00002174 <get_temperature>:
    2174:	e92d 47ff 	stmdb	sp!, {r0, r1, r2, r3, r4, r5, r6, r7, r8, r9, sl, lr}
    2178:	461f      	mov	r7, r3
    217a:	4b42      	ldr	r3, [pc, #264]	; (2284 <get_temperature+0x110>)
    217c:	781b      	ldrb	r3, [r3, #0]
    217e:	4689      	mov	r9, r1
    2180:	4604      	mov	r4, r0
    2182:	4611      	mov	r1, r2
    2184:	b923      	cbnz	r3, 2190 <get_temperature+0x1c>
    2186:	2600      	movs	r6, #0
    2188:	4630      	mov	r0, r6
    218a:	b004      	add	sp, #16
    218c:	e8bd 87f0 	ldmia.w	sp!, {r4, r5, r6, r7, r8, r9, sl, pc}
    2190:	f7ff ff72 	bl	2078 <ADC_Configuration>
    2194:	4606      	mov	r6, r0
    2196:	2800      	cmp	r0, #0
    2198:	d0f5      	beq.n	2186 <get_temperature+0x12>
    219a:	68a3      	ldr	r3, [r4, #8]
    219c:	4d3a      	ldr	r5, [pc, #232]	; (2288 <get_temperature+0x114>)
    219e:	f023 4300 	bic.w	r3, r3, #2147483648	; 0x80000000
    21a2:	60a3      	str	r3, [r4, #8]
    21a4:	2101      	movs	r1, #1
    21a6:	4620      	mov	r0, r4
    21a8:	f000 f93a 	bl	2420 <ADC_EnableTemperatureSensor>
    21ac:	2064      	movs	r0, #100	; 0x64
    21ae:	f002 fb2f 	bl	4810 <CLOCK_uDelay>
    21b2:	6f23      	ldr	r3, [r4, #112]	; 0x70
    21b4:	f423 437e 	bic.w	r3, r3, #65024	; 0xfe00
    21b8:	f443 433e 	orr.w	r3, r3, #48640	; 0xbe00
    21bc:	6723      	str	r3, [r4, #112]	; 0x70
    21be:	2301      	movs	r3, #1
    21c0:	fa03 f309 	lsl.w	r3, r3, r9
    21c4:	602b      	str	r3, [r5, #0]
    21c6:	2102      	movs	r1, #2
    21c8:	f240 1301 	movw	r3, #257	; 0x101
    21cc:	e9c5 1301 	strd	r1, r3, [r5, #4]
    21d0:	4620      	mov	r0, r4
    21d2:	4629      	mov	r1, r5
    21d4:	f000 f8ba 	bl	234c <ADC_SetConvSeqAConfig>
    21d8:	68a3      	ldr	r3, [r4, #8]
    21da:	f04f 0a00 	mov.w	sl, #0
    21de:	f043 4300 	orr.w	r3, r3, #2147483648	; 0x80000000
    21e2:	60a3      	str	r3, [r4, #8]
    21e4:	46d0      	mov	r8, sl
    21e6:	45ba      	cmp	sl, r7
    21e8:	d128      	bne.n	223c <get_temperature+0xc8>
    21ea:	2100      	movs	r1, #0
    21ec:	4620      	mov	r0, r4
    21ee:	f000 f917 	bl	2420 <ADC_EnableTemperatureSensor>
    21f2:	68a3      	ldr	r3, [r4, #8]
    21f4:	4924      	ldr	r1, [pc, #144]	; (2288 <get_temperature+0x114>)
    21f6:	f023 4300 	bic.w	r3, r3, #2147483648	; 0x80000000
    21fa:	60a3      	str	r3, [r4, #8]
    21fc:	6f22      	ldr	r2, [r4, #112]	; 0x70
    21fe:	f422 427e 	bic.w	r2, r2, #65024	; 0xfe00
    2202:	f442 5220 	orr.w	r2, r2, #10240	; 0x2800
    2206:	6722      	str	r2, [r4, #112]	; 0x70
    2208:	2302      	movs	r3, #2
    220a:	2240      	movs	r2, #64	; 0x40
    220c:	e9c5 2300 	strd	r2, r3, [r5]
    2210:	f240 1301 	movw	r3, #257	; 0x101
    2214:	60ab      	str	r3, [r5, #8]
    2216:	4620      	mov	r0, r4
    2218:	f000 f898 	bl	234c <ADC_SetConvSeqAConfig>
    221c:	68a3      	ldr	r3, [r4, #8]
    221e:	2500      	movs	r5, #0
    2220:	f043 4300 	orr.w	r3, r3, #2147483648	; 0x80000000
    2224:	60a3      	str	r3, [r4, #8]
    2226:	46a9      	mov	r9, r5
    2228:	42af      	cmp	r7, r5
    222a:	d119      	bne.n	2260 <get_temperature+0xec>
    222c:	463a      	mov	r2, r7
    222e:	4641      	mov	r1, r8
    2230:	4648      	mov	r0, r9
    2232:	f7ff fee1 	bl	1ff8 <temp_computation>
    2236:	9b0c      	ldr	r3, [sp, #48]	; 0x30
    2238:	6018      	str	r0, [r3, #0]
    223a:	e7a5      	b.n	2188 <get_temperature+0x14>
    223c:	68a3      	ldr	r3, [r4, #8]
    223e:	f043 6380 	orr.w	r3, r3, #67108864	; 0x4000000
    2242:	60a3      	str	r3, [r4, #8]
    2244:	466a      	mov	r2, sp
    2246:	4649      	mov	r1, r9
    2248:	4620      	mov	r0, r4
    224a:	f000 f8a9 	bl	23a0 <ADC_GetChannelConversionResult>
    224e:	2800      	cmp	r0, #0
    2250:	d0f8      	beq.n	2244 <get_temperature+0xd0>
    2252:	9b00      	ldr	r3, [sp, #0]
    2254:	4498      	add	r8, r3
    2256:	fa1f f888 	uxth.w	r8, r8
    225a:	f10a 0a01 	add.w	sl, sl, #1
    225e:	e7c2      	b.n	21e6 <get_temperature+0x72>
    2260:	68a3      	ldr	r3, [r4, #8]
    2262:	f043 6380 	orr.w	r3, r3, #67108864	; 0x4000000
    2266:	60a3      	str	r3, [r4, #8]
    2268:	466a      	mov	r2, sp
    226a:	2106      	movs	r1, #6
    226c:	4620      	mov	r0, r4
    226e:	f000 f897 	bl	23a0 <ADC_GetChannelConversionResult>
    2272:	2800      	cmp	r0, #0
    2274:	d0f8      	beq.n	2268 <get_temperature+0xf4>
    2276:	9b00      	ldr	r3, [sp, #0]
    2278:	4499      	add	r9, r3
    227a:	fa1f f989 	uxth.w	r9, r9
    227e:	3501      	adds	r5, #1
    2280:	e7d2      	b.n	2228 <get_temperature+0xb4>
    2282:	bf00      	nop
    2284:	040156da 	.word	0x040156da
    2288:	040156c4 	.word	0x040156c4

0000228c <ADC_GetInstance.part.0>:
    228c:	b508      	push	{r3, lr}
    228e:	4a03      	ldr	r2, [pc, #12]	; (229c <ADC_GetInstance.part.0+0x10>)
    2290:	4b03      	ldr	r3, [pc, #12]	; (22a0 <ADC_GetInstance.part.0+0x14>)
    2292:	4804      	ldr	r0, [pc, #16]	; (22a4 <ADC_GetInstance.part.0+0x18>)
    2294:	2125      	movs	r1, #37	; 0x25
    2296:	f006 fab1 	bl	87fc <__assert_func>
    229a:	bf00      	nop
    229c:	0002ac28 	.word	0x0002ac28
    22a0:	0002ab8a 	.word	0x0002ab8a
    22a4:	0002abac 	.word	0x0002abac

000022a8 <ADC_Init>:
    22a8:	b538      	push	{r3, r4, r5, lr}
    22aa:	4605      	mov	r5, r0
    22ac:	460c      	mov	r4, r1
    22ae:	b929      	cbnz	r1, 22bc <ADC_Init+0x14>
    22b0:	4b20      	ldr	r3, [pc, #128]	; (2334 <ADC_Init+0x8c>)
    22b2:	4a21      	ldr	r2, [pc, #132]	; (2338 <ADC_Init+0x90>)
    22b4:	4821      	ldr	r0, [pc, #132]	; (233c <ADC_Init+0x94>)
    22b6:	2132      	movs	r1, #50	; 0x32
    22b8:	f006 faa0 	bl	87fc <__assert_func>
    22bc:	4b20      	ldr	r3, [pc, #128]	; (2340 <ADC_Init+0x98>)
    22be:	4298      	cmp	r0, r3
    22c0:	d135      	bne.n	232e <ADC_Init+0x86>
    22c2:	201b      	movs	r0, #27
    22c4:	f002 fb86 	bl	49d4 <CLOCK_EnableClock>
    22c8:	2300      	movs	r3, #0
    22ca:	666b      	str	r3, [r5, #100]	; 0x64
    22cc:	7821      	ldrb	r1, [r4, #0]
    22ce:	7922      	ldrb	r2, [r4, #4]
    22d0:	2901      	cmp	r1, #1
    22d2:	d101      	bne.n	22d8 <ADC_Init+0x30>
    22d4:	f442 7280 	orr.w	r2, r2, #256	; 0x100
    22d8:	7a23      	ldrb	r3, [r4, #8]
    22da:	025b      	lsls	r3, r3, #9
    22dc:	2901      	cmp	r1, #1
    22de:	f403 63c0 	and.w	r3, r3, #1536	; 0x600
    22e2:	ea43 0302 	orr.w	r3, r3, r2
    22e6:	bf01      	itttt	eq
    22e8:	68e2      	ldreq	r2, [r4, #12]
    22ea:	0312      	lsleq	r2, r2, #12
    22ec:	f402 42e0 	andeq.w	r2, r2, #28672	; 0x7000
    22f0:	4313      	orreq	r3, r2
    22f2:	4a13      	ldr	r2, [pc, #76]	; (2340 <ADC_Init+0x98>)
    22f4:	6013      	str	r3, [r2, #0]
    22f6:	6f13      	ldr	r3, [r2, #112]	; 0x70
    22f8:	f043 0301 	orr.w	r3, r3, #1
    22fc:	6713      	str	r3, [r2, #112]	; 0x70
    22fe:	b931      	cbnz	r1, 230e <ADC_Init+0x66>
    2300:	68e3      	ldr	r3, [r4, #12]
    2302:	6f11      	ldr	r1, [r2, #112]	; 0x70
    2304:	021b      	lsls	r3, r3, #8
    2306:	f403 7380 	and.w	r3, r3, #256	; 0x100
    230a:	430b      	orrs	r3, r1
    230c:	6713      	str	r3, [r2, #112]	; 0x70
    230e:	490d      	ldr	r1, [pc, #52]	; (2344 <ADC_Init+0x9c>)
    2310:	f44f 7096 	mov.w	r0, #300	; 0x12c
    2314:	f002 ff88 	bl	5228 <SDK_DelayAtLeastUs>
    2318:	4b0b      	ldr	r3, [pc, #44]	; (2348 <ADC_Init+0xa0>)
    231a:	4a09      	ldr	r2, [pc, #36]	; (2340 <ADC_Init+0x98>)
    231c:	681b      	ldr	r3, [r3, #0]
    231e:	f013 0f01 	tst.w	r3, #1
    2322:	bf1c      	itt	ne
    2324:	085b      	lsrne	r3, r3, #1
    2326:	6753      	strne	r3, [r2, #116]	; 0x74
    2328:	2301      	movs	r3, #1
    232a:	66d3      	str	r3, [r2, #108]	; 0x6c
    232c:	bd38      	pop	{r3, r4, r5, pc}
    232e:	f7ff ffad 	bl	228c <ADC_GetInstance.part.0>
    2332:	bf00      	nop
    2334:	0002abf4 	.word	0x0002abf4
    2338:	0002ac38 	.word	0x0002ac38
    233c:	0002abac 	.word	0x0002abac
    2340:	40089000 	.word	0x40089000
    2344:	02dc6c00 	.word	0x02dc6c00
    2348:	0009fc80 	.word	0x0009fc80

0000234c <ADC_SetConvSeqAConfig>:
    234c:	b508      	push	{r3, lr}
    234e:	b931      	cbnz	r1, 235e <ADC_SetConvSeqAConfig+0x12>
    2350:	4b10      	ldr	r3, [pc, #64]	; (2394 <ADC_SetConvSeqAConfig+0x48>)
    2352:	4a11      	ldr	r2, [pc, #68]	; (2398 <ADC_SetConvSeqAConfig+0x4c>)
    2354:	4811      	ldr	r0, [pc, #68]	; (239c <ADC_SetConvSeqAConfig+0x50>)
    2356:	f44f 7199 	mov.w	r1, #306	; 0x132
    235a:	f006 fa4f 	bl	87fc <__assert_func>
    235e:	684b      	ldr	r3, [r1, #4]
    2360:	780a      	ldrb	r2, [r1, #0]
    2362:	031b      	lsls	r3, r3, #12
    2364:	f403 337c 	and.w	r3, r3, #258048	; 0x3f000
    2368:	4313      	orrs	r3, r2
    236a:	7a0a      	ldrb	r2, [r1, #8]
    236c:	2a01      	cmp	r2, #1
    236e:	7a4a      	ldrb	r2, [r1, #9]
    2370:	bf08      	it	eq
    2372:	f443 2380 	orreq.w	r3, r3, #262144	; 0x40000
    2376:	b10a      	cbz	r2, 237c <ADC_SetConvSeqAConfig+0x30>
    2378:	f443 2300 	orr.w	r3, r3, #524288	; 0x80000
    237c:	7aca      	ldrb	r2, [r1, #11]
    237e:	2a01      	cmp	r2, #1
    2380:	7a8a      	ldrb	r2, [r1, #10]
    2382:	bf08      	it	eq
    2384:	f043 4380 	orreq.w	r3, r3, #1073741824	; 0x40000000
    2388:	b10a      	cbz	r2, 238e <ADC_SetConvSeqAConfig+0x42>
    238a:	f043 5380 	orr.w	r3, r3, #268435456	; 0x10000000
    238e:	6083      	str	r3, [r0, #8]
    2390:	bd08      	pop	{r3, pc}
    2392:	bf00      	nop
    2394:	0002abf4 	.word	0x0002abf4
    2398:	0002ac41 	.word	0x0002ac41
    239c:	0002abac 	.word	0x0002abac

000023a0 <ADC_GetChannelConversionResult>:
    23a0:	b508      	push	{r3, lr}
    23a2:	b932      	cbnz	r2, 23b2 <ADC_GetChannelConversionResult+0x12>
    23a4:	4b1a      	ldr	r3, [pc, #104]	; (2410 <ADC_GetChannelConversionResult+0x70>)
    23a6:	4a1b      	ldr	r2, [pc, #108]	; (2414 <ADC_GetChannelConversionResult+0x74>)
    23a8:	f240 11d9 	movw	r1, #473	; 0x1d9
    23ac:	481a      	ldr	r0, [pc, #104]	; (2418 <ADC_GetChannelConversionResult+0x78>)
    23ae:	f006 fa25 	bl	87fc <__assert_func>
    23b2:	2907      	cmp	r1, #7
    23b4:	d904      	bls.n	23c0 <ADC_GetChannelConversionResult+0x20>
    23b6:	4b19      	ldr	r3, [pc, #100]	; (241c <ADC_GetChannelConversionResult+0x7c>)
    23b8:	4a16      	ldr	r2, [pc, #88]	; (2414 <ADC_GetChannelConversionResult+0x74>)
    23ba:	f44f 71ed 	mov.w	r1, #474	; 0x1da
    23be:	e7f5      	b.n	23ac <ADC_GetChannelConversionResult+0xc>
    23c0:	3108      	adds	r1, #8
    23c2:	f850 1021 	ldr.w	r1, [r0, r1, lsl #2]
    23c6:	2900      	cmp	r1, #0
    23c8:	da1f      	bge.n	240a <ADC_GetChannelConversionResult+0x6a>
    23ca:	6800      	ldr	r0, [r0, #0]
    23cc:	f3c0 2041 	ubfx	r0, r0, #9, #2
    23d0:	f3c1 130b 	ubfx	r3, r1, #4, #12
    23d4:	2802      	cmp	r0, #2
    23d6:	6013      	str	r3, [r2, #0]
    23d8:	d013      	beq.n	2402 <ADC_GetChannelConversionResult+0x62>
    23da:	2803      	cmp	r0, #3
    23dc:	d013      	beq.n	2406 <ADC_GetChannelConversionResult+0x66>
    23de:	2801      	cmp	r0, #1
    23e0:	d101      	bne.n	23e6 <ADC_GetChannelConversionResult+0x46>
    23e2:	089b      	lsrs	r3, r3, #2
    23e4:	6013      	str	r3, [r2, #0]
    23e6:	f3c1 4301 	ubfx	r3, r1, #16, #2
    23ea:	7113      	strb	r3, [r2, #4]
    23ec:	f3c1 4381 	ubfx	r3, r1, #18, #2
    23f0:	7153      	strb	r3, [r2, #5]
    23f2:	f3c1 6383 	ubfx	r3, r1, #26, #4
    23f6:	f3c1 7180 	ubfx	r1, r1, #30, #1
    23fa:	6093      	str	r3, [r2, #8]
    23fc:	7311      	strb	r1, [r2, #12]
    23fe:	2001      	movs	r0, #1
    2400:	bd08      	pop	{r3, pc}
    2402:	091b      	lsrs	r3, r3, #4
    2404:	e7ee      	b.n	23e4 <ADC_GetChannelConversionResult+0x44>
    2406:	099b      	lsrs	r3, r3, #6
    2408:	e7ec      	b.n	23e4 <ADC_GetChannelConversionResult+0x44>
    240a:	2000      	movs	r0, #0
    240c:	e7f8      	b.n	2400 <ADC_GetChannelConversionResult+0x60>
    240e:	bf00      	nop
    2410:	0002ac03 	.word	0x0002ac03
    2414:	0002ac57 	.word	0x0002ac57
    2418:	0002abac 	.word	0x0002abac
    241c:	0002ac10 	.word	0x0002ac10

00002420 <ADC_EnableTemperatureSensor>:
    2420:	f04f 4380 	mov.w	r3, #1073741824	; 0x40000000
    2424:	b189      	cbz	r1, 244a <ADC_EnableTemperatureSensor+0x2a>
    2426:	2201      	movs	r2, #1
    2428:	64da      	str	r2, [r3, #76]	; 0x4c
    242a:	f503 3300 	add.w	r3, r3, #131072	; 0x20000
    242e:	2208      	movs	r2, #8
    2430:	f8c3 20a0 	str.w	r2, [r3, #160]	; 0xa0
    2434:	f8d3 20a0 	ldr.w	r2, [r3, #160]	; 0xa0
    2438:	f042 0201 	orr.w	r2, r2, #1
    243c:	f8c3 20a0 	str.w	r2, [r3, #160]	; 0xa0
    2440:	6f03      	ldr	r3, [r0, #112]	; 0x70
    2442:	f443 433e 	orr.w	r3, r3, #48640	; 0xbe00
    2446:	6703      	str	r3, [r0, #112]	; 0x70
    2448:	4770      	bx	lr
    244a:	6cdb      	ldr	r3, [r3, #76]	; 0x4c
    244c:	2b01      	cmp	r3, #1
    244e:	d1fb      	bne.n	2448 <ADC_EnableTemperatureSensor+0x28>
    2450:	4b05      	ldr	r3, [pc, #20]	; (2468 <ADC_EnableTemperatureSensor+0x48>)
    2452:	f8c3 10a0 	str.w	r1, [r3, #160]	; 0xa0
    2456:	6f03      	ldr	r3, [r0, #112]	; 0x70
    2458:	f423 433e 	bic.w	r3, r3, #48640	; 0xbe00
    245c:	6703      	str	r3, [r0, #112]	; 0x70
    245e:	6f03      	ldr	r3, [r0, #112]	; 0x70
    2460:	f443 5320 	orr.w	r3, r3, #10240	; 0x2800
    2464:	e7ef      	b.n	2446 <ADC_EnableTemperatureSensor+0x26>
    2466:	bf00      	nop
    2468:	40020000 	.word	0x40020000

0000246c <BOARD_GetClock32MCapacitanceCharacteristics>:
    246c:	4800      	ldr	r0, [pc, #0]	; (2470 <BOARD_GetClock32MCapacitanceCharacteristics+0x4>)
    246e:	4770      	bx	lr
    2470:	0002ac78 	.word	0x0002ac78

00002474 <APP_bNtagPdmLoad>:
    2474:	e92d 43f0 	stmdb	sp!, {r4, r5, r6, r7, r8, r9, lr}
    2478:	4e80      	ldr	r6, [pc, #512]	; (267c <APP_bNtagPdmLoad+0x208>)
    247a:	b093      	sub	sp, #76	; 0x4c
    247c:	6834      	ldr	r4, [r6, #0]
    247e:	f001 fb85 	bl	3b8c <OSA_TimeGetMsec>
    2482:	4621      	mov	r1, r4
    2484:	4602      	mov	r2, r0
    2486:	487e      	ldr	r0, [pc, #504]	; (2680 <APP_bNtagPdmLoad+0x20c>)
    2488:	f7ff fc20 	bl	1ccc <DbgConsole_Printf>
    248c:	2400      	movs	r4, #0
    248e:	497d      	ldr	r1, [pc, #500]	; (2684 <APP_bNtagPdmLoad+0x210>)
    2490:	f8ad 400e 	strh.w	r4, [sp, #14]
    2494:	f10d 030e 	add.w	r3, sp, #14
    2498:	2212      	movs	r2, #18
    249a:	f24a 1031 	movw	r0, #41265	; 0xa131
    249e:	f00d fe5d 	bl	1015c <PDM_eReadDataFromRecord>
    24a2:	f8bd 700e 	ldrh.w	r7, [sp, #14]
    24a6:	4605      	mov	r5, r0
    24a8:	f001 fb70 	bl	3b8c <OSA_TimeGetMsec>
    24ac:	463b      	mov	r3, r7
    24ae:	9000      	str	r0, [sp, #0]
    24b0:	462a      	mov	r2, r5
    24b2:	4875      	ldr	r0, [pc, #468]	; (2688 <APP_bNtagPdmLoad+0x214>)
    24b4:	4d73      	ldr	r5, [pc, #460]	; (2684 <APP_bNtagPdmLoad+0x210>)
    24b6:	f24a 1131 	movw	r1, #41265	; 0xa131
    24ba:	f7ff fc07 	bl	1ccc <DbgConsole_Printf>
    24be:	f8bd 300e 	ldrh.w	r3, [sp, #14]
    24c2:	2b12      	cmp	r3, #18
    24c4:	d036      	beq.n	2534 <APP_bNtagPdmLoad+0xc0>
    24c6:	4871      	ldr	r0, [pc, #452]	; (268c <APP_bNtagPdmLoad+0x218>)
    24c8:	4f71      	ldr	r7, [pc, #452]	; (2690 <APP_bNtagPdmLoad+0x21c>)
    24ca:	f7ff fbff 	bl	1ccc <DbgConsole_Printf>
    24ce:	a808      	add	r0, sp, #32
    24d0:	f002 fb56 	bl	4b80 <TRNG_GetDefaultConfig>
    24d4:	f001 fb5a 	bl	3b8c <OSA_TimeGetMsec>
    24d8:	4601      	mov	r1, r0
    24da:	486e      	ldr	r0, [pc, #440]	; (2694 <APP_bNtagPdmLoad+0x220>)
    24dc:	f7ff fbf6 	bl	1ccc <DbgConsole_Printf>
    24e0:	486b      	ldr	r0, [pc, #428]	; (2690 <APP_bNtagPdmLoad+0x21c>)
    24e2:	a908      	add	r1, sp, #32
    24e4:	f002 fb56 	bl	4b94 <TRNG_Init>
    24e8:	1929      	adds	r1, r5, r4
    24ea:	2201      	movs	r2, #1
    24ec:	4638      	mov	r0, r7
    24ee:	3401      	adds	r4, #1
    24f0:	f002 fb8f 	bl	4c12 <TRNG_GetRandomData>
    24f4:	2c10      	cmp	r4, #16
    24f6:	d1f7      	bne.n	24e8 <APP_bNtagPdmLoad+0x74>
    24f8:	f001 fb48 	bl	3b8c <OSA_TimeGetMsec>
    24fc:	4601      	mov	r1, r0
    24fe:	4866      	ldr	r0, [pc, #408]	; (2698 <APP_bNtagPdmLoad+0x224>)
    2500:	f7ff fbe4 	bl	1ccc <DbgConsole_Printf>
    2504:	4862      	ldr	r0, [pc, #392]	; (2690 <APP_bNtagPdmLoad+0x21c>)
    2506:	f002 fb7b 	bl	4c00 <TRNG_Deinit>
    250a:	4621      	mov	r1, r4
    250c:	485d      	ldr	r0, [pc, #372]	; (2684 <APP_bNtagPdmLoad+0x210>)
    250e:	f012 fe81 	bl	15214 <ZPS_u16crc>
    2512:	495c      	ldr	r1, [pc, #368]	; (2684 <APP_bNtagPdmLoad+0x210>)
    2514:	8228      	strh	r0, [r5, #16]
    2516:	2212      	movs	r2, #18
    2518:	f24a 1031 	movw	r0, #41265	; 0xa131
    251c:	f00f fb2c 	bl	11b78 <PDM_eSaveRecordData>
    2520:	4604      	mov	r4, r0
    2522:	f001 fb33 	bl	3b8c <OSA_TimeGetMsec>
    2526:	4622      	mov	r2, r4
    2528:	4603      	mov	r3, r0
    252a:	f24a 1131 	movw	r1, #41265	; 0xa131
    252e:	485b      	ldr	r0, [pc, #364]	; (269c <APP_bNtagPdmLoad+0x228>)
    2530:	f7ff fbcc 	bl	1ccc <DbgConsole_Printf>
    2534:	485a      	ldr	r0, [pc, #360]	; (26a0 <APP_bNtagPdmLoad+0x22c>)
    2536:	4f53      	ldr	r7, [pc, #332]	; (2684 <APP_bNtagPdmLoad+0x210>)
    2538:	f8df 8184 	ldr.w	r8, [pc, #388]	; 26c0 <APP_bNtagPdmLoad+0x24c>
    253c:	f7ff fbc6 	bl	1ccc <DbgConsole_Printf>
    2540:	2410      	movs	r4, #16
    2542:	f817 1b01 	ldrb.w	r1, [r7], #1
    2546:	4640      	mov	r0, r8
    2548:	3c01      	subs	r4, #1
    254a:	f7ff fbbf 	bl	1ccc <DbgConsole_Printf>
    254e:	f014 04ff 	ands.w	r4, r4, #255	; 0xff
    2552:	d1f6      	bne.n	2542 <APP_bNtagPdmLoad+0xce>
    2554:	8a29      	ldrh	r1, [r5, #16]
    2556:	4d53      	ldr	r5, [pc, #332]	; (26a4 <APP_bNtagPdmLoad+0x230>)
    2558:	4853      	ldr	r0, [pc, #332]	; (26a8 <APP_bNtagPdmLoad+0x234>)
    255a:	f7ff fbb7 	bl	1ccc <DbgConsole_Printf>
    255e:	f10d 030e 	add.w	r3, sp, #14
    2562:	222e      	movs	r2, #46	; 0x2e
    2564:	4629      	mov	r1, r5
    2566:	f24a 1030 	movw	r0, #41264	; 0xa130
    256a:	f8ad 400e 	strh.w	r4, [sp, #14]
    256e:	f00d fdf5 	bl	1015c <PDM_eReadDataFromRecord>
    2572:	f8bd 900e 	ldrh.w	r9, [sp, #14]
    2576:	4607      	mov	r7, r0
    2578:	f001 fb08 	bl	3b8c <OSA_TimeGetMsec>
    257c:	464b      	mov	r3, r9
    257e:	9000      	str	r0, [sp, #0]
    2580:	463a      	mov	r2, r7
    2582:	484a      	ldr	r0, [pc, #296]	; (26ac <APP_bNtagPdmLoad+0x238>)
    2584:	f24a 1130 	movw	r1, #41264	; 0xa130
    2588:	f7ff fba0 	bl	1ccc <DbgConsole_Printf>
    258c:	f8bd 300e 	ldrh.w	r3, [sp, #14]
    2590:	2b2e      	cmp	r3, #46	; 0x2e
    2592:	d167      	bne.n	2664 <APP_bNtagPdmLoad+0x1f0>
    2594:	782b      	ldrb	r3, [r5, #0]
    2596:	2ba1      	cmp	r3, #161	; 0xa1
    2598:	d164      	bne.n	2664 <APP_bNtagPdmLoad+0x1f0>
    259a:	f7fe f99b 	bl	8d4 <ZPS_pvAplZdoGetAplHandle>
    259e:	f014 f801 	bl	165a4 <zps_pvAplZdoGetNwkHandle>
    25a2:	f01c f90e 	bl	1e7c2 <ZPS_u64NwkNibGetExtAddr>
    25a6:	af04      	add	r7, sp, #16
    25a8:	460b      	mov	r3, r1
    25aa:	f105 0129 	add.w	r1, r5, #41	; 0x29
    25ae:	4602      	mov	r2, r0
    25b0:	9101      	str	r1, [sp, #4]
    25b2:	4834      	ldr	r0, [pc, #208]	; (2684 <APP_bNtagPdmLoad+0x210>)
    25b4:	9700      	str	r7, [sp, #0]
    25b6:	f105 0119 	add.w	r1, r5, #25
    25ba:	f00c ff29 	bl	f410 <BDB_bOutOfBandCommissionGetKey>
    25be:	2800      	cmp	r0, #0
    25c0:	d050      	beq.n	2664 <APP_bNtagPdmLoad+0x1f0>
    25c2:	7bab      	ldrb	r3, [r5, #14]
    25c4:	3b0b      	subs	r3, #11
    25c6:	2b0f      	cmp	r3, #15
    25c8:	d84c      	bhi.n	2664 <APP_bNtagPdmLoad+0x1f0>
    25ca:	f8d5 2011 	ldr.w	r2, [r5, #17]
    25ce:	f8d5 3015 	ldr.w	r3, [r5, #21]
    25d2:	e9cd 2308 	strd	r2, r3, [sp, #32]
    25d6:	686a      	ldr	r2, [r5, #4]
    25d8:	68ab      	ldr	r3, [r5, #8]
    25da:	e9cd 740c 	strd	r7, r4, [sp, #48]	; 0x30
    25de:	e9cd 230a 	strd	r2, r3, [sp, #40]	; 0x28
    25e2:	7c2a      	ldrb	r2, [r5, #16]
    25e4:	7beb      	ldrb	r3, [r5, #15]
    25e6:	ea43 2302 	orr.w	r3, r3, r2, lsl #8
    25ea:	f8ad 3038 	strh.w	r3, [sp, #56]	; 0x38
    25ee:	f64f 73ff 	movw	r3, #65535	; 0xffff
    25f2:	f8ad 303a 	strh.w	r3, [sp, #58]	; 0x3a
    25f6:	f895 302d 	ldrb.w	r3, [r5, #45]	; 0x2d
    25fa:	f88d 303d 	strb.w	r3, [sp, #61]	; 0x3d
    25fe:	f7fe f969 	bl	8d4 <ZPS_pvAplZdoGetAplHandle>
    2602:	f013 ff13 	bl	1642c <zps_eAplZdoGetDeviceType>
    2606:	7bab      	ldrb	r3, [r5, #14]
    2608:	f88d 003e 	strb.w	r0, [sp, #62]	; 0x3e
    260c:	2802      	cmp	r0, #2
    260e:	f88d 3040 	strb.w	r3, [sp, #64]	; 0x40
    2612:	a808      	add	r0, sp, #32
    2614:	f04f 0301 	mov.w	r3, #1
    2618:	bf07      	ittee	eq
    261a:	f88d 303c 	strbeq.w	r3, [sp, #60]	; 0x3c
    261e:	f88d 403f 	strbeq.w	r4, [sp, #63]	; 0x3f
    2622:	f88d 403c 	strbne.w	r4, [sp, #60]	; 0x3c
    2626:	f88d 303f 	strbne.w	r3, [sp, #63]	; 0x3f
    262a:	f88d 3041 	strb.w	r3, [sp, #65]	; 0x41
    262e:	f00c fddb 	bl	f1e8 <BDB_u8OutOfBandCommissionStartDevice>
    2632:	4b1f      	ldr	r3, [pc, #124]	; (26b0 <APP_bNtagPdmLoad+0x23c>)
    2634:	4601      	mov	r1, r0
    2636:	2401      	movs	r4, #1
    2638:	481e      	ldr	r0, [pc, #120]	; (26b4 <APP_bNtagPdmLoad+0x240>)
    263a:	f883 402a 	strb.w	r4, [r3, #42]	; 0x2a
    263e:	f7ff fb45 	bl	1ccc <DbgConsole_Printf>
    2642:	222e      	movs	r2, #46	; 0x2e
    2644:	2100      	movs	r1, #0
    2646:	4817      	ldr	r0, [pc, #92]	; (26a4 <APP_bNtagPdmLoad+0x230>)
    2648:	f027 f900 	bl	2984c <memset>
    264c:	4915      	ldr	r1, [pc, #84]	; (26a4 <APP_bNtagPdmLoad+0x230>)
    264e:	222e      	movs	r2, #46	; 0x2e
    2650:	f24a 1030 	movw	r0, #41264	; 0xa130
    2654:	f00f fa90 	bl	11b78 <PDM_eSaveRecordData>
    2658:	f24a 1130 	movw	r1, #41264	; 0xa130
    265c:	4602      	mov	r2, r0
    265e:	4816      	ldr	r0, [pc, #88]	; (26b8 <APP_bNtagPdmLoad+0x244>)
    2660:	f7ff fb34 	bl	1ccc <DbgConsole_Printf>
    2664:	6835      	ldr	r5, [r6, #0]
    2666:	f001 fa91 	bl	3b8c <OSA_TimeGetMsec>
    266a:	4629      	mov	r1, r5
    266c:	4602      	mov	r2, r0
    266e:	4813      	ldr	r0, [pc, #76]	; (26bc <APP_bNtagPdmLoad+0x248>)
    2670:	f7ff fb2c 	bl	1ccc <DbgConsole_Printf>
    2674:	4620      	mov	r0, r4
    2676:	b013      	add	sp, #76	; 0x4c
    2678:	e8bd 83f0 	ldmia.w	sp!, {r4, r5, r6, r7, r8, r9, pc}
    267c:	040157f8 	.word	0x040157f8
    2680:	0002ac84 	.word	0x0002ac84
    2684:	04015701 	.word	0x04015701
    2688:	0002aca6 	.word	0x0002aca6
    268c:	0002acf4 	.word	0x0002acf4
    2690:	4000d000 	.word	0x4000d000
    2694:	0002ad12 	.word	0x0002ad12
    2698:	0002ad2c 	.word	0x0002ad2c
    269c:	0002ad48 	.word	0x0002ad48
    26a0:	0002ad8e 	.word	0x0002ad8e
    26a4:	04015713 	.word	0x04015713
    26a8:	0002adb9 	.word	0x0002adb9
    26ac:	0002ade4 	.word	0x0002ade4
    26b0:	040038c0 	.word	0x040038c0
    26b4:	0002ae34 	.word	0x0002ae34
    26b8:	0002ae66 	.word	0x0002ae66
    26bc:	0002aea5 	.word	0x0002aea5
    26c0:	0002adb3 	.word	0x0002adb3

000026c4 <APP_vNtagStart>:
    26c4:	e92d 47f0 	stmdb	sp!, {r4, r5, r6, r7, r8, r9, sl, lr}
    26c8:	4c4e      	ldr	r4, [pc, #312]	; (2804 <APP_vNtagStart+0x140>)
    26ca:	4e4f      	ldr	r6, [pc, #316]	; (2808 <APP_vNtagStart+0x144>)
    26cc:	6827      	ldr	r7, [r4, #0]
    26ce:	f896 8000 	ldrb.w	r8, [r6]
    26d2:	b088      	sub	sp, #32
    26d4:	4605      	mov	r5, r0
    26d6:	f001 fa59 	bl	3b8c <OSA_TimeGetMsec>
    26da:	4643      	mov	r3, r8
    26dc:	9000      	str	r0, [sp, #0]
    26de:	4639      	mov	r1, r7
    26e0:	484a      	ldr	r0, [pc, #296]	; (280c <APP_vNtagStart+0x148>)
    26e2:	462a      	mov	r2, r5
    26e4:	f7ff faf2 	bl	1ccc <DbgConsole_Printf>
    26e8:	7837      	ldrb	r7, [r6, #0]
    26ea:	46a0      	mov	r8, r4
    26ec:	2301      	movs	r3, #1
    26ee:	b187      	cbz	r7, 2712 <APP_vNtagStart+0x4e>
    26f0:	4a47      	ldr	r2, [pc, #284]	; (2810 <APP_vNtagStart+0x14c>)
    26f2:	7013      	strb	r3, [r2, #0]
    26f4:	f8d8 4000 	ldr.w	r4, [r8]
    26f8:	7836      	ldrb	r6, [r6, #0]
    26fa:	f001 fa47 	bl	3b8c <OSA_TimeGetMsec>
    26fe:	4633      	mov	r3, r6
    2700:	9000      	str	r0, [sp, #0]
    2702:	462a      	mov	r2, r5
    2704:	4621      	mov	r1, r4
    2706:	4843      	ldr	r0, [pc, #268]	; (2814 <APP_vNtagStart+0x150>)
    2708:	f7ff fae0 	bl	1ccc <DbgConsole_Printf>
    270c:	b008      	add	sp, #32
    270e:	e8bd 87f0 	ldmia.w	sp!, {r4, r5, r6, r7, r8, r9, sl, pc}
    2712:	7033      	strb	r3, [r6, #0]
    2714:	4b40      	ldr	r3, [pc, #256]	; (2818 <APP_vNtagStart+0x154>)
    2716:	4c41      	ldr	r4, [pc, #260]	; (281c <APP_vNtagStart+0x158>)
    2718:	701d      	strb	r5, [r3, #0]
    271a:	230d      	movs	r3, #13
    271c:	7023      	strb	r3, [r4, #0]
    271e:	f04f 39ff 	mov.w	r9, #4294967295
    2722:	2341      	movs	r3, #65	; 0x41
    2724:	7063      	strb	r3, [r4, #1]
    2726:	70a7      	strb	r7, [r4, #2]
    2728:	f884 9003 	strb.w	r9, [r4, #3]
    272c:	f884 9004 	strb.w	r9, [r4, #4]
    2730:	f7fe f8d0 	bl	8d4 <ZPS_pvAplZdoGetAplHandle>
    2734:	f013 ff36 	bl	165a4 <zps_pvAplZdoGetNwkHandle>
    2738:	f01c f843 	bl	1e7c2 <ZPS_u64NwkNibGetExtAddr>
    273c:	f8c4 1009 	str.w	r1, [r4, #9]
    2740:	f8c4 0005 	str.w	r0, [r4, #5]
    2744:	f7fe f8c6 	bl	8d4 <ZPS_pvAplZdoGetAplHandle>
    2748:	f013 ff2c 	bl	165a4 <zps_pvAplZdoGetNwkHandle>
    274c:	f01c f843 	bl	1e7d6 <ZPS_u64NwkNibGetEpid>
    2750:	f8df a0e8 	ldr.w	sl, [pc, #232]	; 283c <APP_vNtagStart+0x178>
    2754:	f8c4 0012 	str.w	r0, [r4, #18]
    2758:	f8c4 1016 	str.w	r1, [r4, #22]
    275c:	2210      	movs	r2, #16
    275e:	4651      	mov	r1, sl
    2760:	f104 001a 	add.w	r0, r4, #26
    2764:	f026 ffd8 	bl	29718 <memcpy>
    2768:	f8ba 3010 	ldrh.w	r3, [sl, #16]
    276c:	f8d4 2012 	ldr.w	r2, [r4, #18]
    2770:	8563      	strh	r3, [r4, #42]	; 0x2a
    2772:	f8d4 3016 	ldr.w	r3, [r4, #22]
    2776:	4313      	orrs	r3, r2
    2778:	d03c      	beq.n	27f4 <APP_vNtagStart+0x130>
    277a:	f7fe f8ab 	bl	8d4 <ZPS_pvAplZdoGetAplHandle>
    277e:	f013 ff11 	bl	165a4 <zps_pvAplZdoGetNwkHandle>
    2782:	f01c f81c 	bl	1e7be <ZPS_u16NwkNibGetNwkAddr>
    2786:	f8a4 000d 	strh.w	r0, [r4, #13]
    278a:	f7fe f8a3 	bl	8d4 <ZPS_pvAplZdoGetAplHandle>
    278e:	f013 ff0b 	bl	165a8 <zps_psAplZdoGetNib>
    2792:	f890 3094 	ldrb.w	r3, [r0, #148]	; 0x94
    2796:	73e3      	strb	r3, [r4, #15]
    2798:	f7fe f89c 	bl	8d4 <ZPS_pvAplZdoGetAplHandle>
    279c:	f013 ff04 	bl	165a8 <zps_psAplZdoGetNib>
    27a0:	f8b0 3098 	ldrh.w	r3, [r0, #152]	; 0x98
    27a4:	8223      	strh	r3, [r4, #16]
    27a6:	f7fe f895 	bl	8d4 <ZPS_pvAplZdoGetAplHandle>
    27aa:	aa02      	add	r2, sp, #8
    27ac:	4629      	mov	r1, r5
    27ae:	f00f fdc7 	bl	12340 <zps_eAplAfGetSimpleDescriptor>
    27b2:	b918      	cbnz	r0, 27bc <APP_vNtagStart+0xf8>
    27b4:	f8bd 300a 	ldrh.w	r3, [sp, #10]
    27b8:	f8a4 3003 	strh.w	r3, [r4, #3]
    27bc:	222e      	movs	r2, #46	; 0x2e
    27be:	2100      	movs	r1, #0
    27c0:	4817      	ldr	r0, [pc, #92]	; (2820 <APP_vNtagStart+0x15c>)
    27c2:	f027 f843 	bl	2984c <memset>
    27c6:	21ff      	movs	r1, #255	; 0xff
    27c8:	4608      	mov	r0, r1
    27ca:	4a16      	ldr	r2, [pc, #88]	; (2824 <APP_vNtagStart+0x160>)
    27cc:	2316      	movs	r3, #22
    27ce:	f025 fbfd 	bl	27fcc <NTAG_vInitialise>
    27d2:	4a15      	ldr	r2, [pc, #84]	; (2828 <APP_vNtagStart+0x164>)
    27d4:	4815      	ldr	r0, [pc, #84]	; (282c <APP_vNtagStart+0x168>)
    27d6:	2300      	movs	r3, #0
    27d8:	7013      	strb	r3, [r2, #0]
    27da:	4a15      	ldr	r2, [pc, #84]	; (2830 <APP_vNtagStart+0x16c>)
    27dc:	7013      	strb	r3, [r2, #0]
    27de:	f025 fc4f 	bl	28080 <NTAG_vRegCbEvent>
    27e2:	4b14      	ldr	r3, [pc, #80]	; (2834 <APP_vNtagStart+0x170>)
    27e4:	2201      	movs	r2, #1
    27e6:	701a      	strb	r2, [r3, #0]
    27e8:	4b13      	ldr	r3, [pc, #76]	; (2838 <APP_vNtagStart+0x174>)
    27ea:	2105      	movs	r1, #5
    27ec:	7818      	ldrb	r0, [r3, #0]
    27ee:	f001 f8ed 	bl	39cc <ZTIMER_eStart>
    27f2:	e77f      	b.n	26f4 <APP_vNtagStart+0x30>
    27f4:	f884 900d 	strb.w	r9, [r4, #13]
    27f8:	f884 900e 	strb.w	r9, [r4, #14]
    27fc:	73e7      	strb	r7, [r4, #15]
    27fe:	7427      	strb	r7, [r4, #16]
    2800:	7467      	strb	r7, [r4, #17]
    2802:	e7d0      	b.n	27a6 <APP_vNtagStart+0xe2>
    2804:	040157f8 	.word	0x040157f8
    2808:	040156fa 	.word	0x040156fa
    280c:	0002aecb 	.word	0x0002aecb
    2810:	040156fe 	.word	0x040156fe
    2814:	0002af07 	.word	0x0002af07
    2818:	04015804 	.word	0x04015804
    281c:	0401579b 	.word	0x0401579b
    2820:	0401576d 	.word	0x0401576d
    2824:	000186a0 	.word	0x000186a0
    2828:	04015700 	.word	0x04015700
    282c:	000028b9 	.word	0x000028b9
    2830:	040156ff 	.word	0x040156ff
    2834:	040156fc 	.word	0x040156fc
    2838:	04015662 	.word	0x04015662
    283c:	04015701 	.word	0x04015701

00002840 <APP_vNtagStop>:
    2840:	e92d 41f0 	stmdb	sp!, {r4, r5, r6, r7, r8, lr}
    2844:	4d15      	ldr	r5, [pc, #84]	; (289c <APP_vNtagStop+0x5c>)
    2846:	4c16      	ldr	r4, [pc, #88]	; (28a0 <APP_vNtagStop+0x60>)
    2848:	682e      	ldr	r6, [r5, #0]
    284a:	7827      	ldrb	r7, [r4, #0]
    284c:	f001 f99e 	bl	3b8c <OSA_TimeGetMsec>
    2850:	463a      	mov	r2, r7
    2852:	4603      	mov	r3, r0
    2854:	4631      	mov	r1, r6
    2856:	4813      	ldr	r0, [pc, #76]	; (28a4 <APP_vNtagStop+0x64>)
    2858:	f7ff fa38 	bl	1ccc <DbgConsole_Printf>
    285c:	7823      	ldrb	r3, [r4, #0]
    285e:	462f      	mov	r7, r5
    2860:	b183      	cbz	r3, 2884 <APP_vNtagStop+0x44>
    2862:	4d11      	ldr	r5, [pc, #68]	; (28a8 <APP_vNtagStop+0x68>)
    2864:	782b      	ldrb	r3, [r5, #0]
    2866:	2600      	movs	r6, #0
    2868:	2b01      	cmp	r3, #1
    286a:	7026      	strb	r6, [r4, #0]
    286c:	d105      	bne.n	287a <APP_vNtagStop+0x3a>
    286e:	f026 f9c3 	bl	28bf8 <NTAG_NWK_eStop>
    2872:	480e      	ldr	r0, [pc, #56]	; (28ac <APP_vNtagStop+0x6c>)
    2874:	702e      	strb	r6, [r5, #0]
    2876:	f025 fc03 	bl	28080 <NTAG_vRegCbEvent>
    287a:	4b0d      	ldr	r3, [pc, #52]	; (28b0 <APP_vNtagStop+0x70>)
    287c:	2200      	movs	r2, #0
    287e:	701a      	strb	r2, [r3, #0]
    2880:	f025 fbf0 	bl	28064 <NTAG_vDeinitialise>
    2884:	683d      	ldr	r5, [r7, #0]
    2886:	7824      	ldrb	r4, [r4, #0]
    2888:	f001 f980 	bl	3b8c <OSA_TimeGetMsec>
    288c:	4622      	mov	r2, r4
    288e:	4603      	mov	r3, r0
    2890:	4629      	mov	r1, r5
    2892:	4808      	ldr	r0, [pc, #32]	; (28b4 <APP_vNtagStop+0x74>)
    2894:	e8bd 41f0 	ldmia.w	sp!, {r4, r5, r6, r7, r8, lr}
    2898:	f7ff ba18 	b.w	1ccc <DbgConsole_Printf>
    289c:	040157f8 	.word	0x040157f8
    28a0:	040156fa 	.word	0x040156fa
    28a4:	0002af42 	.word	0x0002af42
    28a8:	040156ff 	.word	0x040156ff
    28ac:	000028b9 	.word	0x000028b9
    28b0:	040156fc 	.word	0x040156fc
    28b4:	0002af72 	.word	0x0002af72

000028b8 <APP_cbNtagEvent>:
    28b8:	b537      	push	{r0, r1, r2, r4, r5, lr}
    28ba:	460b      	mov	r3, r1
    28bc:	4919      	ldr	r1, [pc, #100]	; (2924 <APP_cbNtagEvent+0x6c>)
    28be:	9200      	str	r2, [sp, #0]
    28c0:	4604      	mov	r4, r0
    28c2:	4602      	mov	r2, r0
    28c4:	6809      	ldr	r1, [r1, #0]
    28c6:	4818      	ldr	r0, [pc, #96]	; (2928 <APP_cbNtagEvent+0x70>)
    28c8:	f7ff fa00 	bl	1ccc <DbgConsole_Printf>
    28cc:	b11c      	cbz	r4, 28d6 <APP_cbNtagEvent+0x1e>
    28ce:	2c01      	cmp	r4, #1
    28d0:	d019      	beq.n	2906 <APP_cbNtagEvent+0x4e>
    28d2:	b003      	add	sp, #12
    28d4:	bd30      	pop	{r4, r5, pc}
    28d6:	4c15      	ldr	r4, [pc, #84]	; (292c <APP_cbNtagEvent+0x74>)
    28d8:	7823      	ldrb	r3, [r4, #0]
    28da:	2b01      	cmp	r3, #1
    28dc:	d0f9      	beq.n	28d2 <APP_cbNtagEvent+0x1a>
    28de:	2501      	movs	r5, #1
    28e0:	4813      	ldr	r0, [pc, #76]	; (2930 <APP_cbNtagEvent+0x78>)
    28e2:	f7ff f9f3 	bl	1ccc <DbgConsole_Printf>
    28e6:	7025      	strb	r5, [r4, #0]
    28e8:	4c12      	ldr	r4, [pc, #72]	; (2934 <APP_cbNtagEvent+0x7c>)
    28ea:	7823      	ldrb	r3, [r4, #0]
    28ec:	42ab      	cmp	r3, r5
    28ee:	d0f0      	beq.n	28d2 <APP_cbNtagEvent+0x1a>
    28f0:	4811      	ldr	r0, [pc, #68]	; (2938 <APP_cbNtagEvent+0x80>)
    28f2:	f7ff f9eb 	bl	1ccc <DbgConsole_Printf>
    28f6:	4911      	ldr	r1, [pc, #68]	; (293c <APP_cbNtagEvent+0x84>)
    28f8:	4811      	ldr	r0, [pc, #68]	; (2940 <APP_cbNtagEvent+0x88>)
    28fa:	7025      	strb	r5, [r4, #0]
    28fc:	b003      	add	sp, #12
    28fe:	e8bd 4030 	ldmia.w	sp!, {r4, r5, lr}
    2902:	f026 b927 	b.w	28b54 <NTAG_NWK_eRead>
    2906:	4c09      	ldr	r4, [pc, #36]	; (292c <APP_cbNtagEvent+0x74>)
    2908:	7823      	ldrb	r3, [r4, #0]
    290a:	2b02      	cmp	r3, #2
    290c:	d0e1      	beq.n	28d2 <APP_cbNtagEvent+0x1a>
    290e:	480d      	ldr	r0, [pc, #52]	; (2944 <APP_cbNtagEvent+0x8c>)
    2910:	f7ff f9dc 	bl	1ccc <DbgConsole_Printf>
    2914:	2302      	movs	r3, #2
    2916:	7023      	strb	r3, [r4, #0]
    2918:	b003      	add	sp, #12
    291a:	e8bd 4030 	ldmia.w	sp!, {r4, r5, lr}
    291e:	f7ff bf8f 	b.w	2840 <APP_vNtagStop>
    2922:	bf00      	nop
    2924:	040157f8 	.word	0x040157f8
    2928:	0002afa1 	.word	0x0002afa1
    292c:	04015700 	.word	0x04015700
    2930:	0002afc3 	.word	0x0002afc3
    2934:	040156ff 	.word	0x040156ff
    2938:	0002afdc 	.word	0x0002afdc
    293c:	04015741 	.word	0x04015741
    2940:	04015800 	.word	0x04015800
    2944:	0002aff1 	.word	0x0002aff1

00002948 <APP_cbNtagTimer>:
    2948:	e92d 4ff0 	stmdb	sp!, {r4, r5, r6, r7, r8, r9, sl, fp, lr}
    294c:	48ab      	ldr	r0, [pc, #684]	; (2bfc <APP_cbNtagTimer+0x2b4>)
    294e:	4cac      	ldr	r4, [pc, #688]	; (2c00 <APP_cbNtagTimer+0x2b8>)
    2950:	b087      	sub	sp, #28
    2952:	f7ff f9bb 	bl	1ccc <DbgConsole_Printf>
    2956:	4aab      	ldr	r2, [pc, #684]	; (2c04 <APP_cbNtagTimer+0x2bc>)
    2958:	6813      	ldr	r3, [r2, #0]
    295a:	3301      	adds	r3, #1
    295c:	6013      	str	r3, [r2, #0]
    295e:	6823      	ldr	r3, [r4, #0]
    2960:	3305      	adds	r3, #5
    2962:	6023      	str	r3, [r4, #0]
    2964:	4ba8      	ldr	r3, [pc, #672]	; (2c08 <APP_cbNtagTimer+0x2c0>)
    2966:	f893 8000 	ldrb.w	r8, [r3]
    296a:	f1b8 0f01 	cmp.w	r8, #1
    296e:	f04f 0005 	mov.w	r0, #5
    2972:	f040 8140 	bne.w	2bf6 <APP_cbNtagTimer+0x2ae>
    2976:	f026 f957 	bl	28c28 <NTAG_NWK_eTick>
    297a:	1e83      	subs	r3, r0, #2
    297c:	b2db      	uxtb	r3, r3
    297e:	2b01      	cmp	r3, #1
    2980:	4605      	mov	r5, r0
    2982:	f200 80fd 	bhi.w	2b80 <APP_cbNtagTimer+0x238>
    2986:	6821      	ldr	r1, [r4, #0]
    2988:	48a0      	ldr	r0, [pc, #640]	; (2c0c <APP_cbNtagTimer+0x2c4>)
    298a:	4ea1      	ldr	r6, [pc, #644]	; (2c10 <APP_cbNtagTimer+0x2c8>)
    298c:	f7ff f99e 	bl	1ccc <DbgConsole_Printf>
    2990:	f001 f8fc 	bl	3b8c <OSA_TimeGetMsec>
    2994:	4629      	mov	r1, r5
    2996:	4602      	mov	r2, r0
    2998:	489e      	ldr	r0, [pc, #632]	; (2c14 <APP_cbNtagTimer+0x2cc>)
    299a:	f7ff f997 	bl	1ccc <DbgConsole_Printf>
    299e:	2d03      	cmp	r5, #3
    29a0:	f040 80d7 	bne.w	2b52 <APP_cbNtagTimer+0x20a>
    29a4:	f025 fd0c 	bl	283c0 <NTAG_u32Ntag>
    29a8:	4605      	mov	r5, r0
    29aa:	f026 f955 	bl	28c58 <NTAG_NWK_bCcValid>
    29ae:	4629      	mov	r1, r5
    29b0:	4d99      	ldr	r5, [pc, #612]	; (2c18 <APP_cbNtagTimer+0x2d0>)
    29b2:	4602      	mov	r2, r0
    29b4:	4899      	ldr	r0, [pc, #612]	; (2c1c <APP_cbNtagTimer+0x2d4>)
    29b6:	f7ff f989 	bl	1ccc <DbgConsole_Printf>
    29ba:	782a      	ldrb	r2, [r5, #0]
    29bc:	7833      	ldrb	r3, [r6, #0]
    29be:	429a      	cmp	r2, r3
    29c0:	f040 80a0 	bne.w	2b04 <APP_cbNtagTimer+0x1bc>
    29c4:	f8b5 2003 	ldrh.w	r2, [r5, #3]
    29c8:	f8b6 3003 	ldrh.w	r3, [r6, #3]
    29cc:	429a      	cmp	r2, r3
    29ce:	d004      	beq.n	29da <APP_cbNtagTimer+0x92>
    29d0:	f895 302c 	ldrb.w	r3, [r5, #44]	; 0x2c
    29d4:	2b00      	cmp	r3, #0
    29d6:	f000 8095 	beq.w	2b04 <APP_cbNtagTimer+0x1bc>
    29da:	f8d5 1009 	ldr.w	r1, [r5, #9]
    29de:	f8d6 3009 	ldr.w	r3, [r6, #9]
    29e2:	f8d5 0005 	ldr.w	r0, [r5, #5]
    29e6:	f8d6 2005 	ldr.w	r2, [r6, #5]
    29ea:	4299      	cmp	r1, r3
    29ec:	bf08      	it	eq
    29ee:	4290      	cmpeq	r0, r2
    29f0:	f040 8088 	bne.w	2b04 <APP_cbNtagTimer+0x1bc>
    29f4:	f026 f930 	bl	28c58 <NTAG_NWK_bCcValid>
    29f8:	2800      	cmp	r0, #0
    29fa:	f000 8083 	beq.w	2b04 <APP_cbNtagTimer+0x1bc>
    29fe:	4888      	ldr	r0, [pc, #544]	; (2c20 <APP_cbNtagTimer+0x2d8>)
    2a00:	f7ff f964 	bl	1ccc <DbgConsole_Printf>
    2a04:	f895 302c 	ldrb.w	r3, [r5, #44]	; 0x2c
    2a08:	2ba0      	cmp	r3, #160	; 0xa0
    2a0a:	d026      	beq.n	2a5a <APP_cbNtagTimer+0x112>
    2a0c:	2ba1      	cmp	r3, #161	; 0xa1
    2a0e:	d030      	beq.n	2a72 <APP_cbNtagTimer+0x12a>
    2a10:	78ab      	ldrb	r3, [r5, #2]
    2a12:	497f      	ldr	r1, [pc, #508]	; (2c10 <APP_cbNtagTimer+0x2c8>)
    2a14:	4880      	ldr	r0, [pc, #512]	; (2c18 <APP_cbNtagTimer+0x2d0>)
    2a16:	70b3      	strb	r3, [r6, #2]
    2a18:	225a      	movs	r2, #90	; 0x5a
    2a1a:	f026 fe4d 	bl	296b8 <memcmp>
    2a1e:	4605      	mov	r5, r0
    2a20:	2800      	cmp	r0, #0
    2a22:	d174      	bne.n	2b0e <APP_cbNtagTimer+0x1c6>
    2a24:	f7ff ff0c 	bl	2840 <APP_vNtagStop>
    2a28:	f026 f8f8 	bl	28c1c <NTAG_NWK_eStatus>
    2a2c:	4b7d      	ldr	r3, [pc, #500]	; (2c24 <APP_cbNtagTimer+0x2dc>)
    2a2e:	781b      	ldrb	r3, [r3, #0]
    2a30:	2b00      	cmp	r3, #0
    2a32:	f000 8090 	beq.w	2b56 <APP_cbNtagTimer+0x20e>
    2a36:	f7fd ff4d 	bl	8d4 <ZPS_pvAplZdoGetAplHandle>
    2a3a:	e9cd 5500 	strd	r5, r5, [sp]
    2a3e:	2200      	movs	r2, #0
    2a40:	2300      	movs	r3, #0
    2a42:	f013 fe03 	bl	1664c <zps_eAplZdoLeaveNetwork>
    2a46:	4605      	mov	r5, r0
    2a48:	4601      	mov	r1, r0
    2a4a:	4877      	ldr	r0, [pc, #476]	; (2c28 <APP_cbNtagTimer+0x2e0>)
    2a4c:	f7ff f93e 	bl	1ccc <DbgConsole_Printf>
    2a50:	2d00      	cmp	r5, #0
    2a52:	d069      	beq.n	2b28 <APP_cbNtagTimer+0x1e0>
    2a54:	f7fe fb1c 	bl	1090 <APP_vFactoryResetRecords>
    2a58:	e080      	b.n	2b5c <APP_cbNtagTimer+0x214>
    2a5a:	6821      	ldr	r1, [r4, #0]
    2a5c:	4873      	ldr	r0, [pc, #460]	; (2c2c <APP_cbNtagTimer+0x2e4>)
    2a5e:	f7ff f935 	bl	1ccc <DbgConsole_Printf>
    2a62:	4873      	ldr	r0, [pc, #460]	; (2c30 <APP_cbNtagTimer+0x2e8>)
    2a64:	2101      	movs	r1, #1
    2a66:	f7ff f931 	bl	1ccc <DbgConsole_Printf>
    2a6a:	4b6e      	ldr	r3, [pc, #440]	; (2c24 <APP_cbNtagTimer+0x2dc>)
    2a6c:	2201      	movs	r2, #1
    2a6e:	701a      	strb	r2, [r3, #0]
    2a70:	e7ce      	b.n	2a10 <APP_cbNtagTimer+0xc8>
    2a72:	6821      	ldr	r1, [r4, #0]
    2a74:	486f      	ldr	r0, [pc, #444]	; (2c34 <APP_cbNtagTimer+0x2ec>)
    2a76:	f7ff f929 	bl	1ccc <DbgConsole_Printf>
    2a7a:	f7fd ff2b 	bl	8d4 <ZPS_pvAplZdoGetAplHandle>
    2a7e:	f013 fd91 	bl	165a4 <zps_pvAplZdoGetNwkHandle>
    2a82:	f01b fe9e 	bl	1e7c2 <ZPS_u64NwkNibGetExtAddr>
    2a86:	460b      	mov	r3, r1
    2a88:	496b      	ldr	r1, [pc, #428]	; (2c38 <APP_cbNtagTimer+0x2f0>)
    2a8a:	9101      	str	r1, [sp, #4]
    2a8c:	f10d 0a08 	add.w	sl, sp, #8
    2a90:	4602      	mov	r2, r0
    2a92:	3910      	subs	r1, #16
    2a94:	4869      	ldr	r0, [pc, #420]	; (2c3c <APP_cbNtagTimer+0x2f4>)
    2a96:	f8cd a000 	str.w	sl, [sp]
    2a9a:	f00c fcb9 	bl	f410 <BDB_bOutOfBandCommissionGetKey>
    2a9e:	4607      	mov	r7, r0
    2aa0:	4601      	mov	r1, r0
    2aa2:	4867      	ldr	r0, [pc, #412]	; (2c40 <APP_cbNtagTimer+0x2f8>)
    2aa4:	f7ff f912 	bl	1ccc <DbgConsole_Printf>
    2aa8:	b93f      	cbnz	r7, 2aba <APP_cbNtagTimer+0x172>
    2aaa:	2700      	movs	r7, #0
    2aac:	4860      	ldr	r0, [pc, #384]	; (2c30 <APP_cbNtagTimer+0x2e8>)
    2aae:	4639      	mov	r1, r7
    2ab0:	f7ff f90c 	bl	1ccc <DbgConsole_Printf>
    2ab4:	4b63      	ldr	r3, [pc, #396]	; (2c44 <APP_cbNtagTimer+0x2fc>)
    2ab6:	701f      	strb	r7, [r3, #0]
    2ab8:	e7aa      	b.n	2a10 <APP_cbNtagTimer+0xc8>
    2aba:	4863      	ldr	r0, [pc, #396]	; (2c48 <APP_cbNtagTimer+0x300>)
    2abc:	f8df b1d0 	ldr.w	fp, [pc, #464]	; 2c90 <APP_cbNtagTimer+0x348>
    2ac0:	f7ff f904 	bl	1ccc <DbgConsole_Printf>
    2ac4:	f04f 0910 	mov.w	r9, #16
    2ac8:	f81a 1b01 	ldrb.w	r1, [sl], #1
    2acc:	4658      	mov	r0, fp
    2ace:	f109 39ff 	add.w	r9, r9, #4294967295
    2ad2:	f7ff f8fb 	bl	1ccc <DbgConsole_Printf>
    2ad6:	f019 09ff 	ands.w	r9, r9, #255	; 0xff
    2ada:	d1f5      	bne.n	2ac8 <APP_cbNtagTimer+0x180>
    2adc:	495b      	ldr	r1, [pc, #364]	; (2c4c <APP_cbNtagTimer+0x304>)
    2ade:	485c      	ldr	r0, [pc, #368]	; (2c50 <APP_cbNtagTimer+0x308>)
    2ae0:	222e      	movs	r2, #46	; 0x2e
    2ae2:	f026 fe19 	bl	29718 <memcpy>
    2ae6:	495a      	ldr	r1, [pc, #360]	; (2c50 <APP_cbNtagTimer+0x308>)
    2ae8:	222e      	movs	r2, #46	; 0x2e
    2aea:	f24a 1030 	movw	r0, #41264	; 0xa130
    2aee:	f00f f843 	bl	11b78 <PDM_eSaveRecordData>
    2af2:	4681      	mov	r9, r0
    2af4:	4601      	mov	r1, r0
    2af6:	4857      	ldr	r0, [pc, #348]	; (2c54 <APP_cbNtagTimer+0x30c>)
    2af8:	f7ff f8e8 	bl	1ccc <DbgConsole_Printf>
    2afc:	f1b9 0f00 	cmp.w	r9, #0
    2b00:	d1d3      	bne.n	2aaa <APP_cbNtagTimer+0x162>
    2b02:	e7d3      	b.n	2aac <APP_cbNtagTimer+0x164>
    2b04:	4854      	ldr	r0, [pc, #336]	; (2c58 <APP_cbNtagTimer+0x310>)
    2b06:	f7ff f8e1 	bl	1ccc <DbgConsole_Printf>
    2b0a:	f04f 0800 	mov.w	r8, #0
    2b0e:	78b3      	ldrb	r3, [r6, #2]
    2b10:	493f      	ldr	r1, [pc, #252]	; (2c10 <APP_cbNtagTimer+0x2c8>)
    2b12:	4852      	ldr	r0, [pc, #328]	; (2c5c <APP_cbNtagTimer+0x314>)
    2b14:	3301      	adds	r3, #1
    2b16:	f1b8 0f01 	cmp.w	r8, #1
    2b1a:	70b3      	strb	r3, [r6, #2]
    2b1c:	bf1e      	ittt	ne
    2b1e:	4b4f      	ldrne	r3, [pc, #316]	; (2c5c <APP_cbNtagTimer+0x314>)
    2b20:	2200      	movne	r2, #0
    2b22:	601a      	strne	r2, [r3, #0]
    2b24:	f026 f844 	bl	28bb0 <NTAG_NWK_eWrite>
    2b28:	6821      	ldr	r1, [r4, #0]
    2b2a:	484d      	ldr	r0, [pc, #308]	; (2c60 <APP_cbNtagTimer+0x318>)
    2b2c:	f7ff f8ce 	bl	1ccc <DbgConsole_Printf>
    2b30:	f001 f82c 	bl	3b8c <OSA_TimeGetMsec>
    2b34:	4601      	mov	r1, r0
    2b36:	484b      	ldr	r0, [pc, #300]	; (2c64 <APP_cbNtagTimer+0x31c>)
    2b38:	f7ff f8c8 	bl	1ccc <DbgConsole_Printf>
    2b3c:	4b4a      	ldr	r3, [pc, #296]	; (2c68 <APP_cbNtagTimer+0x320>)
    2b3e:	781b      	ldrb	r3, [r3, #0]
    2b40:	b123      	cbz	r3, 2b4c <APP_cbNtagTimer+0x204>
    2b42:	4b4a      	ldr	r3, [pc, #296]	; (2c6c <APP_cbNtagTimer+0x324>)
    2b44:	2105      	movs	r1, #5
    2b46:	7818      	ldrb	r0, [r3, #0]
    2b48:	f000 ff40 	bl	39cc <ZTIMER_eStart>
    2b4c:	b007      	add	sp, #28
    2b4e:	e8bd 8ff0 	ldmia.w	sp!, {r4, r5, r6, r7, r8, r9, sl, fp, pc}
    2b52:	4847      	ldr	r0, [pc, #284]	; (2c70 <APP_cbNtagTimer+0x328>)
    2b54:	e7d7      	b.n	2b06 <APP_cbNtagTimer+0x1be>
    2b56:	4b3b      	ldr	r3, [pc, #236]	; (2c44 <APP_cbNtagTimer+0x2fc>)
    2b58:	781e      	ldrb	r6, [r3, #0]
    2b5a:	b11e      	cbz	r6, 2b64 <APP_cbNtagTimer+0x21c>
    2b5c:	b672      	cpsid	i
    2b5e:	f002 f809 	bl	4b74 <RESET_SystemReset>
    2b62:	e7e1      	b.n	2b28 <APP_cbNtagTimer+0x1e0>
    2b64:	4d43      	ldr	r5, [pc, #268]	; (2c74 <APP_cbNtagTimer+0x32c>)
    2b66:	782b      	ldrb	r3, [r5, #0]
    2b68:	2b00      	cmp	r3, #0
    2b6a:	d0dd      	beq.n	2b28 <APP_cbNtagTimer+0x1e0>
    2b6c:	6821      	ldr	r1, [r4, #0]
    2b6e:	4842      	ldr	r0, [pc, #264]	; (2c78 <APP_cbNtagTimer+0x330>)
    2b70:	f7ff f8ac 	bl	1ccc <DbgConsole_Printf>
    2b74:	4b41      	ldr	r3, [pc, #260]	; (2c7c <APP_cbNtagTimer+0x334>)
    2b76:	702e      	strb	r6, [r5, #0]
    2b78:	7818      	ldrb	r0, [r3, #0]
    2b7a:	f7ff fda3 	bl	26c4 <APP_vNtagStart>
    2b7e:	e7d3      	b.n	2b28 <APP_cbNtagTimer+0x1e0>
    2b80:	1f43      	subs	r3, r0, #5
    2b82:	b2db      	uxtb	r3, r3
    2b84:	2b01      	cmp	r3, #1
    2b86:	d901      	bls.n	2b8c <APP_cbNtagTimer+0x244>
    2b88:	2800      	cmp	r0, #0
    2b8a:	d1d7      	bne.n	2b3c <APP_cbNtagTimer+0x1f4>
    2b8c:	6821      	ldr	r1, [r4, #0]
    2b8e:	481f      	ldr	r0, [pc, #124]	; (2c0c <APP_cbNtagTimer+0x2c4>)
    2b90:	f7ff f89c 	bl	1ccc <DbgConsole_Printf>
    2b94:	f000 fffa 	bl	3b8c <OSA_TimeGetMsec>
    2b98:	4629      	mov	r1, r5
    2b9a:	4602      	mov	r2, r0
    2b9c:	481d      	ldr	r0, [pc, #116]	; (2c14 <APP_cbNtagTimer+0x2cc>)
    2b9e:	f7ff f895 	bl	1ccc <DbgConsole_Printf>
    2ba2:	2d06      	cmp	r5, #6
    2ba4:	d112      	bne.n	2bcc <APP_cbNtagTimer+0x284>
    2ba6:	f025 fc0b 	bl	283c0 <NTAG_u32Ntag>
    2baa:	4601      	mov	r1, r0
    2bac:	4834      	ldr	r0, [pc, #208]	; (2c80 <APP_cbNtagTimer+0x338>)
    2bae:	f7ff f88d 	bl	1ccc <DbgConsole_Printf>
    2bb2:	f7ff fe45 	bl	2840 <APP_vNtagStop>
    2bb6:	f026 f831 	bl	28c1c <NTAG_NWK_eStatus>
    2bba:	4b1a      	ldr	r3, [pc, #104]	; (2c24 <APP_cbNtagTimer+0x2dc>)
    2bbc:	781b      	ldrb	r3, [r3, #0]
    2bbe:	b17b      	cbz	r3, 2be0 <APP_cbNtagTimer+0x298>
    2bc0:	f7fd fe88 	bl	8d4 <ZPS_pvAplZdoGetAplHandle>
    2bc4:	2300      	movs	r3, #0
    2bc6:	e9cd 3300 	strd	r3, r3, [sp]
    2bca:	e738      	b.n	2a3e <APP_cbNtagTimer+0xf6>
    2bcc:	2d05      	cmp	r5, #5
    2bce:	d103      	bne.n	2bd8 <APP_cbNtagTimer+0x290>
    2bd0:	482c      	ldr	r0, [pc, #176]	; (2c84 <APP_cbNtagTimer+0x33c>)
    2bd2:	f7ff f87b 	bl	1ccc <DbgConsole_Printf>
    2bd6:	e7ec      	b.n	2bb2 <APP_cbNtagTimer+0x26a>
    2bd8:	2d00      	cmp	r5, #0
    2bda:	d1ea      	bne.n	2bb2 <APP_cbNtagTimer+0x26a>
    2bdc:	482a      	ldr	r0, [pc, #168]	; (2c88 <APP_cbNtagTimer+0x340>)
    2bde:	e7f8      	b.n	2bd2 <APP_cbNtagTimer+0x28a>
    2be0:	4b18      	ldr	r3, [pc, #96]	; (2c44 <APP_cbNtagTimer+0x2fc>)
    2be2:	781e      	ldrb	r6, [r3, #0]
    2be4:	2e00      	cmp	r6, #0
    2be6:	d1b9      	bne.n	2b5c <APP_cbNtagTimer+0x214>
    2be8:	4d22      	ldr	r5, [pc, #136]	; (2c74 <APP_cbNtagTimer+0x32c>)
    2bea:	782b      	ldrb	r3, [r5, #0]
    2bec:	2b00      	cmp	r3, #0
    2bee:	d09b      	beq.n	2b28 <APP_cbNtagTimer+0x1e0>
    2bf0:	6821      	ldr	r1, [r4, #0]
    2bf2:	4826      	ldr	r0, [pc, #152]	; (2c8c <APP_cbNtagTimer+0x344>)
    2bf4:	e7bc      	b.n	2b70 <APP_cbNtagTimer+0x228>
    2bf6:	f025 fa51 	bl	2809c <NTAG_vTick>
    2bfa:	e79f      	b.n	2b3c <APP_cbNtagTimer+0x1f4>
    2bfc:	0002c715 	.word	0x0002c715
    2c00:	040157f8 	.word	0x040157f8
    2c04:	040157fc 	.word	0x040157fc
    2c08:	040156ff 	.word	0x040156ff
    2c0c:	0002b00b 	.word	0x0002b00b
    2c10:	0401579b 	.word	0x0401579b
    2c14:	0002b023 	.word	0x0002b023
    2c18:	04015741 	.word	0x04015741
    2c1c:	0002b044 	.word	0x0002b044
    2c20:	0002b077 	.word	0x0002b077
    2c24:	040156fb 	.word	0x040156fb
    2c28:	0002b178 	.word	0x0002b178
    2c2c:	0002b083 	.word	0x0002b083
    2c30:	0002b0a3 	.word	0x0002b0a3
    2c34:	0002b0c1 	.word	0x0002b0c1
    2c38:	04015796 	.word	0x04015796
    2c3c:	04015701 	.word	0x04015701
    2c40:	0002b0e1 	.word	0x0002b0e1
    2c44:	040156fd 	.word	0x040156fd
    2c48:	0002b0ff 	.word	0x0002b0ff
    2c4c:	0401576d 	.word	0x0401576d
    2c50:	04015713 	.word	0x04015713
    2c54:	0002b11a 	.word	0x0002b11a
    2c58:	0002b155 	.word	0x0002b155
    2c5c:	04015800 	.word	0x04015800
    2c60:	0002b1cb 	.word	0x0002b1cb
    2c64:	0002ad23 	.word	0x0002ad23
    2c68:	040156fc 	.word	0x040156fc
    2c6c:	04015662 	.word	0x04015662
    2c70:	0002b163 	.word	0x0002b163
    2c74:	040156fe 	.word	0x040156fe
    2c78:	0002b1a4 	.word	0x0002b1a4
    2c7c:	04015804 	.word	0x04015804
    2c80:	0002b1e8 	.word	0x0002b1e8
    2c84:	0002b202 	.word	0x0002b202
    2c88:	0002b210 	.word	0x0002b210
    2c8c:	0002b218 	.word	0x0002b218
    2c90:	0002adb3 	.word	0x0002adb3

00002c94 <I2C_PendingStatusWait>:
    2c94:	4603      	mov	r3, r0
    2c96:	6858      	ldr	r0, [r3, #4]
    2c98:	07c2      	lsls	r2, r0, #31
    2c9a:	d5fc      	bpl.n	2c96 <I2C_PendingStatusWait+0x2>
    2c9c:	2250      	movs	r2, #80	; 0x50
    2c9e:	605a      	str	r2, [r3, #4]
    2ca0:	4770      	bx	lr
    2ca2:	Address 0x00002ca2 is out of bounds.


00002ca4 <I2C_MasterGetDefaultConfig>:
    2ca4:	b510      	push	{r4, lr}
    2ca6:	220c      	movs	r2, #12
    2ca8:	4604      	mov	r4, r0
    2caa:	2100      	movs	r1, #0
    2cac:	f026 fdce 	bl	2984c <memset>
    2cb0:	2301      	movs	r3, #1
    2cb2:	7023      	strb	r3, [r4, #0]
    2cb4:	4b02      	ldr	r3, [pc, #8]	; (2cc0 <I2C_MasterGetDefaultConfig+0x1c>)
    2cb6:	6063      	str	r3, [r4, #4]
    2cb8:	2300      	movs	r3, #0
    2cba:	7223      	strb	r3, [r4, #8]
    2cbc:	bd10      	pop	{r4, pc}
    2cbe:	bf00      	nop
    2cc0:	000186a0 	.word	0x000186a0

00002cc4 <I2C_MasterDeinit>:
    2cc4:	6803      	ldr	r3, [r0, #0]
    2cc6:	f003 031e 	and.w	r3, r3, #30
    2cca:	6003      	str	r3, [r0, #0]
    2ccc:	4770      	bx	lr
    2cce:	Address 0x00002cce is out of bounds.


00002cd0 <I2C_MasterSetBaudRate>:
    2cd0:	e92d 47f0 	stmdb	sp!, {r4, r5, r6, r7, r8, r9, sl, lr}
    2cd4:	004b      	lsls	r3, r1, #1
    2cd6:	4c24      	ldr	r4, [pc, #144]	; (2d68 <I2C_MasterSetBaudRate+0x98>)
    2cd8:	fbb4 f3f3 	udiv	r3, r4, r3
    2cdc:	005e      	lsls	r6, r3, #1
    2cde:	fbb2 f5f4 	udiv	r5, r2, r4
    2ce2:	fbb4 f7f6 	udiv	r7, r4, r6
    2ce6:	3602      	adds	r6, #2
    2ce8:	1a7f      	subs	r7, r7, r1
    2cea:	fbb4 f4f6 	udiv	r4, r4, r6
    2cee:	1b0c      	subs	r4, r1, r4
    2cf0:	42a7      	cmp	r7, r4
    2cf2:	bf88      	it	hi
    2cf4:	3301      	addhi	r3, #1
    2cf6:	1e9c      	subs	r4, r3, #2
    2cf8:	2c07      	cmp	r4, #7
    2cfa:	d928      	bls.n	2d4e <I2C_MasterSetBaudRate+0x7e>
    2cfc:	f06f 0801 	mvn.w	r8, #1
    2d00:	2712      	movs	r7, #18
    2d02:	fb08 f801 	mul.w	r8, r8, r1
    2d06:	434f      	muls	r7, r1
    2d08:	eb01 0ec1 	add.w	lr, r1, r1, lsl #3
    2d0c:	f04f 0c00 	mov.w	ip, #0
    2d10:	2609      	movs	r6, #9
    2d12:	fbb2 faf7 	udiv	sl, r2, r7
    2d16:	f5ba 3f80 	cmp.w	sl, #65536	; 0x10000
    2d1a:	46d1      	mov	r9, sl
    2d1c:	bf28      	it	cs
    2d1e:	f44f 3980 	movcs.w	r9, #65536	; 0x10000
    2d22:	fb0e f409 	mul.w	r4, lr, r9
    2d26:	eba2 0444 	sub.w	r4, r2, r4, lsl #1
    2d2a:	4564      	cmp	r4, ip
    2d2c:	d302      	bcc.n	2d34 <I2C_MasterSetBaudRate+0x64>
    2d2e:	f1bc 0f00 	cmp.w	ip, #0
    2d32:	d102      	bne.n	2d3a <I2C_MasterSetBaudRate+0x6a>
    2d34:	464d      	mov	r5, r9
    2d36:	4633      	mov	r3, r6
    2d38:	46a4      	mov	ip, r4
    2d3a:	b144      	cbz	r4, 2d4e <I2C_MasterSetBaudRate+0x7e>
    2d3c:	f5ba 3f80 	cmp.w	sl, #65536	; 0x10000
    2d40:	d205      	bcs.n	2d4e <I2C_MasterSetBaudRate+0x7e>
    2d42:	3e01      	subs	r6, #1
    2d44:	2e01      	cmp	r6, #1
    2d46:	4447      	add	r7, r8
    2d48:	ebae 0e01 	sub.w	lr, lr, r1
    2d4c:	d1e1      	bne.n	2d12 <I2C_MasterSetBaudRate+0x42>
    2d4e:	3b02      	subs	r3, #2
    2d50:	011a      	lsls	r2, r3, #4
    2d52:	3d01      	subs	r5, #1
    2d54:	f002 0270 	and.w	r2, r2, #112	; 0x70
    2d58:	f003 0307 	and.w	r3, r3, #7
    2d5c:	b2ad      	uxth	r5, r5
    2d5e:	4313      	orrs	r3, r2
    2d60:	6145      	str	r5, [r0, #20]
    2d62:	6243      	str	r3, [r0, #36]	; 0x24
    2d64:	e8bd 87f0 	ldmia.w	sp!, {r4, r5, r6, r7, r8, r9, sl, pc}
    2d68:	007a1200 	.word	0x007a1200

00002d6c <I2C_MasterInit>:
    2d6c:	b570      	push	{r4, r5, r6, lr}
    2d6e:	460d      	mov	r5, r1
    2d70:	2103      	movs	r1, #3
    2d72:	4604      	mov	r4, r0
    2d74:	4616      	mov	r6, r2
    2d76:	f002 f8bb 	bl	4ef0 <FLEXCOMM_Init>
    2d7a:	782b      	ldrb	r3, [r5, #0]
    2d7c:	b163      	cbz	r3, 2d98 <I2C_MasterInit+0x2c>
    2d7e:	6823      	ldr	r3, [r4, #0]
    2d80:	f003 031e 	and.w	r3, r3, #30
    2d84:	f043 0301 	orr.w	r3, r3, #1
    2d88:	6023      	str	r3, [r4, #0]
    2d8a:	6869      	ldr	r1, [r5, #4]
    2d8c:	4632      	mov	r2, r6
    2d8e:	4620      	mov	r0, r4
    2d90:	e8bd 4070 	ldmia.w	sp!, {r4, r5, r6, lr}
    2d94:	f7ff bf9c 	b.w	2cd0 <I2C_MasterSetBaudRate>
    2d98:	6823      	ldr	r3, [r4, #0]
    2d9a:	f003 031e 	and.w	r3, r3, #30
    2d9e:	e7f3      	b.n	2d88 <I2C_MasterInit+0x1c>

00002da0 <I2C_MasterStart>:
    2da0:	b538      	push	{r3, r4, r5, lr}
    2da2:	4605      	mov	r5, r0
    2da4:	4614      	mov	r4, r2
    2da6:	f7ff ff75 	bl	2c94 <I2C_PendingStatusWait>
    2daa:	f640 2332 	movw	r3, #2610	; 0xa32
    2dae:	4298      	cmp	r0, r3
    2db0:	d007      	beq.n	2dc2 <I2C_MasterStart+0x22>
    2db2:	f004 0401 	and.w	r4, r4, #1
    2db6:	ea44 0141 	orr.w	r1, r4, r1, lsl #1
    2dba:	2302      	movs	r3, #2
    2dbc:	62a9      	str	r1, [r5, #40]	; 0x28
    2dbe:	2000      	movs	r0, #0
    2dc0:	622b      	str	r3, [r5, #32]
    2dc2:	bd38      	pop	{r3, r4, r5, pc}

00002dc4 <I2C_MasterStop>:
    2dc4:	b508      	push	{r3, lr}
    2dc6:	4601      	mov	r1, r0
    2dc8:	f7ff ff64 	bl	2c94 <I2C_PendingStatusWait>
    2dcc:	f640 2332 	movw	r3, #2610	; 0xa32
    2dd0:	4298      	cmp	r0, r3
    2dd2:	bf1e      	ittt	ne
    2dd4:	2304      	movne	r3, #4
    2dd6:	620b      	strne	r3, [r1, #32]
    2dd8:	2000      	movne	r0, #0
    2dda:	bd08      	pop	{r3, pc}

00002ddc <I2C_MasterWriteBlocking>:
    2ddc:	e92d 41f0 	stmdb	sp!, {r4, r5, r6, r7, r8, lr}
    2de0:	4605      	mov	r5, r0
    2de2:	461e      	mov	r6, r3
    2de4:	b1f1      	cbz	r1, 2e24 <I2C_MasterWriteBlocking+0x48>
    2de6:	188f      	adds	r7, r1, r2
    2de8:	f04f 0801 	mov.w	r8, #1
    2dec:	428f      	cmp	r7, r1
    2dee:	4628      	mov	r0, r5
    2df0:	d11f      	bne.n	2e32 <I2C_MasterWriteBlocking+0x56>
    2df2:	f7ff ff4f 	bl	2c94 <I2C_PendingStatusWait>
    2df6:	f006 0604 	and.w	r6, r6, #4
    2dfa:	f000 0350 	and.w	r3, r0, #80	; 0x50
    2dfe:	4333      	orrs	r3, r6
    2e00:	d108      	bne.n	2e14 <I2C_MasterWriteBlocking+0x38>
    2e02:	2304      	movs	r3, #4
    2e04:	622b      	str	r3, [r5, #32]
    2e06:	4628      	mov	r0, r5
    2e08:	f7ff ff44 	bl	2c94 <I2C_PendingStatusWait>
    2e0c:	f640 2332 	movw	r3, #2610	; 0xa32
    2e10:	4298      	cmp	r0, r3
    2e12:	d014      	beq.n	2e3e <I2C_MasterWriteBlocking+0x62>
    2e14:	06c3      	lsls	r3, r0, #27
    2e16:	d410      	bmi.n	2e3a <I2C_MasterWriteBlocking+0x5e>
    2e18:	f010 0040 	ands.w	r0, r0, #64	; 0x40
    2e1c:	d00f      	beq.n	2e3e <I2C_MasterWriteBlocking+0x62>
    2e1e:	f44f 6023 	mov.w	r0, #2608	; 0xa30
    2e22:	e00c      	b.n	2e3e <I2C_MasterWriteBlocking+0x62>
    2e24:	4b11      	ldr	r3, [pc, #68]	; (2e6c <I2C_MasterWriteBlocking+0x90>)
    2e26:	4a12      	ldr	r2, [pc, #72]	; (2e70 <I2C_MasterWriteBlocking+0x94>)
    2e28:	4812      	ldr	r0, [pc, #72]	; (2e74 <I2C_MasterWriteBlocking+0x98>)
    2e2a:	f240 1149 	movw	r1, #329	; 0x149
    2e2e:	f005 fce5 	bl	87fc <__assert_func>
    2e32:	f7ff ff2f 	bl	2c94 <I2C_PendingStatusWait>
    2e36:	06c4      	lsls	r4, r0, #27
    2e38:	d503      	bpl.n	2e42 <I2C_MasterWriteBlocking+0x66>
    2e3a:	f640 202d 	movw	r0, #2605	; 0xa2d
    2e3e:	e8bd 81f0 	ldmia.w	sp!, {r4, r5, r6, r7, r8, pc}
    2e42:	0642      	lsls	r2, r0, #25
    2e44:	d4eb      	bmi.n	2e1e <I2C_MasterWriteBlocking+0x42>
    2e46:	f3c0 0442 	ubfx	r4, r0, #1, #3
    2e4a:	2c02      	cmp	r4, #2
    2e4c:	d008      	beq.n	2e60 <I2C_MasterWriteBlocking+0x84>
    2e4e:	3c03      	subs	r4, #3
    2e50:	f640 202a 	movw	r0, #2602	; 0xa2a
    2e54:	f640 2331 	movw	r3, #2609	; 0xa31
    2e58:	2c01      	cmp	r4, #1
    2e5a:	bf88      	it	hi
    2e5c:	4618      	movhi	r0, r3
    2e5e:	e7ee      	b.n	2e3e <I2C_MasterWriteBlocking+0x62>
    2e60:	f811 3b01 	ldrb.w	r3, [r1], #1
    2e64:	62ab      	str	r3, [r5, #40]	; 0x28
    2e66:	f8c5 8020 	str.w	r8, [r5, #32]
    2e6a:	e7bf      	b.n	2dec <I2C_MasterWriteBlocking+0x10>
    2e6c:	0002b28f 	.word	0x0002b28f
    2e70:	0002b29d 	.word	0x0002b29d
    2e74:	0002b247 	.word	0x0002b247

00002e78 <I2C_MasterReadBlocking>:
    2e78:	b570      	push	{r4, r5, r6, lr}
    2e7a:	4604      	mov	r4, r0
    2e7c:	4615      	mov	r5, r2
    2e7e:	bb79      	cbnz	r1, 2ee0 <I2C_MasterReadBlocking+0x68>
    2e80:	4b1b      	ldr	r3, [pc, #108]	; (2ef0 <I2C_MasterReadBlocking+0x78>)
    2e82:	4a1c      	ldr	r2, [pc, #112]	; (2ef4 <I2C_MasterReadBlocking+0x7c>)
    2e84:	481c      	ldr	r0, [pc, #112]	; (2ef8 <I2C_MasterReadBlocking+0x80>)
    2e86:	f44f 71db 	mov.w	r1, #438	; 0x1b6
    2e8a:	f005 fcb7 	bl	87fc <__assert_func>
    2e8e:	6aa2      	ldr	r2, [r4, #40]	; 0x28
    2e90:	f801 2b01 	strb.w	r2, [r1], #1
    2e94:	3d01      	subs	r5, #1
    2e96:	d014      	beq.n	2ec2 <I2C_MasterReadBlocking+0x4a>
    2e98:	6223      	str	r3, [r4, #32]
    2e9a:	b1c5      	cbz	r5, 2ece <I2C_MasterReadBlocking+0x56>
    2e9c:	4620      	mov	r0, r4
    2e9e:	f7ff fef9 	bl	2c94 <I2C_PendingStatusWait>
    2ea2:	f010 0f50 	tst.w	r0, #80	; 0x50
    2ea6:	d112      	bne.n	2ece <I2C_MasterReadBlocking+0x56>
    2ea8:	f3c0 0342 	ubfx	r3, r0, #1, #3
    2eac:	2b01      	cmp	r3, #1
    2eae:	d0ee      	beq.n	2e8e <I2C_MasterReadBlocking+0x16>
    2eb0:	3b03      	subs	r3, #3
    2eb2:	f640 202a 	movw	r0, #2602	; 0xa2a
    2eb6:	f640 2231 	movw	r2, #2609	; 0xa31
    2eba:	2b01      	cmp	r3, #1
    2ebc:	bf88      	it	hi
    2ebe:	4610      	movhi	r0, r2
    2ec0:	bd70      	pop	{r4, r5, r6, pc}
    2ec2:	b926      	cbnz	r6, 2ece <I2C_MasterReadBlocking+0x56>
    2ec4:	2304      	movs	r3, #4
    2ec6:	6223      	str	r3, [r4, #32]
    2ec8:	4620      	mov	r0, r4
    2eca:	f7ff fee3 	bl	2c94 <I2C_PendingStatusWait>
    2ece:	06c3      	lsls	r3, r0, #27
    2ed0:	d40a      	bmi.n	2ee8 <I2C_MasterReadBlocking+0x70>
    2ed2:	f010 0f40 	tst.w	r0, #64	; 0x40
    2ed6:	bf0c      	ite	eq
    2ed8:	2000      	moveq	r0, #0
    2eda:	f44f 6023 	movne.w	r0, #2608	; 0xa30
    2ede:	e7ef      	b.n	2ec0 <I2C_MasterReadBlocking+0x48>
    2ee0:	2000      	movs	r0, #0
    2ee2:	f003 0604 	and.w	r6, r3, #4
    2ee6:	e7d8      	b.n	2e9a <I2C_MasterReadBlocking+0x22>
    2ee8:	f640 202d 	movw	r0, #2605	; 0xa2d
    2eec:	e7e8      	b.n	2ec0 <I2C_MasterReadBlocking+0x48>
    2eee:	bf00      	nop
    2ef0:	0002b296 	.word	0x0002b296
    2ef4:	0002b2b5 	.word	0x0002b2b5
    2ef8:	0002b247 	.word	0x0002b247

00002efc <NFCTag_IRQHandler>:
    2efc:	4b08      	ldr	r3, [pc, #32]	; (2f20 <NFCTag_IRQHandler+0x24>)
    2efe:	4909      	ldr	r1, [pc, #36]	; (2f24 <NFCTag_IRQHandler+0x28>)
    2f00:	f8d3 20a4 	ldr.w	r2, [r3, #164]	; 0xa4
    2f04:	f482 2280 	eor.w	r2, r2, #262144	; 0x40000
    2f08:	f8c3 20a4 	str.w	r2, [r3, #164]	; 0xa4
    2f0c:	680a      	ldr	r2, [r1, #0]
    2f0e:	b12a      	cbz	r2, 2f1c <NFCTag_IRQHandler+0x20>
    2f10:	f8d3 00a4 	ldr.w	r0, [r3, #164]	; 0xa4
    2f14:	6849      	ldr	r1, [r1, #4]
    2f16:	f3c0 4080 	ubfx	r0, r0, #18, #1
    2f1a:	4710      	bx	r2
    2f1c:	4770      	bx	lr
    2f1e:	bf00      	nop
    2f20:	40020000 	.word	0x40020000
    2f24:	04015808 	.word	0x04015808

00002f28 <NTAG_GetDefaultConfig>:
    2f28:	2300      	movs	r3, #0
    2f2a:	e9c0 3300 	strd	r3, r3, [r0]
    2f2e:	4770      	bx	lr

00002f30 <NTAG_Init>:
    2f30:	4b04      	ldr	r3, [pc, #16]	; (2f44 <NTAG_Init+0x14>)
    2f32:	6802      	ldr	r2, [r0, #0]
    2f34:	601a      	str	r2, [r3, #0]
    2f36:	6842      	ldr	r2, [r0, #4]
    2f38:	605a      	str	r2, [r3, #4]
    2f3a:	4b03      	ldr	r3, [pc, #12]	; (2f48 <NTAG_Init+0x18>)
    2f3c:	f04f 4280 	mov.w	r2, #1073741824	; 0x40000000
    2f40:	601a      	str	r2, [r3, #0]
    2f42:	4770      	bx	lr
    2f44:	04015808 	.word	0x04015808
    2f48:	e000e100 	.word	0xe000e100

00002f4c <NTAG_PollFieldDetect>:
    2f4c:	4b02      	ldr	r3, [pc, #8]	; (2f58 <NTAG_PollFieldDetect+0xc>)
    2f4e:	f8d3 00a4 	ldr.w	r0, [r3, #164]	; 0xa4
    2f52:	f3c0 4080 	ubfx	r0, r0, #18, #1
    2f56:	4770      	bx	lr
    2f58:	40020000 	.word	0x40020000

00002f5c <bInitialiseOTAClusterAndAttributes>:
    2f5c:	b510      	push	{r4, lr}
    2f5e:	b08a      	sub	sp, #40	; 0x28
    2f60:	f7fd fe84 	bl	c6c <app_u8GetDeviceEndpoint>
    2f64:	2100      	movs	r1, #0
    2f66:	4604      	mov	r4, r0
    2f68:	f006 fd08 	bl	997c <eOTA_UpdateClientAttributes>
    2f6c:	2309      	movs	r3, #9
    2f6e:	f88d 300c 	strb.w	r3, [sp, #12]
    2f72:	b110      	cbz	r0, 2f7a <bInitialiseOTAClusterAndAttributes+0x1e>
    2f74:	2000      	movs	r0, #0
    2f76:	b00a      	add	sp, #40	; 0x28
    2f78:	bd10      	pop	{r4, pc}
    2f7a:	aa04      	add	r2, sp, #16
    2f7c:	e9cd 0200 	strd	r0, r2, [sp]
    2f80:	a903      	add	r1, sp, #12
    2f82:	2201      	movs	r2, #1
    2f84:	4620      	mov	r0, r4
    2f86:	f006 fd39 	bl	99fc <eOTA_AllocateEndpointOTASpace>
    2f8a:	2800      	cmp	r0, #0
    2f8c:	d1f2      	bne.n	2f74 <bInitialiseOTAClusterAndAttributes+0x18>
    2f8e:	4904      	ldr	r1, [pc, #16]	; (2fa0 <bInitialiseOTAClusterAndAttributes+0x44>)
    2f90:	2201      	movs	r2, #1
    2f92:	4620      	mov	r0, r4
    2f94:	f006 fc8a 	bl	98ac <eOTA_RestoreClientData>
    2f98:	fab0 f080 	clz	r0, r0
    2f9c:	0940      	lsrs	r0, r0, #5
    2f9e:	e7ea      	b.n	2f76 <bInitialiseOTAClusterAndAttributes+0x1a>
    2fa0:	04015818 	.word	0x04015818

00002fa4 <vAppInitOTA>:
    2fa4:	b570      	push	{r4, r5, r6, lr}
    2fa6:	4b27      	ldr	r3, [pc, #156]	; (3044 <vAppInitOTA+0xa0>)
    2fa8:	b08a      	sub	sp, #40	; 0x28
    2faa:	466a      	mov	r2, sp
    2fac:	f103 0610 	add.w	r6, r3, #16
    2fb0:	4615      	mov	r5, r2
    2fb2:	6818      	ldr	r0, [r3, #0]
    2fb4:	6859      	ldr	r1, [r3, #4]
    2fb6:	4614      	mov	r4, r2
    2fb8:	c403      	stmia	r4!, {r0, r1}
    2fba:	3308      	adds	r3, #8
    2fbc:	42b3      	cmp	r3, r6
    2fbe:	4622      	mov	r2, r4
    2fc0:	d1f7      	bne.n	2fb2 <vAppInitOTA+0xe>
    2fc2:	f44f 7300 	mov.w	r3, #512	; 0x200
    2fc6:	4920      	ldr	r1, [pc, #128]	; (3048 <vAppInitOTA+0xa4>)
    2fc8:	9308      	str	r3, [sp, #32]
    2fca:	2400      	movs	r4, #0
    2fcc:	2210      	movs	r2, #16
    2fce:	4628      	mov	r0, r5
    2fd0:	f88d 4024 	strb.w	r4, [sp, #36]	; 0x24
    2fd4:	f026 fb70 	bl	296b8 <memcmp>
    2fd8:	a904      	add	r1, sp, #16
    2fda:	4620      	mov	r0, r4
    2fdc:	f006 fbb4 	bl	9748 <vOTA_FlashInit>
    2fe0:	f7ff ffbc 	bl	2f5c <bInitialiseOTAClusterAndAttributes>
    2fe4:	b1d0      	cbz	r0, 301c <vAppInitOTA+0x78>
    2fe6:	4b19      	ldr	r3, [pc, #100]	; (304c <vAppInitOTA+0xa8>)
    2fe8:	4919      	ldr	r1, [pc, #100]	; (3050 <vAppInitOTA+0xac>)
    2fea:	781a      	ldrb	r2, [r3, #0]
    2fec:	4d19      	ldr	r5, [pc, #100]	; (3054 <vAppInitOTA+0xb0>)
    2fee:	4b1a      	ldr	r3, [pc, #104]	; (3058 <vAppInitOTA+0xb4>)
    2ff0:	b322      	cbz	r2, 303c <vAppInitOTA+0x98>
    2ff2:	4a1a      	ldr	r2, [pc, #104]	; (305c <vAppInitOTA+0xb8>)
    2ff4:	7e92      	ldrb	r2, [r2, #26]
    2ff6:	2a01      	cmp	r2, #1
    2ff8:	d115      	bne.n	3026 <vAppInitOTA+0x82>
    2ffa:	2206      	movs	r2, #6
    2ffc:	700a      	strb	r2, [r1, #0]
    2ffe:	f44f 60fa 	mov.w	r0, #2000	; 0x7d0
    3002:	f641 3158 	movw	r1, #7000	; 0x1b58
    3006:	601c      	str	r4, [r3, #0]
    3008:	f003 fdf8 	bl	6bfc <RND_u32GetRand>
    300c:	4601      	mov	r1, r0
    300e:	6028      	str	r0, [r5, #0]
    3010:	4813      	ldr	r0, [pc, #76]	; (3060 <vAppInitOTA+0xbc>)
    3012:	f7fe fe5b 	bl	1ccc <DbgConsole_Printf>
    3016:	4b13      	ldr	r3, [pc, #76]	; (3064 <vAppInitOTA+0xc0>)
    3018:	2200      	movs	r2, #0
    301a:	601a      	str	r2, [r3, #0]
    301c:	4b12      	ldr	r3, [pc, #72]	; (3068 <vAppInitOTA+0xc4>)
    301e:	2200      	movs	r2, #0
    3020:	701a      	strb	r2, [r3, #0]
    3022:	b00a      	add	sp, #40	; 0x28
    3024:	bd70      	pop	{r4, r5, r6, pc}
    3026:	2204      	movs	r2, #4
    3028:	700a      	strb	r2, [r1, #0]
    302a:	601c      	str	r4, [r3, #0]
    302c:	f641 3158 	movw	r1, #7000	; 0x1b58
    3030:	f44f 60fa 	mov.w	r0, #2000	; 0x7d0
    3034:	f003 fde2 	bl	6bfc <RND_u32GetRand>
    3038:	6028      	str	r0, [r5, #0]
    303a:	e7ec      	b.n	3016 <vAppInitOTA+0x72>
    303c:	700a      	strb	r2, [r1, #0]
    303e:	601a      	str	r2, [r3, #0]
    3040:	e7f4      	b.n	302c <vAppInitOTA+0x88>
    3042:	bf00      	nop
    3044:	0002b32c 	.word	0x0002b32c
    3048:	00000150 	.word	0x00000150
    304c:	040158c0 	.word	0x040158c0
    3050:	04015817 	.word	0x04015817
    3054:	040158dc 	.word	0x040158dc
    3058:	040158e0 	.word	0x040158e0
    305c:	04015818 	.word	0x04015818
    3060:	0002b2cc 	.word	0x0002b2cc
    3064:	040158d8 	.word	0x040158d8
    3068:	04015816 	.word	0x04015816

0000306c <vSetOTAPersistedDatForMinRetention>:
    306c:	b508      	push	{r3, lr}
    306e:	4905      	ldr	r1, [pc, #20]	; (3084 <vSetOTAPersistedDatForMinRetention+0x18>)
    3070:	4805      	ldr	r0, [pc, #20]	; (3088 <vSetOTAPersistedDatForMinRetention+0x1c>)
    3072:	22a8      	movs	r2, #168	; 0xa8
    3074:	f026 fb50 	bl	29718 <memcpy>
    3078:	f00a fd90 	bl	db9c <u32ZCL_GetUTCTime>
    307c:	4b03      	ldr	r3, [pc, #12]	; (308c <vSetOTAPersistedDatForMinRetention+0x20>)
    307e:	6018      	str	r0, [r3, #0]
    3080:	bd08      	pop	{r3, pc}
    3082:	bf00      	nop
    3084:	04001ad0 	.word	0x04001ad0
    3088:	04015818 	.word	0x04015818
    308c:	04015810 	.word	0x04015810

00003090 <vLoadOTAPersistedData>:
    3090:	b513      	push	{r0, r1, r4, lr}
    3092:	4c0c      	ldr	r4, [pc, #48]	; (30c4 <vLoadOTAPersistedData+0x34>)
    3094:	f10d 0306 	add.w	r3, sp, #6
    3098:	22a8      	movs	r2, #168	; 0xa8
    309a:	4621      	mov	r1, r4
    309c:	200a      	movs	r0, #10
    309e:	f00d f85d 	bl	1015c <PDM_eReadDataFromRecord>
    30a2:	6b63      	ldr	r3, [r4, #52]	; 0x34
    30a4:	b10b      	cbz	r3, 30aa <vLoadOTAPersistedData+0x1a>
    30a6:	230a      	movs	r3, #10
    30a8:	6363      	str	r3, [r4, #52]	; 0x34
    30aa:	2300      	movs	r3, #0
    30ac:	f884 3097 	strb.w	r3, [r4, #151]	; 0x97
    30b0:	4905      	ldr	r1, [pc, #20]	; (30c8 <vLoadOTAPersistedData+0x38>)
    30b2:	f10d 0306 	add.w	r3, sp, #6
    30b6:	2218      	movs	r2, #24
    30b8:	2009      	movs	r0, #9
    30ba:	f00d f84f 	bl	1015c <PDM_eReadDataFromRecord>
    30be:	b002      	add	sp, #8
    30c0:	bd10      	pop	{r4, pc}
    30c2:	bf00      	nop
    30c4:	04015818 	.word	0x04015818
    30c8:	040158c0 	.word	0x040158c0

000030cc <bOTADeepSleepAllowed>:
    30cc:	b508      	push	{r3, lr}
    30ce:	f7fe fa65 	bl	159c <APP_bIsRunning>
    30d2:	b148      	cbz	r0, 30e8 <bOTADeepSleepAllowed+0x1c>
    30d4:	4b06      	ldr	r3, [pc, #24]	; (30f0 <bOTADeepSleepAllowed+0x24>)
    30d6:	781b      	ldrb	r3, [r3, #0]
    30d8:	2b07      	cmp	r3, #7
    30da:	d107      	bne.n	30ec <bOTADeepSleepAllowed+0x20>
    30dc:	4b05      	ldr	r3, [pc, #20]	; (30f4 <bOTADeepSleepAllowed+0x28>)
    30de:	7818      	ldrb	r0, [r3, #0]
    30e0:	fab0 f080 	clz	r0, r0
    30e4:	0940      	lsrs	r0, r0, #5
    30e6:	bd08      	pop	{r3, pc}
    30e8:	2001      	movs	r0, #1
    30ea:	e7fc      	b.n	30e6 <bOTADeepSleepAllowed+0x1a>
    30ec:	2000      	movs	r0, #0
    30ee:	e7fa      	b.n	30e6 <bOTADeepSleepAllowed+0x1a>
    30f0:	04015817 	.word	0x04015817
    30f4:	04015816 	.word	0x04015816

000030f8 <bOTASleepAllowed>:
    30f8:	4b05      	ldr	r3, [pc, #20]	; (3110 <bOTASleepAllowed+0x18>)
    30fa:	781b      	ldrb	r3, [r3, #0]
    30fc:	b92b      	cbnz	r3, 310a <bOTASleepAllowed+0x12>
    30fe:	4b05      	ldr	r3, [pc, #20]	; (3114 <bOTASleepAllowed+0x1c>)
    3100:	7818      	ldrb	r0, [r3, #0]
    3102:	3805      	subs	r0, #5
    3104:	bf18      	it	ne
    3106:	2001      	movne	r0, #1
    3108:	4770      	bx	lr
    310a:	2000      	movs	r0, #0
    310c:	4770      	bx	lr
    310e:	bf00      	nop
    3110:	04015815 	.word	0x04015815
    3114:	04015817 	.word	0x04015817

00003118 <vHandleMatchDescriptor>:
    3118:	b5f8      	push	{r3, r4, r5, r6, r7, lr}
    311a:	6986      	ldr	r6, [r0, #24]
    311c:	4605      	mov	r5, r0
    311e:	6830      	ldr	r0, [r6, #0]
    3120:	7843      	ldrb	r3, [r0, #1]
    3122:	bb1b      	cbnz	r3, 316c <vHandleMatchDescriptor+0x54>
    3124:	3002      	adds	r0, #2
    3126:	f00f fa12 	bl	1254e <u16Read16Nbo>
    312a:	6833      	ldr	r3, [r6, #0]
    312c:	791f      	ldrb	r7, [r3, #4]
    312e:	f895 3026 	ldrb.w	r3, [r5, #38]	; 0x26
    3132:	2b02      	cmp	r3, #2
    3134:	4604      	mov	r4, r0
    3136:	d11a      	bne.n	316e <vHandleMatchDescriptor+0x56>
    3138:	8a28      	ldrh	r0, [r5, #16]
    313a:	f64f 73fd 	movw	r3, #65533	; 0xfffd
    313e:	429c      	cmp	r4, r3
    3140:	bf08      	it	eq
    3142:	4604      	moveq	r4, r0
    3144:	b197      	cbz	r7, 316c <vHandleMatchDescriptor+0x54>
    3146:	6833      	ldr	r3, [r6, #0]
    3148:	795a      	ldrb	r2, [r3, #5]
    314a:	4b0d      	ldr	r3, [pc, #52]	; (3180 <vHandleMatchDescriptor+0x68>)
    314c:	749a      	strb	r2, [r3, #18]
    314e:	821c      	strh	r4, [r3, #16]
    3150:	4b0c      	ldr	r3, [pc, #48]	; (3184 <vHandleMatchDescriptor+0x6c>)
    3152:	2202      	movs	r2, #2
    3154:	701a      	strb	r2, [r3, #0]
    3156:	4b0c      	ldr	r3, [pc, #48]	; (3188 <vHandleMatchDescriptor+0x70>)
    3158:	2200      	movs	r2, #0
    315a:	f640 31b8 	movw	r1, #3000	; 0xbb8
    315e:	f44f 60fa 	mov.w	r0, #2000	; 0x7d0
    3162:	601a      	str	r2, [r3, #0]
    3164:	f003 fd4a 	bl	6bfc <RND_u32GetRand>
    3168:	4b08      	ldr	r3, [pc, #32]	; (318c <vHandleMatchDescriptor+0x74>)
    316a:	6018      	str	r0, [r3, #0]
    316c:	bdf8      	pop	{r3, r4, r5, r6, r7, pc}
    316e:	f7fd fbb1 	bl	8d4 <ZPS_pvAplZdoGetAplHandle>
    3172:	f013 fa17 	bl	165a4 <zps_pvAplZdoGetNwkHandle>
    3176:	e9d5 2304 	ldrd	r2, r3, [r5, #16]
    317a:	f01b fd0c 	bl	1eb96 <ZPS_u16NwkNibFindNwkAddr>
    317e:	e7dc      	b.n	313a <vHandleMatchDescriptor+0x22>
    3180:	040158c0 	.word	0x040158c0
    3184:	04015817 	.word	0x04015817
    3188:	040158e0 	.word	0x040158e0
    318c:	040158dc 	.word	0x040158dc

00003190 <vHandleIeeeAddressRsp>:
    3190:	e92d 4370 	stmdb	sp!, {r4, r5, r6, r8, r9, lr}
    3194:	6984      	ldr	r4, [r0, #24]
    3196:	6823      	ldr	r3, [r4, #0]
    3198:	b088      	sub	sp, #32
    319a:	785d      	ldrb	r5, [r3, #1]
    319c:	f88d 5008 	strb.w	r5, [sp, #8]
    31a0:	2d00      	cmp	r5, #0
    31a2:	d143      	bne.n	322c <vHandleIeeeAddressRsp+0x9c>
    31a4:	2102      	movs	r1, #2
    31a6:	4a23      	ldr	r2, [pc, #140]	; (3234 <vHandleIeeeAddressRsp+0xa4>)
    31a8:	ab04      	add	r3, sp, #16
    31aa:	4620      	mov	r0, r4
    31ac:	f00c fbae 	bl	f90c <PDUM_u16APduInstanceReadNBO>
    31b0:	6823      	ldr	r3, [r4, #0]
    31b2:	4c21      	ldr	r4, [pc, #132]	; (3238 <vHandleIeeeAddressRsp+0xa8>)
    31b4:	3002      	adds	r0, #2
    31b6:	4418      	add	r0, r3
    31b8:	f00f f9c9 	bl	1254e <u16Read16Nbo>
    31bc:	8a23      	ldrh	r3, [r4, #16]
    31be:	f8ad 0018 	strh.w	r0, [sp, #24]
    31c2:	4298      	cmp	r0, r3
    31c4:	4601      	mov	r1, r0
    31c6:	d131      	bne.n	322c <vHandleIeeeAddressRsp+0x9c>
    31c8:	e9dd 2304 	ldrd	r2, r3, [sp, #16]
    31cc:	481b      	ldr	r0, [pc, #108]	; (323c <vHandleIeeeAddressRsp+0xac>)
    31ce:	e9c4 2302 	strd	r2, r3, [r4, #8]
    31d2:	f7fe fd7b 	bl	1ccc <DbgConsole_Printf>
    31d6:	e9d4 8902 	ldrd	r8, r9, [r4, #8]
    31da:	8a26      	ldrh	r6, [r4, #16]
    31dc:	f7fd fb7a 	bl	8d4 <ZPS_pvAplZdoGetAplHandle>
    31e0:	f013 f9e0 	bl	165a4 <zps_pvAplZdoGetNwkHandle>
    31e4:	4642      	mov	r2, r8
    31e6:	464b      	mov	r3, r9
    31e8:	4631      	mov	r1, r6
    31ea:	9500      	str	r5, [sp, #0]
    31ec:	f01b fe16 	bl	1ee1c <ZPS_bNwkNibAddrMapAddEntry>
    31f0:	2301      	movs	r3, #1
    31f2:	4621      	mov	r1, r4
    31f4:	2218      	movs	r2, #24
    31f6:	2009      	movs	r0, #9
    31f8:	7023      	strb	r3, [r4, #0]
    31fa:	f00e fcbd 	bl	11b78 <PDM_eSaveRecordData>
    31fe:	f7fd fd35 	bl	c6c <app_u8GetDeviceEndpoint>
    3202:	8a23      	ldrh	r3, [r4, #16]
    3204:	9300      	str	r3, [sp, #0]
    3206:	e9d4 2302 	ldrd	r2, r3, [r4, #8]
    320a:	f006 fa7b 	bl	9704 <eOTA_SetServerAddress>
    320e:	4b0c      	ldr	r3, [pc, #48]	; (3240 <vHandleIeeeAddressRsp+0xb0>)
    3210:	2204      	movs	r2, #4
    3212:	701a      	strb	r2, [r3, #0]
    3214:	4b0b      	ldr	r3, [pc, #44]	; (3244 <vHandleIeeeAddressRsp+0xb4>)
    3216:	f640 31b8 	movw	r1, #3000	; 0xbb8
    321a:	f44f 60fa 	mov.w	r0, #2000	; 0x7d0
    321e:	601d      	str	r5, [r3, #0]
    3220:	f003 fcec 	bl	6bfc <RND_u32GetRand>
    3224:	4b08      	ldr	r3, [pc, #32]	; (3248 <vHandleIeeeAddressRsp+0xb8>)
    3226:	6018      	str	r0, [r3, #0]
    3228:	4b08      	ldr	r3, [pc, #32]	; (324c <vHandleIeeeAddressRsp+0xbc>)
    322a:	601d      	str	r5, [r3, #0]
    322c:	b008      	add	sp, #32
    322e:	e8bd 8370 	ldmia.w	sp!, {r4, r5, r6, r8, r9, pc}
    3232:	bf00      	nop
    3234:	0002c6c4 	.word	0x0002c6c4
    3238:	040158c0 	.word	0x040158c0
    323c:	0002b2fc 	.word	0x0002b2fc
    3240:	04015817 	.word	0x04015817
    3244:	040158e0 	.word	0x040158e0
    3248:	040158dc 	.word	0x040158dc
    324c:	040158d8 	.word	0x040158d8

00003250 <vResetOTADiscovery>:
    3250:	4907      	ldr	r1, [pc, #28]	; (3270 <vResetOTADiscovery+0x20>)
    3252:	2200      	movs	r2, #0
    3254:	2300      	movs	r3, #0
    3256:	e9c1 2302 	strd	r2, r3, [r1, #8]
    325a:	f64f 73ff 	movw	r3, #65535	; 0xffff
    325e:	820b      	strh	r3, [r1, #16]
    3260:	748b      	strb	r3, [r1, #18]
    3262:	2218      	movs	r2, #24
    3264:	2300      	movs	r3, #0
    3266:	2009      	movs	r0, #9
    3268:	700b      	strb	r3, [r1, #0]
    326a:	f00e bc85 	b.w	11b78 <PDM_eSaveRecordData>
    326e:	bf00      	nop
    3270:	040158c0 	.word	0x040158c0

00003274 <vRunAppOTAStateMachine>:
    3274:	e92d 4ff0 	stmdb	sp!, {r4, r5, r6, r7, r8, r9, sl, fp, lr}
    3278:	b0a1      	sub	sp, #132	; 0x84
    327a:	4605      	mov	r5, r0
    327c:	f7fe f98e 	bl	159c <APP_bIsRunning>
    3280:	b338      	cbz	r0, 32d2 <vRunAppOTAStateMachine+0x5e>
    3282:	4caa      	ldr	r4, [pc, #680]	; (352c <vRunAppOTAStateMachine+0x2b8>)
    3284:	6823      	ldr	r3, [r4, #0]
    3286:	442b      	add	r3, r5
    3288:	4da9      	ldr	r5, [pc, #676]	; (3530 <vRunAppOTAStateMachine+0x2bc>)
    328a:	6023      	str	r3, [r4, #0]
    328c:	f7fd fcee 	bl	c6c <app_u8GetDeviceEndpoint>
    3290:	782b      	ldrb	r3, [r5, #0]
    3292:	4606      	mov	r6, r0
    3294:	2b07      	cmp	r3, #7
    3296:	d81c      	bhi.n	32d2 <vRunAppOTAStateMachine+0x5e>
    3298:	e8df f013 	tbh	[pc, r3, lsl #1]
    329c:	00630023 	.word	0x00630023
    32a0:	00ba0087 	.word	0x00ba0087
    32a4:	010200ca 	.word	0x010200ca
    32a8:	00080129 	.word	0x00080129
    32ac:	4ea1      	ldr	r6, [pc, #644]	; (3534 <vRunAppOTAStateMachine+0x2c0>)
    32ae:	6822      	ldr	r2, [r4, #0]
    32b0:	6833      	ldr	r3, [r6, #0]
    32b2:	429a      	cmp	r2, r3
    32b4:	d30d      	bcc.n	32d2 <vRunAppOTAStateMachine+0x5e>
    32b6:	4ba0      	ldr	r3, [pc, #640]	; (3538 <vRunAppOTAStateMachine+0x2c4>)
    32b8:	781b      	ldrb	r3, [r3, #0]
    32ba:	b16b      	cbz	r3, 32d8 <vRunAppOTAStateMachine+0x64>
    32bc:	2304      	movs	r3, #4
    32be:	702b      	strb	r3, [r5, #0]
    32c0:	2300      	movs	r3, #0
    32c2:	6023      	str	r3, [r4, #0]
    32c4:	f640 31b8 	movw	r1, #3000	; 0xbb8
    32c8:	f44f 60fa 	mov.w	r0, #2000	; 0x7d0
    32cc:	f003 fc96 	bl	6bfc <RND_u32GetRand>
    32d0:	6030      	str	r0, [r6, #0]
    32d2:	b021      	add	sp, #132	; 0x84
    32d4:	e8bd 8ff0 	ldmia.w	sp!, {r4, r5, r6, r7, r8, r9, sl, fp, pc}
    32d8:	702b      	strb	r3, [r5, #0]
    32da:	6023      	str	r3, [r4, #0]
    32dc:	f641 3158 	movw	r1, #7000	; 0x1b58
    32e0:	e7f2      	b.n	32c8 <vRunAppOTAStateMachine+0x54>
    32e2:	4f94      	ldr	r7, [pc, #592]	; (3534 <vRunAppOTAStateMachine+0x2c0>)
    32e4:	6822      	ldr	r2, [r4, #0]
    32e6:	683b      	ldr	r3, [r7, #0]
    32e8:	429a      	cmp	r2, r3
    32ea:	46b9      	mov	r9, r7
    32ec:	d3f1      	bcc.n	32d2 <vRunAppOTAStateMachine+0x5e>
    32ee:	2319      	movs	r3, #25
    32f0:	f8ad 3020 	strh.w	r3, [sp, #32]
    32f4:	ab08      	add	r3, sp, #32
    32f6:	930e      	str	r3, [sp, #56]	; 0x38
    32f8:	f04f 0a00 	mov.w	sl, #0
    32fc:	4b8f      	ldr	r3, [pc, #572]	; (353c <vRunAppOTAStateMachine+0x2c8>)
    32fe:	4890      	ldr	r0, [pc, #576]	; (3540 <vRunAppOTAStateMachine+0x2cc>)
    3300:	f8cd a040 	str.w	sl, [sp, #64]	; 0x40
    3304:	f04f 0801 	mov.w	r8, #1
    3308:	f88d a03c 	strb.w	sl, [sp, #60]	; 0x3c
    330c:	930c      	str	r3, [sp, #48]	; 0x30
    330e:	f88d 8034 	strb.w	r8, [sp, #52]	; 0x34
    3312:	f00c fb77 	bl	fa04 <PDUM_hAPduAllocateAPduInstance>
    3316:	4606      	mov	r6, r0
    3318:	b1b0      	cbz	r0, 3348 <vRunAppOTAStateMachine+0xd4>
    331a:	f06f 0302 	mvn.w	r3, #2
    331e:	46d3      	mov	fp, sl
    3320:	f363 0b0f 	bfi	fp, r3, #0, #16
    3324:	f7fd fad6 	bl	8d4 <ZPS_pvAplZdoGetAplHandle>
    3328:	ab0c      	add	r3, sp, #48	; 0x30
    332a:	9302      	str	r3, [sp, #8]
    332c:	ab05      	add	r3, sp, #20
    332e:	e9cd a300 	strd	sl, r3, [sp]
    3332:	465a      	mov	r2, fp
    3334:	4653      	mov	r3, sl
    3336:	4631      	mov	r1, r6
    3338:	f017 fd26 	bl	1ad88 <zps_eAplZdpMatchDescRequest>
    333c:	2800      	cmp	r0, #0
    333e:	f000 80ea 	beq.w	3516 <vRunAppOTAStateMachine+0x2a2>
    3342:	4630      	mov	r0, r6
    3344:	f00c fb76 	bl	fa34 <PDUM_eAPduFreeAPduInstance>
    3348:	2307      	movs	r3, #7
    334a:	702b      	strb	r3, [r5, #0]
    334c:	497d      	ldr	r1, [pc, #500]	; (3544 <vRunAppOTAStateMachine+0x2d0>)
    334e:	487e      	ldr	r0, [pc, #504]	; (3548 <vRunAppOTAStateMachine+0x2d4>)
    3350:	2300      	movs	r3, #0
    3352:	6023      	str	r3, [r4, #0]
    3354:	f003 fc52 	bl	6bfc <RND_u32GetRand>
    3358:	f8c9 0000 	str.w	r0, [r9]
    335c:	f7ff ff78 	bl	3250 <vResetOTADiscovery>
    3360:	e7b7      	b.n	32d2 <vRunAppOTAStateMachine+0x5e>
    3362:	4b75      	ldr	r3, [pc, #468]	; (3538 <vRunAppOTAStateMachine+0x2c4>)
    3364:	781b      	ldrb	r3, [r3, #0]
    3366:	b173      	cbz	r3, 3386 <vRunAppOTAStateMachine+0x112>
    3368:	2304      	movs	r3, #4
    336a:	702b      	strb	r3, [r5, #0]
    336c:	f640 31b8 	movw	r1, #3000	; 0xbb8
    3370:	2500      	movs	r5, #0
    3372:	f44f 60fa 	mov.w	r0, #2000	; 0x7d0
    3376:	6025      	str	r5, [r4, #0]
    3378:	f003 fc40 	bl	6bfc <RND_u32GetRand>
    337c:	4b6d      	ldr	r3, [pc, #436]	; (3534 <vRunAppOTAStateMachine+0x2c0>)
    337e:	6018      	str	r0, [r3, #0]
    3380:	4b72      	ldr	r3, [pc, #456]	; (354c <vRunAppOTAStateMachine+0x2d8>)
    3382:	601d      	str	r5, [r3, #0]
    3384:	e7a5      	b.n	32d2 <vRunAppOTAStateMachine+0x5e>
    3386:	4b6b      	ldr	r3, [pc, #428]	; (3534 <vRunAppOTAStateMachine+0x2c0>)
    3388:	6822      	ldr	r2, [r4, #0]
    338a:	681b      	ldr	r3, [r3, #0]
    338c:	429a      	cmp	r2, r3
    338e:	d3a0      	bcc.n	32d2 <vRunAppOTAStateMachine+0x5e>
    3390:	4a6e      	ldr	r2, [pc, #440]	; (354c <vRunAppOTAStateMachine+0x2d8>)
    3392:	496c      	ldr	r1, [pc, #432]	; (3544 <vRunAppOTAStateMachine+0x2d0>)
    3394:	486c      	ldr	r0, [pc, #432]	; (3548 <vRunAppOTAStateMachine+0x2d4>)
    3396:	2300      	movs	r3, #0
    3398:	6013      	str	r3, [r2, #0]
    339a:	2207      	movs	r2, #7
    339c:	6023      	str	r3, [r4, #0]
    339e:	702a      	strb	r2, [r5, #0]
    33a0:	f003 fc2c 	bl	6bfc <RND_u32GetRand>
    33a4:	4b63      	ldr	r3, [pc, #396]	; (3534 <vRunAppOTAStateMachine+0x2c0>)
    33a6:	6018      	str	r0, [r3, #0]
    33a8:	e793      	b.n	32d2 <vRunAppOTAStateMachine+0x5e>
    33aa:	4b62      	ldr	r3, [pc, #392]	; (3534 <vRunAppOTAStateMachine+0x2c0>)
    33ac:	6821      	ldr	r1, [r4, #0]
    33ae:	681a      	ldr	r2, [r3, #0]
    33b0:	4291      	cmp	r1, r2
    33b2:	4699      	mov	r9, r3
    33b4:	d38d      	bcc.n	32d2 <vRunAppOTAStateMachine+0x5e>
    33b6:	4862      	ldr	r0, [pc, #392]	; (3540 <vRunAppOTAStateMachine+0x2cc>)
    33b8:	f00c fb24 	bl	fa04 <PDUM_hAPduAllocateAPduInstance>
    33bc:	4606      	mov	r6, r0
    33be:	b1d0      	cbz	r0, 33f6 <vRunAppOTAStateMachine+0x182>
    33c0:	4b5d      	ldr	r3, [pc, #372]	; (3538 <vRunAppOTAStateMachine+0x2c4>)
    33c2:	f04f 0800 	mov.w	r8, #0
    33c6:	8a1b      	ldrh	r3, [r3, #16]
    33c8:	f8ad 3030 	strh.w	r3, [sp, #48]	; 0x30
    33cc:	4647      	mov	r7, r8
    33ce:	f363 070f 	bfi	r7, r3, #0, #16
    33d2:	f8ad 8032 	strh.w	r8, [sp, #50]	; 0x32
    33d6:	f7fd fa7d 	bl	8d4 <ZPS_pvAplZdoGetAplHandle>
    33da:	ab0c      	add	r3, sp, #48	; 0x30
    33dc:	9302      	str	r3, [sp, #8]
    33de:	ab08      	add	r3, sp, #32
    33e0:	e9cd 8300 	strd	r8, r3, [sp]
    33e4:	463a      	mov	r2, r7
    33e6:	4643      	mov	r3, r8
    33e8:	4631      	mov	r1, r6
    33ea:	f017 fc99 	bl	1ad20 <zps_eAplZdpIeeeAddrRequest>
    33ee:	b110      	cbz	r0, 33f6 <vRunAppOTAStateMachine+0x182>
    33f0:	4630      	mov	r0, r6
    33f2:	f00c fb1f 	bl	fa34 <PDUM_eAPduFreeAPduInstance>
    33f6:	2303      	movs	r3, #3
    33f8:	702b      	strb	r3, [r5, #0]
    33fa:	2300      	movs	r3, #0
    33fc:	6023      	str	r3, [r4, #0]
    33fe:	f640 31b8 	movw	r1, #3000	; 0xbb8
    3402:	f44f 60fa 	mov.w	r0, #2000	; 0x7d0
    3406:	f003 fbf9 	bl	6bfc <RND_u32GetRand>
    340a:	f8c9 0000 	str.w	r0, [r9]
    340e:	e760      	b.n	32d2 <vRunAppOTAStateMachine+0x5e>
    3410:	4b49      	ldr	r3, [pc, #292]	; (3538 <vRunAppOTAStateMachine+0x2c4>)
    3412:	781b      	ldrb	r3, [r3, #0]
    3414:	2b00      	cmp	r3, #0
    3416:	d1a7      	bne.n	3368 <vRunAppOTAStateMachine+0xf4>
    3418:	4e46      	ldr	r6, [pc, #280]	; (3534 <vRunAppOTAStateMachine+0x2c0>)
    341a:	6821      	ldr	r1, [r4, #0]
    341c:	6832      	ldr	r2, [r6, #0]
    341e:	4291      	cmp	r1, r2
    3420:	f4ff af57 	bcc.w	32d2 <vRunAppOTAStateMachine+0x5e>
    3424:	2207      	movs	r2, #7
    3426:	4947      	ldr	r1, [pc, #284]	; (3544 <vRunAppOTAStateMachine+0x2d0>)
    3428:	4847      	ldr	r0, [pc, #284]	; (3548 <vRunAppOTAStateMachine+0x2d4>)
    342a:	702a      	strb	r2, [r5, #0]
    342c:	6023      	str	r3, [r4, #0]
    342e:	e74d      	b.n	32cc <vRunAppOTAStateMachine+0x58>
    3430:	f8df 9100 	ldr.w	r9, [pc, #256]	; 3534 <vRunAppOTAStateMachine+0x2c0>
    3434:	6822      	ldr	r2, [r4, #0]
    3436:	f8d9 3000 	ldr.w	r3, [r9]
    343a:	429a      	cmp	r2, r3
    343c:	f4ff af49 	bcc.w	32d2 <vRunAppOTAStateMachine+0x5e>
    3440:	4f3d      	ldr	r7, [pc, #244]	; (3538 <vRunAppOTAStateMachine+0x2c4>)
    3442:	783b      	ldrb	r3, [r7, #0]
    3444:	2b00      	cmp	r3, #0
    3446:	d0a3      	beq.n	3390 <vRunAppOTAStateMachine+0x11c>
    3448:	2100      	movs	r1, #0
    344a:	aa0c      	add	r2, sp, #48	; 0x30
    344c:	f006 fba8 	bl	9ba0 <eOTA_GetCurrentOtaHeader>
    3450:	8a3b      	ldrh	r3, [r7, #16]
    3452:	9300      	str	r3, [sp, #0]
    3454:	e9d7 2302 	ldrd	r2, r3, [r7, #8]
    3458:	4630      	mov	r0, r6
    345a:	f006 f953 	bl	9704 <eOTA_SetServerAddress>
    345e:	8a39      	ldrh	r1, [r7, #16]
    3460:	f8bd 203c 	ldrh.w	r2, [sp, #60]	; 0x3c
    3464:	f8bd 303a 	ldrh.w	r3, [sp, #58]	; 0x3a
    3468:	f8ad 1028 	strh.w	r1, [sp, #40]	; 0x28
    346c:	2002      	movs	r0, #2
    346e:	9910      	ldr	r1, [sp, #64]	; 0x40
    3470:	f88d 0020 	strb.w	r0, [sp, #32]
    3474:	f04f 0800 	mov.w	r8, #0
    3478:	9105      	str	r1, [sp, #20]
    347a:	f8ad 201a 	strh.w	r2, [sp, #26]
    347e:	f8ad 301c 	strh.w	r3, [sp, #28]
    3482:	7cb9      	ldrb	r1, [r7, #18]
    3484:	f8ad 8018 	strh.w	r8, [sp, #24]
    3488:	ab05      	add	r3, sp, #20
    348a:	aa08      	add	r2, sp, #32
    348c:	4630      	mov	r0, r6
    348e:	f88d 801e 	strb.w	r8, [sp, #30]
    3492:	f007 ff25 	bl	b2e0 <eOTA_ClientQueryNextImageRequest>
    3496:	2305      	movs	r3, #5
    3498:	702b      	strb	r3, [r5, #0]
    349a:	f8c4 8000 	str.w	r8, [r4]
    349e:	e7ae      	b.n	33fe <vRunAppOTAStateMachine+0x18a>
    34a0:	f8df 8090 	ldr.w	r8, [pc, #144]	; 3534 <vRunAppOTAStateMachine+0x2c0>
    34a4:	6822      	ldr	r2, [r4, #0]
    34a6:	f8d8 3000 	ldr.w	r3, [r8]
    34aa:	429a      	cmp	r2, r3
    34ac:	f4ff af11 	bcc.w	32d2 <vRunAppOTAStateMachine+0x5e>
    34b0:	4f26      	ldr	r7, [pc, #152]	; (354c <vRunAppOTAStateMachine+0x2d8>)
    34b2:	683b      	ldr	r3, [r7, #0]
    34b4:	3301      	adds	r3, #1
    34b6:	2b02      	cmp	r3, #2
    34b8:	603b      	str	r3, [r7, #0]
    34ba:	f04f 0600 	mov.w	r6, #0
    34be:	d90a      	bls.n	34d6 <vRunAppOTAStateMachine+0x262>
    34c0:	2307      	movs	r3, #7
    34c2:	4920      	ldr	r1, [pc, #128]	; (3544 <vRunAppOTAStateMachine+0x2d0>)
    34c4:	4820      	ldr	r0, [pc, #128]	; (3548 <vRunAppOTAStateMachine+0x2d4>)
    34c6:	702b      	strb	r3, [r5, #0]
    34c8:	6026      	str	r6, [r4, #0]
    34ca:	f003 fb97 	bl	6bfc <RND_u32GetRand>
    34ce:	603e      	str	r6, [r7, #0]
    34d0:	f8c8 0000 	str.w	r0, [r8]
    34d4:	e742      	b.n	335c <vRunAppOTAStateMachine+0xe8>
    34d6:	2304      	movs	r3, #4
    34d8:	f640 31b8 	movw	r1, #3000	; 0xbb8
    34dc:	f44f 60fa 	mov.w	r0, #2000	; 0x7d0
    34e0:	702b      	strb	r3, [r5, #0]
    34e2:	6026      	str	r6, [r4, #0]
    34e4:	f003 fb8a 	bl	6bfc <RND_u32GetRand>
    34e8:	f8c8 0000 	str.w	r0, [r8]
    34ec:	e6f1      	b.n	32d2 <vRunAppOTAStateMachine+0x5e>
    34ee:	4e11      	ldr	r6, [pc, #68]	; (3534 <vRunAppOTAStateMachine+0x2c0>)
    34f0:	6821      	ldr	r1, [r4, #0]
    34f2:	f241 7270 	movw	r2, #6000	; 0x1770
    34f6:	6032      	str	r2, [r6, #0]
    34f8:	f241 726f 	movw	r2, #5999	; 0x176f
    34fc:	4291      	cmp	r1, r2
    34fe:	d804      	bhi.n	350a <vRunAppOTAStateMachine+0x296>
    3500:	4b13      	ldr	r3, [pc, #76]	; (3550 <vRunAppOTAStateMachine+0x2dc>)
    3502:	7e9b      	ldrb	r3, [r3, #26]
    3504:	2b00      	cmp	r3, #0
    3506:	f47f aee4 	bne.w	32d2 <vRunAppOTAStateMachine+0x5e>
    350a:	4b12      	ldr	r3, [pc, #72]	; (3554 <vRunAppOTAStateMachine+0x2e0>)
    350c:	781b      	ldrb	r3, [r3, #0]
    350e:	2b00      	cmp	r3, #0
    3510:	f47f aedf 	bne.w	32d2 <vRunAppOTAStateMachine+0x5e>
    3514:	e786      	b.n	3424 <vRunAppOTAStateMachine+0x1b0>
    3516:	6020      	str	r0, [r4, #0]
    3518:	f640 31b8 	movw	r1, #3000	; 0xbb8
    351c:	f44f 60fa 	mov.w	r0, #2000	; 0x7d0
    3520:	f885 8000 	strb.w	r8, [r5]
    3524:	f003 fb6a 	bl	6bfc <RND_u32GetRand>
    3528:	6038      	str	r0, [r7, #0]
    352a:	e6d2      	b.n	32d2 <vRunAppOTAStateMachine+0x5e>
    352c:	040158e0 	.word	0x040158e0
    3530:	04015817 	.word	0x04015817
    3534:	040158dc 	.word	0x040158dc
    3538:	040158c0 	.word	0x040158c0
    353c:	0104fffd 	.word	0x0104fffd
    3540:	04000a40 	.word	0x04000a40
    3544:	0003a980 	.word	0x0003a980
    3548:	0001d4c0 	.word	0x0001d4c0
    354c:	040158d8 	.word	0x040158d8
    3550:	04015818 	.word	0x04015818
    3554:	04015816 	.word	0x04015816

00003558 <vOTAResetPersist>:
    3558:	b530      	push	{r4, r5, lr}
    355a:	4c0c      	ldr	r4, [pc, #48]	; (358c <vOTAResetPersist+0x34>)
    355c:	b0ab      	sub	sp, #172	; 0xac
    355e:	25a8      	movs	r5, #168	; 0xa8
    3560:	4668      	mov	r0, sp
    3562:	f7fd fd8b 	bl	107c <sGetOTACallBackPersistdata>
    3566:	462a      	mov	r2, r5
    3568:	4669      	mov	r1, sp
    356a:	4620      	mov	r0, r4
    356c:	f026 f8d4 	bl	29718 <memcpy>
    3570:	462a      	mov	r2, r5
    3572:	2100      	movs	r1, #0
    3574:	4620      	mov	r0, r4
    3576:	f026 f969 	bl	2984c <memset>
    357a:	462a      	mov	r2, r5
    357c:	4621      	mov	r1, r4
    357e:	200a      	movs	r0, #10
    3580:	b02b      	add	sp, #172	; 0xac
    3582:	e8bd 4030 	ldmia.w	sp!, {r4, r5, lr}
    3586:	f00e baf7 	b.w	11b78 <PDM_eSaveRecordData>
    358a:	bf00      	nop
    358c:	04015818 	.word	0x04015818

00003590 <vHandleAppOtaClient>:
    3590:	b570      	push	{r4, r5, r6, lr}
    3592:	7803      	ldrb	r3, [r0, #0]
    3594:	2b02      	cmp	r3, #2
    3596:	b0b4      	sub	sp, #208	; 0xd0
    3598:	4604      	mov	r4, r0
    359a:	d117      	bne.n	35cc <vHandleAppOtaClient+0x3c>
    359c:	4b9a      	ldr	r3, [pc, #616]	; (3808 <vHandleAppOtaClient+0x278>)
    359e:	499b      	ldr	r1, [pc, #620]	; (380c <vHandleAppOtaClient+0x27c>)
    35a0:	4d9b      	ldr	r5, [pc, #620]	; (3810 <vHandleAppOtaClient+0x280>)
    35a2:	2000      	movs	r0, #0
    35a4:	6018      	str	r0, [r3, #0]
    35a6:	4b9b      	ldr	r3, [pc, #620]	; (3814 <vHandleAppOtaClient+0x284>)
    35a8:	781a      	ldrb	r2, [r3, #0]
    35aa:	4b9b      	ldr	r3, [pc, #620]	; (3818 <vHandleAppOtaClient+0x288>)
    35ac:	2a00      	cmp	r2, #0
    35ae:	f000 80da 	beq.w	3766 <vHandleAppOtaClient+0x1d6>
    35b2:	f894 210c 	ldrb.w	r2, [r4, #268]	; 0x10c
    35b6:	2a00      	cmp	r2, #0
    35b8:	f000 80cd 	beq.w	3756 <vHandleAppOtaClient+0x1c6>
    35bc:	2207      	movs	r2, #7
    35be:	700a      	strb	r2, [r1, #0]
    35c0:	6018      	str	r0, [r3, #0]
    35c2:	4996      	ldr	r1, [pc, #600]	; (381c <vHandleAppOtaClient+0x28c>)
    35c4:	4896      	ldr	r0, [pc, #600]	; (3820 <vHandleAppOtaClient+0x290>)
    35c6:	f003 fb19 	bl	6bfc <RND_u32GetRand>
    35ca:	6028      	str	r0, [r5, #0]
    35cc:	7823      	ldrb	r3, [r4, #0]
    35ce:	2b1f      	cmp	r3, #31
    35d0:	d113      	bne.n	35fa <vHandleAppOtaClient+0x6a>
    35d2:	e9d4 3240 	ldrd	r3, r2, [r4, #256]	; 0x100
    35d6:	429a      	cmp	r2, r3
    35d8:	4d8d      	ldr	r5, [pc, #564]	; (3810 <vHandleAppOtaClient+0x280>)
    35da:	4a8c      	ldr	r2, [pc, #560]	; (380c <vHandleAppOtaClient+0x27c>)
    35dc:	4b8e      	ldr	r3, [pc, #568]	; (3818 <vHandleAppOtaClient+0x288>)
    35de:	f040 80c4 	bne.w	376a <vHandleAppOtaClient+0x1da>
    35e2:	2101      	movs	r1, #1
    35e4:	f884 1108 	strb.w	r1, [r4, #264]	; 0x108
    35e8:	2107      	movs	r1, #7
    35ea:	7011      	strb	r1, [r2, #0]
    35ec:	488c      	ldr	r0, [pc, #560]	; (3820 <vHandleAppOtaClient+0x290>)
    35ee:	498b      	ldr	r1, [pc, #556]	; (381c <vHandleAppOtaClient+0x28c>)
    35f0:	2200      	movs	r2, #0
    35f2:	601a      	str	r2, [r3, #0]
    35f4:	f003 fb02 	bl	6bfc <RND_u32GetRand>
    35f8:	6028      	str	r0, [r5, #0]
    35fa:	7823      	ldrb	r3, [r4, #0]
    35fc:	2b25      	cmp	r3, #37	; 0x25
    35fe:	d112      	bne.n	3626 <vHandleAppOtaClient+0x96>
    3600:	f894 3100 	ldrb.w	r3, [r4, #256]	; 0x100
    3604:	2b01      	cmp	r3, #1
    3606:	d10b      	bne.n	3620 <vHandleAppOtaClient+0x90>
    3608:	4b80      	ldr	r3, [pc, #512]	; (380c <vHandleAppOtaClient+0x27c>)
    360a:	4984      	ldr	r1, [pc, #528]	; (381c <vHandleAppOtaClient+0x28c>)
    360c:	4884      	ldr	r0, [pc, #528]	; (3820 <vHandleAppOtaClient+0x290>)
    360e:	2207      	movs	r2, #7
    3610:	701a      	strb	r2, [r3, #0]
    3612:	4b81      	ldr	r3, [pc, #516]	; (3818 <vHandleAppOtaClient+0x288>)
    3614:	2200      	movs	r2, #0
    3616:	601a      	str	r2, [r3, #0]
    3618:	f003 faf0 	bl	6bfc <RND_u32GetRand>
    361c:	4b7c      	ldr	r3, [pc, #496]	; (3810 <vHandleAppOtaClient+0x280>)
    361e:	6018      	str	r0, [r3, #0]
    3620:	4b80      	ldr	r3, [pc, #512]	; (3824 <vHandleAppOtaClient+0x294>)
    3622:	2200      	movs	r2, #0
    3624:	701a      	strb	r2, [r3, #0]
    3626:	7823      	ldrb	r3, [r4, #0]
    3628:	2b07      	cmp	r3, #7
    362a:	d132      	bne.n	3692 <vHandleAppOtaClient+0x102>
    362c:	f8d4 3100 	ldr.w	r3, [r4, #256]	; 0x100
    3630:	1c5a      	adds	r2, r3, #1
    3632:	d00a      	beq.n	364a <vHandleAppOtaClient+0xba>
    3634:	f8d4 2104 	ldr.w	r2, [r4, #260]	; 0x104
    3638:	4293      	cmp	r3, r2
    363a:	bf8c      	ite	hi
    363c:	1a9b      	subhi	r3, r3, r2
    363e:	2305      	movls	r3, #5
    3640:	f8c4 3100 	str.w	r3, [r4, #256]	; 0x100
    3644:	2300      	movs	r3, #0
    3646:	f8c4 3104 	str.w	r3, [r4, #260]	; 0x104
    364a:	4b77      	ldr	r3, [pc, #476]	; (3828 <vHandleAppOtaClient+0x298>)
    364c:	2201      	movs	r2, #1
    364e:	701a      	strb	r2, [r3, #0]
    3650:	4b6e      	ldr	r3, [pc, #440]	; (380c <vHandleAppOtaClient+0x27c>)
    3652:	2206      	movs	r2, #6
    3654:	701a      	strb	r2, [r3, #0]
    3656:	4b70      	ldr	r3, [pc, #448]	; (3818 <vHandleAppOtaClient+0x288>)
    3658:	2200      	movs	r2, #0
    365a:	601a      	str	r2, [r3, #0]
    365c:	f8d4 3100 	ldr.w	r3, [r4, #256]	; 0x100
    3660:	f44f 757a 	mov.w	r5, #1000	; 0x3e8
    3664:	f640 31b8 	movw	r1, #3000	; 0xbb8
    3668:	f44f 60fa 	mov.w	r0, #2000	; 0x7d0
    366c:	fb05 f603 	mul.w	r6, r5, r3
    3670:	f003 fac4 	bl	6bfc <RND_u32GetRand>
    3674:	4286      	cmp	r6, r0
    3676:	4e66      	ldr	r6, [pc, #408]	; (3810 <vHandleAppOtaClient+0x280>)
    3678:	f240 8086 	bls.w	3788 <vHandleAppOtaClient+0x1f8>
    367c:	f8d4 0100 	ldr.w	r0, [r4, #256]	; 0x100
    3680:	f640 31b8 	movw	r1, #3000	; 0xbb8
    3684:	4345      	muls	r5, r0
    3686:	f44f 60fa 	mov.w	r0, #2000	; 0x7d0
    368a:	f003 fab7 	bl	6bfc <RND_u32GetRand>
    368e:	4405      	add	r5, r0
    3690:	6035      	str	r5, [r6, #0]
    3692:	7823      	ldrb	r3, [r4, #0]
    3694:	2b0b      	cmp	r3, #11
    3696:	d10c      	bne.n	36b2 <vHandleAppOtaClient+0x122>
    3698:	4668      	mov	r0, sp
    369a:	f7fd fcef 	bl	107c <sGetOTACallBackPersistdata>
    369e:	22a8      	movs	r2, #168	; 0xa8
    36a0:	4669      	mov	r1, sp
    36a2:	4862      	ldr	r0, [pc, #392]	; (382c <vHandleAppOtaClient+0x29c>)
    36a4:	f026 f838 	bl	29718 <memcpy>
    36a8:	4960      	ldr	r1, [pc, #384]	; (382c <vHandleAppOtaClient+0x29c>)
    36aa:	22a8      	movs	r2, #168	; 0xa8
    36ac:	200a      	movs	r0, #10
    36ae:	f00e fa63 	bl	11b78 <PDM_eSaveRecordData>
    36b2:	7823      	ldrb	r3, [r4, #0]
    36b4:	2b0c      	cmp	r3, #12
    36b6:	d10f      	bne.n	36d8 <vHandleAppOtaClient+0x148>
    36b8:	4b54      	ldr	r3, [pc, #336]	; (380c <vHandleAppOtaClient+0x27c>)
    36ba:	4958      	ldr	r1, [pc, #352]	; (381c <vHandleAppOtaClient+0x28c>)
    36bc:	4858      	ldr	r0, [pc, #352]	; (3820 <vHandleAppOtaClient+0x290>)
    36be:	2207      	movs	r2, #7
    36c0:	701a      	strb	r2, [r3, #0]
    36c2:	4b55      	ldr	r3, [pc, #340]	; (3818 <vHandleAppOtaClient+0x288>)
    36c4:	2200      	movs	r2, #0
    36c6:	601a      	str	r2, [r3, #0]
    36c8:	f003 fa98 	bl	6bfc <RND_u32GetRand>
    36cc:	4b50      	ldr	r3, [pc, #320]	; (3810 <vHandleAppOtaClient+0x280>)
    36ce:	6018      	str	r0, [r3, #0]
    36d0:	f7ff ff42 	bl	3558 <vOTAResetPersist>
    36d4:	f005 f902 	bl	88dc <EEPROM_Init>
    36d8:	7823      	ldrb	r3, [r4, #0]
    36da:	2b05      	cmp	r3, #5
    36dc:	f040 808e 	bne.w	37fc <vHandleAppOtaClient+0x26c>
    36e0:	4b4a      	ldr	r3, [pc, #296]	; (380c <vHandleAppOtaClient+0x27c>)
    36e2:	4d53      	ldr	r5, [pc, #332]	; (3830 <vHandleAppOtaClient+0x2a0>)
    36e4:	2206      	movs	r2, #6
    36e6:	701a      	strb	r2, [r3, #0]
    36e8:	4b4b      	ldr	r3, [pc, #300]	; (3818 <vHandleAppOtaClient+0x288>)
    36ea:	2200      	movs	r2, #0
    36ec:	f640 31b8 	movw	r1, #3000	; 0xbb8
    36f0:	f44f 60fa 	mov.w	r0, #2000	; 0x7d0
    36f4:	601a      	str	r2, [r3, #0]
    36f6:	f003 fa81 	bl	6bfc <RND_u32GetRand>
    36fa:	4b45      	ldr	r3, [pc, #276]	; (3810 <vHandleAppOtaClient+0x280>)
    36fc:	f894 2100 	ldrb.w	r2, [r4, #256]	; 0x100
    3700:	6018      	str	r0, [r3, #0]
    3702:	782b      	ldrb	r3, [r5, #0]
    3704:	ea52 0603 	orrs.w	r6, r2, r3
    3708:	d178      	bne.n	37fc <vHandleAppOtaClient+0x26c>
    370a:	f8d4 2108 	ldr.w	r2, [r4, #264]	; 0x108
    370e:	f240 434c 	movw	r3, #1100	; 0x44c
    3712:	429a      	cmp	r2, r3
    3714:	d972      	bls.n	37fc <vHandleAppOtaClient+0x26c>
    3716:	2301      	movs	r3, #1
    3718:	702b      	strb	r3, [r5, #0]
    371a:	4b46      	ldr	r3, [pc, #280]	; (3834 <vHandleAppOtaClient+0x2a4>)
    371c:	f894 20e1 	ldrb.w	r2, [r4, #225]	; 0xe1
    3720:	691b      	ldr	r3, [r3, #16]
    3722:	4945      	ldr	r1, [pc, #276]	; (3838 <vHandleAppOtaClient+0x2a8>)
    3724:	435a      	muls	r2, r3
    3726:	4b45      	ldr	r3, [pc, #276]	; (383c <vHandleAppOtaClient+0x2ac>)
    3728:	1a5b      	subs	r3, r3, r1
    372a:	eb03 1382 	add.w	r3, r3, r2, lsl #6
    372e:	2110      	movs	r1, #16
    3730:	aa2b      	add	r2, sp, #172	; 0xac
    3732:	a82c      	add	r0, sp, #176	; 0xb0
    3734:	932b      	str	r3, [sp, #172]	; 0xac
    3736:	f002 ffb5 	bl	66a4 <OTA_PullImageChunk>
    373a:	4a41      	ldr	r2, [pc, #260]	; (3840 <vHandleAppOtaClient+0x2b0>)
    373c:	962a      	str	r6, [sp, #168]	; 0xa8
    373e:	9b2a      	ldr	r3, [sp, #168]	; 0xa8
    3740:	2b0f      	cmp	r3, #15
    3742:	dd29      	ble.n	3798 <vHandleAppOtaClient+0x208>
    3744:	2300      	movs	r3, #0
    3746:	932a      	str	r3, [sp, #168]	; 0xa8
    3748:	9b2a      	ldr	r3, [sp, #168]	; 0xa8
    374a:	2b0f      	cmp	r3, #15
    374c:	dd2f      	ble.n	37ae <vHandleAppOtaClient+0x21e>
    374e:	2300      	movs	r3, #0
    3750:	f884 3100 	strb.w	r3, [r4, #256]	; 0x100
    3754:	e052      	b.n	37fc <vHandleAppOtaClient+0x26c>
    3756:	2004      	movs	r0, #4
    3758:	7008      	strb	r0, [r1, #0]
    375a:	601a      	str	r2, [r3, #0]
    375c:	f640 31b8 	movw	r1, #3000	; 0xbb8
    3760:	f44f 60fa 	mov.w	r0, #2000	; 0x7d0
    3764:	e72f      	b.n	35c6 <vHandleAppOtaClient+0x36>
    3766:	700a      	strb	r2, [r1, #0]
    3768:	e7f7      	b.n	375a <vHandleAppOtaClient+0x1ca>
    376a:	2106      	movs	r1, #6
    376c:	7011      	strb	r1, [r2, #0]
    376e:	f44f 60fa 	mov.w	r0, #2000	; 0x7d0
    3772:	2200      	movs	r2, #0
    3774:	f640 31b8 	movw	r1, #3000	; 0xbb8
    3778:	601a      	str	r2, [r3, #0]
    377a:	f003 fa3f 	bl	6bfc <RND_u32GetRand>
    377e:	4b29      	ldr	r3, [pc, #164]	; (3824 <vHandleAppOtaClient+0x294>)
    3780:	6028      	str	r0, [r5, #0]
    3782:	2201      	movs	r2, #1
    3784:	701a      	strb	r2, [r3, #0]
    3786:	e738      	b.n	35fa <vHandleAppOtaClient+0x6a>
    3788:	f640 31b8 	movw	r1, #3000	; 0xbb8
    378c:	f44f 60fa 	mov.w	r0, #2000	; 0x7d0
    3790:	f003 fa34 	bl	6bfc <RND_u32GetRand>
    3794:	6030      	str	r0, [r6, #0]
    3796:	e77c      	b.n	3692 <vHandleAppOtaClient+0x102>
    3798:	992a      	ldr	r1, [sp, #168]	; 0xa8
    379a:	9b2a      	ldr	r3, [sp, #168]	; 0xa8
    379c:	5c51      	ldrb	r1, [r2, r1]
    379e:	a834      	add	r0, sp, #208	; 0xd0
    37a0:	4403      	add	r3, r0
    37a2:	f803 1c10 	strb.w	r1, [r3, #-16]
    37a6:	9b2a      	ldr	r3, [sp, #168]	; 0xa8
    37a8:	3301      	adds	r3, #1
    37aa:	932a      	str	r3, [sp, #168]	; 0xa8
    37ac:	e7c7      	b.n	373e <vHandleAppOtaClient+0x1ae>
    37ae:	9a2a      	ldr	r2, [sp, #168]	; 0xa8
    37b0:	9b2a      	ldr	r3, [sp, #168]	; 0xa8
    37b2:	a934      	add	r1, sp, #208	; 0xd0
    37b4:	440a      	add	r2, r1
    37b6:	440b      	add	r3, r1
    37b8:	f812 2c10 	ldrb.w	r2, [r2, #-16]
    37bc:	f813 3c20 	ldrb.w	r3, [r3, #-32]
    37c0:	429a      	cmp	r2, r3
    37c2:	d01d      	beq.n	3800 <vHandleAppOtaClient+0x270>
    37c4:	2300      	movs	r3, #0
    37c6:	702b      	strb	r3, [r5, #0]
    37c8:	2395      	movs	r3, #149	; 0x95
    37ca:	f8d4 210c 	ldr.w	r2, [r4, #268]	; 0x10c
    37ce:	f884 3100 	strb.w	r3, [r4, #256]	; 0x100
    37d2:	f88d 30b8 	strb.w	r3, [sp, #184]	; 0xb8
    37d6:	2307      	movs	r3, #7
    37d8:	922c      	str	r2, [sp, #176]	; 0xb0
    37da:	f88d 30c0 	strb.w	r3, [sp, #192]	; 0xc0
    37de:	f8d4 2110 	ldr.w	r2, [r4, #272]	; 0x110
    37e2:	f8b4 304c 	ldrh.w	r3, [r4, #76]	; 0x4c
    37e6:	922d      	str	r2, [sp, #180]	; 0xb4
    37e8:	f8ad 30c8 	strh.w	r3, [sp, #200]	; 0xc8
    37ec:	f7fd fa3e 	bl	c6c <app_u8GetDeviceEndpoint>
    37f0:	f894 10a1 	ldrb.w	r1, [r4, #161]	; 0xa1
    37f4:	ab2c      	add	r3, sp, #176	; 0xb0
    37f6:	aa30      	add	r2, sp, #192	; 0xc0
    37f8:	f007 fe5c 	bl	b4b4 <eOTA_ClientUpgradeEndRequest>
    37fc:	b034      	add	sp, #208	; 0xd0
    37fe:	bd70      	pop	{r4, r5, r6, pc}
    3800:	9b2a      	ldr	r3, [sp, #168]	; 0xa8
    3802:	3301      	adds	r3, #1
    3804:	e79f      	b.n	3746 <vHandleAppOtaClient+0x1b6>
    3806:	bf00      	nop
    3808:	040158d8 	.word	0x040158d8
    380c:	04015817 	.word	0x04015817
    3810:	040158dc 	.word	0x040158dc
    3814:	040158c0 	.word	0x040158c0
    3818:	040158e0 	.word	0x040158e0
    381c:	0003a980 	.word	0x0003a980
    3820:	0001d4c0 	.word	0x0001d4c0
    3824:	04015815 	.word	0x04015815
    3828:	04015816 	.word	0x04015816
    382c:	04015818 	.word	0x04015818
    3830:	04015814 	.word	0x04015814
    3834:	04015e14 	.word	0x04015e14
    3838:	00000000 	.word	0x00000000
    383c:	000001b0 	.word	0x000001b0
    3840:	000001b0 	.word	0x000001b0

00003844 <ZQ_vQueueCreate>:
    3844:	b538      	push	{r3, r4, r5, lr}
    3846:	4604      	mov	r4, r0
    3848:	4615      	mov	r5, r2
    384a:	f003 f9e6 	bl	6c1a <ListInit>
    384e:	60e5      	str	r5, [r4, #12]
    3850:	bd38      	pop	{r3, r4, r5, pc}

00003852 <ZQ_bQueueSend>:
    3852:	b570      	push	{r4, r5, r6, lr}
    3854:	4604      	mov	r4, r0
    3856:	4675      	mov	r5, lr
    3858:	460e      	mov	r6, r1
    385a:	f000 f9a5 	bl	3ba8 <OSA_InterruptDisable>
    385e:	4620      	mov	r0, r4
    3860:	f003 fa1a 	bl	6c98 <ListGetAvailable>
    3864:	b908      	cbnz	r0, 386a <ZQ_bQueueSend+0x18>
    3866:	8963      	ldrh	r3, [r4, #10]
    3868:	b9a3      	cbnz	r3, 3894 <ZQ_bQueueSend+0x42>
    386a:	462a      	mov	r2, r5
    386c:	68e0      	ldr	r0, [r4, #12]
    386e:	2100      	movs	r1, #0
    3870:	f003 fa5e 	bl	6d30 <MEM_BufferAllocWithId>
    3874:	4605      	mov	r5, r0
    3876:	b168      	cbz	r0, 3894 <ZQ_bQueueSend+0x42>
    3878:	68e2      	ldr	r2, [r4, #12]
    387a:	4631      	mov	r1, r6
    387c:	f003 f824 	bl	68c8 <FLib_MemCpy>
    3880:	4629      	mov	r1, r5
    3882:	4620      	mov	r0, r4
    3884:	f003 fa0c 	bl	6ca0 <ListAddTailMsg>
    3888:	f018 ff6c 	bl	1c764 <PWRM_eStartActivity>
    388c:	f000 f98a 	bl	3ba4 <OSA_InterruptEnable>
    3890:	2001      	movs	r0, #1
    3892:	bd70      	pop	{r4, r5, r6, pc}
    3894:	f000 f986 	bl	3ba4 <OSA_InterruptEnable>
    3898:	2000      	movs	r0, #0
    389a:	e7fa      	b.n	3892 <ZQ_bQueueSend+0x40>

0000389c <ZQ_bQueueReceive>:
    389c:	b570      	push	{r4, r5, r6, lr}
    389e:	4605      	mov	r5, r0
    38a0:	460e      	mov	r6, r1
    38a2:	f000 f981 	bl	3ba8 <OSA_InterruptDisable>
    38a6:	682c      	ldr	r4, [r5, #0]
    38a8:	b18c      	cbz	r4, 38ce <ZQ_bQueueReceive+0x32>
    38aa:	4628      	mov	r0, r5
    38ac:	f003 f9fb 	bl	6ca6 <ListRemoveHeadMsg>
    38b0:	68ea      	ldr	r2, [r5, #12]
    38b2:	4601      	mov	r1, r0
    38b4:	4604      	mov	r4, r0
    38b6:	4630      	mov	r0, r6
    38b8:	f003 f806 	bl	68c8 <FLib_MemCpy>
    38bc:	4620      	mov	r0, r4
    38be:	f003 f9f8 	bl	6cb2 <MSG_Free>
    38c2:	f018 ff54 	bl	1c76e <PWRM_eFinishActivity>
    38c6:	f000 f96d 	bl	3ba4 <OSA_InterruptEnable>
    38ca:	2001      	movs	r0, #1
    38cc:	bd70      	pop	{r4, r5, r6, pc}
    38ce:	f000 f969 	bl	3ba4 <OSA_InterruptEnable>
    38d2:	4620      	mov	r0, r4
    38d4:	e7fa      	b.n	38cc <ZQ_bQueueReceive+0x30>

000038d6 <ZQ_u32QueueGetQueueSize>:
    38d6:	8940      	ldrh	r0, [r0, #10]
    38d8:	4770      	bx	lr

000038da <ZQ_u32QueueGetQueueMessageWaiting>:
    38da:	8900      	ldrh	r0, [r0, #8]
    38dc:	4770      	bx	lr
    38de:	Address 0x000038de is out of bounds.


000038e0 <ZTIMER_eInit>:
    38e0:	b510      	push	{r4, lr}
    38e2:	b158      	cbz	r0, 38fc <ZTIMER_eInit+0x1c>
    38e4:	b151      	cbz	r1, 38fc <ZTIMER_eInit+0x1c>
    38e6:	4a06      	ldr	r2, [pc, #24]	; (3900 <ZTIMER_eInit+0x20>)
    38e8:	2400      	movs	r4, #0
    38ea:	7111      	strb	r1, [r2, #4]
    38ec:	6090      	str	r0, [r2, #8]
    38ee:	6014      	str	r4, [r2, #0]
    38f0:	010a      	lsls	r2, r1, #4
    38f2:	4621      	mov	r1, r4
    38f4:	f025 ffaa 	bl	2984c <memset>
    38f8:	4620      	mov	r0, r4
    38fa:	bd10      	pop	{r4, pc}
    38fc:	2001      	movs	r0, #1
    38fe:	e7fc      	b.n	38fa <ZTIMER_eInit+0x1a>
    3900:	040158e4 	.word	0x040158e4

00003904 <ZTIMER_vTask>:
    3904:	e92d 41f3 	stmdb	sp!, {r0, r1, r4, r5, r6, r7, r8, lr}
    3908:	4c21      	ldr	r4, [pc, #132]	; (3990 <ZTIMER_vTask+0x8c>)
    390a:	6823      	ldr	r3, [r4, #0]
    390c:	9300      	str	r3, [sp, #0]
    390e:	f000 f93d 	bl	3b8c <OSA_TimeGetMsec>
    3912:	9001      	str	r0, [sp, #4]
    3914:	9a01      	ldr	r2, [sp, #4]
    3916:	9b00      	ldr	r3, [sp, #0]
    3918:	429a      	cmp	r2, r3
    391a:	d30b      	bcc.n	3934 <ZTIMER_vTask+0x30>
    391c:	9b01      	ldr	r3, [sp, #4]
    391e:	9a00      	ldr	r2, [sp, #0]
    3920:	1a9b      	subs	r3, r3, r2
    3922:	6023      	str	r3, [r4, #0]
    3924:	6823      	ldr	r3, [r4, #0]
    3926:	2b00      	cmp	r3, #0
    3928:	d12f      	bne.n	398a <ZTIMER_vTask+0x86>
    392a:	9b01      	ldr	r3, [sp, #4]
    392c:	6023      	str	r3, [r4, #0]
    392e:	b002      	add	sp, #8
    3930:	e8bd 81f0 	ldmia.w	sp!, {r4, r5, r6, r7, r8, pc}
    3934:	9b00      	ldr	r3, [sp, #0]
    3936:	43db      	mvns	r3, r3
    3938:	6023      	str	r3, [r4, #0]
    393a:	9a01      	ldr	r2, [sp, #4]
    393c:	6823      	ldr	r3, [r4, #0]
    393e:	4413      	add	r3, r2
    3940:	e7ef      	b.n	3922 <ZTIMER_vTask+0x1e>
    3942:	68a2      	ldr	r2, [r4, #8]
    3944:	eb02 1506 	add.w	r5, r2, r6, lsl #4
    3948:	0131      	lsls	r1, r6, #4
    394a:	786b      	ldrb	r3, [r5, #1]
    394c:	2b02      	cmp	r3, #2
    394e:	d106      	bne.n	395e <ZTIMER_vTask+0x5a>
    3950:	686b      	ldr	r3, [r5, #4]
    3952:	6820      	ldr	r0, [r4, #0]
    3954:	4283      	cmp	r3, r0
    3956:	d907      	bls.n	3968 <ZTIMER_vTask+0x64>
    3958:	6822      	ldr	r2, [r4, #0]
    395a:	1a9b      	subs	r3, r3, r2
    395c:	606b      	str	r3, [r5, #4]
    395e:	3601      	adds	r6, #1
    3960:	7923      	ldrb	r3, [r4, #4]
    3962:	429e      	cmp	r6, r3
    3964:	dbed      	blt.n	3942 <ZTIMER_vTask+0x3e>
    3966:	e7e0      	b.n	392a <ZTIMER_vTask+0x26>
    3968:	f3ef 8810 	mrs	r8, PRIMASK
    396c:	b672      	cpsid	i
    396e:	706f      	strb	r7, [r5, #1]
    3970:	5c53      	ldrb	r3, [r2, r1]
    3972:	07db      	lsls	r3, r3, #31
    3974:	d501      	bpl.n	397a <ZTIMER_vTask+0x76>
    3976:	f018 fefa 	bl	1c76e <PWRM_eFinishActivity>
    397a:	f388 8810 	msr	PRIMASK, r8
    397e:	68eb      	ldr	r3, [r5, #12]
    3980:	2b00      	cmp	r3, #0
    3982:	d0ec      	beq.n	395e <ZTIMER_vTask+0x5a>
    3984:	68a8      	ldr	r0, [r5, #8]
    3986:	4798      	blx	r3
    3988:	e7e9      	b.n	395e <ZTIMER_vTask+0x5a>
    398a:	2600      	movs	r6, #0
    398c:	2703      	movs	r7, #3
    398e:	e7e7      	b.n	3960 <ZTIMER_vTask+0x5c>
    3990:	040158e4 	.word	0x040158e4

00003994 <ZTIMER_eOpen>:
    3994:	b5f0      	push	{r4, r5, r6, r7, lr}
    3996:	4607      	mov	r7, r0
    3998:	480b      	ldr	r0, [pc, #44]	; (39c8 <ZTIMER_eOpen+0x34>)
    399a:	f890 c004 	ldrb.w	ip, [r0, #4]
    399e:	6886      	ldr	r6, [r0, #8]
    39a0:	2500      	movs	r5, #0
    39a2:	45ac      	cmp	ip, r5
    39a4:	dc01      	bgt.n	39aa <ZTIMER_eOpen+0x16>
    39a6:	2001      	movs	r0, #1
    39a8:	e00a      	b.n	39c0 <ZTIMER_eOpen+0x2c>
    39aa:	4634      	mov	r4, r6
    39ac:	7870      	ldrb	r0, [r6, #1]
    39ae:	3610      	adds	r6, #16
    39b0:	b938      	cbnz	r0, 39c2 <ZTIMER_eOpen+0x2e>
    39b2:	7023      	strb	r3, [r4, #0]
    39b4:	2301      	movs	r3, #1
    39b6:	e9c4 2102 	strd	r2, r1, [r4, #8]
    39ba:	6060      	str	r0, [r4, #4]
    39bc:	7063      	strb	r3, [r4, #1]
    39be:	703d      	strb	r5, [r7, #0]
    39c0:	bdf0      	pop	{r4, r5, r6, r7, pc}
    39c2:	3501      	adds	r5, #1
    39c4:	e7ed      	b.n	39a2 <ZTIMER_eOpen+0xe>
    39c6:	bf00      	nop
    39c8:	040158e4 	.word	0x040158e4

000039cc <ZTIMER_eStart>:
    39cc:	b5f8      	push	{r3, r4, r5, r6, r7, lr}
    39ce:	4c12      	ldr	r4, [pc, #72]	; (3a18 <ZTIMER_eStart+0x4c>)
    39d0:	7923      	ldrb	r3, [r4, #4]
    39d2:	4283      	cmp	r3, r0
    39d4:	460d      	mov	r5, r1
    39d6:	d31c      	bcc.n	3a12 <ZTIMER_eStart+0x46>
    39d8:	68a2      	ldr	r2, [r4, #8]
    39da:	0106      	lsls	r6, r0, #4
    39dc:	eb02 1000 	add.w	r0, r2, r0, lsl #4
    39e0:	7843      	ldrb	r3, [r0, #1]
    39e2:	b1b3      	cbz	r3, 3a12 <ZTIMER_eStart+0x46>
    39e4:	b1a9      	cbz	r1, 3a12 <ZTIMER_eStart+0x46>
    39e6:	f3ef 8710 	mrs	r7, PRIMASK
    39ea:	b672      	cpsid	i
    39ec:	68a2      	ldr	r2, [r4, #8]
    39ee:	1993      	adds	r3, r2, r6
    39f0:	5d92      	ldrb	r2, [r2, r6]
    39f2:	07d2      	lsls	r2, r2, #31
    39f4:	d504      	bpl.n	3a00 <ZTIMER_eStart+0x34>
    39f6:	785b      	ldrb	r3, [r3, #1]
    39f8:	2b02      	cmp	r3, #2
    39fa:	d001      	beq.n	3a00 <ZTIMER_eStart+0x34>
    39fc:	f018 feb2 	bl	1c764 <PWRM_eStartActivity>
    3a00:	68a3      	ldr	r3, [r4, #8]
    3a02:	4433      	add	r3, r6
    3a04:	2202      	movs	r2, #2
    3a06:	605d      	str	r5, [r3, #4]
    3a08:	705a      	strb	r2, [r3, #1]
    3a0a:	f387 8810 	msr	PRIMASK, r7
    3a0e:	2000      	movs	r0, #0
    3a10:	bdf8      	pop	{r3, r4, r5, r6, r7, pc}
    3a12:	2001      	movs	r0, #1
    3a14:	e7fc      	b.n	3a10 <ZTIMER_eStart+0x44>
    3a16:	bf00      	nop
    3a18:	040158e4 	.word	0x040158e4

00003a1c <ZTIMER_eStop>:
    3a1c:	b570      	push	{r4, r5, r6, lr}
    3a1e:	4c10      	ldr	r4, [pc, #64]	; (3a60 <ZTIMER_eStop+0x44>)
    3a20:	7923      	ldrb	r3, [r4, #4]
    3a22:	4283      	cmp	r3, r0
    3a24:	d31a      	bcc.n	3a5c <ZTIMER_eStop+0x40>
    3a26:	68a3      	ldr	r3, [r4, #8]
    3a28:	0105      	lsls	r5, r0, #4
    3a2a:	eb03 1000 	add.w	r0, r3, r0, lsl #4
    3a2e:	7843      	ldrb	r3, [r0, #1]
    3a30:	b1a3      	cbz	r3, 3a5c <ZTIMER_eStop+0x40>
    3a32:	f3ef 8610 	mrs	r6, PRIMASK
    3a36:	b672      	cpsid	i
    3a38:	68a3      	ldr	r3, [r4, #8]
    3a3a:	195a      	adds	r2, r3, r5
    3a3c:	5d5b      	ldrb	r3, [r3, r5]
    3a3e:	07db      	lsls	r3, r3, #31
    3a40:	d504      	bpl.n	3a4c <ZTIMER_eStop+0x30>
    3a42:	7853      	ldrb	r3, [r2, #1]
    3a44:	2b02      	cmp	r3, #2
    3a46:	d101      	bne.n	3a4c <ZTIMER_eStop+0x30>
    3a48:	f018 fe91 	bl	1c76e <PWRM_eFinishActivity>
    3a4c:	68a3      	ldr	r3, [r4, #8]
    3a4e:	442b      	add	r3, r5
    3a50:	2201      	movs	r2, #1
    3a52:	705a      	strb	r2, [r3, #1]
    3a54:	f386 8810 	msr	PRIMASK, r6
    3a58:	2000      	movs	r0, #0
    3a5a:	bd70      	pop	{r4, r5, r6, pc}
    3a5c:	2001      	movs	r0, #1
    3a5e:	e7fc      	b.n	3a5a <ZTIMER_eStop+0x3e>
    3a60:	040158e4 	.word	0x040158e4

00003a64 <ZTIMER_eGetState>:
    3a64:	4b02      	ldr	r3, [pc, #8]	; (3a70 <ZTIMER_eGetState+0xc>)
    3a66:	689b      	ldr	r3, [r3, #8]
    3a68:	eb03 1300 	add.w	r3, r3, r0, lsl #4
    3a6c:	7858      	ldrb	r0, [r3, #1]
    3a6e:	4770      	bx	lr
    3a70:	040158e4 	.word	0x040158e4

00003a74 <ZPS_pau8GetBdbDistributedLinkKey>:
    3a74:	4800      	ldr	r0, [pc, #0]	; (3a78 <ZPS_pau8GetBdbDistributedLinkKey+0x4>)
    3a76:	4770      	bx	lr
    3a78:	04015560 	.word	0x04015560

00003a7c <OSA_EnableIRQGlobal>:
    3a7c:	4a03      	ldr	r2, [pc, #12]	; (3a8c <OSA_EnableIRQGlobal+0x10>)
    3a7e:	6813      	ldr	r3, [r2, #0]
    3a80:	b11b      	cbz	r3, 3a8a <OSA_EnableIRQGlobal+0xe>
    3a82:	3b01      	subs	r3, #1
    3a84:	6013      	str	r3, [r2, #0]
    3a86:	b903      	cbnz	r3, 3a8a <OSA_EnableIRQGlobal+0xe>
    3a88:	b662      	cpsie	i
    3a8a:	4770      	bx	lr
    3a8c:	040158f0 	.word	0x040158f0

00003a90 <OSA_DisableIRQGlobal>:
    3a90:	b672      	cpsid	i
    3a92:	4a02      	ldr	r2, [pc, #8]	; (3a9c <OSA_DisableIRQGlobal+0xc>)
    3a94:	6813      	ldr	r3, [r2, #0]
    3a96:	3301      	adds	r3, #1
    3a98:	6013      	str	r3, [r2, #0]
    3a9a:	4770      	bx	lr
    3a9c:	040158f0 	.word	0x040158f0

00003aa0 <task_init>:
    3aa0:	4b0c      	ldr	r3, [pc, #48]	; (3ad4 <task_init+0x34>)
    3aa2:	2200      	movs	r2, #0
    3aa4:	f8c3 2084 	str.w	r2, [r3, #132]	; 0x84
    3aa8:	f103 0278 	add.w	r2, r3, #120	; 0x78
    3aac:	671a      	str	r2, [r3, #112]	; 0x70
    3aae:	f103 0264 	add.w	r2, r3, #100	; 0x64
    3ab2:	65da      	str	r2, [r3, #92]	; 0x5c
    3ab4:	f103 0250 	add.w	r2, r3, #80	; 0x50
    3ab8:	649a      	str	r2, [r3, #72]	; 0x48
    3aba:	f103 023c 	add.w	r2, r3, #60	; 0x3c
    3abe:	635a      	str	r2, [r3, #52]	; 0x34
    3ac0:	f103 0228 	add.w	r2, r3, #40	; 0x28
    3ac4:	621a      	str	r2, [r3, #32]
    3ac6:	f103 0214 	add.w	r2, r3, #20
    3aca:	60da      	str	r2, [r3, #12]
    3acc:	4a02      	ldr	r2, [pc, #8]	; (3ad8 <task_init+0x38>)
    3ace:	6013      	str	r3, [r2, #0]
    3ad0:	4770      	bx	lr
    3ad2:	bf00      	nop
    3ad4:	04015900 	.word	0x04015900
    3ad8:	040158fc 	.word	0x040158fc

00003adc <OSA_TaskCreate>:
    3adc:	4a1d      	ldr	r2, [pc, #116]	; (3b54 <OSA_TaskCreate+0x78>)
    3ade:	4603      	mov	r3, r0
    3ae0:	6810      	ldr	r0, [r2, #0]
    3ae2:	b530      	push	{r4, r5, lr}
    3ae4:	b188      	cbz	r0, 3b0a <OSA_TaskCreate+0x2e>
    3ae6:	68c4      	ldr	r4, [r0, #12]
    3ae8:	6014      	str	r4, [r2, #0]
    3aea:	681a      	ldr	r2, [r3, #0]
    3aec:	6002      	str	r2, [r0, #0]
    3aee:	2201      	movs	r2, #1
    3af0:	7102      	strb	r2, [r0, #4]
    3af2:	889c      	ldrh	r4, [r3, #4]
    3af4:	6081      	str	r1, [r0, #8]
    3af6:	4918      	ldr	r1, [pc, #96]	; (3b58 <OSA_TaskCreate+0x7c>)
    3af8:	80c4      	strh	r4, [r0, #6]
    3afa:	2300      	movs	r3, #0
    3afc:	e9c0 3303 	strd	r3, r3, [r0, #12]
    3b00:	680b      	ldr	r3, [r1, #0]
    3b02:	b91b      	cbnz	r3, 3b0c <OSA_TaskCreate+0x30>
    3b04:	e9c0 0003 	strd	r0, r0, [r0, #12]
    3b08:	6008      	str	r0, [r1, #0]
    3b0a:	bd30      	pop	{r4, r5, pc}
    3b0c:	88dd      	ldrh	r5, [r3, #6]
    3b0e:	691a      	ldr	r2, [r3, #16]
    3b10:	42a5      	cmp	r5, r4
    3b12:	d306      	bcc.n	3b22 <OSA_TaskCreate+0x46>
    3b14:	e9c0 3203 	strd	r3, r2, [r0, #12]
    3b18:	691a      	ldr	r2, [r3, #16]
    3b1a:	6008      	str	r0, [r1, #0]
    3b1c:	60d0      	str	r0, [r2, #12]
    3b1e:	6118      	str	r0, [r3, #16]
    3b20:	e7f3      	b.n	3b0a <OSA_TaskCreate+0x2e>
    3b22:	88d1      	ldrh	r1, [r2, #6]
    3b24:	42a1      	cmp	r1, r4
    3b26:	d805      	bhi.n	3b34 <OSA_TaskCreate+0x58>
    3b28:	e9c0 3203 	strd	r3, r2, [r0, #12]
    3b2c:	691a      	ldr	r2, [r3, #16]
    3b2e:	60d0      	str	r0, [r2, #12]
    3b30:	6118      	str	r0, [r3, #16]
    3b32:	e7ea      	b.n	3b0a <OSA_TaskCreate+0x2e>
    3b34:	68da      	ldr	r2, [r3, #12]
    3b36:	4293      	cmp	r3, r2
    3b38:	d0e7      	beq.n	3b0a <OSA_TaskCreate+0x2e>
    3b3a:	88d1      	ldrh	r1, [r2, #6]
    3b3c:	42a1      	cmp	r1, r4
    3b3e:	d306      	bcc.n	3b4e <OSA_TaskCreate+0x72>
    3b40:	6913      	ldr	r3, [r2, #16]
    3b42:	6103      	str	r3, [r0, #16]
    3b44:	6913      	ldr	r3, [r2, #16]
    3b46:	60c2      	str	r2, [r0, #12]
    3b48:	60d8      	str	r0, [r3, #12]
    3b4a:	6110      	str	r0, [r2, #16]
    3b4c:	e7dd      	b.n	3b0a <OSA_TaskCreate+0x2e>
    3b4e:	68d2      	ldr	r2, [r2, #12]
    3b50:	e7f1      	b.n	3b36 <OSA_TaskCreate+0x5a>
    3b52:	bf00      	nop
    3b54:	040158fc 	.word	0x040158fc
    3b58:	0401598c 	.word	0x0401598c

00003b5c <OSA_TimeInit>:
    3b5c:	4b09      	ldr	r3, [pc, #36]	; (3b84 <OSA_TimeInit+0x28>)
    3b5e:	681a      	ldr	r2, [r3, #0]
    3b60:	f022 0201 	bic.w	r2, r2, #1
    3b64:	601a      	str	r2, [r3, #0]
    3b66:	4a08      	ldr	r2, [pc, #32]	; (3b88 <OSA_TimeInit+0x2c>)
    3b68:	f44f 717a 	mov.w	r1, #1000	; 0x3e8
    3b6c:	6812      	ldr	r2, [r2, #0]
    3b6e:	fbb2 f2f1 	udiv	r2, r2, r1
    3b72:	3a01      	subs	r2, #1
    3b74:	605a      	str	r2, [r3, #4]
    3b76:	2200      	movs	r2, #0
    3b78:	609a      	str	r2, [r3, #8]
    3b7a:	681a      	ldr	r2, [r3, #0]
    3b7c:	f042 0207 	orr.w	r2, r2, #7
    3b80:	601a      	str	r2, [r3, #0]
    3b82:	4770      	bx	lr
    3b84:	e000e010 	.word	0xe000e010
    3b88:	040155a0 	.word	0x040155a0

00003b8c <OSA_TimeGetMsec>:
    3b8c:	4b01      	ldr	r3, [pc, #4]	; (3b94 <OSA_TimeGetMsec+0x8>)
    3b8e:	6818      	ldr	r0, [r3, #0]
    3b90:	4770      	bx	lr
    3b92:	bf00      	nop
