
../../../Binaries/ColorSceneController_NtagIcode_Ota_RamOpt_OM15082/ColorSceneController_NtagIcode_Ota_RamOpt_OM15082.axf:     file format elf32-littlearm


Disassembly of section .text:

00000200 <ResetISR>:
     200:	4804      	ldr	r0, [pc, #16]	; (214 <masterboot+0x4>)
     202:	6800      	ldr	r0, [r0, #0]
     204:	0000      	movs	r0, r0
     206:	d003      	beq.n	210 <masterboot>
     208:	4903      	ldr	r1, [pc, #12]	; (218 <masterboot+0x8>)
     20a:	6809      	ldr	r1, [r1, #0]
     20c:	468d      	mov	sp, r1
     20e:	4700      	bx	r0

00000210 <masterboot>:
     210:	4802      	ldr	r0, [pc, #8]	; (21c <masterboot+0xc>)
     212:	4700      	bx	r0
     214:	40000804 	.word	0x40000804
     218:	40000808 	.word	0x40000808
     21c:	000002b3 	.word	0x000002b3

00000220 <ADC_SEQA_IRQHandler>:
     220:	e7fe      	b.n	220 <ADC_SEQA_IRQHandler>

00000222 <NMI_Handler>:
     222:	e7fe      	b.n	222 <NMI_Handler>
     224:	e7fe      	b.n	224 <NMI_Handler+0x2>
     226:	e7fe      	b.n	226 <NMI_Handler+0x4>
     228:	e7fe      	b.n	228 <NMI_Handler+0x6>
     22a:	e7fe      	b.n	22a <NMI_Handler+0x8>

0000022c <SVC_Handler>:
     22c:	e7fe      	b.n	22c <SVC_Handler>

0000022e <DebugMon_Handler>:
     22e:	e7fe      	b.n	22e <DebugMon_Handler>

00000230 <PendSV_Handler>:
     230:	e7fe      	b.n	230 <PendSV_Handler>
     232:	e7fe      	b.n	232 <PendSV_Handler+0x2>

00000234 <MAC_154_IRQHandler>:
     234:	b508      	push	{r3, lr}
     236:	4b06      	ldr	r3, [pc, #24]	; (250 <MAC_154_IRQHandler+0x1c>)
     238:	b113      	cbz	r3, 240 <MAC_154_IRQHandler+0xc>
     23a:	f02a f839 	bl	2a2b0 <vMMAC_IntHandlerBbc>
     23e:	bd08      	pop	{r3, pc}
     240:	4b04      	ldr	r3, [pc, #16]	; (254 <MAC_154_IRQHandler+0x20>)
     242:	b113      	cbz	r3, 24a <MAC_154_IRQHandler+0x16>
     244:	f02e ff8c 	bl	2f160 <__ZIGBEE_MAC_IRQHandler_veneer>
     248:	e7f9      	b.n	23e <MAC_154_IRQHandler+0xa>
     24a:	f7ff ffe9 	bl	220 <ADC_SEQA_IRQHandler>
     24e:	bf00      	nop
     250:	0002a2b1 	.word	0x0002a2b1
     254:	03006b65 	.word	0x03006b65

00000258 <MODEM_154_IRQHandler>:
     258:	b508      	push	{r3, lr}
     25a:	4b06      	ldr	r3, [pc, #24]	; (274 <MODEM_154_IRQHandler+0x1c>)
     25c:	b113      	cbz	r3, 264 <MODEM_154_IRQHandler+0xc>
     25e:	f02a f83f 	bl	2a2e0 <vMMAC_IntHandlerPhy>
     262:	bd08      	pop	{r3, pc}
     264:	4b04      	ldr	r3, [pc, #16]	; (278 <MODEM_154_IRQHandler+0x20>)
     266:	b113      	cbz	r3, 26e <MODEM_154_IRQHandler+0x16>
     268:	f02e ff7e 	bl	2f168 <__ZIGBEE_MODEM_IRQHandler_veneer>
     26c:	e7f9      	b.n	262 <MODEM_154_IRQHandler+0xa>
     26e:	f7ff ffd7 	bl	220 <ADC_SEQA_IRQHandler>
     272:	bf00      	nop
     274:	0002a2e1 	.word	0x0002a2e1
     278:	03000151 	.word	0x03000151

0000027c <data_init>:
     27c:	440a      	add	r2, r1
     27e:	4291      	cmp	r1, r2
     280:	d205      	bcs.n	28e <data_init+0x12>
     282:	1a40      	subs	r0, r0, r1
     284:	580b      	ldr	r3, [r1, r0]
     286:	f841 3b04 	str.w	r3, [r1], #4
     28a:	428a      	cmp	r2, r1
     28c:	d8fa      	bhi.n	284 <data_init+0x8>
     28e:	4770      	bx	lr

00000290 <bss_init>:
     290:	1842      	adds	r2, r0, r1
     292:	4290      	cmp	r0, r2
     294:	4603      	mov	r3, r0
     296:	d20b      	bcs.n	2b0 <bss_init+0x20>
     298:	3901      	subs	r1, #1
     29a:	f021 0103 	bic.w	r1, r1, #3
     29e:	3104      	adds	r1, #4
     2a0:	3301      	adds	r3, #1
     2a2:	429a      	cmp	r2, r3
     2a4:	bf2c      	ite	cs
     2a6:	460a      	movcs	r2, r1
     2a8:	2204      	movcc	r2, #4
     2aa:	2100      	movs	r1, #0
     2ac:	f02e bd10 	b.w	2ecd0 <memset>
     2b0:	4770      	bx	lr

000002b2 <ResetISR2>:
     2b2:	b538      	push	{r3, r4, r5, lr}
     2b4:	4b2f      	ldr	r3, [pc, #188]	; (374 <HEAP_SIZE+0x80>)
     2b6:	b98b      	cbnz	r3, 2dc <ResetISR2+0x2a>
     2b8:	4c2f      	ldr	r4, [pc, #188]	; (378 <HEAP_SIZE+0x84>)
     2ba:	4d30      	ldr	r5, [pc, #192]	; (37c <HEAP_SIZE+0x88>)
     2bc:	42ac      	cmp	r4, r5
     2be:	d34a      	bcc.n	356 <HEAP_SIZE+0x62>
     2c0:	4c2f      	ldr	r4, [pc, #188]	; (380 <HEAP_SIZE+0x8c>)
     2c2:	4d30      	ldr	r5, [pc, #192]	; (384 <HEAP_SIZE+0x90>)
     2c4:	42ac      	cmp	r4, r5
     2c6:	d34d      	bcc.n	364 <HEAP_SIZE+0x70>
     2c8:	4b2f      	ldr	r3, [pc, #188]	; (388 <HEAP_SIZE+0x94>)
     2ca:	4a30      	ldr	r2, [pc, #192]	; (38c <HEAP_SIZE+0x98>)
     2cc:	601a      	str	r2, [r3, #0]
     2ce:	4b30      	ldr	r3, [pc, #192]	; (390 <HEAP_SIZE+0x9c>)
     2d0:	b10b      	cbz	r3, 2d6 <ResetISR2+0x24>
     2d2:	f005 fd27 	bl	5d24 <SystemInit>
     2d6:	f005 fb33 	bl	5940 <main>
     2da:	e7fe      	b.n	2da <ResetISR2+0x28>
     2dc:	4b2d      	ldr	r3, [pc, #180]	; (394 <HEAP_SIZE+0xa0>)
     2de:	6f1c      	ldr	r4, [r3, #112]	; 0x70
     2e0:	f8d3 50b0 	ldr.w	r5, [r3, #176]	; 0xb0
     2e4:	4b2c      	ldr	r3, [pc, #176]	; (398 <HEAP_SIZE+0xa4>)
     2e6:	f004 047f 	and.w	r4, r4, #127	; 0x7f
     2ea:	4798      	blx	r3
     2ec:	2c40      	cmp	r4, #64	; 0x40
     2ee:	d1e3      	bne.n	2b8 <ResetISR2+0x6>
     2f0:	4b2a      	ldr	r3, [pc, #168]	; (39c <HEAP_SIZE+0xa8>)
     2f2:	402b      	ands	r3, r5
     2f4:	2b04      	cmp	r3, #4
     2f6:	d1df      	bne.n	2b8 <ResetISR2+0x6>
     2f8:	2802      	cmp	r0, #2
     2fa:	d1dd      	bne.n	2b8 <ResetISR2+0x6>
     2fc:	f04f 4380 	mov.w	r3, #1073741824	; 0x40000000
     300:	f8d3 3808 	ldr.w	r3, [r3, #2056]	; 0x808
     304:	b113      	cbz	r3, 30c <HEAP_SIZE+0x18>
     306:	4928      	ldr	r1, [pc, #160]	; (3a8 <HEAP_SIZE+0xb4>)
     308:	6809      	ldr	r1, [r1, #0]
     30a:	468d      	mov	sp, r1
     30c:	4c24      	ldr	r4, [pc, #144]	; (3a0 <HEAP_SIZE+0xac>)
     30e:	b994      	cbnz	r4, 336 <HEAP_SIZE+0x42>
     310:	4c24      	ldr	r4, [pc, #144]	; (3a4 <HEAP_SIZE+0xb0>)
     312:	b9dc      	cbnz	r4, 34c <HEAP_SIZE+0x58>
     314:	4b1c      	ldr	r3, [pc, #112]	; (388 <HEAP_SIZE+0x94>)
     316:	4a1d      	ldr	r2, [pc, #116]	; (38c <HEAP_SIZE+0x98>)
     318:	601a      	str	r2, [r3, #0]
     31a:	4b1d      	ldr	r3, [pc, #116]	; (390 <HEAP_SIZE+0x9c>)
     31c:	b9c3      	cbnz	r3, 350 <HEAP_SIZE+0x5c>
     31e:	f009 fb81 	bl	9a24 <WarmMain>
     322:	e7fe      	b.n	322 <HEAP_SIZE+0x2e>
     324:	e9d4 0100 	ldrd	r0, r1, [r4]
     328:	68a2      	ldr	r2, [r4, #8]
     32a:	340c      	adds	r4, #12
     32c:	f7ff ffa6 	bl	27c <data_init>
     330:	42ac      	cmp	r4, r5
     332:	d3f7      	bcc.n	324 <HEAP_SIZE+0x30>
     334:	e7ec      	b.n	310 <HEAP_SIZE+0x1c>
     336:	4d11      	ldr	r5, [pc, #68]	; (37c <HEAP_SIZE+0x88>)
     338:	e7fa      	b.n	330 <HEAP_SIZE+0x3c>
     33a:	f854 0b08 	ldr.w	r0, [r4], #8
     33e:	f854 1c04 	ldr.w	r1, [r4, #-4]
     342:	f7ff ffa5 	bl	290 <bss_init>
     346:	42ac      	cmp	r4, r5
     348:	d3f7      	bcc.n	33a <HEAP_SIZE+0x46>
     34a:	e7e3      	b.n	314 <HEAP_SIZE+0x20>
     34c:	4d0d      	ldr	r5, [pc, #52]	; (384 <HEAP_SIZE+0x90>)
     34e:	e7fa      	b.n	346 <HEAP_SIZE+0x52>
     350:	f005 fce8 	bl	5d24 <SystemInit>
     354:	e7e3      	b.n	31e <HEAP_SIZE+0x2a>
     356:	e9d4 0100 	ldrd	r0, r1, [r4]
     35a:	68a2      	ldr	r2, [r4, #8]
     35c:	340c      	adds	r4, #12
     35e:	f7ff ff8d 	bl	27c <data_init>
     362:	e7ab      	b.n	2bc <ResetISR2+0xa>
     364:	f854 0b08 	ldr.w	r0, [r4], #8
     368:	f854 1c04 	ldr.w	r1, [r4, #-4]
     36c:	f7ff ff90 	bl	290 <bss_init>
     370:	e7a8      	b.n	2c4 <ResetISR2+0x12>
     372:	bf00      	nop
     374:	00009a25 	.word	0x00009a25
     378:	00000120 	.word	0x00000120
     37c:	00000144 	.word	0x00000144
     380:	000001c0 	.word	0x000001c0
     384:	000001d8 	.word	0x000001d8
     388:	e000ed08 	.word	0xe000ed08
     38c:	00000000 	.word	0x00000000
     390:	00005d25 	.word	0x00005d25
     394:	40012000 	.word	0x40012000
     398:	03000e9d 	.word	0x03000e9d
     39c:	00020004 	.word	0x00020004
     3a0:	00000138 	.word	0x00000138
     3a4:	000001d0 	.word	0x000001d0
     3a8:	40000808 	.word	0x40000808

000003ac <System_IRQHandler>:
     3ac:	4b18      	ldr	r3, [pc, #96]	; (410 <BOOT_RESUME_STACK_SIZE+0x10>)
     3ae:	4919      	ldr	r1, [pc, #100]	; (414 <BOOT_RESUME_STACK_SIZE+0x14>)
     3b0:	681a      	ldr	r2, [r3, #0]
     3b2:	6f09      	ldr	r1, [r1, #112]	; 0x70
     3b4:	06c9      	lsls	r1, r1, #27
     3b6:	b510      	push	{r4, lr}
     3b8:	f002 040c 	and.w	r4, r2, #12
     3bc:	d50d      	bpl.n	3da <System_IRQHandler+0x2e>
     3be:	f044 0404 	orr.w	r4, r4, #4
     3c2:	681a      	ldr	r2, [r3, #0]
     3c4:	4812      	ldr	r0, [pc, #72]	; (410 <BOOT_RESUME_STACK_SIZE+0x10>)
     3c6:	f022 0201 	bic.w	r2, r2, #1
     3ca:	601a      	str	r2, [r3, #0]
     3cc:	2104      	movs	r1, #4
     3ce:	f005 fdaf 	bl	5f30 <WWDT_ClearStatusFlags>
     3d2:	4811      	ldr	r0, [pc, #68]	; (418 <BOOT_RESUME_STACK_SIZE+0x18>)
     3d4:	f002 fadc 	bl	2990 <DbgConsole_Printf>
     3d8:	e001      	b.n	3de <System_IRQHandler+0x32>
     3da:	0752      	lsls	r2, r2, #29
     3dc:	d4f1      	bmi.n	3c2 <System_IRQHandler+0x16>
     3de:	0723      	lsls	r3, r4, #28
     3e0:	d514      	bpl.n	40c <BOOT_RESUME_STACK_SIZE+0xc>
     3e2:	4c0e      	ldr	r4, [pc, #56]	; (41c <BOOT_RESUME_STACK_SIZE+0x1c>)
     3e4:	480a      	ldr	r0, [pc, #40]	; (410 <BOOT_RESUME_STACK_SIZE+0x10>)
     3e6:	2108      	movs	r1, #8
     3e8:	f005 fda2 	bl	5f30 <WWDT_ClearStatusFlags>
     3ec:	7823      	ldrb	r3, [r4, #0]
     3ee:	2b02      	cmp	r3, #2
     3f0:	d80c      	bhi.n	40c <BOOT_RESUME_STACK_SIZE+0xc>
     3f2:	7823      	ldrb	r3, [r4, #0]
     3f4:	4806      	ldr	r0, [pc, #24]	; (410 <BOOT_RESUME_STACK_SIZE+0x10>)
     3f6:	3301      	adds	r3, #1
     3f8:	b2db      	uxtb	r3, r3
     3fa:	7023      	strb	r3, [r4, #0]
     3fc:	f005 fd8e 	bl	5f1c <WWDT_Refresh>
     400:	7821      	ldrb	r1, [r4, #0]
     402:	4807      	ldr	r0, [pc, #28]	; (420 <BOOT_RESUME_STACK_SIZE+0x20>)
     404:	e8bd 4010 	ldmia.w	sp!, {r4, lr}
     408:	f002 bac2 	b.w	2990 <DbgConsole_Printf>
     40c:	bd10      	pop	{r4, pc}
     40e:	bf00      	nop
     410:	4000a000 	.word	0x4000a000
     414:	40012000 	.word	0x40012000
     418:	0002f170 	.word	0x0002f170
     41c:	04015588 	.word	0x04015588
     420:	0002f188 	.word	0x0002f188

00000424 <main_task>:
     424:	b570      	push	{r4, r5, r6, lr}
     426:	4b14      	ldr	r3, [pc, #80]	; (478 <main_task+0x54>)
     428:	781a      	ldrb	r2, [r3, #0]
     42a:	b962      	cbnz	r2, 446 <main_task+0x22>
     42c:	2401      	movs	r4, #1
     42e:	701c      	strb	r4, [r3, #0]
     430:	f008 fa58 	bl	88e4 <RNG_Init>
     434:	f008 f908 	bl	8648 <SecLib_Init>
     438:	f008 fae2 	bl	8a00 <MEM_Init>
     43c:	f008 fbb4 	bl	8ba8 <TMR_Init>
     440:	4620      	mov	r0, r4
     442:	f000 fb3b 	bl	abc <vAppMain>
     446:	4e0d      	ldr	r6, [pc, #52]	; (47c <main_task+0x58>)
     448:	4d0d      	ldr	r5, [pc, #52]	; (480 <main_task+0x5c>)
     44a:	4c0e      	ldr	r4, [pc, #56]	; (484 <main_task+0x60>)
     44c:	f017 fa6e 	bl	1792c <zps_taskZPS>
     450:	f011 fc12 	bl	11c78 <bdb_taskBDB>
     454:	f005 f8f6 	bl	5644 <ZTIMER_vTask>
     458:	f002 fe6a 	bl	3130 <APP_taskAtSerial>
     45c:	f000 fe8e 	bl	117c <APP_taskController>
     460:	4630      	mov	r0, r6
     462:	f005 fd5b 	bl	5f1c <WWDT_Refresh>
     466:	2300      	movs	r3, #0
     468:	702b      	strb	r3, [r5, #0]
     46a:	f009 f929 	bl	96c0 <PWR_EnterLowPower>
     46e:	7823      	ldrb	r3, [r4, #0]
     470:	2b00      	cmp	r3, #0
     472:	d1eb      	bne.n	44c <main_task+0x28>
     474:	bd70      	pop	{r4, r5, r6, pc}
     476:	bf00      	nop
     478:	04015580 	.word	0x04015580
     47c:	4000a000 	.word	0x4000a000
     480:	04015588 	.word	0x04015588
     484:	0003189e 	.word	0x0003189e

00000488 <APP_vSetUpHardware>:
     488:	b570      	push	{r4, r5, r6, lr}
     48a:	4b29      	ldr	r3, [pc, #164]	; (530 <APP_vSetUpHardware+0xa8>)
     48c:	4a29      	ldr	r2, [pc, #164]	; (534 <APP_vSetUpHardware+0xac>)
     48e:	601a      	str	r2, [r3, #0]
     490:	f240 1209 	movw	r2, #265	; 0x109
     494:	b086      	sub	sp, #24
     496:	605a      	str	r2, [r3, #4]
     498:	f002 fafe 	bl	2a98 <BOARD_InitHardware>
     49c:	2200      	movs	r2, #0
     49e:	4611      	mov	r1, r2
     4a0:	4b25      	ldr	r3, [pc, #148]	; (538 <APP_vSetUpHardware+0xb0>)
     4a2:	4826      	ldr	r0, [pc, #152]	; (53c <APP_vSetUpHardware+0xb4>)
     4a4:	4c26      	ldr	r4, [pc, #152]	; (540 <APP_vSetUpHardware+0xb8>)
     4a6:	f002 fa93 	bl	29d0 <GPIO_PinInit>
     4aa:	2203      	movs	r2, #3
     4ac:	2100      	movs	r1, #0
     4ae:	4b22      	ldr	r3, [pc, #136]	; (538 <APP_vSetUpHardware+0xb0>)
     4b0:	4822      	ldr	r0, [pc, #136]	; (53c <APP_vSetUpHardware+0xb4>)
     4b2:	f002 fa8d 	bl	29d0 <GPIO_PinInit>
     4b6:	2016      	movs	r0, #22
     4b8:	f005 ff5a 	bl	6370 <CLOCK_GetFreq>
     4bc:	2601      	movs	r6, #1
     4be:	0885      	lsrs	r5, r0, #2
     4c0:	6026      	str	r6, [r4, #0]
     4c2:	a801      	add	r0, sp, #4
     4c4:	f005 fca4 	bl	5e10 <WWDT_GetDefaultConfig>
     4c8:	f44f 7300 	mov.w	r3, #512	; 0x200
     4cc:	2016      	movs	r0, #22
     4ce:	9304      	str	r3, [sp, #16]
     4d0:	9503      	str	r5, [sp, #12]
     4d2:	9502      	str	r5, [sp, #8]
     4d4:	f88d 6005 	strb.w	r6, [sp, #5]
     4d8:	f005 ff4a 	bl	6370 <CLOCK_GetFreq>
     4dc:	a901      	add	r1, sp, #4
     4de:	9005      	str	r0, [sp, #20]
     4e0:	4818      	ldr	r0, [pc, #96]	; (544 <APP_vSetUpHardware+0xbc>)
     4e2:	f005 fcb3 	bl	5e4c <WWDT_Init>
     4e6:	4817      	ldr	r0, [pc, #92]	; (544 <APP_vSetUpHardware+0xbc>)
     4e8:	f005 fd18 	bl	5f1c <WWDT_Refresh>
     4ec:	4816      	ldr	r0, [pc, #88]	; (548 <APP_vSetUpHardware+0xc0>)
     4ee:	f06f 037f 	mvn.w	r3, #127	; 0x7f
     4f2:	21a0      	movs	r1, #160	; 0xa0
     4f4:	2b00      	cmp	r3, #0
     4f6:	bfbb      	ittet	lt
     4f8:	f003 020f 	andlt.w	r2, r3, #15
     4fc:	3a04      	sublt	r2, #4
     4fe:	18e2      	addge	r2, r4, r3
     500:	1812      	addlt	r2, r2, r0
     502:	f103 0301 	add.w	r3, r3, #1
     506:	bfac      	ite	ge
     508:	f882 1300 	strbge.w	r1, [r2, #768]	; 0x300
     50c:	7611      	strblt	r1, [r2, #24]
     50e:	2b36      	cmp	r3, #54	; 0x36
     510:	d1f0      	bne.n	4f4 <APP_vSetUpHardware+0x6c>
     512:	4b0b      	ldr	r3, [pc, #44]	; (540 <APP_vSetUpHardware+0xb8>)
     514:	2220      	movs	r2, #32
     516:	f883 2300 	strb.w	r2, [r3, #768]	; 0x300
     51a:	f04f 4380 	mov.w	r3, #1073741824	; 0x40000000
     51e:	2203      	movs	r2, #3
     520:	f8c3 2280 	str.w	r2, [r3, #640]	; 0x280
     524:	f005 fbae 	bl	5c84 <SystemCoreClockUpdate>
     528:	f005 f9b8 	bl	589c <OSA_TimeInit>
     52c:	b006      	add	sp, #24
     52e:	bd70      	pop	{r4, r5, r6, pc}
     530:	40001000 	.word	0x40001000
     534:	e000f733 	.word	0xe000f733
     538:	04015410 	.word	0x04015410
     53c:	40080000 	.word	0x40080000
     540:	e000e100 	.word	0xe000e100
     544:	4000a000 	.word	0x4000a000
     548:	e000ed00 	.word	0xe000ed00

0000054c <APP_vInitResources>:
     54c:	b510      	push	{r4, lr}
     54e:	210b      	movs	r1, #11
     550:	482f      	ldr	r0, [pc, #188]	; (610 <APP_vInitResources+0xc4>)
     552:	f005 f865 	bl	5620 <ZTIMER_eInit>
     556:	492f      	ldr	r1, [pc, #188]	; (614 <APP_vInitResources+0xc8>)
     558:	482f      	ldr	r0, [pc, #188]	; (618 <APP_vInitResources+0xcc>)
     55a:	2301      	movs	r3, #1
     55c:	2200      	movs	r2, #0
     55e:	f005 f8b9 	bl	56d4 <ZTIMER_eOpen>
     562:	492e      	ldr	r1, [pc, #184]	; (61c <APP_vInitResources+0xd0>)
     564:	482e      	ldr	r0, [pc, #184]	; (620 <APP_vInitResources+0xd4>)
     566:	2301      	movs	r3, #1
     568:	2200      	movs	r2, #0
     56a:	f005 f8b3 	bl	56d4 <ZTIMER_eOpen>
     56e:	492d      	ldr	r1, [pc, #180]	; (624 <APP_vInitResources+0xd8>)
     570:	482d      	ldr	r0, [pc, #180]	; (628 <APP_vInitResources+0xdc>)
     572:	2301      	movs	r3, #1
     574:	2200      	movs	r2, #0
     576:	f005 f8ad 	bl	56d4 <ZTIMER_eOpen>
     57a:	492c      	ldr	r1, [pc, #176]	; (62c <APP_vInitResources+0xe0>)
     57c:	482c      	ldr	r0, [pc, #176]	; (630 <APP_vInitResources+0xe4>)
     57e:	2301      	movs	r3, #1
     580:	2200      	movs	r2, #0
     582:	f005 f8a7 	bl	56d4 <ZTIMER_eOpen>
     586:	492b      	ldr	r1, [pc, #172]	; (634 <APP_vInitResources+0xe8>)
     588:	482b      	ldr	r0, [pc, #172]	; (638 <APP_vInitResources+0xec>)
     58a:	2301      	movs	r3, #1
     58c:	2200      	movs	r2, #0
     58e:	f005 f8a1 	bl	56d4 <ZTIMER_eOpen>
     592:	492a      	ldr	r1, [pc, #168]	; (63c <APP_vInitResources+0xf0>)
     594:	482a      	ldr	r0, [pc, #168]	; (640 <APP_vInitResources+0xf4>)
     596:	2301      	movs	r3, #1
     598:	2200      	movs	r2, #0
     59a:	f005 f89b 	bl	56d4 <ZTIMER_eOpen>
     59e:	4929      	ldr	r1, [pc, #164]	; (644 <APP_vInitResources+0xf8>)
     5a0:	4829      	ldr	r0, [pc, #164]	; (648 <APP_vInitResources+0xfc>)
     5a2:	2301      	movs	r3, #1
     5a4:	2200      	movs	r2, #0
     5a6:	f005 f895 	bl	56d4 <ZTIMER_eOpen>
     5aa:	4828      	ldr	r0, [pc, #160]	; (64c <APP_vInitResources+0x100>)
     5ac:	2300      	movs	r3, #0
     5ae:	2240      	movs	r2, #64	; 0x40
     5b0:	2103      	movs	r1, #3
     5b2:	f004 ffe3 	bl	557c <ZQ_vQueueCreate>
     5b6:	4826      	ldr	r0, [pc, #152]	; (650 <APP_vInitResources+0x104>)
     5b8:	2300      	movs	r3, #0
     5ba:	2268      	movs	r2, #104	; 0x68
     5bc:	2104      	movs	r1, #4
     5be:	f004 ffdd 	bl	557c <ZQ_vQueueCreate>
     5c2:	4824      	ldr	r0, [pc, #144]	; (654 <APP_vInitResources+0x108>)
     5c4:	2300      	movs	r3, #0
     5c6:	222c      	movs	r2, #44	; 0x2c
     5c8:	2104      	movs	r1, #4
     5ca:	f004 ffd7 	bl	557c <ZQ_vQueueCreate>
     5ce:	4822      	ldr	r0, [pc, #136]	; (658 <APP_vInitResources+0x10c>)
     5d0:	2300      	movs	r3, #0
     5d2:	222c      	movs	r2, #44	; 0x2c
     5d4:	2102      	movs	r1, #2
     5d6:	f004 ffd1 	bl	557c <ZQ_vQueueCreate>
     5da:	4820      	ldr	r0, [pc, #128]	; (65c <APP_vInitResources+0x110>)
     5dc:	2300      	movs	r3, #0
     5de:	2202      	movs	r2, #2
     5e0:	2104      	movs	r1, #4
     5e2:	f004 ffcb 	bl	557c <ZQ_vQueueCreate>
     5e6:	481e      	ldr	r0, [pc, #120]	; (660 <APP_vInitResources+0x114>)
     5e8:	2300      	movs	r3, #0
     5ea:	220c      	movs	r2, #12
     5ec:	2109      	movs	r1, #9
     5ee:	f004 ffc5 	bl	557c <ZQ_vQueueCreate>
     5f2:	481c      	ldr	r0, [pc, #112]	; (664 <APP_vInitResources+0x118>)
     5f4:	2300      	movs	r3, #0
     5f6:	2201      	movs	r2, #1
     5f8:	210a      	movs	r1, #10
     5fa:	f004 ffbf 	bl	557c <ZQ_vQueueCreate>
     5fe:	e8bd 4010 	ldmia.w	sp!, {r4, lr}
     602:	4819      	ldr	r0, [pc, #100]	; (668 <APP_vInitResources+0x11c>)
     604:	2300      	movs	r3, #0
     606:	2201      	movs	r2, #1
     608:	211e      	movs	r1, #30
     60a:	f004 bfb7 	b.w	557c <ZQ_vQueueCreate>
     60e:	bf00      	nop
     610:	0400153c 	.word	0x0400153c
     614:	00000a4d 	.word	0x00000a4d
     618:	04015584 	.word	0x04015584
     61c:	00001f1d 	.word	0x00001f1d
     620:	04015583 	.word	0x04015583
     624:	00000e89 	.word	0x00000e89
     628:	04015581 	.word	0x04015581
     62c:	000017b5 	.word	0x000017b5
     630:	04015586 	.word	0x04015586
     634:	00002231 	.word	0x00002231
     638:	04015587 	.word	0x04015587
     63c:	00003355 	.word	0x00003355
     640:	04015582 	.word	0x04015582
     644:	00004f69 	.word	0x00004f69
     648:	04015585 	.word	0x04015585
     64c:	04015550 	.word	0x04015550
     650:	04015540 	.word	0x04015540
     654:	040031d0 	.word	0x040031d0
     658:	040031c0 	.word	0x040031c0
     65c:	040031b0 	.word	0x040031b0
     660:	040031a0 	.word	0x040031a0
     664:	04015570 	.word	0x04015570
     668:	04015560 	.word	0x04015560

0000066c <APP_vRadioTempUpdate>:
     66c:	b51f      	push	{r0, r1, r2, r3, r4, lr}
     66e:	4604      	mov	r4, r0
     670:	f005 f92c 	bl	58cc <OSA_TimeGetMsec>
     674:	4622      	mov	r2, r4
     676:	4601      	mov	r1, r0
     678:	481b      	ldr	r0, [pc, #108]	; (6e8 <APP_vRadioTempUpdate+0x7c>)
     67a:	f002 f989 	bl	2990 <DbgConsole_Printf>
     67e:	bb24      	cbnz	r4, 6ca <APP_vRadioTempUpdate+0x5e>
     680:	f005 f924 	bl	58cc <OSA_TimeGetMsec>
     684:	4601      	mov	r1, r0
     686:	4819      	ldr	r0, [pc, #100]	; (6ec <APP_vRadioTempUpdate+0x80>)
     688:	f002 f982 	bl	2990 <DbgConsole_Printf>
     68c:	ab03      	add	r3, sp, #12
     68e:	9300      	str	r3, [sp, #0]
     690:	2107      	movs	r1, #7
     692:	4817      	ldr	r0, [pc, #92]	; (6f0 <APP_vRadioTempUpdate+0x84>)
     694:	2308      	movs	r3, #8
     696:	f44f 7296 	mov.w	r2, #300	; 0x12c
     69a:	f002 fb57 	bl	2d4c <get_temperature>
     69e:	4604      	mov	r4, r0
     6a0:	4601      	mov	r1, r0
     6a2:	4814      	ldr	r0, [pc, #80]	; (6f4 <APP_vRadioTempUpdate+0x88>)
     6a4:	f002 f974 	bl	2990 <DbgConsole_Printf>
     6a8:	b1e4      	cbz	r4, 6e4 <APP_vRadioTempUpdate+0x78>
     6aa:	9903      	ldr	r1, [sp, #12]
     6ac:	4812      	ldr	r0, [pc, #72]	; (6f8 <APP_vRadioTempUpdate+0x8c>)
     6ae:	2900      	cmp	r1, #0
     6b0:	460c      	mov	r4, r1
     6b2:	bfb8      	it	lt
     6b4:	f101 043f 	addlt.w	r4, r1, #63	; 0x3f
     6b8:	f344 148f 	sbfx	r4, r4, #6, #16
     6bc:	4622      	mov	r2, r4
     6be:	f002 f967 	bl	2990 <DbgConsole_Printf>
     6c2:	4620      	mov	r0, r4
     6c4:	f02b fe76 	bl	2c3b4 <vRadio_Temp_Update>
     6c8:	e00c      	b.n	6e4 <APP_vRadioTempUpdate+0x78>
     6ca:	4809      	ldr	r0, [pc, #36]	; (6f0 <APP_vRadioTempUpdate+0x84>)
     6cc:	f002 fafc 	bl	2cc8 <load_calibration_param_from_flash>
     6d0:	4604      	mov	r4, r0
     6d2:	f005 f8fb 	bl	58cc <OSA_TimeGetMsec>
     6d6:	4622      	mov	r2, r4
     6d8:	4601      	mov	r1, r0
     6da:	4808      	ldr	r0, [pc, #32]	; (6fc <APP_vRadioTempUpdate+0x90>)
     6dc:	f002 f958 	bl	2990 <DbgConsole_Printf>
     6e0:	2c00      	cmp	r4, #0
     6e2:	d1cd      	bne.n	680 <APP_vRadioTempUpdate+0x14>
     6e4:	b004      	add	sp, #16
     6e6:	bd10      	pop	{r4, pc}
     6e8:	0002f1a3 	.word	0x0002f1a3
     6ec:	0002f1c2 	.word	0x0002f1c2
     6f0:	40089000 	.word	0x40089000
     6f4:	00031686 	.word	0x00031686
     6f8:	0002f20c 	.word	0x0002f20c
     6fc:	0002f1dd 	.word	0x0002f1dd

00000700 <bRadioCB_WriteNVM>:
     700:	b573      	push	{r0, r1, r4, r5, r6, lr}
     702:	460a      	mov	r2, r1
     704:	460d      	mov	r5, r1
     706:	4601      	mov	r1, r0
     708:	f44f 407f 	mov.w	r0, #65280	; 0xff00
     70c:	f016 f8a2 	bl	16854 <PDM_eSaveRecordData>
     710:	4606      	mov	r6, r0
     712:	fab0 f480 	clz	r4, r0
     716:	f005 f8d9 	bl	58cc <OSA_TimeGetMsec>
     71a:	0964      	lsrs	r4, r4, #5
     71c:	4601      	mov	r1, r0
     71e:	9600      	str	r6, [sp, #0]
     720:	4623      	mov	r3, r4
     722:	462a      	mov	r2, r5
     724:	4802      	ldr	r0, [pc, #8]	; (730 <bRadioCB_WriteNVM+0x30>)
     726:	f002 f933 	bl	2990 <DbgConsole_Printf>
     72a:	4620      	mov	r0, r4
     72c:	b002      	add	sp, #8
     72e:	bd70      	pop	{r4, r5, r6, pc}
     730:	0002f231 	.word	0x0002f231

00000734 <u16RadioCB_ReadNVM>:
     734:	b530      	push	{r4, r5, lr}
     736:	b085      	sub	sp, #20
     738:	2300      	movs	r3, #0
     73a:	460a      	mov	r2, r1
     73c:	460c      	mov	r4, r1
     73e:	f8ad 300e 	strh.w	r3, [sp, #14]
     742:	4601      	mov	r1, r0
     744:	f10d 030e 	add.w	r3, sp, #14
     748:	f44f 407f 	mov.w	r0, #65280	; 0xff00
     74c:	f014 fb22 	bl	14d94 <PDM_eReadDataFromRecord>
     750:	4605      	mov	r5, r0
     752:	f005 f8bb 	bl	58cc <OSA_TimeGetMsec>
     756:	f8bd 300e 	ldrh.w	r3, [sp, #14]
     75a:	9500      	str	r5, [sp, #0]
     75c:	4601      	mov	r1, r0
     75e:	4622      	mov	r2, r4
     760:	4803      	ldr	r0, [pc, #12]	; (770 <u16RadioCB_ReadNVM+0x3c>)
     762:	f002 f915 	bl	2990 <DbgConsole_Printf>
     766:	f8bd 000e 	ldrh.w	r0, [sp, #14]
     76a:	b005      	add	sp, #20
     76c:	bd30      	pop	{r4, r5, pc}
     76e:	bf00      	nop
     770:	0002f260 	.word	0x0002f260

00000774 <ZPS_u8GrabMutexLock>:
     774:	b538      	push	{r3, r4, r5, lr}
     776:	460d      	mov	r5, r1
     778:	4604      	mov	r4, r0
     77a:	b128      	cbz	r0, 788 <ZPS_u8GrabMutexLock+0x14>
     77c:	4780      	blx	r0
     77e:	7803      	ldrb	r3, [r0, #0]
     780:	b113      	cbz	r3, 788 <ZPS_u8GrabMutexLock+0x14>
     782:	4b07      	ldr	r3, [pc, #28]	; (7a0 <ZPS_u8GrabMutexLock+0x2c>)
     784:	2201      	movs	r2, #1
     786:	601a      	str	r2, [r3, #0]
     788:	4628      	mov	r0, r5
     78a:	f005 f8af 	bl	58ec <OSA_InterruptEnableRestricted>
     78e:	b114      	cbz	r4, 796 <ZPS_u8GrabMutexLock+0x22>
     790:	47a0      	blx	r4
     792:	2301      	movs	r3, #1
     794:	7003      	strb	r3, [r0, #0]
     796:	4628      	mov	r0, r5
     798:	f005 f8b5 	bl	5906 <OSA_InterruptEnableRestore>
     79c:	2000      	movs	r0, #0
     79e:	bd38      	pop	{r3, r4, r5, pc}
     7a0:	badadd04 	.word	0xbadadd04

000007a4 <ZPS_u8ReleaseMutexLock>:
     7a4:	b538      	push	{r3, r4, r5, lr}
     7a6:	4605      	mov	r5, r0
     7a8:	4608      	mov	r0, r1
     7aa:	460c      	mov	r4, r1
     7ac:	f005 f89e 	bl	58ec <OSA_InterruptEnableRestricted>
     7b0:	b115      	cbz	r5, 7b8 <ZPS_u8ReleaseMutexLock+0x14>
     7b2:	47a8      	blx	r5
     7b4:	2300      	movs	r3, #0
     7b6:	7003      	strb	r3, [r0, #0]
     7b8:	4620      	mov	r0, r4
     7ba:	f005 f8a4 	bl	5906 <OSA_InterruptEnableRestore>
     7be:	2000      	movs	r0, #0
     7c0:	bd38      	pop	{r3, r4, r5, pc}
     7c2:	Address 0x000007c2 is out of bounds.


000007c4 <ZPS_eEnterCriticalSection>:
     7c4:	b538      	push	{r3, r4, r5, lr}
     7c6:	460d      	mov	r5, r1
     7c8:	4604      	mov	r4, r0
     7ca:	b128      	cbz	r0, 7d8 <ZPS_eEnterCriticalSection+0x14>
     7cc:	4780      	blx	r0
     7ce:	7803      	ldrb	r3, [r0, #0]
     7d0:	b113      	cbz	r3, 7d8 <ZPS_eEnterCriticalSection+0x14>
     7d2:	4b06      	ldr	r3, [pc, #24]	; (7ec <ZPS_eEnterCriticalSection+0x28>)
     7d4:	2201      	movs	r2, #1
     7d6:	601a      	str	r2, [r3, #0]
     7d8:	4628      	mov	r0, r5
     7da:	f005 f887 	bl	58ec <OSA_InterruptEnableRestricted>
     7de:	b114      	cbz	r4, 7e6 <ZPS_eEnterCriticalSection+0x22>
     7e0:	47a0      	blx	r4
     7e2:	2301      	movs	r3, #1
     7e4:	7003      	strb	r3, [r0, #0]
     7e6:	2000      	movs	r0, #0
     7e8:	bd38      	pop	{r3, r4, r5, pc}
     7ea:	bf00      	nop
     7ec:	badadd08 	.word	0xbadadd08

000007f0 <ZPS_eExitCriticalSection>:
     7f0:	b510      	push	{r4, lr}
     7f2:	460c      	mov	r4, r1
     7f4:	b110      	cbz	r0, 7fc <ZPS_eExitCriticalSection+0xc>
     7f6:	4780      	blx	r0
     7f8:	2300      	movs	r3, #0
     7fa:	7003      	strb	r3, [r0, #0]
     7fc:	4620      	mov	r0, r4
     7fe:	f005 f882 	bl	5906 <OSA_InterruptEnableRestore>
     802:	2000      	movs	r0, #0
     804:	bd10      	pop	{r4, pc}
     806:	Address 0x00000806 is out of bounds.


00000808 <PDUM_vInit>:
     808:	b510      	push	{r4, lr}
     80a:	4c07      	ldr	r4, [pc, #28]	; (828 <PDUM_vInit+0x20>)
     80c:	4807      	ldr	r0, [pc, #28]	; (82c <PDUM_vInit+0x24>)
     80e:	2300      	movs	r3, #0
     810:	2109      	movs	r1, #9
     812:	80a3      	strh	r3, [r4, #4]
     814:	8223      	strh	r3, [r4, #16]
     816:	f013 fe6b 	bl	144f0 <pdum_vNPduInit>
     81a:	4620      	mov	r0, r4
     81c:	2102      	movs	r1, #2
     81e:	e8bd 4010 	ldmia.w	sp!, {r4, lr}
     822:	f013 bf73 	b.w	1470c <pdum_vAPduInit>
     826:	bf00      	nop
     828:	04000a40 	.word	0x04000a40
     82c:	040031e0 	.word	0x040031e0

00000830 <zps_vGetZpsMutex>:
     830:	4800      	ldr	r0, [pc, #0]	; (834 <zps_vGetZpsMutex+0x4>)
     832:	4770      	bx	lr
     834:	04002204 	.word	0x04002204

00000838 <vZdoServersInit>:
     838:	b510      	push	{r4, lr}
     83a:	4c24      	ldr	r4, [pc, #144]	; (8cc <vZdoServersInit+0x94>)
     83c:	4824      	ldr	r0, [pc, #144]	; (8d0 <vZdoServersInit+0x98>)
     83e:	4621      	mov	r1, r4
     840:	f01c f9e2 	bl	1cc08 <zps_vAplZdoDefaultServerInit>
     844:	4621      	mov	r1, r4
     846:	4823      	ldr	r0, [pc, #140]	; (8d4 <vZdoServersInit+0x9c>)
     848:	f01e fed6 	bl	1f5f8 <zps_vAplZdoZdoClientInit>
     84c:	4822      	ldr	r0, [pc, #136]	; (8d8 <vZdoServersInit+0xa0>)
     84e:	f01d fa05 	bl	1dc5c <zps_vAplZdoDeviceAnnceServerInit>
     852:	4621      	mov	r1, r4
     854:	4821      	ldr	r0, [pc, #132]	; (8dc <vZdoServersInit+0xa4>)
     856:	f01d f993 	bl	1db80 <zps_vAplZdoActiveEpServerInit>
     85a:	4621      	mov	r1, r4
     85c:	4820      	ldr	r0, [pc, #128]	; (8e0 <vZdoServersInit+0xa8>)
     85e:	f01c fc3e 	bl	1d0de <zps_vAplZdoNwkAddrServerInit>
     862:	4621      	mov	r1, r4
     864:	481f      	ldr	r0, [pc, #124]	; (8e4 <vZdoServersInit+0xac>)
     866:	f01c fd11 	bl	1d28c <zps_vAplZdoIeeeAddrServerInit>
     86a:	4621      	mov	r1, r4
     86c:	481e      	ldr	r0, [pc, #120]	; (8e8 <vZdoServersInit+0xb0>)
     86e:	f01d facf 	bl	1de10 <zps_vAplZdoSystemServerDiscoveryServerInit>
     872:	4621      	mov	r1, r4
     874:	481d      	ldr	r0, [pc, #116]	; (8ec <vZdoServersInit+0xb4>)
     876:	f01c ff47 	bl	1d708 <zps_vAplZdoNodeDescServerInit>
     87a:	4621      	mov	r1, r4
     87c:	481c      	ldr	r0, [pc, #112]	; (8f0 <vZdoServersInit+0xb8>)
     87e:	f01d f8fb 	bl	1da78 <zps_vAplZdoPowerDescServerInit>
     882:	4621      	mov	r1, r4
     884:	481b      	ldr	r0, [pc, #108]	; (8f4 <vZdoServersInit+0xbc>)
     886:	f01c fdcd 	bl	1d424 <zps_vAplZdoMatchDescServerInit>
     88a:	4621      	mov	r1, r4
     88c:	481a      	ldr	r0, [pc, #104]	; (8f8 <vZdoServersInit+0xc0>)
     88e:	f01c ffe5 	bl	1d85c <zps_vAplZdoSimpleDescServerInit>
     892:	4621      	mov	r1, r4
     894:	4819      	ldr	r0, [pc, #100]	; (8fc <vZdoServersInit+0xc4>)
     896:	f01d fb01 	bl	1de9c <zps_vAplZdoMgmtLqiServerInit>
     89a:	4621      	mov	r1, r4
     89c:	4818      	ldr	r0, [pc, #96]	; (900 <vZdoServersInit+0xc8>)
     89e:	f01d fc1b 	bl	1e0d8 <zps_vAplZdoMgmtLeaveServerInit>
     8a2:	4a18      	ldr	r2, [pc, #96]	; (904 <vZdoServersInit+0xcc>)
     8a4:	4818      	ldr	r0, [pc, #96]	; (908 <vZdoServersInit+0xd0>)
     8a6:	4621      	mov	r1, r4
     8a8:	f01d fd68 	bl	1e37c <zps_vAplZdoMgmtNWKUpdateServerInit>
     8ac:	4621      	mov	r1, r4
     8ae:	4817      	ldr	r0, [pc, #92]	; (90c <vZdoServersInit+0xd4>)
     8b0:	f01e f843 	bl	1e93a <zps_vAplZdoBindUnbindServerInit>
     8b4:	4816      	ldr	r0, [pc, #88]	; (910 <vZdoServersInit+0xd8>)
     8b6:	4b17      	ldr	r3, [pc, #92]	; (914 <vZdoServersInit+0xdc>)
     8b8:	2101      	movs	r1, #1
     8ba:	2203      	movs	r2, #3
     8bc:	f01e fad4 	bl	1ee68 <zps_vAplZdoBindRequestServerInit>
     8c0:	4621      	mov	r1, r4
     8c2:	4815      	ldr	r0, [pc, #84]	; (918 <vZdoServersInit+0xe0>)
     8c4:	e8bd 4010 	ldmia.w	sp!, {r4, lr}
     8c8:	f01e bf20 	b.w	1f70c <zps_vAplZdoMgmtBindServerInit>
     8cc:	04000a40 	.word	0x04000a40
     8d0:	04002920 	.word	0x04002920
     8d4:	04003198 	.word	0x04003198
     8d8:	04002924 	.word	0x04002924
     8dc:	04002854 	.word	0x04002854
     8e0:	040029b8 	.word	0x040029b8
     8e4:	04002924 	.word	0x04002924
     8e8:	04003194 	.word	0x04003194
     8ec:	040029b4 	.word	0x040029b4
     8f0:	0400318c 	.word	0x0400318c
     8f4:	04002928 	.word	0x04002928
     8f8:	04003190 	.word	0x04003190
     8fc:	04002958 	.word	0x04002958
     900:	04002930 	.word	0x04002930
     904:	04000750 	.word	0x04000750
     908:	0400295c 	.word	0x0400295c
     90c:	040028f0 	.word	0x040028f0
     910:	0400289c 	.word	0x0400289c
     914:	04002890 	.word	0x04002890
     918:	0400292c 	.word	0x0400292c

0000091c <ZPS_pvAplZdoGetAplHandle>:
     91c:	4b01      	ldr	r3, [pc, #4]	; (924 <ZPS_pvAplZdoGetAplHandle+0x8>)
     91e:	6818      	ldr	r0, [r3, #0]
     920:	4770      	bx	lr
     922:	bf00      	nop
     924:	040009b8 	.word	0x040009b8

00000928 <ZPS_u32ApsFcSaveCountBitShift>:
     928:	2004      	movs	r0, #4
     92a:	4770      	bx	lr

0000092c <ZPS_psAplDefaultDistributedAPSLinkKey>:
     92c:	4800      	ldr	r0, [pc, #0]	; (930 <ZPS_psAplDefaultDistributedAPSLinkKey+0x4>)
     92e:	4770      	bx	lr
     930:	0400068c 	.word	0x0400068c

00000934 <ZPS_psAplDefaultGlobalAPSLinkKey>:
     934:	4800      	ldr	r0, [pc, #0]	; (938 <ZPS_psAplDefaultGlobalAPSLinkKey+0x4>)
     936:	4770      	bx	lr
     938:	04000690 	.word	0x04000690

0000093c <ZPS_ps_groupPdmTable>:
     93c:	4800      	ldr	r0, [pc, #0]	; (940 <ZPS_ps_groupPdmTable+0x4>)
     93e:	4770      	bx	lr
     940:	0400284c 	.word	0x0400284c

00000944 <ZPS_pu8MaxZpsConfigEp>:
     944:	4800      	ldr	r0, [pc, #0]	; (948 <ZPS_pu8MaxZpsConfigEp+0x4>)
     946:	4770      	bx	lr
     948:	040009b4 	.word	0x040009b4

0000094c <ZPS_pau8EpMapPresent>:
     94c:	4800      	ldr	r0, [pc, #0]	; (950 <ZPS_pau8EpMapPresent+0x4>)
     94e:	4770      	bx	lr
     950:	0400064d 	.word	0x0400064d

00000954 <ZPS_u8ConfigStackProfileId>:
     954:	4b01      	ldr	r3, [pc, #4]	; (95c <ZPS_u8ConfigStackProfileId+0x8>)
     956:	7818      	ldrb	r0, [r3, #0]
     958:	4770      	bx	lr
     95a:	bf00      	nop
     95c:	040009b5 	.word	0x040009b5

00000960 <ZPS_u32NwkFcSaveCountBitShift>:
     960:	2004      	movs	r0, #4
     962:	4770      	bx	lr

00000964 <ZPS_psMacIFTGetTable>:
     964:	4800      	ldr	r0, [pc, #0]	; (968 <ZPS_psMacIFTGetTable+0x4>)
     966:	4770      	bx	lr
     968:	04000650 	.word	0x04000650

0000096c <ZPS_psMacIFTGetInterface>:
     96c:	4b04      	ldr	r3, [pc, #16]	; (980 <ZPS_psMacIFTGetInterface+0x14>)
     96e:	f893 2028 	ldrb.w	r2, [r3, #40]	; 0x28
     972:	4282      	cmp	r2, r0
     974:	bf86      	itte	hi
     976:	685b      	ldrhi	r3, [r3, #4]
     978:	eb03 0080 	addhi.w	r0, r3, r0, lsl #2
     97c:	2000      	movls	r0, #0
     97e:	4770      	bx	lr
     980:	04000650 	.word	0x04000650

00000984 <ZPS_vGetGpContext>:
     984:	4b01      	ldr	r3, [pc, #4]	; (98c <ZPS_vGetGpContext+0x8>)
     986:	6818      	ldr	r0, [r3, #0]
     988:	4770      	bx	lr
     98a:	bf00      	nop
     98c:	04002208 	.word	0x04002208

00000990 <ZPS_vGetOptionalFeatures>:
     990:	4b01      	ldr	r3, [pc, #4]	; (998 <ZPS_vGetOptionalFeatures+0x8>)
     992:	6818      	ldr	r0, [r3, #0]
     994:	f020 bffc 	b.w	21990 <zps_vAfInterPanInit>
     998:	040009b8 	.word	0x040009b8

0000099c <APP_vInitLeds>:
     99c:	b513      	push	{r0, r1, r4, lr}
     99e:	4c12      	ldr	r4, [pc, #72]	; (9e8 <APP_vInitLeds+0x4c>)
     9a0:	2301      	movs	r3, #1
     9a2:	f8ad 3004 	strh.w	r3, [sp, #4]
     9a6:	4620      	mov	r0, r4
     9a8:	ab01      	add	r3, sp, #4
     9aa:	2210      	movs	r2, #16
     9ac:	2100      	movs	r1, #0
     9ae:	f002 f80f 	bl	29d0 <GPIO_PinInit>
     9b2:	ab01      	add	r3, sp, #4
     9b4:	4620      	mov	r0, r4
     9b6:	2206      	movs	r2, #6
     9b8:	2100      	movs	r1, #0
     9ba:	f002 f809 	bl	29d0 <GPIO_PinInit>
     9be:	ab01      	add	r3, sp, #4
     9c0:	4620      	mov	r0, r4
     9c2:	2203      	movs	r2, #3
     9c4:	2100      	movs	r1, #0
     9c6:	f002 f803 	bl	29d0 <GPIO_PinInit>
     9ca:	2200      	movs	r2, #0
     9cc:	ab01      	add	r3, sp, #4
     9ce:	4611      	mov	r1, r2
     9d0:	4620      	mov	r0, r4
     9d2:	f001 fffd 	bl	29d0 <GPIO_PinInit>
     9d6:	ab01      	add	r3, sp, #4
     9d8:	2203      	movs	r2, #3
     9da:	2100      	movs	r1, #0
     9dc:	4620      	mov	r0, r4
     9de:	f001 fff7 	bl	29d0 <GPIO_PinInit>
     9e2:	b002      	add	sp, #8
     9e4:	bd10      	pop	{r4, pc}
     9e6:	bf00      	nop
     9e8:	40080000 	.word	0x40080000

000009ec <APP_vSetLedsMask>:
     9ec:	b507      	push	{r0, r1, r2, lr}
     9ee:	4b0b      	ldr	r3, [pc, #44]	; (a1c <APP_vSetLedsMask+0x30>)
     9f0:	f010 0201 	ands.w	r2, r0, #1
     9f4:	bf18      	it	ne
     9f6:	2201      	movne	r2, #1
     9f8:	719a      	strb	r2, [r3, #6]
     9fa:	f010 0202 	ands.w	r2, r0, #2
     9fe:	bf18      	it	ne
     a00:	2201      	movne	r2, #1
     a02:	741a      	strb	r2, [r3, #16]
     a04:	2101      	movs	r1, #1
     a06:	f88d 0007 	strb.w	r0, [sp, #7]
     a0a:	f10d 0207 	add.w	r2, sp, #7
     a0e:	2011      	movs	r0, #17
     a10:	f002 fc36 	bl	3280 <vSL_WriteMessage>
     a14:	b003      	add	sp, #12
     a16:	f85d fb04 	ldr.w	pc, [sp], #4
     a1a:	bf00      	nop
     a1c:	40080000 	.word	0x40080000

00000a20 <APP_vBlinkLeds>:
     a20:	b510      	push	{r4, lr}
     a22:	4b08      	ldr	r3, [pc, #32]	; (a44 <APP_vBlinkLeds+0x24>)
     a24:	4c08      	ldr	r4, [pc, #32]	; (a48 <APP_vBlinkLeds+0x28>)
     a26:	7018      	strb	r0, [r3, #0]
     a28:	43c0      	mvns	r0, r0
     a2a:	f000 0003 	and.w	r0, r0, #3
     a2e:	f7ff ffdd 	bl	9ec <APP_vSetLedsMask>
     a32:	7820      	ldrb	r0, [r4, #0]
     a34:	f004 fe92 	bl	575c <ZTIMER_eStop>
     a38:	7820      	ldrb	r0, [r4, #0]
     a3a:	2132      	movs	r1, #50	; 0x32
     a3c:	e8bd 4010 	ldmia.w	sp!, {r4, lr}
     a40:	f004 be64 	b.w	570c <ZTIMER_eStart>
     a44:	04015589 	.word	0x04015589
     a48:	04015584 	.word	0x04015584

00000a4c <APP_cbTimerLedBlink>:
     a4c:	4b01      	ldr	r3, [pc, #4]	; (a54 <APP_cbTimerLedBlink+0x8>)
     a4e:	7818      	ldrb	r0, [r3, #0]
     a50:	f7ff bfcc 	b.w	9ec <APP_vSetLedsMask>
     a54:	04015589 	.word	0x04015589

00000a58 <vfExtendedStatusCallBack>:
     a58:	4601      	mov	r1, r0
     a5a:	4801      	ldr	r0, [pc, #4]	; (a60 <vfExtendedStatusCallBack+0x8>)
     a5c:	f001 bf98 	b.w	2990 <DbgConsole_Printf>
     a60:	0002f678 	.word	0x0002f678

00000a64 <PreSleep>:
     a64:	b510      	push	{r4, lr}
     a66:	4c10      	ldr	r4, [pc, #64]	; (aa8 <PreSleep+0x44>)
     a68:	4810      	ldr	r0, [pc, #64]	; (aac <PreSleep+0x48>)
     a6a:	7821      	ldrb	r1, [r4, #0]
     a6c:	f001 ff90 	bl	2990 <DbgConsole_Printf>
     a70:	7823      	ldrb	r3, [r4, #0]
     a72:	b91b      	cbnz	r3, a7c <PreSleep+0x18>
     a74:	f028 fe68 	bl	29748 <vAppApiSaveMacSettings>
     a78:	f003 f980 	bl	3d7c <vSetOTAPersistedDatForMinRetention>
     a7c:	2000      	movs	r0, #0
     a7e:	f7ff ffb5 	bl	9ec <APP_vSetLedsMask>
     a82:	4a0b      	ldr	r2, [pc, #44]	; (ab0 <PreSleep+0x4c>)
     a84:	490b      	ldr	r1, [pc, #44]	; (ab4 <PreSleep+0x50>)
     a86:	480c      	ldr	r0, [pc, #48]	; (ab8 <PreSleep+0x54>)
     a88:	f001 ff82 	bl	2990 <DbgConsole_Printf>
     a8c:	7823      	ldrb	r3, [r4, #0]
     a8e:	b143      	cbz	r3, aa2 <PreSleep+0x3e>
     a90:	4807      	ldr	r0, [pc, #28]	; (ab0 <PreSleep+0x4c>)
     a92:	f008 fe47 	bl	9724 <PWR_vWakeUpConfig>
     a96:	f001 ff5f 	bl	2958 <DbgConsole_Deinit>
     a9a:	e8bd 4010 	ldmia.w	sp!, {r4, lr}
     a9e:	f002 b833 	b.w	2b08 <BOARD_SetPinsForPowerMode>
     aa2:	4804      	ldr	r0, [pc, #16]	; (ab4 <PreSleep+0x50>)
     aa4:	e7f5      	b.n	a92 <PreSleep+0x2e>
     aa6:	bf00      	nop
     aa8:	0401558b 	.word	0x0401558b
     aac:	0002f695 	.word	0x0002f695
     ab0:	00488080 	.word	0x00488080
     ab4:	00488082 	.word	0x00488082
     ab8:	0002f6aa 	.word	0x0002f6aa

00000abc <vAppMain>:
     abc:	b570      	push	{r4, r5, r6, lr}
     abe:	b086      	sub	sp, #24
     ac0:	4604      	mov	r4, r0
     ac2:	f006 ff31 	bl	7928 <vDebugExceptionHandlersInitialise>
     ac6:	a801      	add	r0, sp, #4
     ac8:	f005 f9a2 	bl	5e10 <WWDT_GetDefaultConfig>
     acc:	4b40      	ldr	r3, [pc, #256]	; (bd0 <vAppMain+0x114>)
     ace:	6f1d      	ldr	r5, [r3, #112]	; 0x70
     ad0:	f015 0610 	ands.w	r6, r5, #16
     ad4:	d027      	beq.n	b26 <vAppMain+0x6a>
     ad6:	2016      	movs	r0, #22
     ad8:	f005 fe18 	bl	670c <CLOCK_EnableClock>
     adc:	2016      	movs	r0, #22
     ade:	f005 fedb 	bl	6898 <RESET_PeripheralReset>
     ae2:	483c      	ldr	r0, [pc, #240]	; (bd4 <vAppMain+0x118>)
     ae4:	4d3c      	ldr	r5, [pc, #240]	; (bd8 <vAppMain+0x11c>)
     ae6:	f005 fa11 	bl	5f0c <WWDT_Deinit>
     aea:	483c      	ldr	r0, [pc, #240]	; (bdc <vAppMain+0x120>)
     aec:	f001 ff50 	bl	2990 <DbgConsole_Printf>
     af0:	f006 fb26 	bl	7140 <POWER_ClearResetCause>
     af4:	4a3a      	ldr	r2, [pc, #232]	; (be0 <vAppMain+0x124>)
     af6:	2300      	movs	r3, #0
     af8:	4610      	mov	r0, r2
     afa:	2401      	movs	r4, #1
     afc:	9300      	str	r3, [sp, #0]
     afe:	9900      	ldr	r1, [sp, #0]
     b00:	42a9      	cmp	r1, r5
     b02:	d908      	bls.n	b16 <vAppMain+0x5a>
     b04:	7013      	strb	r3, [r2, #0]
     b06:	70d3      	strb	r3, [r2, #3]
     b08:	9300      	str	r3, [sp, #0]
     b0a:	9900      	ldr	r1, [sp, #0]
     b0c:	42a9      	cmp	r1, r5
     b0e:	d906      	bls.n	b1e <vAppMain+0x62>
     b10:	7004      	strb	r4, [r0, #0]
     b12:	70c4      	strb	r4, [r0, #3]
     b14:	e7f2      	b.n	afc <vAppMain+0x40>
     b16:	9900      	ldr	r1, [sp, #0]
     b18:	3101      	adds	r1, #1
     b1a:	9100      	str	r1, [sp, #0]
     b1c:	e7ef      	b.n	afe <vAppMain+0x42>
     b1e:	9900      	ldr	r1, [sp, #0]
     b20:	3101      	adds	r1, #1
     b22:	9100      	str	r1, [sp, #0]
     b24:	e7f1      	b.n	b0a <vAppMain+0x4e>
     b26:	482f      	ldr	r0, [pc, #188]	; (be4 <vAppMain+0x128>)
     b28:	f001 ff32 	bl	2990 <DbgConsole_Printf>
     b2c:	482e      	ldr	r0, [pc, #184]	; (be8 <vAppMain+0x12c>)
     b2e:	f001 ff2f 	bl	2990 <DbgConsole_Printf>
     b32:	482c      	ldr	r0, [pc, #176]	; (be4 <vAppMain+0x128>)
     b34:	f001 ff2c 	bl	2990 <DbgConsole_Printf>
     b38:	4629      	mov	r1, r5
     b3a:	482c      	ldr	r0, [pc, #176]	; (bec <vAppMain+0x130>)
     b3c:	f001 ff28 	bl	2990 <DbgConsole_Printf>
     b40:	f7ff fd04 	bl	54c <APP_vInitResources>
     b44:	b16c      	cbz	r4, b62 <vAppMain+0xa6>
     b46:	2001      	movs	r0, #1
     b48:	f008 fcc2 	bl	94d0 <PWR_ChangeDeepSleepMode>
     b4c:	f008 fce2 	bl	9514 <PWR_Init>
     b50:	2001      	movs	r0, #1
     b52:	f008 fe1b 	bl	978c <PWR_vForceRadioRetention>
     b56:	4632      	mov	r2, r6
     b58:	213f      	movs	r1, #63	; 0x3f
     b5a:	f44f 6096 	mov.w	r0, #1200	; 0x4b0
     b5e:	f014 f801 	bl	14b64 <PDM_eInitialise>
     b62:	f7ff fe51 	bl	808 <PDUM_vInit>
     b66:	4822      	ldr	r0, [pc, #136]	; (bf0 <vAppMain+0x134>)
     b68:	f021 fa92 	bl	22090 <ZPS_vExtendedStatusSetCallback>
     b6c:	f002 fa6e 	bl	304c <UART_vInit>
     b70:	f002 fabe 	bl	30f0 <UART_vRtsStartFlow>
     b74:	4620      	mov	r0, r4
     b76:	f000 fd45 	bl	1604 <APP_vInitialiseNode>
     b7a:	b1b4      	cbz	r4, baa <vAppMain+0xee>
     b7c:	481d      	ldr	r0, [pc, #116]	; (bf4 <vAppMain+0x138>)
     b7e:	f001 ff07 	bl	2990 <DbgConsole_Printf>
     b82:	f003 ff87 	bl	4a94 <APP_bNtagPdmLoad>
     b86:	b920      	cbnz	r0, b92 <vAppMain+0xd6>
     b88:	481b      	ldr	r0, [pc, #108]	; (bf8 <vAppMain+0x13c>)
     b8a:	f001 ff01 	bl	2990 <DbgConsole_Printf>
     b8e:	f011 f823 	bl	11bd8 <BDB_vStart>
     b92:	f006 faaf 	bl	70f4 <POWER_GetResetCause>
     b96:	f010 0f60 	tst.w	r0, #96	; 0x60
     b9a:	d108      	bne.n	bae <vAppMain+0xf2>
     b9c:	4817      	ldr	r0, [pc, #92]	; (bfc <vAppMain+0x140>)
     b9e:	f001 fef7 	bl	2990 <DbgConsole_Printf>
     ba2:	2001      	movs	r0, #1
     ba4:	f004 f89e 	bl	4ce4 <APP_vNtagStart>
     ba8:	e001      	b.n	bae <vAppMain+0xf2>
     baa:	f011 f818 	bl	11bde <BDB_vRestart>
     bae:	2000      	movs	r0, #0
     bb0:	f7ff ff1c 	bl	9ec <APP_vSetLedsMask>
     bb4:	2000      	movs	r0, #0
     bb6:	f7ff ff33 	bl	a20 <APP_vBlinkLeds>
     bba:	f04f 4380 	mov.w	r3, #1073741824	; 0x40000000
     bbe:	2202      	movs	r2, #2
     bc0:	f8c3 2280 	str.w	r2, [r3, #640]	; 0x280
     bc4:	f005 f85e 	bl	5c84 <SystemCoreClockUpdate>
     bc8:	f004 fe68 	bl	589c <OSA_TimeInit>
     bcc:	b006      	add	sp, #24
     bce:	bd70      	pop	{r4, r5, r6, pc}
     bd0:	40012000 	.word	0x40012000
     bd4:	4000a000 	.word	0x4000a000
     bd8:	0001869f 	.word	0x0001869f
     bdc:	0002f6d2 	.word	0x0002f6d2
     be0:	40080000 	.word	0x40080000
     be4:	0002f6fa 	.word	0x0002f6fa
     be8:	0002f72b 	.word	0x0002f72b
     bec:	0002f75c 	.word	0x0002f75c
     bf0:	00000a59 	.word	0x00000a59
     bf4:	0002f772 	.word	0x0002f772
     bf8:	0002f794 	.word	0x0002f794
     bfc:	0002f7b0 	.word	0x0002f7b0

00000c00 <Wakeup>:
     c00:	4b0d      	ldr	r3, [pc, #52]	; (c38 <Wakeup+0x38>)
     c02:	6f1b      	ldr	r3, [r3, #112]	; 0x70
     c04:	f013 0f60 	tst.w	r3, #96	; 0x60
     c08:	b510      	push	{r4, lr}
     c0a:	d013      	beq.n	c34 <Wakeup+0x34>
     c0c:	4b0b      	ldr	r3, [pc, #44]	; (c3c <Wakeup+0x3c>)
     c0e:	781c      	ldrb	r4, [r3, #0]
     c10:	b984      	cbnz	r4, c34 <Wakeup+0x34>
     c12:	f7ff fc39 	bl	488 <APP_vSetUpHardware>
     c16:	f007 fe65 	bl	88e4 <RNG_Init>
     c1a:	f007 fd15 	bl	8648 <SecLib_Init>
     c1e:	f007 feef 	bl	8a00 <MEM_Init>
     c22:	f007 ffc1 	bl	8ba8 <TMR_Init>
     c26:	4620      	mov	r0, r4
     c28:	f7ff ff48 	bl	abc <vAppMain>
     c2c:	e8bd 4010 	ldmia.w	sp!, {r4, lr}
     c30:	f000 b966 	b.w	f00 <APP_vStartUpHW>
     c34:	bd10      	pop	{r4, pc}
     c36:	bf00      	nop
     c38:	40012000 	.word	0x40012000
     c3c:	0401558b 	.word	0x0401558b

00000c40 <vAppRegisterPWRCallbacks>:
     c40:	b508      	push	{r3, lr}
     c42:	4804      	ldr	r0, [pc, #16]	; (c54 <vAppRegisterPWRCallbacks+0x14>)
     c44:	f008 fd62 	bl	970c <PWR_RegisterLowPowerEnterCallback>
     c48:	e8bd 4008 	ldmia.w	sp!, {r3, lr}
     c4c:	4802      	ldr	r0, [pc, #8]	; (c58 <vAppRegisterPWRCallbacks+0x18>)
     c4e:	f008 bd63 	b.w	9718 <PWR_RegisterLowPowerExitCallback>
     c52:	bf00      	nop
     c54:	00000a65 	.word	0x00000a65
     c58:	00000c01 	.word	0x00000c01

00000c5c <hardware_init>:
     c5c:	b510      	push	{r4, lr}
     c5e:	4c09      	ldr	r4, [pc, #36]	; (c84 <hardware_init+0x28>)
     c60:	7822      	ldrb	r2, [r4, #0]
     c62:	b96a      	cbnz	r2, c80 <hardware_init+0x24>
     c64:	4b08      	ldr	r3, [pc, #32]	; (c88 <hardware_init+0x2c>)
     c66:	6f1b      	ldr	r3, [r3, #112]	; 0x70
     c68:	f013 0f60 	tst.w	r3, #96	; 0x60
     c6c:	bf1e      	ittt	ne
     c6e:	4b07      	ldrne	r3, [pc, #28]	; (c8c <hardware_init+0x30>)
     c70:	2201      	movne	r2, #1
     c72:	701a      	strbne	r2, [r3, #0]
     c74:	f7ff fc08 	bl	488 <APP_vSetUpHardware>
     c78:	f008 fe30 	bl	98dc <PWR_vColdStart>
     c7c:	2301      	movs	r3, #1
     c7e:	7023      	strb	r3, [r4, #0]
     c80:	bd10      	pop	{r4, pc}
     c82:	bf00      	nop
     c84:	0401558a 	.word	0x0401558a
     c88:	40012000 	.word	0x40012000
     c8c:	0401558b 	.word	0x0401558b

00000c90 <bAllowInterPanEp>:
     c90:	2801      	cmp	r0, #1
     c92:	d105      	bne.n	ca0 <bAllowInterPanEp+0x10>
     c94:	f24c 005e 	movw	r0, #49246	; 0xc05e
     c98:	1a0b      	subs	r3, r1, r0
     c9a:	4258      	negs	r0, r3
     c9c:	4158      	adcs	r0, r3
     c9e:	4770      	bx	lr
     ca0:	2000      	movs	r0, #0
     ca2:	4770      	bx	lr

00000ca4 <eApp_ZLO_RegisterEndpoint>:
     ca4:	b510      	push	{r4, lr}
     ca6:	4604      	mov	r4, r0
     ca8:	4805      	ldr	r0, [pc, #20]	; (cc0 <eApp_ZLO_RegisterEndpoint+0x1c>)
     caa:	f020 fcd3 	bl	21654 <ZPS_vAplZdoRegisterInterPanFilter>
     cae:	f016 fd77 	bl	177a0 <zps_vSetIgnoreProfileCheck>
     cb2:	4621      	mov	r1, r4
     cb4:	4a03      	ldr	r2, [pc, #12]	; (cc4 <eApp_ZLO_RegisterEndpoint+0x20>)
     cb6:	e8bd 4010 	ldmia.w	sp!, {r4, lr}
     cba:	2001      	movs	r0, #1
     cbc:	f00a bc84 	b.w	b5c8 <eZLO_RegisterColourSceneControllerEndPoint>
     cc0:	00000c91 	.word	0x00000c91
     cc4:	040015f0 	.word	0x040015f0

00000cc8 <vAPP_ZCL_DeviceSpecific_Init>:
     cc8:	b513      	push	{r0, r1, r4, lr}
     cca:	4c15      	ldr	r4, [pc, #84]	; (d20 <vAPP_ZCL_DeviceSpecific_Init+0x58>)
     ccc:	4b15      	ldr	r3, [pc, #84]	; (d24 <vAPP_ZCL_DeviceSpecific_Init+0x5c>)
     cce:	4916      	ldr	r1, [pc, #88]	; (d28 <vAPP_ZCL_DeviceSpecific_Init+0x60>)
     cd0:	9301      	str	r3, [sp, #4]
     cd2:	2203      	movs	r2, #3
     cd4:	f504 70ba 	add.w	r0, r4, #372	; 0x174
     cd8:	f02d ff60 	bl	2eb9c <memcpy>
     cdc:	4913      	ldr	r1, [pc, #76]	; (d2c <vAPP_ZCL_DeviceSpecific_Init+0x64>)
     cde:	2211      	movs	r2, #17
     ce0:	f504 70ce 	add.w	r0, r4, #412	; 0x19c
     ce4:	f02d ff5a 	bl	2eb9c <memcpy>
     ce8:	4911      	ldr	r1, [pc, #68]	; (d30 <vAPP_ZCL_DeviceSpecific_Init+0x68>)
     cea:	2208      	movs	r2, #8
     cec:	f504 70e2 	add.w	r0, r4, #452	; 0x1c4
     cf0:	f02d ff54 	bl	2eb9c <memcpy>
     cf4:	490f      	ldr	r1, [pc, #60]	; (d34 <vAPP_ZCL_DeviceSpecific_Init+0x6c>)
     cf6:	2209      	movs	r2, #9
     cf8:	f504 7008 	add.w	r0, r4, #544	; 0x220
     cfc:	f02d ff4e 	bl	2eb9c <memcpy>
     d00:	490d      	ldr	r1, [pc, #52]	; (d38 <vAPP_ZCL_DeviceSpecific_Init+0x70>)
     d02:	220c      	movs	r2, #12
     d04:	f504 70fc 	add.w	r0, r4, #504	; 0x1f8
     d08:	f02d ff48 	bl	2eb9c <memcpy>
     d0c:	2204      	movs	r2, #4
     d0e:	eb0d 0102 	add.w	r1, sp, r2
     d12:	f504 70f0 	add.w	r0, r4, #480	; 0x1e0
     d16:	f02d ff41 	bl	2eb9c <memcpy>
     d1a:	b002      	add	sp, #8
     d1c:	bd10      	pop	{r4, pc}
     d1e:	bf00      	nop
     d20:	040015f0 	.word	0x040015f0
     d24:	04030201 	.word	0x04030201
     d28:	0002f7d0 	.word	0x0002f7d0
     d2c:	0002f7d4 	.word	0x0002f7d4
     d30:	0002f7ed 	.word	0x0002f7ed
     d34:	0002f7f6 	.word	0x0002f7f6
     d38:	0002f800 	.word	0x0002f800

00000d3c <vApp_ZCL_ResetDeviceStructure>:
     d3c:	4802      	ldr	r0, [pc, #8]	; (d48 <vApp_ZCL_ResetDeviceStructure+0xc>)
     d3e:	f44f 6209 	mov.w	r2, #2192	; 0x890
     d42:	2100      	movs	r1, #0
     d44:	f02d bfc4 	b.w	2ecd0 <memset>
     d48:	040015f0 	.word	0x040015f0

00000d4c <app_u8GetDeviceEndpoint>:
     d4c:	2001      	movs	r0, #1
     d4e:	4770      	bx	lr

00000d50 <bIsDeviceLight>:
     d50:	f5b0 7f88 	cmp.w	r0, #272	; 0x110
     d54:	d813      	bhi.n	d7e <bIsDeviceLight+0x2e>
     d56:	28ff      	cmp	r0, #255	; 0xff
     d58:	d805      	bhi.n	d66 <bIsDeviceLight+0x16>
     d5a:	f020 0010 	bic.w	r0, r0, #16
     d5e:	fab0 f080 	clz	r0, r0
     d62:	0940      	lsrs	r0, r0, #5
     d64:	4770      	bx	lr
     d66:	f5a0 7080 	sub.w	r0, r0, #256	; 0x100
     d6a:	2301      	movs	r3, #1
     d6c:	b280      	uxth	r0, r0
     d6e:	fa03 f000 	lsl.w	r0, r3, r0
     d72:	4b09      	ldr	r3, [pc, #36]	; (d98 <bIsDeviceLight+0x48>)
     d74:	4218      	tst	r0, r3
     d76:	bf14      	ite	ne
     d78:	2001      	movne	r0, #1
     d7a:	2000      	moveq	r0, #0
     d7c:	4770      	bx	lr
     d7e:	f5b0 7f08 	cmp.w	r0, #544	; 0x220
     d82:	d006      	beq.n	d92 <bIsDeviceLight+0x42>
     d84:	f020 0010 	bic.w	r0, r0, #16
     d88:	f5a0 7300 	sub.w	r3, r0, #512	; 0x200
     d8c:	4258      	negs	r0, r3
     d8e:	4158      	adcs	r0, r3
     d90:	4770      	bx	lr
     d92:	2001      	movs	r0, #1
     d94:	4770      	bx	lr
     d96:	bf00      	nop
     d98:	00013f07 	.word	0x00013f07

00000d9c <vResetSleepAndJoinCounters>:
     d9c:	4b05      	ldr	r3, [pc, #20]	; (db4 <vResetSleepAndJoinCounters+0x18>)
     d9e:	2214      	movs	r2, #20
     da0:	701a      	strb	r2, [r3, #0]
     da2:	4b05      	ldr	r3, [pc, #20]	; (db8 <vResetSleepAndJoinCounters+0x1c>)
     da4:	220a      	movs	r2, #10
     da6:	701a      	strb	r2, [r3, #0]
     da8:	4a04      	ldr	r2, [pc, #16]	; (dbc <vResetSleepAndJoinCounters+0x20>)
     daa:	2300      	movs	r3, #0
     dac:	7013      	strb	r3, [r2, #0]
     dae:	4a04      	ldr	r2, [pc, #16]	; (dc0 <vResetSleepAndJoinCounters+0x24>)
     db0:	7013      	strb	r3, [r2, #0]
     db2:	4770      	bx	lr
     db4:	04015441 	.word	0x04015441
     db8:	04015440 	.word	0x04015440
     dbc:	0401558e 	.word	0x0401558e
     dc0:	0401558d 	.word	0x0401558d

00000dc4 <bAppCancelRejoin>:
     dc4:	b508      	push	{r3, lr}
     dc6:	f011 fc3b 	bl	12640 <bIsTlStarted>
     dca:	3800      	subs	r0, #0
     dcc:	bf18      	it	ne
     dce:	2001      	movne	r0, #1
     dd0:	bd08      	pop	{r3, pc}
     dd2:	Address 0x00000dd2 is out of bounds.


00000dd4 <vStopAllTimers>:
     dd4:	b508      	push	{r3, lr}
     dd6:	4b0b      	ldr	r3, [pc, #44]	; (e04 <vStopAllTimers+0x30>)
     dd8:	7818      	ldrb	r0, [r3, #0]
     dda:	f004 fcbf 	bl	575c <ZTIMER_eStop>
     dde:	4b0a      	ldr	r3, [pc, #40]	; (e08 <vStopAllTimers+0x34>)
     de0:	7818      	ldrb	r0, [r3, #0]
     de2:	f004 fcbb 	bl	575c <ZTIMER_eStop>
     de6:	4b09      	ldr	r3, [pc, #36]	; (e0c <vStopAllTimers+0x38>)
     de8:	7818      	ldrb	r0, [r3, #0]
     dea:	f004 fcb7 	bl	575c <ZTIMER_eStop>
     dee:	4b08      	ldr	r3, [pc, #32]	; (e10 <vStopAllTimers+0x3c>)
     df0:	7818      	ldrb	r0, [r3, #0]
     df2:	f004 fcb3 	bl	575c <ZTIMER_eStop>
     df6:	4b07      	ldr	r3, [pc, #28]	; (e14 <vStopAllTimers+0x40>)
     df8:	7818      	ldrb	r0, [r3, #0]
     dfa:	e8bd 4008 	ldmia.w	sp!, {r3, lr}
     dfe:	f004 bcad 	b.w	575c <ZTIMER_eStop>
     e02:	bf00      	nop
     e04:	04015584 	.word	0x04015584
     e08:	04015586 	.word	0x04015586
     e0c:	04015581 	.word	0x04015581
     e10:	04015583 	.word	0x04015583
     e14:	04015587 	.word	0x04015587

00000e18 <vWakeCallBack>:
     e18:	b510      	push	{r4, lr}
     e1a:	4c09      	ldr	r4, [pc, #36]	; (e40 <vWakeCallBack+0x28>)
     e1c:	7823      	ldrb	r3, [r4, #0]
     e1e:	b12b      	cbz	r3, e2c <vWakeCallBack+0x14>
     e20:	f002 ffec 	bl	3dfc <bOTADeepSleepAllowed>
     e24:	b150      	cbz	r0, e3c <vWakeCallBack+0x24>
     e26:	7823      	ldrb	r3, [r4, #0]
     e28:	3b01      	subs	r3, #1
     e2a:	7023      	strb	r3, [r4, #0]
     e2c:	f44f 7048 	mov.w	r0, #800	; 0x320
     e30:	f003 f8f6 	bl	4020 <vRunAppOTAStateMachine>
     e34:	4b03      	ldr	r3, [pc, #12]	; (e44 <vWakeCallBack+0x2c>)
     e36:	2201      	movs	r2, #1
     e38:	701a      	strb	r2, [r3, #0]
     e3a:	bd10      	pop	{r4, pc}
     e3c:	230a      	movs	r3, #10
     e3e:	e7f4      	b.n	e2a <vWakeCallBack+0x12>
     e40:	04015440 	.word	0x04015440
     e44:	04015430 	.word	0x04015430

00000e48 <psGetEndpointRecordTable>:
     e48:	4800      	ldr	r0, [pc, #0]	; (e4c <psGetEndpointRecordTable+0x4>)
     e4a:	4770      	bx	lr
     e4c:	04015590 	.word	0x04015590

00000e50 <psGetGroupRecordTable>:
     e50:	4800      	ldr	r0, [pc, #0]	; (e54 <psGetGroupRecordTable+0x4>)
     e52:	4770      	bx	lr
     e54:	04015646 	.word	0x04015646

00000e58 <vStartPolling>:
     e58:	b510      	push	{r4, lr}
     e5a:	4c08      	ldr	r4, [pc, #32]	; (e7c <vStartPolling+0x24>)
     e5c:	4b08      	ldr	r3, [pc, #32]	; (e80 <vStartPolling+0x28>)
     e5e:	7820      	ldrb	r0, [r4, #0]
     e60:	2214      	movs	r2, #20
     e62:	801a      	strh	r2, [r3, #0]
     e64:	f004 fc7a 	bl	575c <ZTIMER_eStop>
     e68:	7820      	ldrb	r0, [r4, #0]
     e6a:	21fa      	movs	r1, #250	; 0xfa
     e6c:	f004 fc4e 	bl	570c <ZTIMER_eStart>
     e70:	e8bd 4010 	ldmia.w	sp!, {r4, lr}
     e74:	4601      	mov	r1, r0
     e76:	4803      	ldr	r0, [pc, #12]	; (e84 <vStartPolling+0x2c>)
     e78:	f001 bd8a 	b.w	2990 <DbgConsole_Printf>
     e7c:	04015586 	.word	0x04015586
     e80:	04015668 	.word	0x04015668
     e84:	0002f80c 	.word	0x0002f80c

00000e88 <APP_cbTimerAddGroup>:
     e88:	b538      	push	{r3, r4, r5, lr}
     e8a:	4815      	ldr	r0, [pc, #84]	; (ee0 <APP_cbTimerAddGroup+0x58>)
     e8c:	4c15      	ldr	r4, [pc, #84]	; (ee4 <APP_cbTimerAddGroup+0x5c>)
     e8e:	4d16      	ldr	r5, [pc, #88]	; (ee8 <APP_cbTimerAddGroup+0x60>)
     e90:	f001 fd7e 	bl	2990 <DbgConsole_Printf>
     e94:	4b15      	ldr	r3, [pc, #84]	; (eec <APP_cbTimerAddGroup+0x64>)
     e96:	7821      	ldrb	r1, [r4, #0]
     e98:	781a      	ldrb	r2, [r3, #0]
     e9a:	4b15      	ldr	r3, [pc, #84]	; (ef0 <APP_cbTimerAddGroup+0x68>)
     e9c:	eb03 0382 	add.w	r3, r3, r2, lsl #2
     ea0:	8858      	ldrh	r0, [r3, #2]
     ea2:	f001 fbe1 	bl	2668 <vAppAddGroup>
     ea6:	7822      	ldrb	r2, [r4, #0]
     ea8:	7829      	ldrb	r1, [r5, #0]
     eaa:	4812      	ldr	r0, [pc, #72]	; (ef4 <APP_cbTimerAddGroup+0x6c>)
     eac:	f001 fd70 	bl	2990 <DbgConsole_Printf>
     eb0:	782b      	ldrb	r3, [r5, #0]
     eb2:	4a11      	ldr	r2, [pc, #68]	; (ef8 <APP_cbTimerAddGroup+0x70>)
     eb4:	b173      	cbz	r3, ed4 <APP_cbTimerAddGroup+0x4c>
     eb6:	7823      	ldrb	r3, [r4, #0]
     eb8:	4910      	ldr	r1, [pc, #64]	; (efc <APP_cbTimerAddGroup+0x74>)
     eba:	3301      	adds	r3, #1
     ebc:	7809      	ldrb	r1, [r1, #0]
     ebe:	b2db      	uxtb	r3, r3
     ec0:	4299      	cmp	r1, r3
     ec2:	7023      	strb	r3, [r4, #0]
     ec4:	d906      	bls.n	ed4 <APP_cbTimerAddGroup+0x4c>
     ec6:	e8bd 4038 	ldmia.w	sp!, {r3, r4, r5, lr}
     eca:	7810      	ldrb	r0, [r2, #0]
     ecc:	f44f 71fa 	mov.w	r1, #500	; 0x1f4
     ed0:	f004 bc1c 	b.w	570c <ZTIMER_eStart>
     ed4:	e8bd 4038 	ldmia.w	sp!, {r3, r4, r5, lr}
     ed8:	7810      	ldrb	r0, [r2, #0]
     eda:	f004 bc3f 	b.w	575c <ZTIMER_eStop>
     ede:	bf00      	nop
     ee0:	0002f823 	.word	0x0002f823
     ee4:	0401566c 	.word	0x0401566c
     ee8:	0401558c 	.word	0x0401558c
     eec:	04015679 	.word	0x04015679
     ef0:	04015646 	.word	0x04015646
     ef4:	0002f83a 	.word	0x0002f83a
     ef8:	04015581 	.word	0x04015581
     efc:	04015590 	.word	0x04015590

00000f00 <APP_vStartUpHW>:
     f00:	b508      	push	{r3, lr}
     f02:	f7ff fd0b 	bl	91c <ZPS_pvAplZdoGetAplHandle>
     f06:	f01a faa3 	bl	1b450 <zps_eAplZdoPoll>
     f0a:	4b06      	ldr	r3, [pc, #24]	; (f24 <APP_vStartUpHW+0x24>)
     f0c:	21c8      	movs	r1, #200	; 0xc8
     f0e:	7818      	ldrb	r0, [r3, #0]
     f10:	f004 fbfc 	bl	570c <ZTIMER_eStart>
     f14:	4b04      	ldr	r3, [pc, #16]	; (f28 <APP_vStartUpHW+0x28>)
     f16:	2164      	movs	r1, #100	; 0x64
     f18:	7818      	ldrb	r0, [r3, #0]
     f1a:	e8bd 4008 	ldmia.w	sp!, {r3, lr}
     f1e:	f004 bbf5 	b.w	570c <ZTIMER_eStart>
     f22:	bf00      	nop
     f24:	04015586 	.word	0x04015586
     f28:	04015587 	.word	0x04015587

00000f2c <vRemoveLight>:
     f2c:	b570      	push	{r4, r5, r6, lr}
     f2e:	4c1c      	ldr	r4, [pc, #112]	; (fa0 <vRemoveLight+0x74>)
     f30:	7822      	ldrb	r2, [r4, #0]
     f32:	2300      	movs	r3, #0
     f34:	4293      	cmp	r3, r2
     f36:	d300      	bcc.n	f3a <vRemoveLight+0xe>
     f38:	bd70      	pop	{r4, r5, r6, pc}
     f3a:	eb04 01c3 	add.w	r1, r4, r3, lsl #3
     f3e:	884d      	ldrh	r5, [r1, #2]
     f40:	4285      	cmp	r5, r0
     f42:	d12b      	bne.n	f9c <vRemoveLight+0x70>
     f44:	2b12      	cmp	r3, #18
     f46:	d812      	bhi.n	f6e <vRemoveLight+0x42>
     f48:	f103 00a2 	add.w	r0, r3, #162	; 0xa2
     f4c:	4420      	add	r0, r4
     f4e:	460e      	mov	r6, r1
     f50:	3301      	adds	r3, #1
     f52:	f856 5f0a 	ldr.w	r5, [r6, #10]!
     f56:	f8c1 5002 	str.w	r5, [r1, #2]
     f5a:	6875      	ldr	r5, [r6, #4]
     f5c:	f8c1 5006 	str.w	r5, [r1, #6]
     f60:	7845      	ldrb	r5, [r0, #1]
     f62:	f800 5b01 	strb.w	r5, [r0], #1
     f66:	2b13      	cmp	r3, #19
     f68:	f101 0108 	add.w	r1, r1, #8
     f6c:	d1ef      	bne.n	f4e <vRemoveLight+0x22>
     f6e:	1e50      	subs	r0, r2, #1
     f70:	b2c0      	uxtb	r0, r0
     f72:	2208      	movs	r2, #8
     f74:	7020      	strb	r0, [r4, #0]
     f76:	fb02 4000 	mla	r0, r2, r0, r4
     f7a:	2100      	movs	r1, #0
     f7c:	3002      	adds	r0, #2
     f7e:	f02d fea7 	bl	2ecd0 <memset>
     f82:	7823      	ldrb	r3, [r4, #0]
     f84:	4906      	ldr	r1, [pc, #24]	; (fa0 <vRemoveLight+0x74>)
     f86:	4423      	add	r3, r4
     f88:	2200      	movs	r2, #0
     f8a:	f883 20a2 	strb.w	r2, [r3, #162]	; 0xa2
     f8e:	7062      	strb	r2, [r4, #1]
     f90:	2003      	movs	r0, #3
     f92:	e8bd 4070 	ldmia.w	sp!, {r4, r5, r6, lr}
     f96:	22b6      	movs	r2, #182	; 0xb6
     f98:	f015 bc5c 	b.w	16854 <PDM_eSaveRecordData>
     f9c:	3301      	adds	r3, #1
     f9e:	e7c9      	b.n	f34 <vRemoveLight+0x8>
     fa0:	04015590 	.word	0x04015590

00000fa4 <vSelectLight>:
     fa4:	b530      	push	{r4, r5, lr}
     fa6:	4c43      	ldr	r4, [pc, #268]	; (10b4 <STACK_SIZE+0xd4>)
     fa8:	7863      	ldrb	r3, [r4, #1]
     faa:	18e2      	adds	r2, r4, r3
     fac:	b08d      	sub	sp, #52	; 0x34
     fae:	f892 10a2 	ldrb.w	r1, [r2, #162]	; 0xa2
     fb2:	2907      	cmp	r1, #7
     fb4:	d91d      	bls.n	ff2 <STACK_SIZE+0x12>
     fb6:	eb04 01c3 	add.w	r1, r4, r3, lsl #3
     fba:	7820      	ldrb	r0, [r4, #0]
     fbc:	4298      	cmp	r0, r3
     fbe:	d842      	bhi.n	1046 <STACK_SIZE+0x66>
     fc0:	2814      	cmp	r0, #20
     fc2:	bf84      	itt	hi
     fc4:	2314      	movhi	r3, #20
     fc6:	7023      	strbhi	r3, [r4, #0]
     fc8:	7820      	ldrb	r0, [r4, #0]
     fca:	3801      	subs	r0, #1
     fcc:	2208      	movs	r2, #8
     fce:	b2c0      	uxtb	r0, r0
     fd0:	7020      	strb	r0, [r4, #0]
     fd2:	fb02 4000 	mla	r0, r2, r0, r4
     fd6:	2100      	movs	r1, #0
     fd8:	3002      	adds	r0, #2
     fda:	f02d fe79 	bl	2ecd0 <memset>
     fde:	7823      	ldrb	r3, [r4, #0]
     fe0:	4934      	ldr	r1, [pc, #208]	; (10b4 <STACK_SIZE+0xd4>)
     fe2:	4423      	add	r3, r4
     fe4:	2200      	movs	r2, #0
     fe6:	f883 20a2 	strb.w	r2, [r3, #162]	; 0xa2
     fea:	2003      	movs	r0, #3
     fec:	22b6      	movs	r2, #182	; 0xb6
     fee:	f015 fc31 	bl	16854 <PDM_eSaveRecordData>
     ff2:	7820      	ldrb	r0, [r4, #0]
     ff4:	b328      	cbz	r0, 1042 <STACK_SIZE+0x62>
     ff6:	7862      	ldrb	r2, [r4, #1]
     ff8:	4613      	mov	r3, r2
     ffa:	3301      	adds	r3, #1
     ffc:	b2db      	uxtb	r3, r3
     ffe:	4298      	cmp	r0, r3
    1000:	bf98      	it	ls
    1002:	2300      	movls	r3, #0
    1004:	eb04 01c3 	add.w	r1, r4, r3, lsl #3
    1008:	8849      	ldrh	r1, [r1, #2]
    100a:	b909      	cbnz	r1, 1010 <STACK_SIZE+0x30>
    100c:	429a      	cmp	r2, r3
    100e:	d0f4      	beq.n	ffa <STACK_SIZE+0x1a>
    1010:	7063      	strb	r3, [r4, #1]
    1012:	4423      	add	r3, r4
    1014:	f893 20a2 	ldrb.w	r2, [r3, #162]	; 0xa2
    1018:	3201      	adds	r2, #1
    101a:	b2d2      	uxtb	r2, r2
    101c:	2a04      	cmp	r2, #4
    101e:	f883 20a2 	strb.w	r2, [r3, #162]	; 0xa2
    1022:	d122      	bne.n	106a <STACK_SIZE+0x8a>
    1024:	f7ff fc7a 	bl	91c <ZPS_pvAplZdoGetAplHandle>
    1028:	f01a f9a0 	bl	1b36c <zps_pvAplZdoGetNwkHandle>
    102c:	7863      	ldrb	r3, [r4, #1]
    102e:	eb04 04c3 	add.w	r4, r4, r3, lsl #3
    1032:	2302      	movs	r3, #2
    1034:	9300      	str	r3, [sp, #0]
    1036:	8861      	ldrh	r1, [r4, #2]
    1038:	2300      	movs	r3, #0
    103a:	f64f 72fc 	movw	r2, #65532	; 0xfffc
    103e:	f023 fa7f 	bl	24540 <ZPS_vNwkSendNwkStatusCommand>
    1042:	b00d      	add	sp, #52	; 0x34
    1044:	bd30      	pop	{r4, r5, pc}
    1046:	2b12      	cmp	r3, #18
    1048:	d80b      	bhi.n	1062 <STACK_SIZE+0x82>
    104a:	460d      	mov	r5, r1
    104c:	f855 0f0a 	ldr.w	r0, [r5, #10]!
    1050:	f8c1 0002 	str.w	r0, [r1, #2]
    1054:	6868      	ldr	r0, [r5, #4]
    1056:	f8c1 0006 	str.w	r0, [r1, #6]
    105a:	f892 00a3 	ldrb.w	r0, [r2, #163]	; 0xa3
    105e:	f882 00a2 	strb.w	r0, [r2, #162]	; 0xa2
    1062:	3301      	adds	r3, #1
    1064:	3108      	adds	r1, #8
    1066:	3201      	adds	r2, #1
    1068:	e7a7      	b.n	fba <vSelectLight+0x16>
    106a:	2500      	movs	r5, #0
    106c:	4812      	ldr	r0, [pc, #72]	; (10b8 <STACK_SIZE+0xd8>)
    106e:	f001 fc8f 	bl	2990 <DbgConsole_Printf>
    1072:	f8ad 501c 	strh.w	r5, [sp, #28]
    1076:	f7ff feef 	bl	e58 <vStartPolling>
    107a:	2307      	movs	r3, #7
    107c:	f88d 3020 	strb.w	r3, [sp, #32]
    1080:	7863      	ldrb	r3, [r4, #1]
    1082:	480e      	ldr	r0, [pc, #56]	; (10bc <STACK_SIZE+0xdc>)
    1084:	eb04 04c3 	add.w	r4, r4, r3, lsl #3
    1088:	462a      	mov	r2, r5
    108a:	8863      	ldrh	r3, [r4, #2]
    108c:	f8ad 3028 	strh.w	r3, [sp, #40]	; 0x28
    1090:	ab07      	add	r3, sp, #28
    1092:	e9cd 5304 	strd	r5, r3, [sp, #16]
    1096:	2301      	movs	r3, #1
    1098:	9302      	str	r3, [sp, #8]
    109a:	f10d 031b 	add.w	r3, sp, #27
    109e:	9301      	str	r3, [sp, #4]
    10a0:	ab08      	add	r3, sp, #32
    10a2:	9300      	str	r3, [sp, #0]
    10a4:	9503      	str	r5, [sp, #12]
    10a6:	7a21      	ldrb	r1, [r4, #8]
    10a8:	7d00      	ldrb	r0, [r0, #20]
    10aa:	462b      	mov	r3, r5
    10ac:	f00f fda2 	bl	10bf4 <eZCL_SendReadAttributesRequest>
    10b0:	e7c7      	b.n	1042 <STACK_SIZE+0x62>
    10b2:	bf00      	nop
    10b4:	04015590 	.word	0x04015590
    10b8:	0002f85c 	.word	0x0002f85c
    10bc:	04015418 	.word	0x04015418

000010c0 <bAddToEndpointTable>:
    10c0:	e92d 47f3 	stmdb	sp!, {r0, r1, r4, r5, r6, r7, r8, r9, sl, lr}
    10c4:	f8df 90ac 	ldr.w	r9, [pc, #172]	; 1174 <bAddToEndpointTable+0xb4>
    10c8:	f8df a0ac 	ldr.w	sl, [pc, #172]	; 1178 <bAddToEndpointTable+0xb8>
    10cc:	2600      	movs	r6, #0
    10ce:	4604      	mov	r4, r0
    10d0:	25ff      	movs	r5, #255	; 0xff
    10d2:	4637      	mov	r7, r6
    10d4:	46c8      	mov	r8, r9
    10d6:	f8b9 3002 	ldrh.w	r3, [r9, #2]
    10da:	8822      	ldrh	r2, [r4, #0]
    10dc:	429a      	cmp	r2, r3
    10de:	d125      	bne.n	112c <bAddToEndpointTable+0x6c>
    10e0:	78a1      	ldrb	r1, [r4, #2]
    10e2:	f899 2008 	ldrb.w	r2, [r9, #8]
    10e6:	4291      	cmp	r1, r2
    10e8:	d120      	bne.n	112c <bAddToEndpointTable+0x6c>
    10ea:	481f      	ldr	r0, [pc, #124]	; (1168 <bAddToEndpointTable+0xa8>)
    10ec:	b2fd      	uxtb	r5, r7
    10ee:	f001 fc4f 	bl	2990 <DbgConsole_Printf>
    10f2:	eb08 01c5 	add.w	r1, r8, r5, lsl #3
    10f6:	8822      	ldrh	r2, [r4, #0]
    10f8:	88a3      	ldrh	r3, [r4, #4]
    10fa:	88e0      	ldrh	r0, [r4, #6]
    10fc:	80c8      	strh	r0, [r1, #6]
    10fe:	804a      	strh	r2, [r1, #2]
    1100:	808b      	strh	r3, [r1, #4]
    1102:	78a3      	ldrb	r3, [r4, #2]
    1104:	720b      	strb	r3, [r1, #8]
    1106:	7a24      	ldrb	r4, [r4, #8]
    1108:	724c      	strb	r4, [r1, #9]
    110a:	eb08 0105 	add.w	r1, r8, r5
    110e:	2400      	movs	r4, #0
    1110:	f881 40a2 	strb.w	r4, [r1, #162]	; 0xa2
    1114:	9000      	str	r0, [sp, #0]
    1116:	4629      	mov	r1, r5
    1118:	4814      	ldr	r0, [pc, #80]	; (116c <bAddToEndpointTable+0xac>)
    111a:	f001 fc39 	bl	2990 <DbgConsole_Printf>
    111e:	2601      	movs	r6, #1
    1120:	f888 5001 	strb.w	r5, [r8, #1]
    1124:	4630      	mov	r0, r6
    1126:	b002      	add	sp, #8
    1128:	e8bd 87f0 	ldmia.w	sp!, {r4, r5, r6, r7, r8, r9, sl, pc}
    112c:	b933      	cbnz	r3, 113c <bAddToEndpointTable+0x7c>
    112e:	b92e      	cbnz	r6, 113c <bAddToEndpointTable+0x7c>
    1130:	4639      	mov	r1, r7
    1132:	4650      	mov	r0, sl
    1134:	f001 fc2c 	bl	2990 <DbgConsole_Printf>
    1138:	b2fd      	uxtb	r5, r7
    113a:	2601      	movs	r6, #1
    113c:	3701      	adds	r7, #1
    113e:	2f14      	cmp	r7, #20
    1140:	f109 0908 	add.w	r9, r9, #8
    1144:	d1c7      	bne.n	10d6 <bAddToEndpointTable+0x16>
    1146:	480a      	ldr	r0, [pc, #40]	; (1170 <bAddToEndpointTable+0xb0>)
    1148:	f001 fc22 	bl	2990 <DbgConsole_Printf>
    114c:	b946      	cbnz	r6, 1160 <bAddToEndpointTable+0xa0>
    114e:	2d13      	cmp	r5, #19
    1150:	d8e8      	bhi.n	1124 <bAddToEndpointTable+0x64>
    1152:	e7ce      	b.n	10f2 <bAddToEndpointTable+0x32>
    1154:	f898 3000 	ldrb.w	r3, [r8]
    1158:	3301      	adds	r3, #1
    115a:	f888 3000 	strb.w	r3, [r8]
    115e:	e7c8      	b.n	10f2 <bAddToEndpointTable+0x32>
    1160:	2d13      	cmp	r5, #19
    1162:	d9f7      	bls.n	1154 <bAddToEndpointTable+0x94>
    1164:	2600      	movs	r6, #0
    1166:	e7dd      	b.n	1124 <bAddToEndpointTable+0x64>
    1168:	0002f866 	.word	0x0002f866
    116c:	0002f88b 	.word	0x0002f88b
    1170:	0002f87f 	.word	0x0002f87f
    1174:	04015590 	.word	0x04015590
    1178:	0002f870 	.word	0x0002f870

0000117c <APP_taskController>:
    117c:	e92d 47f0 	stmdb	sp!, {r4, r5, r6, r7, r8, r9, sl, lr}
    1180:	b0a8      	sub	sp, #160	; 0xa0
    1182:	48b5      	ldr	r0, [pc, #724]	; (1458 <APP_taskController+0x2dc>)
    1184:	a90e      	add	r1, sp, #56	; 0x38
    1186:	f004 fa25 	bl	55d4 <ZQ_bQueueReceive>
    118a:	b158      	cbz	r0, 11a4 <APP_taskController+0x28>
    118c:	f89d 2038 	ldrb.w	r2, [sp, #56]	; 0x38
    1190:	1e53      	subs	r3, r2, #1
    1192:	2b01      	cmp	r3, #1
    1194:	d809      	bhi.n	11aa <APP_taskController+0x2e>
    1196:	f89d 3040 	ldrb.w	r3, [sp, #64]	; 0x40
    119a:	2b05      	cmp	r3, #5
    119c:	d105      	bne.n	11aa <APP_taskController+0x2e>
    119e:	2001      	movs	r0, #1
    11a0:	f003 fda0 	bl	4ce4 <APP_vNtagStart>
    11a4:	b028      	add	sp, #160	; 0xa0
    11a6:	e8bd 87f0 	ldmia.w	sp!, {r4, r5, r6, r7, r8, r9, sl, pc}
    11aa:	4bac      	ldr	r3, [pc, #688]	; (145c <APP_taskController+0x2e0>)
    11ac:	7859      	ldrb	r1, [r3, #1]
    11ae:	2900      	cmp	r1, #0
    11b0:	d04e      	beq.n	1250 <APP_taskController+0xd4>
    11b2:	2902      	cmp	r1, #2
    11b4:	d1f6      	bne.n	11a4 <APP_taskController+0x28>
    11b6:	2a04      	cmp	r2, #4
    11b8:	f040 80bd 	bne.w	1336 <APP_taskController+0x1ba>
    11bc:	f000 ffd2 	bl	2164 <psGetDeviceTable>
    11c0:	f8bd 3046 	ldrh.w	r3, [sp, #70]	; 0x46
    11c4:	f89d 2042 	ldrb.w	r2, [sp, #66]	; 0x42
    11c8:	f8bd 1040 	ldrh.w	r1, [sp, #64]	; 0x40
    11cc:	4604      	mov	r4, r0
    11ce:	48a4      	ldr	r0, [pc, #656]	; (1460 <APP_taskController+0x2e4>)
    11d0:	f001 fbde 	bl	2990 <DbgConsole_Printf>
    11d4:	f8bd 0046 	ldrh.w	r0, [sp, #70]	; 0x46
    11d8:	f5b0 6f02 	cmp.w	r0, #2080	; 0x820
    11dc:	d00c      	beq.n	11f8 <APP_taskController+0x7c>
    11de:	f200 80a1 	bhi.w	1324 <APP_taskController+0x1a8>
    11e2:	f5b0 6f00 	cmp.w	r0, #2048	; 0x800
    11e6:	d007      	beq.n	11f8 <APP_taskController+0x7c>
    11e8:	f200 8099 	bhi.w	131e <APP_taskController+0x1a2>
    11ec:	f5b0 7f84 	cmp.w	r0, #264	; 0x108
    11f0:	d238      	bcs.n	1264 <APP_taskController+0xe8>
    11f2:	f5b0 7f81 	cmp.w	r0, #258	; 0x102
    11f6:	d938      	bls.n	126a <APP_taskController+0xee>
    11f8:	e9d4 2302 	ldrd	r2, r3, [r4, #8]
    11fc:	e9cd 2308 	strd	r2, r3, [sp, #32]
    1200:	f7ff fb8c 	bl	91c <ZPS_pvAplZdoGetAplHandle>
    1204:	f01a f8b2 	bl	1b36c <zps_pvAplZdoGetNwkHandle>
    1208:	f022 fd09 	bl	23c1e <ZPS_u16NwkNibGetNwkAddr>
    120c:	f8ad 0028 	strh.w	r0, [sp, #40]	; 0x28
    1210:	6923      	ldr	r3, [r4, #16]
    1212:	930b      	str	r3, [sp, #44]	; 0x2c
    1214:	7d23      	ldrb	r3, [r4, #20]
    1216:	f88d 302a 	strb.w	r3, [sp, #42]	; 0x2a
    121a:	7d63      	ldrb	r3, [r4, #21]
    121c:	f8bd 1040 	ldrh.w	r1, [sp, #64]	; 0x40
    1220:	4890      	ldr	r0, [pc, #576]	; (1464 <APP_taskController+0x2e8>)
    1222:	f88d 3030 	strb.w	r3, [sp, #48]	; 0x30
    1226:	f001 fbb3 	bl	2990 <DbgConsole_Printf>
    122a:	2307      	movs	r3, #7
    122c:	f88d 3010 	strb.w	r3, [sp, #16]
    1230:	f8bd 3040 	ldrh.w	r3, [sp, #64]	; 0x40
    1234:	f8ad 3018 	strh.w	r3, [sp, #24]
    1238:	488b      	ldr	r0, [pc, #556]	; (1468 <APP_taskController+0x2ec>)
    123a:	f89d 1042 	ldrb.w	r1, [sp, #66]	; 0x42
    123e:	ab08      	add	r3, sp, #32
    1240:	9300      	str	r3, [sp, #0]
    1242:	aa04      	add	r2, sp, #16
    1244:	f10d 030f 	add.w	r3, sp, #15
    1248:	7d00      	ldrb	r0, [r0, #20]
    124a:	f00d fc28 	bl	ea9e <eCLD_ZllUtilityCommandEndpointInformationCommandSend>
    124e:	e7a9      	b.n	11a4 <APP_taskController+0x28>
    1250:	2a02      	cmp	r2, #2
    1252:	d1a7      	bne.n	11a4 <APP_taskController+0x28>
    1254:	4885      	ldr	r0, [pc, #532]	; (146c <APP_taskController+0x2f0>)
    1256:	f001 fb9b 	bl	2990 <DbgConsole_Printf>
    125a:	f89d 0040 	ldrb.w	r0, [sp, #64]	; 0x40
    125e:	f002 f931 	bl	34c4 <APP_vHandleFactoryNewKeyPress>
    1262:	e79f      	b.n	11a4 <APP_taskController+0x28>
    1264:	f5b0 7f87 	cmp.w	r0, #270	; 0x10e
    1268:	d0c6      	beq.n	11f8 <APP_taskController+0x7c>
    126a:	f7ff fd71 	bl	d50 <bIsDeviceLight>
    126e:	2800      	cmp	r0, #0
    1270:	d098      	beq.n	11a4 <APP_taskController+0x28>
    1272:	a810      	add	r0, sp, #64	; 0x40
    1274:	f7ff ff24 	bl	10c0 <bAddToEndpointTable>
    1278:	2800      	cmp	r0, #0
    127a:	d093      	beq.n	11a4 <APP_taskController+0x28>
    127c:	4c7c      	ldr	r4, [pc, #496]	; (1470 <APP_taskController+0x2f4>)
    127e:	4d7d      	ldr	r5, [pc, #500]	; (1474 <APP_taskController+0x2f8>)
    1280:	4621      	mov	r1, r4
    1282:	22b6      	movs	r2, #182	; 0xb6
    1284:	2003      	movs	r0, #3
    1286:	f015 fae5 	bl	16854 <PDM_eSaveRecordData>
    128a:	4b7b      	ldr	r3, [pc, #492]	; (1478 <APP_taskController+0x2fc>)
    128c:	8869      	ldrh	r1, [r5, #2]
    128e:	487b      	ldr	r0, [pc, #492]	; (147c <APP_taskController+0x300>)
    1290:	2700      	movs	r7, #0
    1292:	701f      	strb	r7, [r3, #0]
    1294:	7863      	ldrb	r3, [r4, #1]
    1296:	eb04 03c3 	add.w	r3, r4, r3, lsl #3
    129a:	f04f 0800 	mov.w	r8, #0
    129e:	885a      	ldrh	r2, [r3, #2]
    12a0:	f001 fb76 	bl	2990 <DbgConsole_Printf>
    12a4:	f7ff fd52 	bl	d4c <app_u8GetDeviceEndpoint>
    12a8:	f8b5 a002 	ldrh.w	sl, [r5, #2]
    12ac:	f04f 0900 	mov.w	r9, #0
    12b0:	4606      	mov	r6, r0
    12b2:	f7ff fb33 	bl	91c <ZPS_pvAplZdoGetAplHandle>
    12b6:	4653      	mov	r3, sl
    12b8:	f446 21c0 	orr.w	r1, r6, #393216	; 0x60000
    12bc:	2201      	movs	r2, #1
    12be:	e9cd 8900 	strd	r8, r9, [sp]
    12c2:	f01b fdb7 	bl	1ce34 <zps_eAplZdoBind>
    12c6:	f7ff fd41 	bl	d4c <app_u8GetDeviceEndpoint>
    12ca:	f8b5 a002 	ldrh.w	sl, [r5, #2]
    12ce:	4606      	mov	r6, r0
    12d0:	f7ff fb24 	bl	91c <ZPS_pvAplZdoGetAplHandle>
    12d4:	4653      	mov	r3, sl
    12d6:	f446 2100 	orr.w	r1, r6, #524288	; 0x80000
    12da:	2201      	movs	r2, #1
    12dc:	e9cd 8900 	strd	r8, r9, [sp]
    12e0:	f01b fda8 	bl	1ce34 <zps_eAplZdoBind>
    12e4:	f7ff fd32 	bl	d4c <app_u8GetDeviceEndpoint>
    12e8:	886d      	ldrh	r5, [r5, #2]
    12ea:	4606      	mov	r6, r0
    12ec:	f7ff fb16 	bl	91c <ZPS_pvAplZdoGetAplHandle>
    12f0:	462b      	mov	r3, r5
    12f2:	f046 7140 	orr.w	r1, r6, #50331648	; 0x3000000
    12f6:	2201      	movs	r2, #1
    12f8:	e9cd 8900 	strd	r8, r9, [sp]
    12fc:	f01b fd9a 	bl	1ce34 <zps_eAplZdoBind>
    1300:	2002      	movs	r0, #2
    1302:	f001 f9dd 	bl	26c0 <vAppIdentifyEffect>
    1306:	4b5e      	ldr	r3, [pc, #376]	; (1480 <APP_taskController+0x304>)
    1308:	7862      	ldrb	r2, [r4, #1]
    130a:	701a      	strb	r2, [r3, #0]
    130c:	4b5d      	ldr	r3, [pc, #372]	; (1484 <APP_taskController+0x308>)
    130e:	701f      	strb	r7, [r3, #0]
    1310:	4b5d      	ldr	r3, [pc, #372]	; (1488 <APP_taskController+0x30c>)
    1312:	f44f 71fa 	mov.w	r1, #500	; 0x1f4
    1316:	7818      	ldrb	r0, [r3, #0]
    1318:	f004 f9f8 	bl	570c <ZTIMER_eStart>
    131c:	e742      	b.n	11a4 <APP_taskController+0x28>
    131e:	f5b0 6f01 	cmp.w	r0, #2064	; 0x810
    1322:	e7a1      	b.n	1268 <APP_taskController+0xec>
    1324:	f020 0310 	bic.w	r3, r0, #16
    1328:	f5b3 6f04 	cmp.w	r3, #2112	; 0x840
    132c:	f43f af64 	beq.w	11f8 <APP_taskController+0x7c>
    1330:	f5b0 6f03 	cmp.w	r0, #2096	; 0x830
    1334:	e798      	b.n	1268 <APP_taskController+0xec>
    1336:	2a05      	cmp	r2, #5
    1338:	d125      	bne.n	1386 <APP_taskController+0x20a>
    133a:	e9dd 6712 	ldrd	r6, r7, [sp, #72]	; 0x48
    133e:	23af      	movs	r3, #175	; 0xaf
    1340:	f8bd 5050 	ldrh.w	r5, [sp, #80]	; 0x50
    1344:	f88d 3010 	strb.w	r3, [sp, #16]
    1348:	2400      	movs	r4, #0
    134a:	f7ff fae7 	bl	91c <ZPS_pvAplZdoGetAplHandle>
    134e:	f01a f80d 	bl	1b36c <zps_pvAplZdoGetNwkHandle>
    1352:	4632      	mov	r2, r6
    1354:	463b      	mov	r3, r7
    1356:	4629      	mov	r1, r5
    1358:	9400      	str	r4, [sp, #0]
    135a:	f022 ff8f 	bl	2427c <ZPS_bNwkNibAddrMapAddEntry>
    135e:	f8bd 1050 	ldrh.w	r1, [sp, #80]	; 0x50
    1362:	484a      	ldr	r0, [pc, #296]	; (148c <APP_taskController+0x310>)
    1364:	f8ad 1028 	strh.w	r1, [sp, #40]	; 0x28
    1368:	2307      	movs	r3, #7
    136a:	f88d 3020 	strb.w	r3, [sp, #32]
    136e:	f001 fb0f 	bl	2990 <DbgConsole_Printf>
    1372:	483d      	ldr	r0, [pc, #244]	; (1468 <APP_taskController+0x2ec>)
    1374:	9400      	str	r4, [sp, #0]
    1376:	f89d 1052 	ldrb.w	r1, [sp, #82]	; 0x52
    137a:	7d00      	ldrb	r0, [r0, #20]
    137c:	ab04      	add	r3, sp, #16
    137e:	aa08      	add	r2, sp, #32
    1380:	f00d fc6a 	bl	ec58 <eCLD_ZllUtilityCommandGetEndpointListReqCommandSend>
    1384:	e70e      	b.n	11a4 <APP_taskController+0x28>
    1386:	2a06      	cmp	r2, #6
    1388:	d13f      	bne.n	140a <APP_taskController+0x28e>
    138a:	23ad      	movs	r3, #173	; 0xad
    138c:	4e38      	ldr	r6, [pc, #224]	; (1470 <APP_taskController+0x2f4>)
    138e:	4f40      	ldr	r7, [pc, #256]	; (1490 <APP_taskController+0x314>)
    1390:	f88d 3010 	strb.w	r3, [sp, #16]
    1394:	ac0e      	add	r4, sp, #56	; 0x38
    1396:	2500      	movs	r5, #0
    1398:	f89d 3046 	ldrb.w	r3, [sp, #70]	; 0x46
    139c:	429d      	cmp	r5, r3
    139e:	db21      	blt.n	13e4 <APP_taskController+0x268>
    13a0:	4933      	ldr	r1, [pc, #204]	; (1470 <APP_taskController+0x2f4>)
    13a2:	22b6      	movs	r2, #182	; 0xb6
    13a4:	2003      	movs	r0, #3
    13a6:	f015 fa55 	bl	16854 <PDM_eSaveRecordData>
    13aa:	4b35      	ldr	r3, [pc, #212]	; (1480 <APP_taskController+0x304>)
    13ac:	2400      	movs	r4, #0
    13ae:	701c      	strb	r4, [r3, #0]
    13b0:	4b34      	ldr	r3, [pc, #208]	; (1484 <APP_taskController+0x308>)
    13b2:	2201      	movs	r2, #1
    13b4:	701a      	strb	r2, [r3, #0]
    13b6:	4b34      	ldr	r3, [pc, #208]	; (1488 <APP_taskController+0x30c>)
    13b8:	f44f 717a 	mov.w	r1, #1000	; 0x3e8
    13bc:	7818      	ldrb	r0, [r3, #0]
    13be:	f004 f9a5 	bl	570c <ZTIMER_eStart>
    13c2:	2307      	movs	r3, #7
    13c4:	4828      	ldr	r0, [pc, #160]	; (1468 <APP_taskController+0x2ec>)
    13c6:	f88d 3020 	strb.w	r3, [sp, #32]
    13ca:	9400      	str	r4, [sp, #0]
    13cc:	f8bd 3042 	ldrh.w	r3, [sp, #66]	; 0x42
    13d0:	f8ad 3028 	strh.w	r3, [sp, #40]	; 0x28
    13d4:	f89d 1040 	ldrb.w	r1, [sp, #64]	; 0x40
    13d8:	7d00      	ldrb	r0, [r0, #20]
    13da:	ab04      	add	r3, sp, #16
    13dc:	aa08      	add	r2, sp, #32
    13de:	f00d fbb1 	bl	eb44 <eCLD_ZllUtilityCommandGetGroupIdReqCommandSend>
    13e2:	e6df      	b.n	11a4 <APP_taskController+0x28>
    13e4:	8ae0      	ldrh	r0, [r4, #22]
    13e6:	f7ff fcb3 	bl	d50 <bIsDeviceLight>
    13ea:	b158      	cbz	r0, 1404 <APP_taskController+0x288>
    13ec:	f104 0010 	add.w	r0, r4, #16
    13f0:	f7ff fe66 	bl	10c0 <bAddToEndpointTable>
    13f4:	b930      	cbnz	r0, 1404 <APP_taskController+0x288>
    13f6:	7873      	ldrb	r3, [r6, #1]
    13f8:	eb06 03c3 	add.w	r3, r6, r3, lsl #3
    13fc:	4638      	mov	r0, r7
    13fe:	8859      	ldrh	r1, [r3, #2]
    1400:	f001 fac6 	bl	2990 <DbgConsole_Printf>
    1404:	3501      	adds	r5, #1
    1406:	340a      	adds	r4, #10
    1408:	e7c6      	b.n	1398 <APP_taskController+0x21c>
    140a:	2a07      	cmp	r2, #7
    140c:	d115      	bne.n	143a <APP_taskController+0x2be>
    140e:	f89d 1046 	ldrb.w	r1, [sp, #70]	; 0x46
    1412:	4820      	ldr	r0, [pc, #128]	; (1494 <APP_taskController+0x318>)
    1414:	4e20      	ldr	r6, [pc, #128]	; (1498 <APP_taskController+0x31c>)
    1416:	f001 fabb 	bl	2990 <DbgConsole_Printf>
    141a:	ac0e      	add	r4, sp, #56	; 0x38
    141c:	2500      	movs	r5, #0
    141e:	f89d 3046 	ldrb.w	r3, [sp, #70]	; 0x46
    1422:	429d      	cmp	r5, r3
    1424:	f104 0404 	add.w	r4, r4, #4
    1428:	f6bf aebc 	bge.w	11a4 <APP_taskController+0x28>
    142c:	7ba2      	ldrb	r2, [r4, #14]
    142e:	89a1      	ldrh	r1, [r4, #12]
    1430:	4630      	mov	r0, r6
    1432:	f001 faad 	bl	2990 <DbgConsole_Printf>
    1436:	3501      	adds	r5, #1
    1438:	e7f1      	b.n	141e <APP_taskController+0x2a2>
    143a:	2a00      	cmp	r2, #0
    143c:	f43f aeb2 	beq.w	11a4 <APP_taskController+0x28>
    1440:	2a02      	cmp	r2, #2
    1442:	d02b      	beq.n	149c <APP_taskController+0x320>
    1444:	2a03      	cmp	r2, #3
    1446:	d049      	beq.n	14dc <APP_taskController+0x360>
    1448:	2a01      	cmp	r2, #1
    144a:	f47f aeab 	bne.w	11a4 <APP_taskController+0x28>
    144e:	f89d 0040 	ldrb.w	r0, [sp, #64]	; 0x40
    1452:	f002 fab5 	bl	39c0 <APP_vHandleKeyRelease>
    1456:	e6a5      	b.n	11a4 <APP_taskController+0x28>
    1458:	04015540 	.word	0x04015540
    145c:	04015432 	.word	0x04015432
    1460:	0002f8d3 	.word	0x0002f8d3
    1464:	0002f8ef 	.word	0x0002f8ef
    1468:	04015418 	.word	0x04015418
    146c:	0002f8b1 	.word	0x0002f8b1
    1470:	04015590 	.word	0x04015590
    1474:	04015646 	.word	0x04015646
    1478:	04015430 	.word	0x04015430
    147c:	0002f913 	.word	0x0002f913
    1480:	0401566c 	.word	0x0401566c
    1484:	0401558c 	.word	0x0401558c
    1488:	04015581 	.word	0x04015581
    148c:	0002f935 	.word	0x0002f935
    1490:	0002f945 	.word	0x0002f945
    1494:	0002f964 	.word	0x0002f964
    1498:	0002f97a 	.word	0x0002f97a
    149c:	4b16      	ldr	r3, [pc, #88]	; (14f8 <APP_taskController+0x37c>)
    149e:	f89d 4040 	ldrb.w	r4, [sp, #64]	; 0x40
    14a2:	781b      	ldrb	r3, [r3, #0]
    14a4:	b16b      	cbz	r3, 14c2 <APP_taskController+0x346>
    14a6:	2c1f      	cmp	r4, #31
    14a8:	d00b      	beq.n	14c2 <APP_taskController+0x346>
    14aa:	f011 f8bf 	bl	1262c <BDB_bTlTouchLinkInProgress>
    14ae:	b940      	cbnz	r0, 14c2 <APP_taskController+0x346>
    14b0:	4812      	ldr	r0, [pc, #72]	; (14fc <APP_taskController+0x380>)
    14b2:	f001 fa6d 	bl	2990 <DbgConsole_Printf>
    14b6:	4b12      	ldr	r3, [pc, #72]	; (1500 <APP_taskController+0x384>)
    14b8:	2201      	movs	r2, #1
    14ba:	f883 202a 	strb.w	r2, [r3, #42]	; 0x2a
    14be:	f010 fb8b 	bl	11bd8 <BDB_vStart>
    14c2:	4620      	mov	r0, r4
    14c4:	f002 f850 	bl	3568 <APP_vHandleKeyPress>
    14c8:	4b0e      	ldr	r3, [pc, #56]	; (1504 <APP_taskController+0x388>)
    14ca:	480f      	ldr	r0, [pc, #60]	; (1508 <APP_taskController+0x38c>)
    14cc:	2114      	movs	r1, #20
    14ce:	7019      	strb	r1, [r3, #0]
    14d0:	4b0e      	ldr	r3, [pc, #56]	; (150c <APP_taskController+0x390>)
    14d2:	220a      	movs	r2, #10
    14d4:	701a      	strb	r2, [r3, #0]
    14d6:	f001 fa5b 	bl	2990 <DbgConsole_Printf>
    14da:	e663      	b.n	11a4 <APP_taskController+0x28>
    14dc:	480c      	ldr	r0, [pc, #48]	; (1510 <APP_taskController+0x394>)
    14de:	f001 fa57 	bl	2990 <DbgConsole_Printf>
    14e2:	f7ff fa1b 	bl	91c <ZPS_pvAplZdoGetAplHandle>
    14e6:	2300      	movs	r3, #0
    14e8:	e9cd 3300 	strd	r3, r3, [sp]
    14ec:	2200      	movs	r2, #0
    14ee:	2300      	movs	r3, #0
    14f0:	f019 ff90 	bl	1b414 <zps_eAplZdoLeaveNetwork>
    14f4:	e656      	b.n	11a4 <APP_taskController+0x28>
    14f6:	bf00      	nop
    14f8:	0401558d 	.word	0x0401558d
    14fc:	0002f98a 	.word	0x0002f98a
    1500:	04003c00 	.word	0x04003c00
    1504:	04015441 	.word	0x04015441
    1508:	0002f99c 	.word	0x0002f99c
    150c:	04015440 	.word	0x04015440
    1510:	0002f9b3 	.word	0x0002f9b3

00001514 <vSetGroupAddress>:
    1514:	e92d 47f0 	stmdb	sp!, {r4, r5, r6, r7, r8, r9, sl, lr}
    1518:	4e0f      	ldr	r6, [pc, #60]	; (1558 <vSetGroupAddress+0x44>)
    151a:	f8df a040 	ldr.w	sl, [pc, #64]	; 155c <vSetGroupAddress+0x48>
    151e:	2400      	movs	r4, #0
    1520:	460d      	mov	r5, r1
    1522:	46b0      	mov	r8, r6
    1524:	1c47      	adds	r7, r0, #1
    1526:	46a1      	mov	r9, r4
    1528:	42a5      	cmp	r5, r4
    152a:	dd0b      	ble.n	1544 <vSetGroupAddress+0x30>
    152c:	193a      	adds	r2, r7, r4
    152e:	b292      	uxth	r2, r2
    1530:	4621      	mov	r1, r4
    1532:	4650      	mov	r0, sl
    1534:	3401      	adds	r4, #1
    1536:	8072      	strh	r2, [r6, #2]
    1538:	f806 9f04 	strb.w	r9, [r6, #4]!
    153c:	f001 fa28 	bl	2990 <DbgConsole_Printf>
    1540:	2c04      	cmp	r4, #4
    1542:	d1f1      	bne.n	1528 <vSetGroupAddress+0x14>
    1544:	f888 5000 	strb.w	r5, [r8]
    1548:	e8bd 47f0 	ldmia.w	sp!, {r4, r5, r6, r7, r8, r9, sl, lr}
    154c:	4902      	ldr	r1, [pc, #8]	; (1558 <vSetGroupAddress+0x44>)
    154e:	2212      	movs	r2, #18
    1550:	2004      	movs	r0, #4
    1552:	f015 b97f 	b.w	16854 <PDM_eSaveRecordData>
    1556:	bf00      	nop
    1558:	04015646 	.word	0x04015646
    155c:	0002f9cb 	.word	0x0002f9cb

00001560 <sGetOTACallBackPersistdata>:
    1560:	b510      	push	{r4, lr}
    1562:	4903      	ldr	r1, [pc, #12]	; (1570 <sGetOTACallBackPersistdata+0x10>)
    1564:	4604      	mov	r4, r0
    1566:	22a8      	movs	r2, #168	; 0xa8
    1568:	f02d fb18 	bl	2eb9c <memcpy>
    156c:	4620      	mov	r0, r4
    156e:	bd10      	pop	{r4, pc}
    1570:	04001d00 	.word	0x04001d00

00001574 <APP_vFactoryResetRecords>:
    1574:	b5f8      	push	{r3, r4, r5, r6, r7, lr}
    1576:	f7ff f9d1 	bl	91c <ZPS_pvAplZdoGetAplHandle>
    157a:	4c1f      	ldr	r4, [pc, #124]	; (15f8 <APP_vFactoryResetRecords+0x84>)
    157c:	4f1f      	ldr	r7, [pc, #124]	; (15fc <APP_vFactoryResetRecords+0x88>)
    157e:	4e20      	ldr	r6, [pc, #128]	; (1600 <APP_vFactoryResetRecords+0x8c>)
    1580:	f01a fc98 	bl	1beb4 <zps_vDefaultStack>
    1584:	f7ff f9ca 	bl	91c <ZPS_pvAplZdoGetAplHandle>
    1588:	2200      	movs	r2, #0
    158a:	2300      	movs	r3, #0
    158c:	f019 f841 	bl	1a612 <zps_eAplAibSetApsUseExtendedPanId>
    1590:	f019 fc02 	bl	1ad98 <ZPS_vSetKeys>
    1594:	230b      	movs	r3, #11
    1596:	2500      	movs	r5, #0
    1598:	70a3      	strb	r3, [r4, #2]
    159a:	f64f 72f7 	movw	r2, #65527	; 0xfff7
    159e:	2301      	movs	r3, #1
    15a0:	80a3      	strh	r3, [r4, #4]
    15a2:	80e3      	strh	r3, [r4, #6]
    15a4:	8122      	strh	r2, [r4, #8]
    15a6:	8163      	strh	r3, [r4, #10]
    15a8:	4629      	mov	r1, r5
    15aa:	f64f 63ff 	movw	r3, #65279	; 0xfeff
    15ae:	22b6      	movs	r2, #182	; 0xb6
    15b0:	4638      	mov	r0, r7
    15b2:	81a3      	strh	r3, [r4, #12]
    15b4:	8025      	strh	r5, [r4, #0]
    15b6:	f02d fb8b 	bl	2ecd0 <memset>
    15ba:	4629      	mov	r1, r5
    15bc:	2212      	movs	r2, #18
    15be:	4630      	mov	r0, r6
    15c0:	f02d fb86 	bl	2ecd0 <memset>
    15c4:	f002 fd1a 	bl	3ffc <vResetOTADiscovery>
    15c8:	f002 ffb6 	bl	4538 <vOTAResetPersist>
    15cc:	4621      	mov	r1, r4
    15ce:	220e      	movs	r2, #14
    15d0:	2002      	movs	r0, #2
    15d2:	f015 f93f 	bl	16854 <PDM_eSaveRecordData>
    15d6:	4639      	mov	r1, r7
    15d8:	22b6      	movs	r2, #182	; 0xb6
    15da:	2003      	movs	r0, #3
    15dc:	f015 f93a 	bl	16854 <PDM_eSaveRecordData>
    15e0:	4631      	mov	r1, r6
    15e2:	2212      	movs	r2, #18
    15e4:	2004      	movs	r0, #4
    15e6:	f015 f935 	bl	16854 <PDM_eSaveRecordData>
    15ea:	f7ff f997 	bl	91c <ZPS_pvAplZdoGetAplHandle>
    15ee:	e8bd 40f8 	ldmia.w	sp!, {r3, r4, r5, r6, r7, lr}
    15f2:	f019 bbab 	b.w	1ad4c <zps_vSaveAllZpsRecords>
    15f6:	bf00      	nop
    15f8:	04015432 	.word	0x04015432
    15fc:	04015590 	.word	0x04015590
    1600:	04015646 	.word	0x04015646

00001604 <APP_vInitialiseNode>:
    1604:	b57f      	push	{r0, r1, r2, r3, r4, r5, r6, lr}
    1606:	4604      	mov	r4, r0
    1608:	4856      	ldr	r0, [pc, #344]	; (1764 <APP_vInitialiseNode+0x160>)
    160a:	4d57      	ldr	r5, [pc, #348]	; (1768 <APP_vInitialiseNode+0x164>)
    160c:	f001 f9c0 	bl	2990 <DbgConsole_Printf>
    1610:	b1ac      	cbz	r4, 163e <APP_vInitialiseNode+0x3a>
    1612:	f002 fbc5 	bl	3da0 <vLoadOTAPersistedData>
    1616:	2300      	movs	r3, #0
    1618:	706b      	strb	r3, [r5, #1]
    161a:	220e      	movs	r2, #14
    161c:	ab03      	add	r3, sp, #12
    161e:	4629      	mov	r1, r5
    1620:	2002      	movs	r0, #2
    1622:	f013 fbb7 	bl	14d94 <PDM_eReadDataFromRecord>
    1626:	4951      	ldr	r1, [pc, #324]	; (176c <APP_vInitialiseNode+0x168>)
    1628:	ab03      	add	r3, sp, #12
    162a:	22b6      	movs	r2, #182	; 0xb6
    162c:	2003      	movs	r0, #3
    162e:	f013 fbb1 	bl	14d94 <PDM_eReadDataFromRecord>
    1632:	494f      	ldr	r1, [pc, #316]	; (1770 <APP_vInitialiseNode+0x16c>)
    1634:	ab03      	add	r3, sp, #12
    1636:	2212      	movs	r2, #18
    1638:	2004      	movs	r0, #4
    163a:	f013 fbab 	bl	14d94 <PDM_eReadDataFromRecord>
    163e:	f7ff f96d 	bl	91c <ZPS_pvAplZdoGetAplHandle>
    1642:	f018 ffe4 	bl	1a60e <zps_psAplAibGetAib>
    1646:	2601      	movs	r6, #1
    1648:	f880 602d 	strb.w	r6, [r0, #45]	; 0x2d
    164c:	2c00      	cmp	r4, #0
    164e:	d053      	beq.n	16f8 <APP_vInitialiseNode+0xf4>
    1650:	4630      	mov	r0, r6
    1652:	f7ff f80b 	bl	66c <APP_vRadioTempUpdate>
    1656:	f7ff f961 	bl	91c <ZPS_pvAplZdoGetAplHandle>
    165a:	4631      	mov	r1, r6
    165c:	f015 fcd0 	bl	17000 <zps_eAplAfInit>
    1660:	4620      	mov	r0, r4
    1662:	f000 fd83 	bl	216c <APP_ZCL_vInitialise>
    1666:	f7ff f959 	bl	91c <ZPS_pvAplZdoGetAplHandle>
    166a:	210e      	movs	r1, #14
    166c:	f015 fde2 	bl	17234 <zps_bAplAfSetEndDeviceTimeout>
    1670:	f7ff f954 	bl	91c <ZPS_pvAplZdoGetAplHandle>
    1674:	493f      	ldr	r1, [pc, #252]	; (1774 <APP_vInitialiseNode+0x170>)
    1676:	4e40      	ldr	r6, [pc, #256]	; (1778 <APP_vInitialiseNode+0x174>)
    1678:	f018 ffe3 	bl	1a642 <zps_eAplAibSetApsChannelMask>
    167c:	493d      	ldr	r1, [pc, #244]	; (1774 <APP_vInitialiseNode+0x170>)
    167e:	483f      	ldr	r0, [pc, #252]	; (177c <APP_vInitialiseNode+0x178>)
    1680:	f001 f986 	bl	2990 <DbgConsole_Printf>
    1684:	786b      	ldrb	r3, [r5, #1]
    1686:	2b02      	cmp	r3, #2
    1688:	d13e      	bne.n	1708 <APP_vInitialiseNode+0x104>
    168a:	483d      	ldr	r0, [pc, #244]	; (1780 <APP_vInitialiseNode+0x17c>)
    168c:	f001 f980 	bl	2990 <DbgConsole_Printf>
    1690:	2302      	movs	r3, #2
    1692:	706b      	strb	r3, [r5, #1]
    1694:	2301      	movs	r3, #1
    1696:	f886 302a 	strb.w	r3, [r6, #42]	; 0x2a
    169a:	483a      	ldr	r0, [pc, #232]	; (1784 <APP_vInitialiseNode+0x180>)
    169c:	f010 fad4 	bl	11c48 <BDB_vRegisterRejoinControl>
    16a0:	4b39      	ldr	r3, [pc, #228]	; (1788 <APP_vInitialiseNode+0x184>)
    16a2:	62f3      	str	r3, [r6, #44]	; 0x2c
    16a4:	4b39      	ldr	r3, [pc, #228]	; (178c <APP_vInitialiseNode+0x188>)
    16a6:	6373      	str	r3, [r6, #52]	; 0x34
    16a8:	a803      	add	r0, sp, #12
    16aa:	4b39      	ldr	r3, [pc, #228]	; (1790 <APP_vInitialiseNode+0x18c>)
    16ac:	9303      	str	r3, [sp, #12]
    16ae:	f010 f85d 	bl	1176c <BDB_vInit>
    16b2:	b1fc      	cbz	r4, 16f4 <APP_vInitialiseNode+0xf0>
    16b4:	f7ff f972 	bl	99c <APP_vInitLeds>
    16b8:	f001 feb4 	bl	3424 <APP_bButtonInitialise>
    16bc:	f001 fe1e 	bl	32fc <APP_u32GetSwitchIOState>
    16c0:	0782      	lsls	r2, r0, #30
    16c2:	d417      	bmi.n	16f4 <APP_vInitialiseNode+0xf0>
    16c4:	f001 fe1a 	bl	32fc <APP_u32GetSwitchIOState>
    16c8:	0783      	lsls	r3, r0, #30
    16ca:	d5fb      	bpl.n	16c4 <APP_vInitialiseNode+0xc0>
    16cc:	f7ff f926 	bl	91c <ZPS_pvAplZdoGetAplHandle>
    16d0:	2300      	movs	r3, #0
    16d2:	e9cd 3300 	strd	r3, r3, [sp]
    16d6:	2200      	movs	r2, #0
    16d8:	2300      	movs	r3, #0
    16da:	f019 fe9b 	bl	1b414 <zps_eAplZdoLeaveNetwork>
    16de:	4601      	mov	r1, r0
    16e0:	2800      	cmp	r0, #0
    16e2:	d03a      	beq.n	175a <APP_vInitialiseNode+0x156>
    16e4:	482b      	ldr	r0, [pc, #172]	; (1794 <APP_vInitialiseNode+0x190>)
    16e6:	f001 f953 	bl	2990 <DbgConsole_Printf>
    16ea:	f7ff ff43 	bl	1574 <APP_vFactoryResetRecords>
    16ee:	b672      	cpsid	i
    16f0:	f005 f8dc 	bl	68ac <RESET_SystemReset>
    16f4:	b004      	add	sp, #16
    16f6:	bd70      	pop	{r4, r5, r6, pc}
    16f8:	f44f 7048 	mov.w	r0, #800	; 0x320
    16fc:	f000 fdcc 	bl	2298 <APP_vRadioTempUpdateMs>
    1700:	f7ff f90c 	bl	91c <ZPS_pvAplZdoGetAplHandle>
    1704:	4621      	mov	r1, r4
    1706:	e7a9      	b.n	165c <APP_vInitialiseNode+0x58>
    1708:	f7ff f908 	bl	91c <ZPS_pvAplZdoGetAplHandle>
    170c:	f018 ff7f 	bl	1a60e <zps_psAplAibGetAib>
    1710:	e9d0 2302 	ldrd	r2, r3, [r0, #8]
    1714:	4313      	orrs	r3, r2
    1716:	d1b8      	bne.n	168a <APP_vInitialiseNode+0x86>
    1718:	230b      	movs	r3, #11
    171a:	70ab      	strb	r3, [r5, #2]
    171c:	f7ff f8fe 	bl	91c <ZPS_pvAplZdoGetAplHandle>
    1720:	f019 fe24 	bl	1b36c <zps_pvAplZdoGetNwkHandle>
    1724:	78a9      	ldrb	r1, [r5, #2]
    1726:	f022 fd57 	bl	241d8 <ZPS_vNwkNibSetChannel>
    172a:	78a9      	ldrb	r1, [r5, #2]
    172c:	481a      	ldr	r0, [pc, #104]	; (1798 <APP_vInitialiseNode+0x194>)
    172e:	f001 f92f 	bl	2990 <DbgConsole_Printf>
    1732:	481a      	ldr	r0, [pc, #104]	; (179c <APP_vInitialiseNode+0x198>)
    1734:	f001 f92c 	bl	2990 <DbgConsole_Printf>
    1738:	2300      	movs	r3, #0
    173a:	f64f 71f0 	movw	r1, #65520	; 0xfff0
    173e:	2001      	movs	r0, #1
    1740:	f886 302a 	strb.w	r3, [r6, #42]	; 0x2a
    1744:	f007 f8fc 	bl	8940 <RND_u32GetRand>
    1748:	4605      	mov	r5, r0
    174a:	f7ff f8e7 	bl	91c <ZPS_pvAplZdoGetAplHandle>
    174e:	f019 fe0d 	bl	1b36c <zps_pvAplZdoGetNwkHandle>
    1752:	b2a9      	uxth	r1, r5
    1754:	f022 fd1e 	bl	24194 <ZPS_vNwkNibSetPanId>
    1758:	e79f      	b.n	169a <APP_vInitialiseNode+0x96>
    175a:	4811      	ldr	r0, [pc, #68]	; (17a0 <APP_vInitialiseNode+0x19c>)
    175c:	f001 f918 	bl	2990 <DbgConsole_Printf>
    1760:	e7c8      	b.n	16f4 <APP_vInitialiseNode+0xf0>
    1762:	bf00      	nop
    1764:	0002f9dd 	.word	0x0002f9dd
    1768:	04015432 	.word	0x04015432
    176c:	04015590 	.word	0x04015590
    1770:	04015646 	.word	0x04015646
    1774:	07fff800 	.word	0x07fff800
    1778:	04003c00 	.word	0x04003c00
    177c:	0002f9f6 	.word	0x0002f9f6
    1780:	0002fa10 	.word	0x0002fa10
    1784:	00000dc5 	.word	0x00000dc5
    1788:	02108800 	.word	0x02108800
    178c:	05ef7000 	.word	0x05ef7000
    1790:	04015550 	.word	0x04015550
    1794:	0002fa57 	.word	0x0002fa57
    1798:	0002fa2a 	.word	0x0002fa2a
    179c:	0002fa41 	.word	0x0002fa41
    17a0:	0002fa81 	.word	0x0002fa81

000017a4 <APP_bIsRunning>:
    17a4:	4b02      	ldr	r3, [pc, #8]	; (17b0 <APP_bIsRunning+0xc>)
    17a6:	7858      	ldrb	r0, [r3, #1]
    17a8:	1e83      	subs	r3, r0, #2
    17aa:	4258      	negs	r0, r3
    17ac:	4158      	adcs	r0, r3
    17ae:	4770      	bx	lr
    17b0:	04015432 	.word	0x04015432

000017b4 <APP_cbTimerPoll>:
    17b4:	e92d 41f3 	stmdb	sp!, {r0, r1, r4, r5, r6, r7, r8, lr}
    17b8:	f010 ff38 	bl	1262c <BDB_bTlTouchLinkInProgress>
    17bc:	2800      	cmp	r0, #0
    17be:	f040 80c1 	bne.w	1944 <APP_cbTimerPoll+0x190>
    17c2:	4c61      	ldr	r4, [pc, #388]	; (1948 <APP_cbTimerPoll+0x194>)
    17c4:	4e61      	ldr	r6, [pc, #388]	; (194c <APP_cbTimerPoll+0x198>)
    17c6:	7823      	ldrb	r3, [r4, #0]
    17c8:	9301      	str	r3, [sp, #4]
    17ca:	f8df 81d0 	ldr.w	r8, [pc, #464]	; 199c <APP_cbTimerPoll+0x1e8>
    17ce:	8833      	ldrh	r3, [r6, #0]
    17d0:	4f5f      	ldr	r7, [pc, #380]	; (1950 <APP_cbTimerPoll+0x19c>)
    17d2:	4d60      	ldr	r5, [pc, #384]	; (1954 <APP_cbTimerPoll+0x1a0>)
    17d4:	9300      	str	r3, [sp, #0]
    17d6:	783b      	ldrb	r3, [r7, #0]
    17d8:	f898 1001 	ldrb.w	r1, [r8, #1]
    17dc:	782a      	ldrb	r2, [r5, #0]
    17de:	485e      	ldr	r0, [pc, #376]	; (1958 <APP_cbTimerPoll+0x1a4>)
    17e0:	f001 f8d6 	bl	2990 <DbgConsole_Printf>
    17e4:	f898 3001 	ldrb.w	r3, [r8, #1]
    17e8:	46b8      	mov	r8, r7
    17ea:	b123      	cbz	r3, 17f6 <APP_cbTimerPoll+0x42>
    17ec:	2b02      	cmp	r3, #2
    17ee:	d006      	beq.n	17fe <APP_cbTimerPoll+0x4a>
    17f0:	f44f 747a 	mov.w	r4, #1000	; 0x3e8
    17f4:	e08f      	b.n	1916 <APP_cbTimerPoll+0x162>
    17f6:	4859      	ldr	r0, [pc, #356]	; (195c <APP_cbTimerPoll+0x1a8>)
    17f8:	f001 f8ca 	bl	2990 <DbgConsole_Printf>
    17fc:	e7f8      	b.n	17f0 <APP_cbTimerPoll+0x3c>
    17fe:	7823      	ldrb	r3, [r4, #0]
    1800:	b1bb      	cbz	r3, 1832 <APP_cbTimerPoll+0x7e>
    1802:	783c      	ldrb	r4, [r7, #0]
    1804:	b114      	cbz	r4, 180c <APP_cbTimerPoll+0x58>
    1806:	3c01      	subs	r4, #1
    1808:	703c      	strb	r4, [r7, #0]
    180a:	e7f1      	b.n	17f0 <APP_cbTimerPoll+0x3c>
    180c:	f7ff fae2 	bl	dd4 <vStopAllTimers>
    1810:	4853      	ldr	r0, [pc, #332]	; (1960 <APP_cbTimerPoll+0x1ac>)
    1812:	f001 f8bd 	bl	2990 <DbgConsole_Printf>
    1816:	2006      	movs	r0, #6
    1818:	f007 fe5a 	bl	94d0 <PWR_ChangeDeepSleepMode>
    181c:	f007 fe7a 	bl	9514 <PWR_Init>
    1820:	4620      	mov	r0, r4
    1822:	f007 ffb3 	bl	978c <PWR_vForceRadioRetention>
    1826:	4b4f      	ldr	r3, [pc, #316]	; (1964 <APP_cbTimerPoll+0x1b0>)
    1828:	2201      	movs	r2, #1
    182a:	701a      	strb	r2, [r3, #0]
    182c:	b002      	add	sp, #8
    182e:	e8bd 81f0 	ldmia.w	sp!, {r4, r5, r6, r7, r8, pc}
    1832:	4b4d      	ldr	r3, [pc, #308]	; (1968 <APP_cbTimerPoll+0x1b4>)
    1834:	4f4d      	ldr	r7, [pc, #308]	; (196c <APP_cbTimerPoll+0x1b8>)
    1836:	7818      	ldrb	r0, [r3, #0]
    1838:	783c      	ldrb	r4, [r7, #0]
    183a:	f003 ffb3 	bl	57a4 <ZTIMER_eGetState>
    183e:	2802      	cmp	r0, #2
    1840:	d102      	bne.n	1848 <APP_cbTimerPoll+0x94>
    1842:	b10c      	cbz	r4, 1848 <APP_cbTimerPoll+0x94>
    1844:	3c01      	subs	r4, #1
    1846:	b2a4      	uxth	r4, r4
    1848:	4b49      	ldr	r3, [pc, #292]	; (1970 <APP_cbTimerPoll+0x1bc>)
    184a:	7818      	ldrb	r0, [r3, #0]
    184c:	f003 ffaa 	bl	57a4 <ZTIMER_eGetState>
    1850:	2802      	cmp	r0, #2
    1852:	d102      	bne.n	185a <APP_cbTimerPoll+0xa6>
    1854:	b10c      	cbz	r4, 185a <APP_cbTimerPoll+0xa6>
    1856:	3c01      	subs	r4, #1
    1858:	b2a4      	uxth	r4, r4
    185a:	4b46      	ldr	r3, [pc, #280]	; (1974 <APP_cbTimerPoll+0x1c0>)
    185c:	7818      	ldrb	r0, [r3, #0]
    185e:	f003 ffa1 	bl	57a4 <ZTIMER_eGetState>
    1862:	2802      	cmp	r0, #2
    1864:	d102      	bne.n	186c <APP_cbTimerPoll+0xb8>
    1866:	b10c      	cbz	r4, 186c <APP_cbTimerPoll+0xb8>
    1868:	3c01      	subs	r4, #1
    186a:	b2a4      	uxth	r4, r4
    186c:	4b42      	ldr	r3, [pc, #264]	; (1978 <APP_cbTimerPoll+0x1c4>)
    186e:	7818      	ldrb	r0, [r3, #0]
    1870:	f003 ff98 	bl	57a4 <ZTIMER_eGetState>
    1874:	2802      	cmp	r0, #2
    1876:	d102      	bne.n	187e <APP_cbTimerPoll+0xca>
    1878:	b10c      	cbz	r4, 187e <APP_cbTimerPoll+0xca>
    187a:	3c01      	subs	r4, #1
    187c:	b2a4      	uxth	r4, r4
    187e:	4b3f      	ldr	r3, [pc, #252]	; (197c <APP_cbTimerPoll+0x1c8>)
    1880:	7818      	ldrb	r0, [r3, #0]
    1882:	f003 ff8f 	bl	57a4 <ZTIMER_eGetState>
    1886:	2802      	cmp	r0, #2
    1888:	d102      	bne.n	1890 <APP_cbTimerPoll+0xdc>
    188a:	b10c      	cbz	r4, 1890 <APP_cbTimerPoll+0xdc>
    188c:	3c01      	subs	r4, #1
    188e:	b2a4      	uxth	r4, r4
    1890:	782b      	ldrb	r3, [r5, #0]
    1892:	bb6b      	cbnz	r3, 18f0 <APP_cbTimerPoll+0x13c>
    1894:	bb64      	cbnz	r4, 18f0 <APP_cbTimerPoll+0x13c>
    1896:	f7ff fa9d 	bl	dd4 <vStopAllTimers>
    189a:	f898 3000 	ldrb.w	r3, [r8]
    189e:	4d31      	ldr	r5, [pc, #196]	; (1964 <APP_cbTimerPoll+0x1b0>)
    18a0:	b1c3      	cbz	r3, 18d4 <APP_cbTimerPoll+0x120>
    18a2:	2001      	movs	r0, #1
    18a4:	f007 fe14 	bl	94d0 <PWR_ChangeDeepSleepMode>
    18a8:	f007 fe34 	bl	9514 <PWR_Init>
    18ac:	2001      	movs	r0, #1
    18ae:	f007 ff6d 	bl	978c <PWR_vForceRadioRetention>
    18b2:	f44f 7148 	mov.w	r1, #800	; 0x320
    18b6:	4a32      	ldr	r2, [pc, #200]	; (1980 <APP_cbTimerPoll+0x1cc>)
    18b8:	4832      	ldr	r0, [pc, #200]	; (1984 <APP_cbTimerPoll+0x1d0>)
    18ba:	702c      	strb	r4, [r5, #0]
    18bc:	f007 ff72 	bl	97a4 <PWR_eScheduleActivity>
    18c0:	4601      	mov	r1, r0
    18c2:	4831      	ldr	r0, [pc, #196]	; (1988 <APP_cbTimerPoll+0x1d4>)
    18c4:	f001 f864 	bl	2990 <DbgConsole_Printf>
    18c8:	783b      	ldrb	r3, [r7, #0]
    18ca:	2b00      	cmp	r3, #0
    18cc:	d0ae      	beq.n	182c <APP_cbTimerPoll+0x78>
    18ce:	f007 fde1 	bl	9494 <PWR_AllowDeviceToSleep>
    18d2:	e7f9      	b.n	18c8 <APP_cbTimerPoll+0x114>
    18d4:	2006      	movs	r0, #6
    18d6:	f007 fdfb 	bl	94d0 <PWR_ChangeDeepSleepMode>
    18da:	f007 fe1b 	bl	9514 <PWR_Init>
    18de:	4620      	mov	r0, r4
    18e0:	f007 ff54 	bl	978c <PWR_vForceRadioRetention>
    18e4:	2301      	movs	r3, #1
    18e6:	4829      	ldr	r0, [pc, #164]	; (198c <APP_cbTimerPoll+0x1d8>)
    18e8:	702b      	strb	r3, [r5, #0]
    18ea:	f001 f851 	bl	2990 <DbgConsole_Printf>
    18ee:	e7eb      	b.n	18c8 <APP_cbTimerPoll+0x114>
    18f0:	f7ff f814 	bl	91c <ZPS_pvAplZdoGetAplHandle>
    18f4:	f019 fdac 	bl	1b450 <zps_eAplZdoPoll>
    18f8:	4601      	mov	r1, r0
    18fa:	b110      	cbz	r0, 1902 <APP_cbTimerPoll+0x14e>
    18fc:	4824      	ldr	r0, [pc, #144]	; (1990 <APP_cbTimerPoll+0x1dc>)
    18fe:	f001 f847 	bl	2990 <DbgConsole_Printf>
    1902:	8833      	ldrh	r3, [r6, #0]
    1904:	b193      	cbz	r3, 192c <APP_cbTimerPoll+0x178>
    1906:	3b01      	subs	r3, #1
    1908:	b29b      	uxth	r3, r3
    190a:	8033      	strh	r3, [r6, #0]
    190c:	b913      	cbnz	r3, 1914 <APP_cbTimerPoll+0x160>
    190e:	4821      	ldr	r0, [pc, #132]	; (1994 <APP_cbTimerPoll+0x1e0>)
    1910:	f001 f83e 	bl	2990 <DbgConsole_Printf>
    1914:	24fa      	movs	r4, #250	; 0xfa
    1916:	4d16      	ldr	r5, [pc, #88]	; (1970 <APP_cbTimerPoll+0x1bc>)
    1918:	7828      	ldrb	r0, [r5, #0]
    191a:	f003 ff1f 	bl	575c <ZTIMER_eStop>
    191e:	7828      	ldrb	r0, [r5, #0]
    1920:	4621      	mov	r1, r4
    1922:	b002      	add	sp, #8
    1924:	e8bd 41f0 	ldmia.w	sp!, {r4, r5, r6, r7, r8, lr}
    1928:	f003 bef0 	b.w	570c <ZTIMER_eStart>
    192c:	f002 fa7c 	bl	3e28 <bOTASleepAllowed>
    1930:	b130      	cbz	r0, 1940 <APP_cbTimerPoll+0x18c>
    1932:	782b      	ldrb	r3, [r5, #0]
    1934:	2b00      	cmp	r3, #0
    1936:	f43f af5b 	beq.w	17f0 <APP_cbTimerPoll+0x3c>
    193a:	3b01      	subs	r3, #1
    193c:	702b      	strb	r3, [r5, #0]
    193e:	e757      	b.n	17f0 <APP_cbTimerPoll+0x3c>
    1940:	2314      	movs	r3, #20
    1942:	e7fb      	b.n	193c <APP_cbTimerPoll+0x188>
    1944:	4814      	ldr	r0, [pc, #80]	; (1998 <APP_cbTimerPoll+0x1e4>)
    1946:	e757      	b.n	17f8 <APP_cbTimerPoll+0x44>
    1948:	0401558d 	.word	0x0401558d
    194c:	04015668 	.word	0x04015668
    1950:	04015440 	.word	0x04015440
    1954:	04015441 	.word	0x04015441
    1958:	0002fa95 	.word	0x0002fa95
    195c:	0002fafc 	.word	0x0002fafc
    1960:	0002fb18 	.word	0x0002fb18
    1964:	0401558b 	.word	0x0401558b
    1968:	04015584 	.word	0x04015584
    196c:	04015bb0 	.word	0x04015bb0
    1970:	04015586 	.word	0x04015586
    1974:	04015581 	.word	0x04015581
    1978:	04015583 	.word	0x04015583
    197c:	04015587 	.word	0x04015587
    1980:	00000e19 	.word	0x00000e19
    1984:	04015658 	.word	0x04015658
    1988:	0002fb32 	.word	0x0002fb32
    198c:	0002fb53 	.word	0x0002fb53
    1990:	0002fb68 	.word	0x0002fb68
    1994:	0002fb7b 	.word	0x0002fb7b
    1998:	0002fb8c 	.word	0x0002fb8c
    199c:	04015432 	.word	0x04015432

000019a0 <vHandleIdentifyRequest>:
    19a0:	b538      	push	{r3, r4, r5, lr}
    19a2:	4d0b      	ldr	r5, [pc, #44]	; (19d0 <vHandleIdentifyRequest+0x30>)
    19a4:	4c0b      	ldr	r4, [pc, #44]	; (19d4 <vHandleIdentifyRequest+0x34>)
    19a6:	0040      	lsls	r0, r0, #1
    19a8:	8028      	strh	r0, [r5, #0]
    19aa:	7820      	ldrb	r0, [r4, #0]
    19ac:	f003 fed6 	bl	575c <ZTIMER_eStop>
    19b0:	882b      	ldrh	r3, [r5, #0]
    19b2:	b92b      	cbnz	r3, 19c0 <vHandleIdentifyRequest+0x20>
    19b4:	4b08      	ldr	r3, [pc, #32]	; (19d8 <vHandleIdentifyRequest+0x38>)
    19b6:	7818      	ldrb	r0, [r3, #0]
    19b8:	e8bd 4038 	ldmia.w	sp!, {r3, r4, r5, lr}
    19bc:	f7ff b816 	b.w	9ec <APP_vSetLedsMask>
    19c0:	7820      	ldrb	r0, [r4, #0]
    19c2:	f44f 71fa 	mov.w	r1, #500	; 0x1f4
    19c6:	f003 fea1 	bl	570c <ZTIMER_eStart>
    19ca:	2003      	movs	r0, #3
    19cc:	e7f4      	b.n	19b8 <vHandleIdentifyRequest+0x18>
    19ce:	bf00      	nop
    19d0:	0401566a 	.word	0x0401566a
    19d4:	04015583 	.word	0x04015583
    19d8:	040156fa 	.word	0x040156fa

000019dc <APP_vBdbCallback>:
    19dc:	b5f0      	push	{r4, r5, r6, r7, lr}
    19de:	7801      	ldrb	r1, [r0, #0]
    19e0:	b093      	sub	sp, #76	; 0x4c
    19e2:	4604      	mov	r4, r0
    19e4:	2915      	cmp	r1, #21
    19e6:	f200 826f 	bhi.w	1ec8 <APP_vBdbCallback+0x4ec>
    19ea:	e8df f011 	tbh	[pc, r1, lsl #1]
    19ee:	018d      	.short	0x018d
    19f0:	018f0016 	.word	0x018f0016
    19f4:	0193019a 	.word	0x0193019a
    19f8:	01f301e7 	.word	0x01f301e7
    19fc:	026d026d 	.word	0x026d026d
    1a00:	026d026d 	.word	0x026d026d
    1a04:	023f026d 	.word	0x023f026d
    1a08:	01fb01f5 	.word	0x01fb01f5
    1a0c:	020301ff 	.word	0x020301ff
    1a10:	021e0220 	.word	0x021e0220
    1a14:	02240222 	.word	0x02240222
    1a18:	0237      	.short	0x0237
    1a1a:	7a05      	ldrb	r5, [r0, #8]
    1a1c:	f7ff f996 	bl	d4c <app_u8GetDeviceEndpoint>
    1a20:	4285      	cmp	r5, r0
    1a22:	d110      	bne.n	1a46 <APP_vBdbCallback+0x6a>
    1a24:	7c23      	ldrb	r3, [r4, #16]
    1a26:	2b01      	cmp	r3, #1
    1a28:	d001      	beq.n	1a2e <APP_vBdbCallback+0x52>
    1a2a:	2b16      	cmp	r3, #22
    1a2c:	d103      	bne.n	1a36 <APP_vBdbCallback+0x5a>
    1a2e:	f104 0010 	add.w	r0, r4, #16
    1a32:	f000 fc39 	bl	22a8 <APP_ZCL_vEventHandler>
    1a36:	7c23      	ldrb	r3, [r4, #16]
    1a38:	2b01      	cmp	r3, #1
    1a3a:	f040 8162 	bne.w	1d02 <APP_vBdbCallback+0x326>
    1a3e:	6aa0      	ldr	r0, [r4, #40]	; 0x28
    1a40:	f012 fe14 	bl	1466c <PDUM_eAPduFreeAPduInstance>
    1a44:	e160      	b.n	1d08 <APP_vBdbCallback+0x32c>
    1a46:	7a23      	ldrb	r3, [r4, #8]
    1a48:	2b00      	cmp	r3, #0
    1a4a:	d1f4      	bne.n	1a36 <APP_vBdbCallback+0x5a>
    1a4c:	4dbd      	ldr	r5, [pc, #756]	; (1d44 <APP_vBdbCallback+0x368>)
    1a4e:	786b      	ldrb	r3, [r5, #1]
    1a50:	2b01      	cmp	r3, #1
    1a52:	f000 8091 	beq.w	1b78 <APP_vBdbCallback+0x19c>
    1a56:	2b02      	cmp	r3, #2
    1a58:	f000 8091 	beq.w	1b7e <APP_vBdbCallback+0x1a2>
    1a5c:	2b00      	cmp	r3, #0
    1a5e:	d1ea      	bne.n	1a36 <APP_vBdbCallback+0x5a>
    1a60:	f7fe ff5c 	bl	91c <ZPS_pvAplZdoGetAplHandle>
    1a64:	f019 fc82 	bl	1b36c <zps_pvAplZdoGetNwkHandle>
    1a68:	7c23      	ldrb	r3, [r4, #16]
    1a6a:	2b06      	cmp	r3, #6
    1a6c:	4607      	mov	r7, r0
    1a6e:	d027      	beq.n	1ac0 <APP_vBdbCallback+0xe4>
    1a70:	2b08      	cmp	r3, #8
    1a72:	d1e0      	bne.n	1a36 <APP_vBdbCallback+0x5a>
    1a74:	48b4      	ldr	r0, [pc, #720]	; (1d48 <APP_vBdbCallback+0x36c>)
    1a76:	f000 ff8b 	bl	2990 <DbgConsole_Printf>
    1a7a:	4bb4      	ldr	r3, [pc, #720]	; (1d4c <APP_vBdbCallback+0x370>)
    1a7c:	2201      	movs	r2, #1
    1a7e:	701a      	strb	r2, [r3, #0]
    1a80:	f7fe ff4c 	bl	91c <ZPS_pvAplZdoGetAplHandle>
    1a84:	f018 fdc3 	bl	1a60e <zps_psAplAibGetAib>
    1a88:	e9d0 2302 	ldrd	r2, r3, [r0, #8]
    1a8c:	4313      	orrs	r3, r2
    1a8e:	d0d2      	beq.n	1a36 <APP_vBdbCallback+0x5a>
    1a90:	f7fe ff44 	bl	91c <ZPS_pvAplZdoGetAplHandle>
    1a94:	f018 fdbb 	bl	1a60e <zps_psAplAibGetAib>
    1a98:	e9d0 2302 	ldrd	r2, r3, [r0, #8]
    1a9c:	48ac      	ldr	r0, [pc, #688]	; (1d50 <APP_vBdbCallback+0x374>)
    1a9e:	f000 ff77 	bl	2990 <DbgConsole_Printf>
    1aa2:	f7fe ff3b 	bl	91c <ZPS_pvAplZdoGetAplHandle>
    1aa6:	f019 fc61 	bl	1b36c <zps_pvAplZdoGetNwkHandle>
    1aaa:	4605      	mov	r5, r0
    1aac:	f7fe ff36 	bl	91c <ZPS_pvAplZdoGetAplHandle>
    1ab0:	f018 fdad 	bl	1a60e <zps_psAplAibGetAib>
    1ab4:	e9d0 2302 	ldrd	r2, r3, [r0, #8]
    1ab8:	4628      	mov	r0, r5
    1aba:	f022 fb15 	bl	240e8 <ZPS_vNwkNibSetExtPanId>
    1abe:	e7ba      	b.n	1a36 <APP_vBdbCallback+0x5a>
    1ac0:	48a4      	ldr	r0, [pc, #656]	; (1d54 <APP_vBdbCallback+0x378>)
    1ac2:	f000 ff65 	bl	2990 <DbgConsole_Printf>
    1ac6:	7ea6      	ldrb	r6, [r4, #26]
    1ac8:	b996      	cbnz	r6, 1af0 <APP_vBdbCallback+0x114>
    1aca:	48a3      	ldr	r0, [pc, #652]	; (1d58 <APP_vBdbCallback+0x37c>)
    1acc:	f000 ff60 	bl	2990 <DbgConsole_Printf>
    1ad0:	f7fe ff24 	bl	91c <ZPS_pvAplZdoGetAplHandle>
    1ad4:	f019 fc4a 	bl	1b36c <zps_pvAplZdoGetNwkHandle>
    1ad8:	f022 f8a3 	bl	23c22 <ZPS_u64NwkNibGetExtAddr>
    1adc:	ea80 4010 	eor.w	r0, r0, r0, lsr #16
    1ae0:	2104      	movs	r1, #4
    1ae2:	b280      	uxth	r0, r0
    1ae4:	f7ff fd16 	bl	1514 <vSetGroupAddress>
    1ae8:	80ee      	strh	r6, [r5, #6]
    1aea:	812e      	strh	r6, [r5, #8]
    1aec:	816e      	strh	r6, [r5, #10]
    1aee:	81ae      	strh	r6, [r5, #12]
    1af0:	f7ff f954 	bl	d9c <vResetSleepAndJoinCounters>
    1af4:	f240 23ff 	movw	r3, #767	; 0x2ff
    1af8:	802b      	strh	r3, [r5, #0]
    1afa:	4638      	mov	r0, r7
    1afc:	8b23      	ldrh	r3, [r4, #24]
    1afe:	80ab      	strh	r3, [r5, #4]
    1b00:	f022 f88a 	bl	23c18 <ZPS_psNwkNibGetHandle>
    1b04:	498f      	ldr	r1, [pc, #572]	; (1d44 <APP_vBdbCallback+0x368>)
    1b06:	f890 3094 	ldrb.w	r3, [r0, #148]	; 0x94
    1b0a:	70ab      	strb	r3, [r5, #2]
    1b0c:	220e      	movs	r2, #14
    1b0e:	2002      	movs	r0, #2
    1b10:	f014 fea0 	bl	16854 <PDM_eSaveRecordData>
    1b14:	78a9      	ldrb	r1, [r5, #2]
    1b16:	4d91      	ldr	r5, [pc, #580]	; (1d5c <APP_vBdbCallback+0x380>)
    1b18:	4891      	ldr	r0, [pc, #580]	; (1d60 <APP_vBdbCallback+0x384>)
    1b1a:	f000 ff39 	bl	2990 <DbgConsole_Printf>
    1b1e:	886b      	ldrh	r3, [r5, #2]
    1b20:	b1b3      	cbz	r3, 1b50 <APP_vBdbCallback+0x174>
    1b22:	4b90      	ldr	r3, [pc, #576]	; (1d64 <APP_vBdbCallback+0x388>)
    1b24:	4890      	ldr	r0, [pc, #576]	; (1d68 <APP_vBdbCallback+0x38c>)
    1b26:	2600      	movs	r6, #0
    1b28:	701e      	strb	r6, [r3, #0]
    1b2a:	786b      	ldrb	r3, [r5, #1]
    1b2c:	eb05 03c3 	add.w	r3, r5, r3, lsl #3
    1b30:	885a      	ldrh	r2, [r3, #2]
    1b32:	4b8e      	ldr	r3, [pc, #568]	; (1d6c <APP_vBdbCallback+0x390>)
    1b34:	8859      	ldrh	r1, [r3, #2]
    1b36:	f000 ff2b 	bl	2990 <DbgConsole_Printf>
    1b3a:	4b8d      	ldr	r3, [pc, #564]	; (1d70 <APP_vBdbCallback+0x394>)
    1b3c:	786a      	ldrb	r2, [r5, #1]
    1b3e:	701a      	strb	r2, [r3, #0]
    1b40:	4b8c      	ldr	r3, [pc, #560]	; (1d74 <APP_vBdbCallback+0x398>)
    1b42:	701e      	strb	r6, [r3, #0]
    1b44:	4b8c      	ldr	r3, [pc, #560]	; (1d78 <APP_vBdbCallback+0x39c>)
    1b46:	f44f 71fa 	mov.w	r1, #500	; 0x1f4
    1b4a:	7818      	ldrb	r0, [r3, #0]
    1b4c:	f003 fdde 	bl	570c <ZTIMER_eStart>
    1b50:	f7fe fee4 	bl	91c <ZPS_pvAplZdoGetAplHandle>
    1b54:	f019 fc0a 	bl	1b36c <zps_pvAplZdoGetNwkHandle>
    1b58:	f022 f86d 	bl	23c36 <ZPS_u64NwkNibGetEpid>
    1b5c:	460d      	mov	r5, r1
    1b5e:	4606      	mov	r6, r0
    1b60:	f7fe fedc 	bl	91c <ZPS_pvAplZdoGetAplHandle>
    1b64:	4632      	mov	r2, r6
    1b66:	462b      	mov	r3, r5
    1b68:	f018 fd53 	bl	1a612 <zps_eAplAibSetApsUseExtendedPanId>
    1b6c:	2005      	movs	r0, #5
    1b6e:	f7ff ff17 	bl	19a0 <vHandleIdentifyRequest>
    1b72:	f7ff f971 	bl	e58 <vStartPolling>
    1b76:	e75e      	b.n	1a36 <APP_vBdbCallback+0x5a>
    1b78:	4880      	ldr	r0, [pc, #512]	; (1d7c <APP_vBdbCallback+0x3a0>)
    1b7a:	f000 ff09 	bl	2990 <DbgConsole_Printf>
    1b7e:	f7fe fecd 	bl	91c <ZPS_pvAplZdoGetAplHandle>
    1b82:	f019 fbf3 	bl	1b36c <zps_pvAplZdoGetNwkHandle>
    1b86:	7c23      	ldrb	r3, [r4, #16]
    1b88:	3b01      	subs	r3, #1
    1b8a:	f104 0610 	add.w	r6, r4, #16
    1b8e:	4607      	mov	r7, r0
    1b90:	2b0e      	cmp	r3, #14
    1b92:	f63f af50 	bhi.w	1a36 <APP_vBdbCallback+0x5a>
    1b96:	a201      	add	r2, pc, #4	; (adr r2, 1b9c <APP_vBdbCallback+0x1c0>)
    1b98:	f852 f023 	ldr.w	pc, [r2, r3, lsl #2]
    1b9c:	00001c5d 	.word	0x00001c5d
    1ba0:	00001a37 	.word	0x00001a37
    1ba4:	00001a37 	.word	0x00001a37
    1ba8:	00001a37 	.word	0x00001a37
    1bac:	00001a37 	.word	0x00001a37
    1bb0:	00001bd9 	.word	0x00001bd9
    1bb4:	00001a37 	.word	0x00001a37
    1bb8:	00001c17 	.word	0x00001c17
    1bbc:	00001a37 	.word	0x00001a37
    1bc0:	00001a37 	.word	0x00001a37
    1bc4:	00001c1b 	.word	0x00001c1b
    1bc8:	00001c95 	.word	0x00001c95
    1bcc:	00001a37 	.word	0x00001a37
    1bd0:	00001a37 	.word	0x00001a37
    1bd4:	00001cd3 	.word	0x00001cd3
    1bd8:	f7ff f8e0 	bl	d9c <vResetSleepAndJoinCounters>
    1bdc:	4868      	ldr	r0, [pc, #416]	; (1d80 <APP_vBdbCallback+0x3a4>)
    1bde:	f000 fed7 	bl	2990 <DbgConsole_Printf>
    1be2:	f7ff f939 	bl	e58 <vStartPolling>
    1be6:	8b23      	ldrh	r3, [r4, #24]
    1be8:	80ab      	strh	r3, [r5, #4]
    1bea:	4638      	mov	r0, r7
    1bec:	f022 f814 	bl	23c18 <ZPS_psNwkNibGetHandle>
    1bf0:	4954      	ldr	r1, [pc, #336]	; (1d44 <APP_vBdbCallback+0x368>)
    1bf2:	f890 3094 	ldrb.w	r3, [r0, #148]	; 0x94
    1bf6:	70ab      	strb	r3, [r5, #2]
    1bf8:	220e      	movs	r2, #14
    1bfa:	2002      	movs	r0, #2
    1bfc:	f014 fe2a 	bl	16854 <PDM_eSaveRecordData>
    1c00:	2005      	movs	r0, #5
    1c02:	f7ff fecd 	bl	19a0 <vHandleIdentifyRequest>
    1c06:	7ea3      	ldrb	r3, [r4, #26]
    1c08:	2b00      	cmp	r3, #0
    1c0a:	f47f af14 	bne.w	1a36 <APP_vBdbCallback+0x5a>
    1c0e:	2001      	movs	r0, #1
    1c10:	f003 f868 	bl	4ce4 <APP_vNtagStart>
    1c14:	e70f      	b.n	1a36 <APP_vBdbCallback+0x5a>
    1c16:	485b      	ldr	r0, [pc, #364]	; (1d84 <APP_vBdbCallback+0x3a8>)
    1c18:	e72d      	b.n	1a76 <APP_vBdbCallback+0x9a>
    1c1a:	f894 3020 	ldrb.w	r3, [r4, #32]
    1c1e:	9300      	str	r3, [sp, #0]
    1c20:	4859      	ldr	r0, [pc, #356]	; (1d88 <APP_vBdbCallback+0x3ac>)
    1c22:	e9d4 2306 	ldrd	r2, r3, [r4, #24]
    1c26:	f000 feb3 	bl	2990 <DbgConsole_Printf>
    1c2a:	e9d4 2306 	ldrd	r2, r3, [r4, #24]
    1c2e:	4313      	orrs	r3, r2
    1c30:	f47f af01 	bne.w	1a36 <APP_vBdbCallback+0x5a>
    1c34:	f894 3020 	ldrb.w	r3, [r4, #32]
    1c38:	2b00      	cmp	r3, #0
    1c3a:	f47f aefc 	bne.w	1a36 <APP_vBdbCallback+0x5a>
    1c3e:	4853      	ldr	r0, [pc, #332]	; (1d8c <APP_vBdbCallback+0x3b0>)
    1c40:	f000 fea6 	bl	2990 <DbgConsole_Printf>
    1c44:	4852      	ldr	r0, [pc, #328]	; (1d90 <APP_vBdbCallback+0x3b4>)
    1c46:	f000 fea3 	bl	2990 <DbgConsole_Printf>
    1c4a:	f7ff fc93 	bl	1574 <APP_vFactoryResetRecords>
    1c4e:	4851      	ldr	r0, [pc, #324]	; (1d94 <APP_vBdbCallback+0x3b8>)
    1c50:	f000 fe9e 	bl	2990 <DbgConsole_Printf>
    1c54:	b672      	cpsid	i
    1c56:	f004 fe29 	bl	68ac <RESET_SystemReset>
    1c5a:	e6ec      	b.n	1a36 <APP_vBdbCallback+0x5a>
    1c5c:	f894 3038 	ldrb.w	r3, [r4, #56]	; 0x38
    1c60:	2b00      	cmp	r3, #0
    1c62:	f47f aee8 	bne.w	1a36 <APP_vBdbCallback+0x5a>
    1c66:	f894 3035 	ldrb.w	r3, [r4, #53]	; 0x35
    1c6a:	2b00      	cmp	r3, #0
    1c6c:	f47f aee3 	bne.w	1a36 <APP_vBdbCallback+0x5a>
    1c70:	8e63      	ldrh	r3, [r4, #50]	; 0x32
    1c72:	f248 0206 	movw	r2, #32774	; 0x8006
    1c76:	4293      	cmp	r3, r2
    1c78:	d103      	bne.n	1c82 <APP_vBdbCallback+0x2a6>
    1c7a:	4630      	mov	r0, r6
    1c7c:	f002 f8e4 	bl	3e48 <vHandleMatchDescriptor>
    1c80:	e6d9      	b.n	1a36 <APP_vBdbCallback+0x5a>
    1c82:	f248 0201 	movw	r2, #32769	; 0x8001
    1c86:	4293      	cmp	r3, r2
    1c88:	f47f aed5 	bne.w	1a36 <APP_vBdbCallback+0x5a>
    1c8c:	4630      	mov	r0, r6
    1c8e:	f002 f933 	bl	3ef8 <vHandleIeeeAddressRsp>
    1c92:	e6d0      	b.n	1a36 <APP_vBdbCallback+0x5a>
    1c94:	f894 1020 	ldrb.w	r1, [r4, #32]
    1c98:	2900      	cmp	r1, #0
    1c9a:	f47f aecc 	bne.w	1a36 <APP_vBdbCallback+0x5a>
    1c9e:	e9d4 2306 	ldrd	r2, r3, [r4, #24]
    1ca2:	4313      	orrs	r3, r2
    1ca4:	f47f aec7 	bne.w	1a36 <APP_vBdbCallback+0x5a>
    1ca8:	4b3b      	ldr	r3, [pc, #236]	; (1d98 <APP_vBdbCallback+0x3bc>)
    1caa:	f893 203e 	ldrb.w	r2, [r3, #62]	; 0x3e
    1cae:	2a00      	cmp	r2, #0
    1cb0:	d0c8      	beq.n	1c44 <APP_vBdbCallback+0x268>
    1cb2:	aa06      	add	r2, sp, #24
    1cb4:	f883 103e 	strb.w	r1, [r3, #62]	; 0x3e
    1cb8:	4838      	ldr	r0, [pc, #224]	; (1d9c <APP_vBdbCallback+0x3c0>)
    1cba:	9205      	str	r2, [sp, #20]
    1cbc:	2307      	movs	r3, #7
    1cbe:	f88d 3010 	strb.w	r3, [sp, #16]
    1cc2:	f000 fe65 	bl	2990 <DbgConsole_Printf>
    1cc6:	9b05      	ldr	r3, [sp, #20]
    1cc8:	a804      	add	r0, sp, #16
    1cca:	629e      	str	r6, [r3, #40]	; 0x28
    1ccc:	f010 f800 	bl	11cd0 <BDB_vZclEventHandler>
    1cd0:	e6b1      	b.n	1a36 <APP_vBdbCallback+0x5a>
    1cd2:	4833      	ldr	r0, [pc, #204]	; (1da0 <APP_vBdbCallback+0x3c4>)
    1cd4:	4d33      	ldr	r5, [pc, #204]	; (1da4 <APP_vBdbCallback+0x3c8>)
    1cd6:	f000 fe5b 	bl	2990 <DbgConsole_Printf>
    1cda:	7e23      	ldrb	r3, [r4, #24]
    1cdc:	2be9      	cmp	r3, #233	; 0xe9
    1cde:	d002      	beq.n	1ce6 <APP_vBdbCallback+0x30a>
    1ce0:	2300      	movs	r3, #0
    1ce2:	702b      	strb	r3, [r5, #0]
    1ce4:	e6a7      	b.n	1a36 <APP_vBdbCallback+0x5a>
    1ce6:	782b      	ldrb	r3, [r5, #0]
    1ce8:	3301      	adds	r3, #1
    1cea:	b2db      	uxtb	r3, r3
    1cec:	2b03      	cmp	r3, #3
    1cee:	702b      	strb	r3, [r5, #0]
    1cf0:	f67f aea1 	bls.w	1a36 <APP_vBdbCallback+0x5a>
    1cf4:	482c      	ldr	r0, [pc, #176]	; (1da8 <APP_vBdbCallback+0x3cc>)
    1cf6:	f000 fe4b 	bl	2990 <DbgConsole_Printf>
    1cfa:	2001      	movs	r0, #1
    1cfc:	f00f fe48 	bl	11990 <BDB_vRejoinCycle>
    1d00:	e7ee      	b.n	1ce0 <APP_vBdbCallback+0x304>
    1d02:	2b16      	cmp	r3, #22
    1d04:	f43f ae9b 	beq.w	1a3e <APP_vBdbCallback+0x62>
    1d08:	b013      	add	sp, #76	; 0x4c
    1d0a:	bdf0      	pop	{r4, r5, r6, r7, pc}
    1d0c:	4827      	ldr	r0, [pc, #156]	; (1dac <APP_vBdbCallback+0x3d0>)
    1d0e:	f000 fe3f 	bl	2990 <DbgConsole_Printf>
    1d12:	e7f9      	b.n	1d08 <APP_vBdbCallback+0x32c>
    1d14:	4826      	ldr	r0, [pc, #152]	; (1db0 <APP_vBdbCallback+0x3d4>)
    1d16:	f000 fe3b 	bl	2990 <DbgConsole_Printf>
    1d1a:	4b26      	ldr	r3, [pc, #152]	; (1db4 <APP_vBdbCallback+0x3d8>)
    1d1c:	2201      	movs	r2, #1
    1d1e:	701a      	strb	r2, [r3, #0]
    1d20:	e7f2      	b.n	1d08 <APP_vBdbCallback+0x32c>
    1d22:	4825      	ldr	r0, [pc, #148]	; (1db8 <APP_vBdbCallback+0x3dc>)
    1d24:	f000 fe34 	bl	2990 <DbgConsole_Printf>
    1d28:	f7ff f838 	bl	d9c <vResetSleepAndJoinCounters>
    1d2c:	4905      	ldr	r1, [pc, #20]	; (1d44 <APP_vBdbCallback+0x368>)
    1d2e:	220e      	movs	r2, #14
    1d30:	2002      	movs	r0, #2
    1d32:	7048      	strb	r0, [r1, #1]
    1d34:	f014 fd8e 	bl	16854 <PDM_eSaveRecordData>
    1d38:	2005      	movs	r0, #5
    1d3a:	f7ff fe31 	bl	19a0 <vHandleIdentifyRequest>
    1d3e:	f7ff f88b 	bl	e58 <vStartPolling>
    1d42:	e7e1      	b.n	1d08 <APP_vBdbCallback+0x32c>
    1d44:	04015432 	.word	0x04015432
    1d48:	0002fc23 	.word	0x0002fc23
    1d4c:	0401558e 	.word	0x0401558e
    1d50:	0002fc41 	.word	0x0002fc41
    1d54:	0002fbb5 	.word	0x0002fbb5
    1d58:	0002fbcf 	.word	0x0002fbcf
    1d5c:	04015590 	.word	0x04015590
    1d60:	0002fbee 	.word	0x0002fbee
    1d64:	04015430 	.word	0x04015430
    1d68:	0002fc00 	.word	0x0002fc00
    1d6c:	04015646 	.word	0x04015646
    1d70:	0401566c 	.word	0x0401566c
    1d74:	0401558c 	.word	0x0401558c
    1d78:	04015581 	.word	0x04015581
    1d7c:	0002fc58 	.word	0x0002fc58
    1d80:	0002fc76 	.word	0x0002fc76
    1d84:	0002fc93 	.word	0x0002fc93
    1d88:	0002fcac 	.word	0x0002fcac
    1d8c:	0002fcd1 	.word	0x0002fcd1
    1d90:	0002fcf1 	.word	0x0002fcf1
    1d94:	0002fd12 	.word	0x0002fd12
    1d98:	04003c00 	.word	0x04003c00
    1d9c:	0002fd28 	.word	0x0002fd28
    1da0:	0002fd39 	.word	0x0002fd39
    1da4:	0401566e 	.word	0x0401566e
    1da8:	0002fd48 	.word	0x0002fd48
    1dac:	0002fd83 	.word	0x0002fd83
    1db0:	0002fd9c 	.word	0x0002fd9c
    1db4:	0401558d 	.word	0x0401558d
    1db8:	0002fdba 	.word	0x0002fdba
    1dbc:	4843      	ldr	r0, [pc, #268]	; (1ecc <APP_vBdbCallback+0x4f0>)
    1dbe:	f000 fde7 	bl	2990 <DbgConsole_Printf>
    1dc2:	4943      	ldr	r1, [pc, #268]	; (1ed0 <APP_vBdbCallback+0x4f4>)
    1dc4:	f240 23ff 	movw	r3, #767	; 0x2ff
    1dc8:	800b      	strh	r3, [r1, #0]
    1dca:	220e      	movs	r2, #14
    1dcc:	2002      	movs	r0, #2
    1dce:	f014 fd41 	bl	16854 <PDM_eSaveRecordData>
    1dd2:	e799      	b.n	1d08 <APP_vBdbCallback+0x32c>
    1dd4:	483f      	ldr	r0, [pc, #252]	; (1ed4 <APP_vBdbCallback+0x4f8>)
    1dd6:	e79e      	b.n	1d16 <APP_vBdbCallback+0x33a>
    1dd8:	6883      	ldr	r3, [r0, #8]
    1dda:	483f      	ldr	r0, [pc, #252]	; (1ed8 <APP_vBdbCallback+0x4fc>)
    1ddc:	8959      	ldrh	r1, [r3, #10]
    1dde:	f000 fdd7 	bl	2990 <DbgConsole_Printf>
    1de2:	e791      	b.n	1d08 <APP_vBdbCallback+0x32c>
    1de4:	6883      	ldr	r3, [r0, #8]
    1de6:	483d      	ldr	r0, [pc, #244]	; (1edc <APP_vBdbCallback+0x500>)
    1de8:	8959      	ldrh	r1, [r3, #10]
    1dea:	e7f8      	b.n	1dde <APP_vBdbCallback+0x402>
    1dec:	6883      	ldr	r3, [r0, #8]
    1dee:	483c      	ldr	r0, [pc, #240]	; (1ee0 <APP_vBdbCallback+0x504>)
    1df0:	7859      	ldrb	r1, [r3, #1]
    1df2:	e7f4      	b.n	1dde <APP_vBdbCallback+0x402>
    1df4:	6883      	ldr	r3, [r0, #8]
    1df6:	483b      	ldr	r0, [pc, #236]	; (1ee4 <APP_vBdbCallback+0x508>)
    1df8:	8959      	ldrh	r1, [r3, #10]
    1dfa:	f000 fdc9 	bl	2990 <DbgConsole_Printf>
    1dfe:	4a3a      	ldr	r2, [pc, #232]	; (1ee8 <APP_vBdbCallback+0x50c>)
    1e00:	2300      	movs	r3, #0
    1e02:	f8ad 3010 	strh.w	r3, [sp, #16]
    1e06:	7013      	strb	r3, [r2, #0]
    1e08:	2302      	movs	r3, #2
    1e0a:	f88d 3018 	strb.w	r3, [sp, #24]
    1e0e:	68a3      	ldr	r3, [r4, #8]
    1e10:	885a      	ldrh	r2, [r3, #2]
    1e12:	f8ad 2020 	strh.w	r2, [sp, #32]
    1e16:	7859      	ldrb	r1, [r3, #1]
    1e18:	7818      	ldrb	r0, [r3, #0]
    1e1a:	ab04      	add	r3, sp, #16
    1e1c:	9300      	str	r3, [sp, #0]
    1e1e:	aa06      	add	r2, sp, #24
    1e20:	f10d 030f 	add.w	r3, sp, #15
    1e24:	f008 feb8 	bl	ab98 <eCLD_IdentifyCommandIdentifyRequestSend>
    1e28:	e76e      	b.n	1d08 <APP_vBdbCallback+0x32c>
    1e2a:	4830      	ldr	r0, [pc, #192]	; (1eec <APP_vBdbCallback+0x510>)
    1e2c:	e76f      	b.n	1d0e <APP_vBdbCallback+0x332>
    1e2e:	4830      	ldr	r0, [pc, #192]	; (1ef0 <APP_vBdbCallback+0x514>)
    1e30:	e76d      	b.n	1d0e <APP_vBdbCallback+0x332>
    1e32:	4830      	ldr	r0, [pc, #192]	; (1ef4 <APP_vBdbCallback+0x518>)
    1e34:	e76b      	b.n	1d0e <APP_vBdbCallback+0x332>
    1e36:	4830      	ldr	r0, [pc, #192]	; (1ef8 <APP_vBdbCallback+0x51c>)
    1e38:	f000 fdaa 	bl	2990 <DbgConsole_Printf>
    1e3c:	4a2a      	ldr	r2, [pc, #168]	; (1ee8 <APP_vBdbCallback+0x50c>)
    1e3e:	7813      	ldrb	r3, [r2, #0]
    1e40:	2b01      	cmp	r3, #1
    1e42:	d908      	bls.n	1e56 <APP_vBdbCallback+0x47a>
    1e44:	2300      	movs	r3, #0
    1e46:	7013      	strb	r3, [r2, #0]
    1e48:	f011 fd08 	bl	1385c <BDB_vFbExitAsInitiator>
    1e4c:	4b2b      	ldr	r3, [pc, #172]	; (1efc <APP_vBdbCallback+0x520>)
    1e4e:	482c      	ldr	r0, [pc, #176]	; (1f00 <APP_vBdbCallback+0x524>)
    1e50:	2114      	movs	r1, #20
    1e52:	7019      	strb	r1, [r3, #0]
    1e54:	e7c3      	b.n	1dde <APP_vBdbCallback+0x402>
    1e56:	3301      	adds	r3, #1
    1e58:	7013      	strb	r3, [r2, #0]
    1e5a:	e755      	b.n	1d08 <APP_vBdbCallback+0x32c>
    1e5c:	4829      	ldr	r0, [pc, #164]	; (1f04 <APP_vBdbCallback+0x528>)
    1e5e:	f000 fd97 	bl	2990 <DbgConsole_Printf>
    1e62:	4b26      	ldr	r3, [pc, #152]	; (1efc <APP_vBdbCallback+0x520>)
    1e64:	4828      	ldr	r0, [pc, #160]	; (1f08 <APP_vBdbCallback+0x52c>)
    1e66:	2114      	movs	r1, #20
    1e68:	7019      	strb	r1, [r3, #0]
    1e6a:	e7b8      	b.n	1dde <APP_vBdbCallback+0x402>
    1e6c:	6880      	ldr	r0, [r0, #8]
    1e6e:	7a05      	ldrb	r5, [r0, #8]
    1e70:	8882      	ldrh	r2, [r0, #4]
    1e72:	8841      	ldrh	r1, [r0, #2]
    1e74:	88c3      	ldrh	r3, [r0, #6]
    1e76:	9501      	str	r5, [sp, #4]
    1e78:	7840      	ldrb	r0, [r0, #1]
    1e7a:	9000      	str	r0, [sp, #0]
    1e7c:	4823      	ldr	r0, [pc, #140]	; (1f0c <APP_vBdbCallback+0x530>)
    1e7e:	f000 fd87 	bl	2990 <DbgConsole_Printf>
    1e82:	68a2      	ldr	r2, [r4, #8]
    1e84:	88d1      	ldrh	r1, [r2, #6]
    1e86:	4608      	mov	r0, r1
    1e88:	f7fe ff62 	bl	d50 <bIsDeviceLight>
    1e8c:	2800      	cmp	r0, #0
    1e8e:	f43f af3b 	beq.w	1d08 <APP_vBdbCallback+0x32c>
    1e92:	8853      	ldrh	r3, [r2, #2]
    1e94:	f8ad 3018 	strh.w	r3, [sp, #24]
    1e98:	8893      	ldrh	r3, [r2, #4]
    1e9a:	f8ad 301c 	strh.w	r3, [sp, #28]
    1e9e:	f8ad 101e 	strh.w	r1, [sp, #30]
    1ea2:	7853      	ldrb	r3, [r2, #1]
    1ea4:	f88d 301a 	strb.w	r3, [sp, #26]
    1ea8:	7a13      	ldrb	r3, [r2, #8]
    1eaa:	f88d 3020 	strb.w	r3, [sp, #32]
    1eae:	a806      	add	r0, sp, #24
    1eb0:	f7ff f906 	bl	10c0 <bAddToEndpointTable>
    1eb4:	2800      	cmp	r0, #0
    1eb6:	f43f af27 	beq.w	1d08 <APP_vBdbCallback+0x32c>
    1eba:	4815      	ldr	r0, [pc, #84]	; (1f10 <APP_vBdbCallback+0x534>)
    1ebc:	f000 fd68 	bl	2990 <DbgConsole_Printf>
    1ec0:	4914      	ldr	r1, [pc, #80]	; (1f14 <APP_vBdbCallback+0x538>)
    1ec2:	22b6      	movs	r2, #182	; 0xb6
    1ec4:	2003      	movs	r0, #3
    1ec6:	e782      	b.n	1dce <APP_vBdbCallback+0x3f2>
    1ec8:	4813      	ldr	r0, [pc, #76]	; (1f18 <APP_vBdbCallback+0x53c>)
    1eca:	e788      	b.n	1dde <APP_vBdbCallback+0x402>
    1ecc:	0002fdd6 	.word	0x0002fdd6
    1ed0:	04015432 	.word	0x04015432
    1ed4:	0002fde6 	.word	0x0002fde6
    1ed8:	0002fdfc 	.word	0x0002fdfc
    1edc:	0002fe1c 	.word	0x0002fe1c
    1ee0:	0002fe3b 	.word	0x0002fe3b
    1ee4:	0002fe5f 	.word	0x0002fe5f
    1ee8:	0401566d 	.word	0x0401566d
    1eec:	0002fe79 	.word	0x0002fe79
    1ef0:	0002fe90 	.word	0x0002fe90
    1ef4:	0002fe9c 	.word	0x0002fe9c
    1ef8:	0002fea9 	.word	0x0002fea9
    1efc:	04015441 	.word	0x04015441
    1f00:	0002fec2 	.word	0x0002fec2
    1f04:	0002fed9 	.word	0x0002fed9
    1f08:	0002fee8 	.word	0x0002fee8
    1f0c:	0002feff 	.word	0x0002feff
    1f10:	0002ff37 	.word	0x0002ff37
    1f14:	04015590 	.word	0x04015590
    1f18:	0002ff48 	.word	0x0002ff48

00001f1c <APP_cbTimerId>:
    1f1c:	4a10      	ldr	r2, [pc, #64]	; (1f60 <APP_cbTimerId+0x44>)
    1f1e:	8813      	ldrh	r3, [r2, #0]
    1f20:	b510      	push	{r4, lr}
    1f22:	4c10      	ldr	r4, [pc, #64]	; (1f64 <APP_cbTimerId+0x48>)
    1f24:	b943      	cbnz	r3, 1f38 <APP_cbTimerId+0x1c>
    1f26:	7820      	ldrb	r0, [r4, #0]
    1f28:	f003 fc18 	bl	575c <ZTIMER_eStop>
    1f2c:	4b0e      	ldr	r3, [pc, #56]	; (1f68 <APP_cbTimerId+0x4c>)
    1f2e:	e8bd 4010 	ldmia.w	sp!, {r4, lr}
    1f32:	7818      	ldrb	r0, [r3, #0]
    1f34:	f7fe bd5a 	b.w	9ec <APP_vSetLedsMask>
    1f38:	3b01      	subs	r3, #1
    1f3a:	b29b      	uxth	r3, r3
    1f3c:	8013      	strh	r3, [r2, #0]
    1f3e:	07db      	lsls	r3, r3, #31
    1f40:	bf4c      	ite	mi
    1f42:	2000      	movmi	r0, #0
    1f44:	2003      	movpl	r0, #3
    1f46:	f7fe fd51 	bl	9ec <APP_vSetLedsMask>
    1f4a:	7820      	ldrb	r0, [r4, #0]
    1f4c:	f003 fc06 	bl	575c <ZTIMER_eStop>
    1f50:	7820      	ldrb	r0, [r4, #0]
    1f52:	f44f 71fa 	mov.w	r1, #500	; 0x1f4
    1f56:	e8bd 4010 	ldmia.w	sp!, {r4, lr}
    1f5a:	f003 bbd7 	b.w	570c <ZTIMER_eStart>
    1f5e:	bf00      	nop
    1f60:	0401566a 	.word	0x0401566a
    1f64:	04015583 	.word	0x04015583
    1f68:	040156fa 	.word	0x040156fa

00001f6c <APP_ZCL_cbGeneralCallback>:
    1f6c:	4770      	bx	lr
    1f6e:	Address 0x00001f6e is out of bounds.


00001f70 <APP_ZCL_cbEndpointCallback>:
    1f70:	b570      	push	{r4, r5, r6, lr}
    1f72:	7803      	ldrb	r3, [r0, #0]
    1f74:	2b03      	cmp	r3, #3
    1f76:	b09e      	sub	sp, #120	; 0x78
    1f78:	4604      	mov	r4, r0
    1f7a:	d003      	beq.n	1f84 <APP_ZCL_cbEndpointCallback+0x14>
    1f7c:	2b0a      	cmp	r3, #10
    1f7e:	d02d      	beq.n	1fdc <APP_ZCL_cbEndpointCallback+0x6c>
    1f80:	b01e      	add	sp, #120	; 0x78
    1f82:	bd70      	pop	{r4, r5, r6, pc}
    1f84:	68c3      	ldr	r3, [r0, #12]
    1f86:	7ac1      	ldrb	r1, [r0, #11]
    1f88:	781a      	ldrb	r2, [r3, #0]
    1f8a:	486d      	ldr	r0, [pc, #436]	; (2140 <APP_ZCL_cbEndpointCallback+0x1d0>)
    1f8c:	f000 fd00 	bl	2990 <DbgConsole_Printf>
    1f90:	4b6c      	ldr	r3, [pc, #432]	; (2144 <APP_ZCL_cbEndpointCallback+0x1d4>)
    1f92:	6aa1      	ldr	r1, [r4, #40]	; 0x28
    1f94:	781d      	ldrb	r5, [r3, #0]
    1f96:	8a08      	ldrh	r0, [r1, #16]
    1f98:	2200      	movs	r2, #0
    1f9a:	1c9c      	adds	r4, r3, #2
    1f9c:	4295      	cmp	r5, r2
    1f9e:	d907      	bls.n	1fb0 <APP_ZCL_cbEndpointCallback+0x40>
    1fa0:	f834 6032 	ldrh.w	r6, [r4, r2, lsl #3]
    1fa4:	4286      	cmp	r6, r0
    1fa6:	d117      	bne.n	1fd8 <APP_ZCL_cbEndpointCallback+0x68>
    1fa8:	4413      	add	r3, r2
    1faa:	2200      	movs	r2, #0
    1fac:	f883 20a2 	strb.w	r2, [r3, #162]	; 0xa2
    1fb0:	2307      	movs	r3, #7
    1fb2:	f88d 3010 	strb.w	r3, [sp, #16]
    1fb6:	2303      	movs	r3, #3
    1fb8:	f8ad 0018 	strh.w	r0, [sp, #24]
    1fbc:	f8ad 300c 	strh.w	r3, [sp, #12]
    1fc0:	4861      	ldr	r0, [pc, #388]	; (2148 <APP_ZCL_cbEndpointCallback+0x1d8>)
    1fc2:	f891 1027 	ldrb.w	r1, [r1, #39]	; 0x27
    1fc6:	ab03      	add	r3, sp, #12
    1fc8:	9300      	str	r3, [sp, #0]
    1fca:	aa04      	add	r2, sp, #16
    1fcc:	f10d 030b 	add.w	r3, sp, #11
    1fd0:	7d00      	ldrb	r0, [r0, #20]
    1fd2:	f008 fde1 	bl	ab98 <eCLD_IdentifyCommandIdentifyRequestSend>
    1fd6:	e7d3      	b.n	1f80 <APP_ZCL_cbEndpointCallback+0x10>
    1fd8:	3201      	adds	r2, #1
    1fda:	e7df      	b.n	1f9c <APP_ZCL_cbEndpointCallback+0x2c>
    1fdc:	8903      	ldrh	r3, [r0, #8]
    1fde:	2b19      	cmp	r3, #25
    1fe0:	d020      	beq.n	2024 <APP_ZCL_cbEndpointCallback+0xb4>
    1fe2:	d811      	bhi.n	2008 <APP_ZCL_cbEndpointCallback+0x98>
    1fe4:	b313      	cbz	r3, 202c <APP_ZCL_cbEndpointCallback+0xbc>
    1fe6:	2b03      	cmp	r3, #3
    1fe8:	d1ca      	bne.n	1f80 <APP_ZCL_cbEndpointCallback+0x10>
    1fea:	6ac1      	ldr	r1, [r0, #44]	; 0x2c
    1fec:	68c2      	ldr	r2, [r0, #12]
    1fee:	7809      	ldrb	r1, [r1, #0]
    1ff0:	7813      	ldrb	r3, [r2, #0]
    1ff2:	bb49      	cbnz	r1, 2048 <APP_ZCL_cbEndpointCallback+0xd8>
    1ff4:	2b00      	cmp	r3, #0
    1ff6:	d1c3      	bne.n	1f80 <APP_ZCL_cbEndpointCallback+0x10>
    1ff8:	2308      	movs	r3, #8
    1ffa:	a804      	add	r0, sp, #16
    1ffc:	f88d 3010 	strb.w	r3, [sp, #16]
    2000:	9405      	str	r4, [sp, #20]
    2002:	f00f fe65 	bl	11cd0 <BDB_vZclEventHandler>
    2006:	e7bb      	b.n	1f80 <APP_ZCL_cbEndpointCallback+0x10>
    2008:	f5b3 5f80 	cmp.w	r3, #4096	; 0x1000
    200c:	d1b8      	bne.n	1f80 <APP_ZCL_cbEndpointCallback+0x10>
    200e:	6a83      	ldr	r3, [r0, #40]	; 0x28
    2010:	781a      	ldrb	r2, [r3, #0]
    2012:	2a16      	cmp	r2, #22
    2014:	d143      	bne.n	209e <APP_ZCL_cbEndpointCallback+0x12e>
    2016:	8d5a      	ldrh	r2, [r3, #42]	; 0x2a
    2018:	f24c 035e 	movw	r3, #49246	; 0xc05e
    201c:	429a      	cmp	r2, r3
    201e:	d1af      	bne.n	1f80 <APP_ZCL_cbEndpointCallback+0x10>
    2020:	2303      	movs	r3, #3
    2022:	e7ea      	b.n	1ffa <APP_ZCL_cbEndpointCallback+0x8a>
    2024:	68c0      	ldr	r0, [r0, #12]
    2026:	f002 faa3 	bl	4570 <vHandleAppOtaClient>
    202a:	e7a9      	b.n	1f80 <APP_ZCL_cbEndpointCallback+0x10>
    202c:	68c3      	ldr	r3, [r0, #12]
    202e:	781b      	ldrb	r3, [r3, #0]
    2030:	2b00      	cmp	r3, #0
    2032:	d1a5      	bne.n	1f80 <APP_ZCL_cbEndpointCallback+0x10>
    2034:	f7fe fe82 	bl	d3c <vApp_ZCL_ResetDeviceStructure>
    2038:	4844      	ldr	r0, [pc, #272]	; (214c <APP_ZCL_cbEndpointCallback+0x1dc>)
    203a:	f7fe fe33 	bl	ca4 <eApp_ZLO_RegisterEndpoint>
    203e:	f7fe fe43 	bl	cc8 <vAPP_ZCL_DeviceSpecific_Init>
    2042:	f001 fda5 	bl	3b90 <vAppInitOTA>
    2046:	e79b      	b.n	1f80 <APP_ZCL_cbEndpointCallback+0x10>
    2048:	b92b      	cbnz	r3, 2056 <APP_ZCL_cbEndpointCallback+0xe6>
    204a:	4b41      	ldr	r3, [pc, #260]	; (2150 <APP_ZCL_cbEndpointCallback+0x1e0>)
    204c:	f8b3 0238 	ldrh.w	r0, [r3, #568]	; 0x238
    2050:	f7ff fca6 	bl	19a0 <vHandleIdentifyRequest>
    2054:	e794      	b.n	1f80 <APP_ZCL_cbEndpointCallback+0x10>
    2056:	2b40      	cmp	r3, #64	; 0x40
    2058:	d192      	bne.n	1f80 <APP_ZCL_cbEndpointCallback+0x10>
    205a:	6853      	ldr	r3, [r2, #4]
    205c:	4a3c      	ldr	r2, [pc, #240]	; (2150 <APP_ZCL_cbEndpointCallback+0x1e0>)
    205e:	781b      	ldrb	r3, [r3, #0]
    2060:	2b0b      	cmp	r3, #11
    2062:	d809      	bhi.n	2078 <APP_ZCL_cbEndpointCallback+0x108>
    2064:	2b0b      	cmp	r3, #11
    2066:	d80b      	bhi.n	2080 <APP_ZCL_cbEndpointCallback+0x110>
    2068:	e8df f003 	tbb	[pc, r3]
    206c:	0a13110d 	.word	0x0a13110d
    2070:	0a0a0a0a 	.word	0x0a0a0a0a
    2074:	150a0a0a 	.word	0x150a0a0a
    2078:	3302      	adds	r3, #2
    207a:	b2db      	uxtb	r3, r3
    207c:	2b01      	cmp	r3, #1
    207e:	d90c      	bls.n	209a <APP_ZCL_cbEndpointCallback+0x12a>
    2080:	f8b2 0238 	ldrh.w	r0, [r2, #568]	; 0x238
    2084:	e7e4      	b.n	2050 <APP_ZCL_cbEndpointCallback+0xe0>
    2086:	2302      	movs	r3, #2
    2088:	f8a2 3238 	strh.w	r3, [r2, #568]	; 0x238
    208c:	e7f8      	b.n	2080 <APP_ZCL_cbEndpointCallback+0x110>
    208e:	2311      	movs	r3, #17
    2090:	e7fa      	b.n	2088 <APP_ZCL_cbEndpointCallback+0x118>
    2092:	2303      	movs	r3, #3
    2094:	e7f8      	b.n	2088 <APP_ZCL_cbEndpointCallback+0x118>
    2096:	2309      	movs	r3, #9
    2098:	e7f6      	b.n	2088 <APP_ZCL_cbEndpointCallback+0x118>
    209a:	2301      	movs	r3, #1
    209c:	e7f4      	b.n	2088 <APP_ZCL_cbEndpointCallback+0x118>
    209e:	2a01      	cmp	r2, #1
    20a0:	f47f af6e 	bne.w	1f80 <APP_ZCL_cbEndpointCallback+0x10>
    20a4:	8c1b      	ldrh	r3, [r3, #32]
    20a6:	f5b3 7f82 	cmp.w	r3, #260	; 0x104
    20aa:	f47f af69 	bne.w	1f80 <APP_ZCL_cbEndpointCallback+0x10>
    20ae:	6ac3      	ldr	r3, [r0, #44]	; 0x2c
    20b0:	4828      	ldr	r0, [pc, #160]	; (2154 <APP_ZCL_cbEndpointCallback+0x1e4>)
    20b2:	691b      	ldr	r3, [r3, #16]
    20b4:	f893 1058 	ldrb.w	r1, [r3, #88]	; 0x58
    20b8:	f000 fc6a 	bl	2990 <DbgConsole_Printf>
    20bc:	6ae3      	ldr	r3, [r4, #44]	; 0x2c
    20be:	6919      	ldr	r1, [r3, #16]
    20c0:	f891 3058 	ldrb.w	r3, [r1, #88]	; 0x58
    20c4:	2b41      	cmp	r3, #65	; 0x41
    20c6:	d029      	beq.n	211c <APP_ZCL_cbEndpointCallback+0x1ac>
    20c8:	2b42      	cmp	r3, #66	; 0x42
    20ca:	d013      	beq.n	20f4 <APP_ZCL_cbEndpointCallback+0x184>
    20cc:	2b40      	cmp	r3, #64	; 0x40
    20ce:	f47f af57 	bne.w	1f80 <APP_ZCL_cbEndpointCallback+0x10>
    20d2:	2305      	movs	r3, #5
    20d4:	f88d 3010 	strb.w	r3, [sp, #16]
    20d8:	6aa3      	ldr	r3, [r4, #40]	; 0x28
    20da:	6dc9      	ldr	r1, [r1, #92]	; 0x5c
    20dc:	8a1b      	ldrh	r3, [r3, #16]
    20de:	f8ad 3018 	strh.w	r3, [sp, #24]
    20e2:	2218      	movs	r2, #24
    20e4:	a808      	add	r0, sp, #32
    20e6:	f02c fd59 	bl	2eb9c <memcpy>
    20ea:	a904      	add	r1, sp, #16
    20ec:	481a      	ldr	r0, [pc, #104]	; (2158 <APP_ZCL_cbEndpointCallback+0x1e8>)
    20ee:	f003 fa4c 	bl	558a <ZQ_bQueueSend>
    20f2:	e745      	b.n	1f80 <APP_ZCL_cbEndpointCallback+0x10>
    20f4:	4819      	ldr	r0, [pc, #100]	; (215c <APP_ZCL_cbEndpointCallback+0x1ec>)
    20f6:	f000 fc4b 	bl	2990 <DbgConsole_Printf>
    20fa:	2306      	movs	r3, #6
    20fc:	f88d 3010 	strb.w	r3, [sp, #16]
    2100:	6aa3      	ldr	r3, [r4, #40]	; 0x28
    2102:	f893 2027 	ldrb.w	r2, [r3, #39]	; 0x27
    2106:	8a1b      	ldrh	r3, [r3, #16]
    2108:	f8ad 301a 	strh.w	r3, [sp, #26]
    210c:	6ae3      	ldr	r3, [r4, #44]	; 0x2c
    210e:	f88d 2018 	strb.w	r2, [sp, #24]
    2112:	691b      	ldr	r3, [r3, #16]
    2114:	2254      	movs	r2, #84	; 0x54
    2116:	6dd9      	ldr	r1, [r3, #92]	; 0x5c
    2118:	a807      	add	r0, sp, #28
    211a:	e7e4      	b.n	20e6 <APP_ZCL_cbEndpointCallback+0x176>
    211c:	4810      	ldr	r0, [pc, #64]	; (2160 <APP_ZCL_cbEndpointCallback+0x1f0>)
    211e:	f000 fc37 	bl	2990 <DbgConsole_Printf>
    2122:	2307      	movs	r3, #7
    2124:	f88d 3010 	strb.w	r3, [sp, #16]
    2128:	6aa3      	ldr	r3, [r4, #40]	; 0x28
    212a:	f893 2027 	ldrb.w	r2, [r3, #39]	; 0x27
    212e:	8a1b      	ldrh	r3, [r3, #16]
    2130:	f8ad 301a 	strh.w	r3, [sp, #26]
    2134:	6ae3      	ldr	r3, [r4, #44]	; 0x2c
    2136:	f88d 2018 	strb.w	r2, [sp, #24]
    213a:	691b      	ldr	r3, [r3, #16]
    213c:	2258      	movs	r2, #88	; 0x58
    213e:	e7ea      	b.n	2116 <APP_ZCL_cbEndpointCallback+0x1a6>
    2140:	0002ff61 	.word	0x0002ff61
    2144:	04015590 	.word	0x04015590
    2148:	04015418 	.word	0x04015418
    214c:	00001f71 	.word	0x00001f71
    2150:	040015f0 	.word	0x040015f0
    2154:	0002ff7b 	.word	0x0002ff7b
    2158:	04015540 	.word	0x04015540
    215c:	0002ff8d 	.word	0x0002ff8d
    2160:	0002ff9a 	.word	0x0002ff9a

00002164 <psGetDeviceTable>:
    2164:	4800      	ldr	r0, [pc, #0]	; (2168 <psGetDeviceTable+0x4>)
    2166:	4770      	bx	lr
    2168:	04015418 	.word	0x04015418

0000216c <APP_ZCL_vInitialise>:
    216c:	b510      	push	{r4, lr}
    216e:	4924      	ldr	r1, [pc, #144]	; (2200 <APP_ZCL_vInitialise+0x94>)
    2170:	4604      	mov	r4, r0
    2172:	4824      	ldr	r0, [pc, #144]	; (2204 <APP_ZCL_vInitialise+0x98>)
    2174:	f00e f8b8 	bl	102e8 <eZCL_Initialise>
    2178:	4823      	ldr	r0, [pc, #140]	; (2208 <APP_ZCL_vInitialise+0x9c>)
    217a:	f7fe fd93 	bl	ca4 <eApp_ZLO_RegisterEndpoint>
    217e:	f7fe fbcd 	bl	91c <ZPS_pvAplZdoGetAplHandle>
    2182:	f018 fa44 	bl	1a60e <zps_psAplAibGetAib>
    2186:	6b43      	ldr	r3, [r0, #52]	; 0x34
    2188:	4820      	ldr	r0, [pc, #128]	; (220c <APP_ZCL_vInitialise+0xa0>)
    218a:	6819      	ldr	r1, [r3, #0]
    218c:	f000 fc00 	bl	2990 <DbgConsole_Printf>
    2190:	481f      	ldr	r0, [pc, #124]	; (2210 <APP_ZCL_vInitialise+0xa4>)
    2192:	f000 fbfd 	bl	2990 <DbgConsole_Printf>
    2196:	2200      	movs	r2, #0
    2198:	4610      	mov	r0, r2
    219a:	2101      	movs	r1, #1
    219c:	f027 faee 	bl	2977c <MAC_vPibSetRxOnWhenIdle>
    21a0:	f7fe fbbc 	bl	91c <ZPS_pvAplZdoGetAplHandle>
    21a4:	f019 f8e2 	bl	1b36c <zps_pvAplZdoGetNwkHandle>
    21a8:	f021 fd3b 	bl	23c22 <ZPS_u64NwkNibGetExtAddr>
    21ac:	4b19      	ldr	r3, [pc, #100]	; (2214 <APP_ZCL_vInitialise+0xa8>)
    21ae:	e9c3 0102 	strd	r0, r1, [r3, #8]
    21b2:	2108      	movs	r1, #8
    21b4:	4818      	ldr	r0, [pc, #96]	; (2218 <APP_ZCL_vInitialise+0xac>)
    21b6:	f000 fbeb 	bl	2990 <DbgConsole_Printf>
    21ba:	211c      	movs	r1, #28
    21bc:	4817      	ldr	r0, [pc, #92]	; (221c <APP_ZCL_vInitialise+0xb0>)
    21be:	f000 fbe7 	bl	2990 <DbgConsole_Printf>
    21c2:	f7fe fd81 	bl	cc8 <vAPP_ZCL_DeviceSpecific_Init>
    21c6:	b144      	cbz	r4, 21da <APP_ZCL_vInitialise+0x6e>
    21c8:	f001 fce2 	bl	3b90 <vAppInitOTA>
    21cc:	4b14      	ldr	r3, [pc, #80]	; (2220 <APP_ZCL_vInitialise+0xb4>)
    21ce:	e8bd 4010 	ldmia.w	sp!, {r4, lr}
    21d2:	7818      	ldrb	r0, [r3, #0]
    21d4:	2164      	movs	r1, #100	; 0x64
    21d6:	f003 ba99 	b.w	570c <ZTIMER_eStart>
    21da:	4b12      	ldr	r3, [pc, #72]	; (2224 <APP_ZCL_vInitialise+0xb8>)
    21dc:	6818      	ldr	r0, [r3, #0]
    21de:	f00f f881 	bl	112e4 <vZCL_SetUTCTime>
    21e2:	f001 fca3 	bl	3b2c <bInitialiseOTAClusterAndAttributes>
    21e6:	4a10      	ldr	r2, [pc, #64]	; (2228 <APP_ZCL_vInitialise+0xbc>)
    21e8:	4621      	mov	r1, r4
    21ea:	2005      	movs	r0, #5
    21ec:	f00e fff2 	bl	111d4 <eZCL_TimerRegister>
    21f0:	b120      	cbz	r0, 21fc <APP_ZCL_vInitialise+0x90>
    21f2:	e8bd 4010 	ldmia.w	sp!, {r4, lr}
    21f6:	480d      	ldr	r0, [pc, #52]	; (222c <APP_ZCL_vInitialise+0xc0>)
    21f8:	f000 bbca 	b.w	2990 <DbgConsole_Printf>
    21fc:	bd10      	pop	{r4, pc}
    21fe:	bf00      	nop
    2200:	04000a4c 	.word	0x04000a4c
    2204:	00001f6d 	.word	0x00001f6d
    2208:	00001f71 	.word	0x00001f71
    220c:	0002ffaa 	.word	0x0002ffaa
    2210:	0002ffba 	.word	0x0002ffba
    2214:	04015418 	.word	0x04015418
    2218:	0002ffc7 	.word	0x0002ffc7
    221c:	0002ffd8 	.word	0x0002ffd8
    2220:	04015587 	.word	0x04015587
    2224:	04015700 	.word	0x04015700
    2228:	0000b90d 	.word	0x0000b90d
    222c:	0002fff2 	.word	0x0002fff2

00002230 <APP_cbTimerZclTick>:
    2230:	b510      	push	{r4, lr}
    2232:	4b15      	ldr	r3, [pc, #84]	; (2288 <APP_cbTimerZclTick+0x58>)
    2234:	4c15      	ldr	r4, [pc, #84]	; (228c <APP_cbTimerZclTick+0x5c>)
    2236:	7818      	ldrb	r0, [r3, #0]
    2238:	b08c      	sub	sp, #48	; 0x30
    223a:	2164      	movs	r1, #100	; 0x64
    223c:	f003 fa66 	bl	570c <ZTIMER_eStart>
    2240:	6823      	ldr	r3, [r4, #0]
    2242:	3301      	adds	r3, #1
    2244:	6023      	str	r3, [r4, #0]
    2246:	f00e f869 	bl	1031c <eZCL_Update100mS>
    224a:	6823      	ldr	r3, [r4, #0]
    224c:	2b0a      	cmp	r3, #10
    224e:	d90c      	bls.n	226a <APP_cbTimerZclTick+0x3a>
    2250:	2300      	movs	r3, #0
    2252:	6023      	str	r3, [r4, #0]
    2254:	930a      	str	r3, [sp, #40]	; 0x28
    2256:	4668      	mov	r0, sp
    2258:	2308      	movs	r3, #8
    225a:	f88d 3000 	strb.w	r3, [sp]
    225e:	f00e f93b 	bl	104d8 <vZCL_EventHandler>
    2262:	f44f 707a 	mov.w	r0, #1000	; 0x3e8
    2266:	f001 fedb 	bl	4020 <vRunAppOTAStateMachine>
    226a:	4a09      	ldr	r2, [pc, #36]	; (2290 <APP_cbTimerZclTick+0x60>)
    226c:	4909      	ldr	r1, [pc, #36]	; (2294 <APP_cbTimerZclTick+0x64>)
    226e:	6813      	ldr	r3, [r2, #0]
    2270:	3364      	adds	r3, #100	; 0x64
    2272:	428b      	cmp	r3, r1
    2274:	d802      	bhi.n	227c <APP_cbTimerZclTick+0x4c>
    2276:	6013      	str	r3, [r2, #0]
    2278:	b00c      	add	sp, #48	; 0x30
    227a:	bd10      	pop	{r4, pc}
    227c:	2000      	movs	r0, #0
    227e:	6010      	str	r0, [r2, #0]
    2280:	f7fe f9f4 	bl	66c <APP_vRadioTempUpdate>
    2284:	e7f8      	b.n	2278 <APP_cbTimerZclTick+0x48>
    2286:	bf00      	nop
    2288:	04015587 	.word	0x04015587
    228c:	04015444 	.word	0x04015444
    2290:	04015674 	.word	0x04015674
    2294:	000493df 	.word	0x000493df

00002298 <APP_vRadioTempUpdateMs>:
    2298:	4a02      	ldr	r2, [pc, #8]	; (22a4 <APP_vRadioTempUpdateMs+0xc>)
    229a:	6813      	ldr	r3, [r2, #0]
    229c:	4403      	add	r3, r0
    229e:	6013      	str	r3, [r2, #0]
    22a0:	4770      	bx	lr
    22a2:	bf00      	nop
    22a4:	04015670 	.word	0x04015670

000022a8 <APP_ZCL_vEventHandler>:
    22a8:	b500      	push	{lr}
    22aa:	b08d      	sub	sp, #52	; 0x34
    22ac:	2309      	movs	r3, #9
    22ae:	900a      	str	r0, [sp, #40]	; 0x28
    22b0:	4668      	mov	r0, sp
    22b2:	f88d 3000 	strb.w	r3, [sp]
    22b6:	f00e f90f 	bl	104d8 <vZCL_EventHandler>
    22ba:	b00d      	add	sp, #52	; 0x34
    22bc:	f85d fb04 	ldr.w	pc, [sp], #4

000022c0 <vAppOnOff>:
    22c0:	b510      	push	{r4, lr}
    22c2:	b08a      	sub	sp, #40	; 0x28
    22c4:	4604      	mov	r4, r0
    22c6:	2100      	movs	r1, #0
    22c8:	a806      	add	r0, sp, #24
    22ca:	f000 fa15 	bl	26f8 <vSetAddress>
    22ce:	2c02      	cmp	r4, #2
    22d0:	4b19      	ldr	r3, [pc, #100]	; (2338 <vAppOnOff+0x78>)
    22d2:	481a      	ldr	r0, [pc, #104]	; (233c <vAppOnOff+0x7c>)
    22d4:	d901      	bls.n	22da <vAppOnOff+0x1a>
    22d6:	2c41      	cmp	r4, #65	; 0x41
    22d8:	d10c      	bne.n	22f4 <vAppOnOff+0x34>
    22da:	7859      	ldrb	r1, [r3, #1]
    22dc:	9400      	str	r4, [sp, #0]
    22de:	eb03 01c1 	add.w	r1, r3, r1, lsl #3
    22e2:	7d00      	ldrb	r0, [r0, #20]
    22e4:	7a09      	ldrb	r1, [r1, #8]
    22e6:	f10d 030f 	add.w	r3, sp, #15
    22ea:	aa06      	add	r2, sp, #24
    22ec:	f008 fe4e 	bl	af8c <eCLD_OnOffCommandSend>
    22f0:	b00a      	add	sp, #40	; 0x28
    22f2:	bd10      	pop	{r4, pc}
    22f4:	785a      	ldrb	r2, [r3, #1]
    22f6:	7d00      	ldrb	r0, [r0, #20]
    22f8:	eb03 03c2 	add.w	r3, r3, r2, lsl #3
    22fc:	2c40      	cmp	r4, #64	; 0x40
    22fe:	7a19      	ldrb	r1, [r3, #8]
    2300:	aa04      	add	r2, sp, #16
    2302:	f04f 0300 	mov.w	r3, #0
    2306:	d108      	bne.n	231a <vAppOnOff+0x5a>
    2308:	f8ad 3010 	strh.w	r3, [sp, #16]
    230c:	9200      	str	r2, [sp, #0]
    230e:	f10d 030f 	add.w	r3, sp, #15
    2312:	aa06      	add	r2, sp, #24
    2314:	f008 fe4b 	bl	afae <eCLD_OnOffCommandOffWithEffectSend>
    2318:	e7ea      	b.n	22f0 <vAppOnOff+0x30>
    231a:	f88d 3010 	strb.w	r3, [sp, #16]
    231e:	f8ad 3012 	strh.w	r3, [sp, #18]
    2322:	2314      	movs	r3, #20
    2324:	f8ad 3014 	strh.w	r3, [sp, #20]
    2328:	9200      	str	r2, [sp, #0]
    232a:	f10d 030f 	add.w	r3, sp, #15
    232e:	aa06      	add	r2, sp, #24
    2330:	f008 fe5d 	bl	afee <eCLD_OnOffCommandOnWithTimedOffSend>
    2334:	e7dc      	b.n	22f0 <vAppOnOff+0x30>
    2336:	bf00      	nop
    2338:	04015590 	.word	0x04015590
    233c:	04015418 	.word	0x04015418

00002340 <vAppLevelMove>:
    2340:	b570      	push	{r4, r5, r6, lr}
    2342:	b088      	sub	sp, #32
    2344:	4605      	mov	r5, r0
    2346:	460e      	mov	r6, r1
    2348:	a804      	add	r0, sp, #16
    234a:	2100      	movs	r1, #0
    234c:	4614      	mov	r4, r2
    234e:	f000 f9d3 	bl	26f8 <vSetAddress>
    2352:	4b0a      	ldr	r3, [pc, #40]	; (237c <vAppLevelMove+0x3c>)
    2354:	480a      	ldr	r0, [pc, #40]	; (2380 <vAppLevelMove+0x40>)
    2356:	7859      	ldrb	r1, [r3, #1]
    2358:	f88d 600d 	strb.w	r6, [sp, #13]
    235c:	eb03 01c1 	add.w	r1, r3, r1, lsl #3
    2360:	ab03      	add	r3, sp, #12
    2362:	e9cd 4300 	strd	r4, r3, [sp]
    2366:	aa04      	add	r2, sp, #16
    2368:	7a09      	ldrb	r1, [r1, #8]
    236a:	7d00      	ldrb	r0, [r0, #20]
    236c:	f88d 500c 	strb.w	r5, [sp, #12]
    2370:	f10d 030b 	add.w	r3, sp, #11
    2374:	f008 fd86 	bl	ae84 <eCLD_LevelControlCommandMoveCommandSend>
    2378:	b008      	add	sp, #32
    237a:	bd70      	pop	{r4, r5, r6, pc}
    237c:	04015590 	.word	0x04015590
    2380:	04015418 	.word	0x04015418

00002384 <vAppLevelStop>:
    2384:	b510      	push	{r4, lr}
    2386:	b088      	sub	sp, #32
    2388:	2100      	movs	r1, #0
    238a:	4604      	mov	r4, r0
    238c:	a804      	add	r0, sp, #16
    238e:	f8ad 100c 	strh.w	r1, [sp, #12]
    2392:	f000 f9b1 	bl	26f8 <vSetAddress>
    2396:	4b0b      	ldr	r3, [pc, #44]	; (23c4 <vAppLevelStop+0x40>)
    2398:	480b      	ldr	r0, [pc, #44]	; (23c8 <vAppLevelStop+0x44>)
    239a:	7859      	ldrb	r1, [r3, #1]
    239c:	eb03 01c1 	add.w	r1, r3, r1, lsl #3
    23a0:	ab03      	add	r3, sp, #12
    23a2:	e9cd 4300 	strd	r4, r3, [sp]
    23a6:	aa04      	add	r2, sp, #16
    23a8:	7a09      	ldrb	r1, [r1, #8]
    23aa:	7d00      	ldrb	r0, [r0, #20]
    23ac:	f10d 030b 	add.w	r3, sp, #11
    23b0:	f008 fd9c 	bl	aeec <eCLD_LevelControlCommandStopCommandSend>
    23b4:	4601      	mov	r1, r0
    23b6:	b110      	cbz	r0, 23be <vAppLevelStop+0x3a>
    23b8:	4804      	ldr	r0, [pc, #16]	; (23cc <vAppLevelStop+0x48>)
    23ba:	f000 fae9 	bl	2990 <DbgConsole_Printf>
    23be:	b008      	add	sp, #32
    23c0:	bd10      	pop	{r4, pc}
    23c2:	bf00      	nop
    23c4:	04015590 	.word	0x04015590
    23c8:	04015418 	.word	0x04015418
    23cc:	00030010 	.word	0x00030010

000023d0 <vAppEnhancedMoveHue>:
    23d0:	b530      	push	{r4, r5, lr}
    23d2:	b08b      	sub	sp, #44	; 0x2c
    23d4:	4605      	mov	r5, r0
    23d6:	460c      	mov	r4, r1
    23d8:	a806      	add	r0, sp, #24
    23da:	2100      	movs	r1, #0
    23dc:	f000 f98c 	bl	26f8 <vSetAddress>
    23e0:	2300      	movs	r3, #0
    23e2:	f8ad 3014 	strh.w	r3, [sp, #20]
    23e6:	4b0a      	ldr	r3, [pc, #40]	; (2410 <vAppEnhancedMoveHue+0x40>)
    23e8:	480a      	ldr	r0, [pc, #40]	; (2414 <vAppEnhancedMoveHue+0x44>)
    23ea:	7859      	ldrb	r1, [r3, #1]
    23ec:	f88d 5010 	strb.w	r5, [sp, #16]
    23f0:	eb03 01c1 	add.w	r1, r3, r1, lsl #3
    23f4:	ab04      	add	r3, sp, #16
    23f6:	9300      	str	r3, [sp, #0]
    23f8:	7a09      	ldrb	r1, [r1, #8]
    23fa:	7d00      	ldrb	r0, [r0, #20]
    23fc:	f8ad 4012 	strh.w	r4, [sp, #18]
    2400:	f10d 030f 	add.w	r3, sp, #15
    2404:	aa06      	add	r2, sp, #24
    2406:	f008 fffb 	bl	b400 <eCLD_ColourControlCommandEnhancedMoveHueCommandSend>
    240a:	b00b      	add	sp, #44	; 0x2c
    240c:	bd30      	pop	{r4, r5, pc}
    240e:	bf00      	nop
    2410:	04015590 	.word	0x04015590
    2414:	04015418 	.word	0x04015418

00002418 <vAppGotoHueAndSat>:
    2418:	b510      	push	{r4, lr}
    241a:	b08a      	sub	sp, #40	; 0x28
    241c:	4604      	mov	r4, r0
    241e:	2100      	movs	r1, #0
    2420:	a806      	add	r0, sp, #24
    2422:	f000 f969 	bl	26f8 <vSetAddress>
    2426:	2314      	movs	r3, #20
    2428:	f8ad 3014 	strh.w	r3, [sp, #20]
    242c:	4b27      	ldr	r3, [pc, #156]	; (24cc <vAppGotoHueAndSat+0xb4>)
    242e:	781a      	ldrb	r2, [r3, #0]
    2430:	b1ec      	cbz	r4, 246e <vAppGotoHueAndSat+0x56>
    2432:	3201      	adds	r2, #1
    2434:	b2d2      	uxtb	r2, r2
    2436:	2a06      	cmp	r2, #6
    2438:	d91d      	bls.n	2476 <vAppGotoHueAndSat+0x5e>
    243a:	2200      	movs	r2, #0
    243c:	701a      	strb	r2, [r3, #0]
    243e:	2300      	movs	r3, #0
    2440:	f8ad 3010 	strh.w	r3, [sp, #16]
    2444:	f88d 3012 	strb.w	r3, [sp, #18]
    2448:	2300      	movs	r3, #0
    244a:	f8ad 3016 	strh.w	r3, [sp, #22]
    244e:	4b20      	ldr	r3, [pc, #128]	; (24d0 <vAppGotoHueAndSat+0xb8>)
    2450:	4820      	ldr	r0, [pc, #128]	; (24d4 <vAppGotoHueAndSat+0xbc>)
    2452:	7859      	ldrb	r1, [r3, #1]
    2454:	eb03 01c1 	add.w	r1, r3, r1, lsl #3
    2458:	ab04      	add	r3, sp, #16
    245a:	9300      	str	r3, [sp, #0]
    245c:	7a09      	ldrb	r1, [r1, #8]
    245e:	7d00      	ldrb	r0, [r0, #20]
    2460:	f10d 030f 	add.w	r3, sp, #15
    2464:	aa06      	add	r2, sp, #24
    2466:	f008 fffa 	bl	b45e <eCLD_ColourControlCommandEnhancedMoveToHueAndSaturationCommandSend>
    246a:	b00a      	add	sp, #40	; 0x28
    246c:	bd10      	pop	{r4, pc}
    246e:	3a01      	subs	r2, #1
    2470:	b2d2      	uxtb	r2, r2
    2472:	2aff      	cmp	r2, #255	; 0xff
    2474:	d014      	beq.n	24a0 <vAppGotoHueAndSat+0x88>
    2476:	701a      	strb	r2, [r3, #0]
    2478:	781b      	ldrb	r3, [r3, #0]
    247a:	2b06      	cmp	r3, #6
    247c:	d8e4      	bhi.n	2448 <vAppGotoHueAndSat+0x30>
    247e:	a201      	add	r2, pc, #4	; (adr r2, 2484 <vAppGotoHueAndSat+0x6c>)
    2480:	f852 f023 	ldr.w	pc, [r2, r3, lsl #2]
    2484:	0000243f 	.word	0x0000243f
    2488:	000024ab 	.word	0x000024ab
    248c:	000024b5 	.word	0x000024b5
    2490:	000024bb 	.word	0x000024bb
    2494:	000024c1 	.word	0x000024c1
    2498:	000024c7 	.word	0x000024c7
    249c:	000024a5 	.word	0x000024a5
    24a0:	2206      	movs	r2, #6
    24a2:	701a      	strb	r2, [r3, #0]
    24a4:	f44f 435d 	mov.w	r3, #56576	; 0xdd00
    24a8:	e000      	b.n	24ac <vAppGotoHueAndSat+0x94>
    24aa:	2300      	movs	r3, #0
    24ac:	f8ad 3010 	strh.w	r3, [sp, #16]
    24b0:	23fe      	movs	r3, #254	; 0xfe
    24b2:	e7c7      	b.n	2444 <vAppGotoHueAndSat+0x2c>
    24b4:	f44f 5338 	mov.w	r3, #11776	; 0x2e00
    24b8:	e7f8      	b.n	24ac <vAppGotoHueAndSat+0x94>
    24ba:	f44f 43aa 	mov.w	r3, #21760	; 0x5500
    24be:	e7f5      	b.n	24ac <vAppGotoHueAndSat+0x94>
    24c0:	f44f 43fa 	mov.w	r3, #32000	; 0x7d00
    24c4:	e7f2      	b.n	24ac <vAppGotoHueAndSat+0x94>
    24c6:	f44f 432a 	mov.w	r3, #43520	; 0xaa00
    24ca:	e7ef      	b.n	24ac <vAppGotoHueAndSat+0x94>
    24cc:	04015678 	.word	0x04015678
    24d0:	04015590 	.word	0x04015590
    24d4:	04015418 	.word	0x04015418

000024d8 <vAppMoveSaturation>:
    24d8:	b530      	push	{r4, r5, lr}
    24da:	b089      	sub	sp, #36	; 0x24
    24dc:	4605      	mov	r5, r0
    24de:	460c      	mov	r4, r1
    24e0:	a804      	add	r0, sp, #16
    24e2:	2100      	movs	r1, #0
    24e4:	f000 f908 	bl	26f8 <vSetAddress>
    24e8:	2300      	movs	r3, #0
    24ea:	f8ad 300e 	strh.w	r3, [sp, #14]
    24ee:	4b0a      	ldr	r3, [pc, #40]	; (2518 <vAppMoveSaturation+0x40>)
    24f0:	480a      	ldr	r0, [pc, #40]	; (251c <vAppMoveSaturation+0x44>)
    24f2:	7859      	ldrb	r1, [r3, #1]
    24f4:	f88d 500c 	strb.w	r5, [sp, #12]
    24f8:	eb03 01c1 	add.w	r1, r3, r1, lsl #3
    24fc:	ab03      	add	r3, sp, #12
    24fe:	9300      	str	r3, [sp, #0]
    2500:	7a09      	ldrb	r1, [r1, #8]
    2502:	7d00      	ldrb	r0, [r0, #20]
    2504:	f88d 400d 	strb.w	r4, [sp, #13]
    2508:	f10d 030b 	add.w	r3, sp, #11
    250c:	aa04      	add	r2, sp, #16
    250e:	f008 ff49 	bl	b3a4 <eCLD_ColourControlCommandMoveSaturationCommandSend>
    2512:	b009      	add	sp, #36	; 0x24
    2514:	bd30      	pop	{r4, r5, pc}
    2516:	bf00      	nop
    2518:	04015590 	.word	0x04015590
    251c:	04015418 	.word	0x04015418

00002520 <vAppMoveColourTemperature>:
    2520:	b5f0      	push	{r4, r5, r6, r7, lr}
    2522:	b08b      	sub	sp, #44	; 0x2c
    2524:	4607      	mov	r7, r0
    2526:	460e      	mov	r6, r1
    2528:	a806      	add	r0, sp, #24
    252a:	2100      	movs	r1, #0
    252c:	4615      	mov	r5, r2
    252e:	461c      	mov	r4, r3
    2530:	f000 f8e2 	bl	26f8 <vSetAddress>
    2534:	2300      	movs	r3, #0
    2536:	f8ad 3014 	strh.w	r3, [sp, #20]
    253a:	4b0c      	ldr	r3, [pc, #48]	; (256c <vAppMoveColourTemperature+0x4c>)
    253c:	480c      	ldr	r0, [pc, #48]	; (2570 <vAppMoveColourTemperature+0x50>)
    253e:	7859      	ldrb	r1, [r3, #1]
    2540:	f88d 700c 	strb.w	r7, [sp, #12]
    2544:	eb03 01c1 	add.w	r1, r3, r1, lsl #3
    2548:	ab03      	add	r3, sp, #12
    254a:	9300      	str	r3, [sp, #0]
    254c:	7a09      	ldrb	r1, [r1, #8]
    254e:	7d00      	ldrb	r0, [r0, #20]
    2550:	f8ad 600e 	strh.w	r6, [sp, #14]
    2554:	f10d 030b 	add.w	r3, sp, #11
    2558:	aa06      	add	r2, sp, #24
    255a:	f8ad 5010 	strh.w	r5, [sp, #16]
    255e:	f8ad 4012 	strh.w	r4, [sp, #18]
    2562:	f008 fff3 	bl	b54c <eCLD_ColourControlCommandMoveColourTemperatureCommandSend>
    2566:	b00b      	add	sp, #44	; 0x2c
    2568:	bdf0      	pop	{r4, r5, r6, r7, pc}
    256a:	bf00      	nop
    256c:	04015590 	.word	0x04015590
    2570:	04015418 	.word	0x04015418

00002574 <vAppColorLoopSet>:
    2574:	b500      	push	{lr}
    2576:	b08b      	sub	sp, #44	; 0x2c
    2578:	f88d 000c 	strb.w	r0, [sp, #12]
    257c:	f88d 100d 	strb.w	r1, [sp, #13]
    2580:	f8ad 3010 	strh.w	r3, [sp, #16]
    2584:	2100      	movs	r1, #0
    2586:	f8bd 3030 	ldrh.w	r3, [sp, #48]	; 0x30
    258a:	f88d 200e 	strb.w	r2, [sp, #14]
    258e:	a806      	add	r0, sp, #24
    2590:	f8ad 3012 	strh.w	r3, [sp, #18]
    2594:	f8ad 1014 	strh.w	r1, [sp, #20]
    2598:	f000 f8ae 	bl	26f8 <vSetAddress>
    259c:	4b08      	ldr	r3, [pc, #32]	; (25c0 <vAppColorLoopSet+0x4c>)
    259e:	4809      	ldr	r0, [pc, #36]	; (25c4 <vAppColorLoopSet+0x50>)
    25a0:	7859      	ldrb	r1, [r3, #1]
    25a2:	eb03 01c1 	add.w	r1, r3, r1, lsl #3
    25a6:	ab03      	add	r3, sp, #12
    25a8:	9300      	str	r3, [sp, #0]
    25aa:	7a09      	ldrb	r1, [r1, #8]
    25ac:	7d00      	ldrb	r0, [r0, #20]
    25ae:	f10d 030b 	add.w	r3, sp, #11
    25b2:	aa06      	add	r2, sp, #24
    25b4:	f008 ff88 	bl	b4c8 <eCLD_ColourControlCommandColourLoopSetCommandSend>
    25b8:	b00b      	add	sp, #44	; 0x2c
    25ba:	f85d fb04 	ldr.w	pc, [sp], #4
    25be:	bf00      	nop
    25c0:	04015590 	.word	0x04015590
    25c4:	04015418 	.word	0x04015418

000025c8 <vAPPColourLoopStop>:
    25c8:	b507      	push	{r0, r1, r2, lr}
    25ca:	2300      	movs	r3, #0
    25cc:	9300      	str	r3, [sp, #0]
    25ce:	461a      	mov	r2, r3
    25d0:	4619      	mov	r1, r3
    25d2:	2001      	movs	r0, #1
    25d4:	f7ff ffce 	bl	2574 <vAppColorLoopSet>
    25d8:	b003      	add	sp, #12
    25da:	f85d fb04 	ldr.w	pc, [sp], #4
    25de:	Address 0x000025de is out of bounds.


000025e0 <vAppRecallSceneById>:
    25e0:	b530      	push	{r4, r5, lr}
    25e2:	b08b      	sub	sp, #44	; 0x2c
    25e4:	4604      	mov	r4, r0
    25e6:	460d      	mov	r5, r1
    25e8:	a806      	add	r0, sp, #24
    25ea:	2100      	movs	r1, #0
    25ec:	f000 f884 	bl	26f8 <vSetAddress>
    25f0:	f64f 73ff 	movw	r3, #65535	; 0xffff
    25f4:	f8ad 3014 	strh.w	r3, [sp, #20]
    25f8:	4b09      	ldr	r3, [pc, #36]	; (2620 <vAppRecallSceneById+0x40>)
    25fa:	480a      	ldr	r0, [pc, #40]	; (2624 <vAppRecallSceneById+0x44>)
    25fc:	7859      	ldrb	r1, [r3, #1]
    25fe:	f8ad 5010 	strh.w	r5, [sp, #16]
    2602:	eb03 01c1 	add.w	r1, r3, r1, lsl #3
    2606:	ab04      	add	r3, sp, #16
    2608:	9300      	str	r3, [sp, #0]
    260a:	7a09      	ldrb	r1, [r1, #8]
    260c:	7d00      	ldrb	r0, [r0, #20]
    260e:	f88d 4012 	strb.w	r4, [sp, #18]
    2612:	f10d 030f 	add.w	r3, sp, #15
    2616:	aa06      	add	r2, sp, #24
    2618:	f008 fd53 	bl	b0c2 <eCLD_ScenesCommandRecallSceneRequestSend>
    261c:	b00b      	add	sp, #44	; 0x2c
    261e:	bd30      	pop	{r4, r5, pc}
    2620:	04015590 	.word	0x04015590
    2624:	04015418 	.word	0x04015418

00002628 <vAppStoreSceneById>:
    2628:	b530      	push	{r4, r5, lr}
    262a:	b089      	sub	sp, #36	; 0x24
    262c:	4604      	mov	r4, r0
    262e:	460d      	mov	r5, r1
    2630:	a804      	add	r0, sp, #16
    2632:	2100      	movs	r1, #0
    2634:	f000 f860 	bl	26f8 <vSetAddress>
    2638:	4b09      	ldr	r3, [pc, #36]	; (2660 <vAppStoreSceneById+0x38>)
    263a:	480a      	ldr	r0, [pc, #40]	; (2664 <vAppStoreSceneById+0x3c>)
    263c:	7859      	ldrb	r1, [r3, #1]
    263e:	f8ad 500c 	strh.w	r5, [sp, #12]
    2642:	eb03 01c1 	add.w	r1, r3, r1, lsl #3
    2646:	ab03      	add	r3, sp, #12
    2648:	9300      	str	r3, [sp, #0]
    264a:	7a09      	ldrb	r1, [r1, #8]
    264c:	7d00      	ldrb	r0, [r0, #20]
    264e:	f88d 400e 	strb.w	r4, [sp, #14]
    2652:	f10d 030b 	add.w	r3, sp, #11
    2656:	aa04      	add	r2, sp, #16
    2658:	f008 fd12 	bl	b080 <eCLD_ScenesCommandStoreSceneRequestSend>
    265c:	b009      	add	sp, #36	; 0x24
    265e:	bd30      	pop	{r4, r5, pc}
    2660:	04015590 	.word	0x04015590
    2664:	04015418 	.word	0x04015418

00002668 <vAppAddGroup>:
    2668:	b500      	push	{lr}
    266a:	b08b      	sub	sp, #44	; 0x2c
    266c:	2307      	movs	r3, #7
    266e:	f88d 3018 	strb.w	r3, [sp, #24]
    2672:	4b0d      	ldr	r3, [pc, #52]	; (26a8 <vAppAddGroup+0x40>)
    2674:	f8ad 000c 	strh.w	r0, [sp, #12]
    2678:	eb03 01c1 	add.w	r1, r3, r1, lsl #3
    267c:	480b      	ldr	r0, [pc, #44]	; (26ac <vAppAddGroup+0x44>)
    267e:	884b      	ldrh	r3, [r1, #2]
    2680:	f8ad 3020 	strh.w	r3, [sp, #32]
    2684:	4b0a      	ldr	r3, [pc, #40]	; (26b0 <vAppAddGroup+0x48>)
    2686:	9305      	str	r3, [sp, #20]
    2688:	2300      	movs	r3, #0
    268a:	f8ad 3010 	strh.w	r3, [sp, #16]
    268e:	ab03      	add	r3, sp, #12
    2690:	9300      	str	r3, [sp, #0]
    2692:	7a09      	ldrb	r1, [r1, #8]
    2694:	7d00      	ldrb	r0, [r0, #20]
    2696:	f10d 030b 	add.w	r3, sp, #11
    269a:	aa06      	add	r2, sp, #24
    269c:	f008 f942 	bl	a924 <eCLD_GroupsCommandAddGroupRequestSend>
    26a0:	b00b      	add	sp, #44	; 0x2c
    26a2:	f85d fb04 	ldr.w	pc, [sp], #4
    26a6:	bf00      	nop
    26a8:	04015590 	.word	0x04015590
    26ac:	04015418 	.word	0x04015418
    26b0:	00032eee 	.word	0x00032eee

000026b4 <vAppSetGroupId>:
    26b4:	4b01      	ldr	r3, [pc, #4]	; (26bc <vAppSetGroupId+0x8>)
    26b6:	7018      	strb	r0, [r3, #0]
    26b8:	4770      	bx	lr
    26ba:	bf00      	nop
    26bc:	04015679 	.word	0x04015679

000026c0 <vAppIdentifyEffect>:
    26c0:	b510      	push	{r4, lr}
    26c2:	b088      	sub	sp, #32
    26c4:	4604      	mov	r4, r0
    26c6:	2100      	movs	r1, #0
    26c8:	a804      	add	r0, sp, #16
    26ca:	f000 f815 	bl	26f8 <vSetAddress>
    26ce:	4b08      	ldr	r3, [pc, #32]	; (26f0 <vAppIdentifyEffect+0x30>)
    26d0:	4808      	ldr	r0, [pc, #32]	; (26f4 <vAppIdentifyEffect+0x34>)
    26d2:	7859      	ldrb	r1, [r3, #1]
    26d4:	eb03 01c1 	add.w	r1, r3, r1, lsl #3
    26d8:	2300      	movs	r3, #0
    26da:	e9cd 4300 	strd	r4, r3, [sp]
    26de:	aa04      	add	r2, sp, #16
    26e0:	7a09      	ldrb	r1, [r1, #8]
    26e2:	7d00      	ldrb	r0, [r0, #20]
    26e4:	f10d 030f 	add.w	r3, sp, #15
    26e8:	f008 fa7e 	bl	abe8 <eCLD_IdentifyCommandTriggerEffectSend>
    26ec:	b008      	add	sp, #32
    26ee:	bd10      	pop	{r4, pc}
    26f0:	04015590 	.word	0x04015590
    26f4:	04015418 	.word	0x04015418

000026f8 <vSetAddress>:
    26f8:	b121      	cbz	r1, 2704 <vSetAddress+0xc>
    26fa:	2304      	movs	r3, #4
    26fc:	7003      	strb	r3, [r0, #0]
    26fe:	2301      	movs	r3, #1
    2700:	7203      	strb	r3, [r0, #8]
    2702:	4770      	bx	lr
    2704:	4b09      	ldr	r3, [pc, #36]	; (272c <vSetAddress+0x34>)
    2706:	781b      	ldrb	r3, [r3, #0]
    2708:	b14b      	cbz	r3, 271e <vSetAddress+0x26>
    270a:	2301      	movs	r3, #1
    270c:	7003      	strb	r3, [r0, #0]
    270e:	4b08      	ldr	r3, [pc, #32]	; (2730 <vSetAddress+0x38>)
    2710:	781a      	ldrb	r2, [r3, #0]
    2712:	4b08      	ldr	r3, [pc, #32]	; (2734 <vSetAddress+0x3c>)
    2714:	eb03 0382 	add.w	r3, r3, r2, lsl #2
    2718:	885b      	ldrh	r3, [r3, #2]
    271a:	8103      	strh	r3, [r0, #8]
    271c:	4770      	bx	lr
    271e:	2307      	movs	r3, #7
    2720:	7003      	strb	r3, [r0, #0]
    2722:	4b05      	ldr	r3, [pc, #20]	; (2738 <vSetAddress+0x40>)
    2724:	785a      	ldrb	r2, [r3, #1]
    2726:	eb03 03c2 	add.w	r3, r3, r2, lsl #3
    272a:	e7f5      	b.n	2718 <vSetAddress+0x20>
    272c:	04015430 	.word	0x04015430
    2730:	04015679 	.word	0x04015679
    2734:	04015646 	.word	0x04015646
    2738:	04015590 	.word	0x04015590

0000273c <bAppSendBasicResetReq>:
    273c:	b57f      	push	{r0, r1, r2, r3, r4, r5, r6, lr}
    273e:	2100      	movs	r1, #0
    2740:	a802      	add	r0, sp, #8
    2742:	f7ff ffd9 	bl	26f8 <vSetAddress>
    2746:	4b09      	ldr	r3, [pc, #36]	; (276c <bAppSendBasicResetReq+0x30>)
    2748:	4809      	ldr	r0, [pc, #36]	; (2770 <bAppSendBasicResetReq+0x34>)
    274a:	7859      	ldrb	r1, [r3, #1]
    274c:	7d00      	ldrb	r0, [r0, #20]
    274e:	eb03 01c1 	add.w	r1, r3, r1, lsl #3
    2752:	aa02      	add	r2, sp, #8
    2754:	f10d 0307 	add.w	r3, sp, #7
    2758:	7a09      	ldrb	r1, [r1, #8]
    275a:	f008 f85d 	bl	a818 <eCLD_BasicCommandResetToFactoryDefaultsSend>
    275e:	4601      	mov	r1, r0
    2760:	4804      	ldr	r0, [pc, #16]	; (2774 <bAppSendBasicResetReq+0x38>)
    2762:	f000 f915 	bl	2990 <DbgConsole_Printf>
    2766:	b007      	add	sp, #28
    2768:	f85d fb04 	ldr.w	pc, [sp], #4
    276c:	04015590 	.word	0x04015590
    2770:	04015418 	.word	0x04015418
    2774:	00030047 	.word	0x00030047

00002778 <vAppChangeChannel>:
    2778:	b530      	push	{r4, r5, lr}
    277a:	b08b      	sub	sp, #44	; 0x2c
    277c:	4b2a      	ldr	r3, [pc, #168]	; (2828 <vAppChangeChannel+0xb0>)
    277e:	482b      	ldr	r0, [pc, #172]	; (282c <vAppChangeChannel+0xb4>)
    2780:	9306      	str	r3, [sp, #24]
    2782:	f011 ff5b 	bl	1463c <PDUM_hAPduAllocateAPduInstance>
    2786:	4604      	mov	r4, r0
    2788:	2800      	cmp	r0, #0
    278a:	d044      	beq.n	2816 <vAppChangeChannel+0x9e>
    278c:	23fe      	movs	r3, #254	; 0xfe
    278e:	f88d 3020 	strb.w	r3, [sp, #32]
    2792:	f7fe f8c3 	bl	91c <ZPS_pvAplZdoGetAplHandle>
    2796:	f018 fdeb 	bl	1b370 <zps_psAplZdoGetNib>
    279a:	2103      	movs	r1, #3
    279c:	f890 5094 	ldrb.w	r5, [r0, #148]	; 0x94
    27a0:	2000      	movs	r0, #0
    27a2:	f006 f8cd 	bl	8940 <RND_u32GetRand>
    27a6:	aa0a      	add	r2, sp, #40	; 0x28
    27a8:	b2c3      	uxtb	r3, r0
    27aa:	fa52 f080 	uxtab	r0, r2, r0
    27ae:	f810 2c10 	ldrb.w	r2, [r0, #-16]
    27b2:	42aa      	cmp	r2, r5
    27b4:	d002      	beq.n	27bc <vAppChangeChannel+0x44>
    27b6:	2301      	movs	r3, #1
    27b8:	4093      	lsls	r3, r2
    27ba:	e003      	b.n	27c4 <vAppChangeChannel+0x4c>
    27bc:	2b03      	cmp	r3, #3
    27be:	d12c      	bne.n	281a <vAppChangeChannel+0xa2>
    27c0:	f44f 6300 	mov.w	r3, #2048	; 0x800
    27c4:	9307      	str	r3, [sp, #28]
    27c6:	f7fe f8a9 	bl	91c <ZPS_pvAplZdoGetAplHandle>
    27ca:	f018 fdd1 	bl	1b370 <zps_psAplZdoGetNib>
    27ce:	f890 3090 	ldrb.w	r3, [r0, #144]	; 0x90
    27d2:	3301      	adds	r3, #1
    27d4:	f88d 3022 	strb.w	r3, [sp, #34]	; 0x22
    27d8:	2500      	movs	r5, #0
    27da:	f06f 0302 	mvn.w	r3, #2
    27de:	f363 050f 	bfi	r5, r3, #0, #16
    27e2:	f7fe f89b 	bl	91c <ZPS_pvAplZdoGetAplHandle>
    27e6:	ab07      	add	r3, sp, #28
    27e8:	9302      	str	r3, [sp, #8]
    27ea:	f10d 0317 	add.w	r3, sp, #23
    27ee:	9301      	str	r3, [sp, #4]
    27f0:	2300      	movs	r3, #0
    27f2:	9300      	str	r3, [sp, #0]
    27f4:	462a      	mov	r2, r5
    27f6:	4621      	mov	r1, r4
    27f8:	f01d fa0c 	bl	1fc14 <zps_eAplZdpMgmtNwkUpdateRequest>
    27fc:	b980      	cbnz	r0, 2820 <vAppChangeChannel+0xa8>
    27fe:	480c      	ldr	r0, [pc, #48]	; (2830 <vAppChangeChannel+0xb8>)
    2800:	f000 f8c6 	bl	2990 <DbgConsole_Printf>
    2804:	f7fe f88a 	bl	91c <ZPS_pvAplZdoGetAplHandle>
    2808:	f018 fdb2 	bl	1b370 <zps_psAplZdoGetNib>
    280c:	f890 3090 	ldrb.w	r3, [r0, #144]	; 0x90
    2810:	3301      	adds	r3, #1
    2812:	f880 3090 	strb.w	r3, [r0, #144]	; 0x90
    2816:	b00b      	add	sp, #44	; 0x2c
    2818:	bd30      	pop	{r4, r5, pc}
    281a:	f810 2c0f 	ldrb.w	r2, [r0, #-15]
    281e:	e7ca      	b.n	27b6 <vAppChangeChannel+0x3e>
    2820:	4620      	mov	r0, r4
    2822:	f011 ff23 	bl	1466c <PDUM_eAPduFreeAPduInstance>
    2826:	e7f6      	b.n	2816 <vAppChangeChannel+0x9e>
    2828:	19140f0b 	.word	0x19140f0b
    282c:	04000a4c 	.word	0x04000a4c
    2830:	00030070 	.word	0x00030070

00002834 <DbgConsole_SendDataReliable>:
    2834:	b510      	push	{r4, lr}
    2836:	460c      	mov	r4, r1
    2838:	4601      	mov	r1, r0
    283a:	b930      	cbnz	r0, 284a <DbgConsole_SendDataReliable+0x16>
    283c:	4b0b      	ldr	r3, [pc, #44]	; (286c <DbgConsole_SendDataReliable+0x38>)
    283e:	4a0c      	ldr	r2, [pc, #48]	; (2870 <DbgConsole_SendDataReliable+0x3c>)
    2840:	f240 11d1 	movw	r1, #465	; 0x1d1
    2844:	480b      	ldr	r0, [pc, #44]	; (2874 <DbgConsole_SendDataReliable+0x40>)
    2846:	f007 fe7b 	bl	a540 <__assert_func>
    284a:	b924      	cbnz	r4, 2856 <DbgConsole_SendDataReliable+0x22>
    284c:	4b0a      	ldr	r3, [pc, #40]	; (2878 <DbgConsole_SendDataReliable+0x44>)
    284e:	4a08      	ldr	r2, [pc, #32]	; (2870 <DbgConsole_SendDataReliable+0x3c>)
    2850:	f44f 71e9 	mov.w	r1, #466	; 0x1d2
    2854:	e7f6      	b.n	2844 <DbgConsole_SendDataReliable+0x10>
    2856:	4622      	mov	r2, r4
    2858:	4808      	ldr	r0, [pc, #32]	; (287c <DbgConsole_SendDataReliable+0x48>)
    285a:	f007 fd31 	bl	a2c0 <SerialManager_WriteBlocking>
    285e:	2800      	cmp	r0, #0
    2860:	bf0c      	ite	eq
    2862:	4620      	moveq	r0, r4
    2864:	f04f 30ff 	movne.w	r0, #4294967295
    2868:	bd10      	pop	{r4, pc}
    286a:	bf00      	nop
    286c:	0003007b 	.word	0x0003007b
    2870:	0003011a 	.word	0x0003011a
    2874:	00030086 	.word	0x00030086
    2878:	000300e8 	.word	0x000300e8
    287c:	04015694 	.word	0x04015694

00002880 <DbgConsole_PrintCallback>:
    2880:	e92d 43f8 	stmdb	sp!, {r3, r4, r5, r6, r7, r8, r9, lr}
    2884:	2500      	movs	r5, #0
    2886:	4606      	mov	r6, r0
    2888:	460c      	mov	r4, r1
    288a:	4690      	mov	r8, r2
    288c:	461f      	mov	r7, r3
    288e:	46a9      	mov	r9, r5
    2890:	42bd      	cmp	r5, r7
    2892:	db01      	blt.n	2898 <DbgConsole_PrintCallback+0x18>
    2894:	e8bd 83f8 	ldmia.w	sp!, {r3, r4, r5, r6, r7, r8, r9, pc}
    2898:	6821      	ldr	r1, [r4, #0]
    289a:	1c4b      	adds	r3, r1, #1
    289c:	2b7f      	cmp	r3, #127	; 0x7f
    289e:	d904      	bls.n	28aa <DbgConsole_PrintCallback+0x2a>
    28a0:	4630      	mov	r0, r6
    28a2:	f7ff ffc7 	bl	2834 <DbgConsole_SendDataReliable>
    28a6:	f8c4 9000 	str.w	r9, [r4]
    28aa:	6823      	ldr	r3, [r4, #0]
    28ac:	f806 8003 	strb.w	r8, [r6, r3]
    28b0:	6823      	ldr	r3, [r4, #0]
    28b2:	3301      	adds	r3, #1
    28b4:	6023      	str	r3, [r4, #0]
    28b6:	3501      	adds	r5, #1
    28b8:	e7ea      	b.n	2890 <DbgConsole_PrintCallback+0x10>
    28ba:	Address 0x000028ba is out of bounds.


000028bc <DbgConsole_Init>:
    28bc:	b510      	push	{r4, lr}
    28be:	b088      	sub	sp, #32
    28c0:	e9cd 3104 	strd	r3, r1, [sp, #16]
    28c4:	2301      	movs	r3, #1
    28c6:	2100      	movs	r1, #0
    28c8:	429a      	cmp	r2, r3
    28ca:	f8ad 1018 	strh.w	r1, [sp, #24]
    28ce:	f88d 001a 	strb.w	r0, [sp, #26]
    28d2:	f88d 301b 	strb.w	r3, [sp, #27]
    28d6:	f88d 301c 	strb.w	r3, [sp, #28]
    28da:	f88d 2008 	strb.w	r2, [sp, #8]
    28de:	d12e      	bne.n	293e <DbgConsole_Init+0x82>
    28e0:	4c18      	ldr	r4, [pc, #96]	; (2944 <DbgConsole_Init+0x88>)
    28e2:	ab04      	add	r3, sp, #16
    28e4:	221c      	movs	r2, #28
    28e6:	4620      	mov	r0, r4
    28e8:	9303      	str	r3, [sp, #12]
    28ea:	f02c f9f1 	bl	2ecd0 <memset>
    28ee:	4669      	mov	r1, sp
    28f0:	4620      	mov	r0, r4
    28f2:	6124      	str	r4, [r4, #16]
    28f4:	f007 fbea 	bl	a0cc <SerialManager_Init>
    28f8:	b130      	cbz	r0, 2908 <DbgConsole_Init+0x4c>
    28fa:	4b13      	ldr	r3, [pc, #76]	; (2948 <DbgConsole_Init+0x8c>)
    28fc:	4a13      	ldr	r2, [pc, #76]	; (294c <DbgConsole_Init+0x90>)
    28fe:	f44f 7133 	mov.w	r1, #716	; 0x2cc
    2902:	4813      	ldr	r0, [pc, #76]	; (2950 <DbgConsole_Init+0x94>)
    2904:	f007 fe1c 	bl	a540 <__assert_func>
    2908:	6920      	ldr	r0, [r4, #16]
    290a:	f104 0114 	add.w	r1, r4, #20
    290e:	f007 fc2f 	bl	a170 <SerialManager_OpenWriteHandle>
    2912:	b120      	cbz	r0, 291e <DbgConsole_Init+0x62>
    2914:	4b0c      	ldr	r3, [pc, #48]	; (2948 <DbgConsole_Init+0x8c>)
    2916:	4a0d      	ldr	r2, [pc, #52]	; (294c <DbgConsole_Init+0x90>)
    2918:	f240 21d6 	movw	r1, #726	; 0x2d6
    291c:	e7f1      	b.n	2902 <DbgConsole_Init+0x46>
    291e:	6920      	ldr	r0, [r4, #16]
    2920:	f104 0118 	add.w	r1, r4, #24
    2924:	f007 fc76 	bl	a214 <SerialManager_OpenReadHandle>
    2928:	b120      	cbz	r0, 2934 <DbgConsole_Init+0x78>
    292a:	4b07      	ldr	r3, [pc, #28]	; (2948 <DbgConsole_Init+0x8c>)
    292c:	4a07      	ldr	r2, [pc, #28]	; (294c <DbgConsole_Init+0x90>)
    292e:	f240 21e1 	movw	r1, #737	; 0x2e1
    2932:	e7e6      	b.n	2902 <DbgConsole_Init+0x46>
    2934:	4b07      	ldr	r3, [pc, #28]	; (2954 <DbgConsole_Init+0x98>)
    2936:	6922      	ldr	r2, [r4, #16]
    2938:	601a      	str	r2, [r3, #0]
    293a:	b008      	add	sp, #32
    293c:	bd10      	pop	{r4, pc}
    293e:	f243 5021 	movw	r0, #13601	; 0x3521
    2942:	e7fa      	b.n	293a <DbgConsole_Init+0x7e>
    2944:	04015680 	.word	0x04015680
    2948:	000300f2 	.word	0x000300f2
    294c:	00030136 	.word	0x00030136
    2950:	00030086 	.word	0x00030086
    2954:	0401567c 	.word	0x0401567c

00002958 <DbgConsole_Deinit>:
    2958:	b510      	push	{r4, lr}
    295a:	4c0b      	ldr	r4, [pc, #44]	; (2988 <DbgConsole_Deinit+0x30>)
    295c:	6923      	ldr	r3, [r4, #16]
    295e:	b14b      	cbz	r3, 2974 <DbgConsole_Deinit+0x1c>
    2960:	f104 0014 	add.w	r0, r4, #20
    2964:	f007 fc2e 	bl	a1c4 <SerialManager_CloseWriteHandle>
    2968:	6923      	ldr	r3, [r4, #16]
    296a:	b11b      	cbz	r3, 2974 <DbgConsole_Deinit+0x1c>
    296c:	f104 0018 	add.w	r0, r4, #24
    2970:	f007 fc7e 	bl	a270 <SerialManager_CloseReadHandle>
    2974:	6920      	ldr	r0, [r4, #16]
    2976:	b128      	cbz	r0, 2984 <DbgConsole_Deinit+0x2c>
    2978:	f007 fbd4 	bl	a124 <SerialManager_Deinit>
    297c:	b910      	cbnz	r0, 2984 <DbgConsole_Deinit+0x2c>
    297e:	4b03      	ldr	r3, [pc, #12]	; (298c <DbgConsole_Deinit+0x34>)
    2980:	6120      	str	r0, [r4, #16]
    2982:	6018      	str	r0, [r3, #0]
    2984:	2000      	movs	r0, #0
    2986:	bd10      	pop	{r4, pc}
    2988:	04015680 	.word	0x04015680
    298c:	0401567c 	.word	0x0401567c

00002990 <DbgConsole_Printf>:
    2990:	b40f      	push	{r0, r1, r2, r3}
    2992:	b500      	push	{lr}
    2994:	b0a3      	sub	sp, #140	; 0x8c
    2996:	2100      	movs	r1, #0
    2998:	227c      	movs	r2, #124	; 0x7c
    299a:	a803      	add	r0, sp, #12
    299c:	9102      	str	r1, [sp, #8]
    299e:	f02c f997 	bl	2ecd0 <memset>
    29a2:	4b09      	ldr	r3, [pc, #36]	; (29c8 <DbgConsole_Printf+0x38>)
    29a4:	6818      	ldr	r0, [r3, #0]
    29a6:	b150      	cbz	r0, 29be <DbgConsole_Printf+0x2e>
    29a8:	a925      	add	r1, sp, #148	; 0x94
    29aa:	4b08      	ldr	r3, [pc, #32]	; (29cc <DbgConsole_Printf+0x3c>)
    29ac:	9824      	ldr	r0, [sp, #144]	; 0x90
    29ae:	9101      	str	r1, [sp, #4]
    29b0:	aa02      	add	r2, sp, #8
    29b2:	f007 f8cd 	bl	9b50 <StrFormatPrintf>
    29b6:	4601      	mov	r1, r0
    29b8:	a802      	add	r0, sp, #8
    29ba:	f7ff ff3b 	bl	2834 <DbgConsole_SendDataReliable>
    29be:	b023      	add	sp, #140	; 0x8c
    29c0:	f85d eb04 	ldr.w	lr, [sp], #4
    29c4:	b004      	add	sp, #16
    29c6:	4770      	bx	lr
    29c8:	0401567c 	.word	0x0401567c
    29cc:	00002881 	.word	0x00002881

000029d0 <GPIO_PinInit>:
    29d0:	b510      	push	{r4, lr}
    29d2:	2401      	movs	r4, #1
    29d4:	fa04 f202 	lsl.w	r2, r4, r2
    29d8:	781c      	ldrb	r4, [r3, #0]
    29da:	b924      	cbnz	r4, 29e6 <GPIO_PinInit+0x16>
    29dc:	f501 6110 	add.w	r1, r1, #2304	; 0x900
    29e0:	f840 2021 	str.w	r2, [r0, r1, lsl #2]
    29e4:	bd10      	pop	{r4, pc}
    29e6:	785b      	ldrb	r3, [r3, #1]
    29e8:	b933      	cbnz	r3, 29f8 <GPIO_PinInit+0x28>
    29ea:	f501 630a 	add.w	r3, r1, #2208	; 0x8a0
    29ee:	f840 2023 	str.w	r2, [r0, r3, lsl #2]
    29f2:	f501 610e 	add.w	r1, r1, #2272	; 0x8e0
    29f6:	e7f3      	b.n	29e0 <GPIO_PinInit+0x10>
    29f8:	f501 6308 	add.w	r3, r1, #2176	; 0x880
    29fc:	e7f7      	b.n	29ee <GPIO_PinInit+0x1e>
    29fe:	Address 0x000029fe is out of bounds.


00002a00 <BOARD_InitClocks>:
    2a00:	b510      	push	{r4, lr}
    2a02:	f003 fd9a 	bl	653a <CLOCK_EnableAPBBridge>
    2a06:	4820      	ldr	r0, [pc, #128]	; (2a88 <BOARD_InitClocks+0x88>)
    2a08:	4c20      	ldr	r4, [pc, #128]	; (2a8c <BOARD_InitClocks+0x8c>)
    2a0a:	f003 fe7f 	bl	670c <CLOCK_EnableClock>
    2a0e:	4820      	ldr	r0, [pc, #128]	; (2a90 <BOARD_InitClocks+0x90>)
    2a10:	f003 fe7c 	bl	670c <CLOCK_EnableClock>
    2a14:	481f      	ldr	r0, [pc, #124]	; (2a94 <BOARD_InitClocks+0x94>)
    2a16:	f003 fe79 	bl	670c <CLOCK_EnableClock>
    2a1a:	200d      	movs	r0, #13
    2a1c:	f003 fe76 	bl	670c <CLOCK_EnableClock>
    2a20:	200b      	movs	r0, #11
    2a22:	f003 fe73 	bl	670c <CLOCK_EnableClock>
    2a26:	200e      	movs	r0, #14
    2a28:	f003 fe70 	bl	670c <CLOCK_EnableClock>
    2a2c:	201b      	movs	r0, #27
    2a2e:	f003 fe6d 	bl	670c <CLOCK_EnableClock>
    2a32:	f8d4 30b8 	ldr.w	r3, [r4, #184]	; 0xb8
    2a36:	f443 0380 	orr.w	r3, r3, #4194304	; 0x400000
    2a3a:	f8c4 30b8 	str.w	r3, [r4, #184]	; 0xb8
    2a3e:	f241 00ac 	movw	r0, #4268	; 0x10ac
    2a42:	f003 fa9b 	bl	5f7c <CLOCK_AttachClk>
    2a46:	f44f 708c 	mov.w	r0, #280	; 0x118
    2a4a:	f003 fe5f 	bl	670c <CLOCK_EnableClock>
    2a4e:	f240 100d 	movw	r0, #269	; 0x10d
    2a52:	f003 fe5b 	bl	670c <CLOCK_EnableClock>
    2a56:	f241 00ad 	movw	r0, #4269	; 0x10ad
    2a5a:	f003 fa8f 	bl	5f7c <CLOCK_AttachClk>
    2a5e:	f241 00a9 	movw	r0, #4265	; 0x10a9
    2a62:	f003 fa8b 	bl	5f7c <CLOCK_AttachClk>
    2a66:	f8d4 30b8 	ldr.w	r3, [r4, #184]	; 0xb8
    2a6a:	f443 0380 	orr.w	r3, r3, #4194304	; 0x400000
    2a6e:	f8c4 30b8 	str.w	r3, [r4, #184]	; 0xb8
    2a72:	f242 00b1 	movw	r0, #8369	; 0x20b1
    2a76:	f003 fa81 	bl	5f7c <CLOCK_AttachClk>
    2a7a:	2201      	movs	r2, #1
    2a7c:	e8bd 4010 	ldmia.w	sp!, {r4, lr}
    2a80:	4611      	mov	r1, r2
    2a82:	20db      	movs	r0, #219	; 0xdb
    2a84:	f003 bafe 	b.w	6084 <CLOCK_SetClkDiv>
    2a88:	00010008 	.word	0x00010008
    2a8c:	40012000 	.word	0x40012000
    2a90:	00010004 	.word	0x00010004
    2a94:	00010005 	.word	0x00010005

00002a98 <BOARD_InitHardware>:
    2a98:	b508      	push	{r3, lr}
    2a9a:	f04f 4380 	mov.w	r3, #1073741824	; 0x40000000
    2a9e:	4a0f      	ldr	r2, [pc, #60]	; (2adc <BOARD_InitHardware+0x44>)
    2aa0:	f8c3 2ff0 	str.w	r2, [r3, #4080]	; 0xff0
    2aa4:	f004 fc0e 	bl	72c4 <POWER_Init>
    2aa8:	480d      	ldr	r0, [pc, #52]	; (2ae0 <BOARD_InitHardware+0x48>)
    2aaa:	f003 fef5 	bl	6898 <RESET_PeripheralReset>
    2aae:	480d      	ldr	r0, [pc, #52]	; (2ae4 <BOARD_InitHardware+0x4c>)
    2ab0:	f003 fef2 	bl	6898 <RESET_PeripheralReset>
    2ab4:	200e      	movs	r0, #14
    2ab6:	f003 feef 	bl	6898 <RESET_PeripheralReset>
    2aba:	480b      	ldr	r0, [pc, #44]	; (2ae8 <BOARD_InitHardware+0x50>)
    2abc:	f003 feec 	bl	6898 <RESET_PeripheralReset>
    2ac0:	4a0a      	ldr	r2, [pc, #40]	; (2aec <BOARD_InitHardware+0x54>)
    2ac2:	6813      	ldr	r3, [r2, #0]
    2ac4:	f043 0308 	orr.w	r3, r3, #8
    2ac8:	6013      	str	r3, [r2, #0]
    2aca:	f7ff ff99 	bl	2a00 <BOARD_InitClocks>
    2ace:	f003 f8c1 	bl	5c54 <BOARD_InitDebugConsole>
    2ad2:	e8bd 4008 	ldmia.w	sp!, {r3, lr}
    2ad6:	f000 b80b 	b.w	2af0 <BOARD_InitPins>
    2ada:	bf00      	nop
    2adc:	87654320 	.word	0x87654320
    2ae0:	0001000b 	.word	0x0001000b
    2ae4:	0001000c 	.word	0x0001000c
    2ae8:	0001000d 	.word	0x0001000d
    2aec:	40012000 	.word	0x40012000

00002af0 <BOARD_InitPins>:
    2af0:	4b04      	ldr	r3, [pc, #16]	; (2b04 <BOARD_InitPins+0x14>)
    2af2:	2292      	movs	r2, #146	; 0x92
    2af4:	621a      	str	r2, [r3, #32]
    2af6:	625a      	str	r2, [r3, #36]	; 0x24
    2af8:	629a      	str	r2, [r3, #40]	; 0x28
    2afa:	62da      	str	r2, [r3, #44]	; 0x2c
    2afc:	631a      	str	r2, [r3, #48]	; 0x30
    2afe:	635a      	str	r2, [r3, #52]	; 0x34
    2b00:	4770      	bx	lr
    2b02:	bf00      	nop
    2b04:	4000f000 	.word	0x4000f000

00002b08 <BOARD_SetPinsForPowerMode>:
    2b08:	b5f7      	push	{r0, r1, r2, r4, r5, r6, r7, lr}
    2b0a:	4e0a      	ldr	r6, [pc, #40]	; (2b34 <BOARD_SetPinsForPowerMode+0x2c>)
    2b0c:	4d0a      	ldr	r5, [pc, #40]	; (2b38 <BOARD_SetPinsForPowerMode+0x30>)
    2b0e:	2400      	movs	r4, #0
    2b10:	f44f 7780 	mov.w	r7, #256	; 0x100
    2b14:	ab01      	add	r3, sp, #4
    2b16:	4622      	mov	r2, r4
    2b18:	2100      	movs	r1, #0
    2b1a:	4630      	mov	r0, r6
    2b1c:	f8ad 7004 	strh.w	r7, [sp, #4]
    2b20:	f7ff ff56 	bl	29d0 <GPIO_PinInit>
    2b24:	2310      	movs	r3, #16
    2b26:	f845 3024 	str.w	r3, [r5, r4, lsl #2]
    2b2a:	3401      	adds	r4, #1
    2b2c:	2c16      	cmp	r4, #22
    2b2e:	d1f1      	bne.n	2b14 <BOARD_SetPinsForPowerMode+0xc>
    2b30:	b003      	add	sp, #12
    2b32:	bdf0      	pop	{r4, r5, r6, r7, pc}
    2b34:	40080000 	.word	0x40080000
    2b38:	4000f000 	.word	0x4000f000

00002b3c <flashConfig_ExtractGpAdcTrimValues>:
    2b3c:	490b      	ldr	r1, [pc, #44]	; (2b6c <flashConfig_ExtractGpAdcTrimValues+0x30>)
    2b3e:	680a      	ldr	r2, [r1, #0]
    2b40:	4603      	mov	r3, r0
    2b42:	f012 0001 	ands.w	r0, r2, #1
    2b46:	b510      	push	{r4, lr}
    2b48:	d00f      	beq.n	2b6a <flashConfig_ExtractGpAdcTrimValues+0x2e>
    2b4a:	f3c2 0449 	ubfx	r4, r2, #1, #10
    2b4e:	801c      	strh	r4, [r3, #0]
    2b50:	f3c2 24c9 	ubfx	r4, r2, #11, #10
    2b54:	f3c2 5249 	ubfx	r2, r2, #21, #10
    2b58:	809a      	strh	r2, [r3, #4]
    2b5a:	684a      	ldr	r2, [r1, #4]
    2b5c:	805c      	strh	r4, [r3, #2]
    2b5e:	f3c2 010b 	ubfx	r1, r2, #0, #12
    2b62:	f3c2 320b 	ubfx	r2, r2, #12, #12
    2b66:	80d9      	strh	r1, [r3, #6]
    2b68:	811a      	strh	r2, [r3, #8]
    2b6a:	bd10      	pop	{r4, pc}
    2b6c:	0009fc80 	.word	0x0009fc80

00002b70 <flashConfig_ExtractTempSensorTrimValues>:
    2b70:	4a15      	ldr	r2, [pc, #84]	; (2bc8 <flashConfig_ExtractTempSensorTrimValues+0x58>)
    2b72:	4603      	mov	r3, r0
    2b74:	6810      	ldr	r0, [r2, #0]
    2b76:	f010 0001 	ands.w	r0, r0, #1
    2b7a:	b510      	push	{r4, lr}
    2b7c:	d023      	beq.n	2bc6 <flashConfig_ExtractTempSensorTrimValues+0x56>
    2b7e:	6951      	ldr	r1, [r2, #20]
    2b80:	8019      	strh	r1, [r3, #0]
    2b82:	0c09      	lsrs	r1, r1, #16
    2b84:	8059      	strh	r1, [r3, #2]
    2b86:	6991      	ldr	r1, [r2, #24]
    2b88:	8099      	strh	r1, [r3, #4]
    2b8a:	0c09      	lsrs	r1, r1, #16
    2b8c:	80d9      	strh	r1, [r3, #6]
    2b8e:	69d1      	ldr	r1, [r2, #28]
    2b90:	8119      	strh	r1, [r3, #8]
    2b92:	0c09      	lsrs	r1, r1, #16
    2b94:	8159      	strh	r1, [r3, #10]
    2b96:	6a11      	ldr	r1, [r2, #32]
    2b98:	8199      	strh	r1, [r3, #12]
    2b9a:	0c09      	lsrs	r1, r1, #16
    2b9c:	81d9      	strh	r1, [r3, #14]
    2b9e:	490b      	ldr	r1, [pc, #44]	; (2bcc <flashConfig_ExtractTempSensorTrimValues+0x5c>)
    2ba0:	880c      	ldrh	r4, [r1, #0]
    2ba2:	6a51      	ldr	r1, [r2, #36]	; 0x24
    2ba4:	821c      	strh	r4, [r3, #16]
    2ba6:	0c09      	lsrs	r1, r1, #16
    2ba8:	8259      	strh	r1, [r3, #18]
    2baa:	3214      	adds	r2, #20
    2bac:	6951      	ldr	r1, [r2, #20]
    2bae:	6992      	ldr	r2, [r2, #24]
    2bb0:	835a      	strh	r2, [r3, #26]
    2bb2:	f3c1 040b 	ubfx	r4, r1, #0, #12
    2bb6:	829c      	strh	r4, [r3, #20]
    2bb8:	0c12      	lsrs	r2, r2, #16
    2bba:	f3c1 3409 	ubfx	r4, r1, #12, #10
    2bbe:	0d89      	lsrs	r1, r1, #22
    2bc0:	82dc      	strh	r4, [r3, #22]
    2bc2:	8319      	strh	r1, [r3, #24]
    2bc4:	839a      	strh	r2, [r3, #28]
    2bc6:	bd10      	pop	{r4, pc}
    2bc8:	0009fc8c 	.word	0x0009fc8c
    2bcc:	0009fcb0 	.word	0x0009fcb0

00002bd0 <temp_computation>:
    2bd0:	4b1e      	ldr	r3, [pc, #120]	; (2c4c <temp_computation+0x7c>)
    2bd2:	b5f0      	push	{r4, r5, r6, r7, lr}
    2bd4:	681c      	ldr	r4, [r3, #0]
    2bd6:	f9b4 3014 	ldrsh.w	r3, [r4, #20]
    2bda:	fb03 0312 	mls	r3, r3, r2, r0
    2bde:	8ba0      	ldrh	r0, [r4, #28]
    2be0:	fb10 f003 	smulbb	r0, r0, r3
    2be4:	1406      	asrs	r6, r0, #16
    2be6:	f5c6 2680 	rsb	r6, r6, #262144	; 0x40000
    2bea:	b21d      	sxth	r5, r3
    2bec:	fbb6 f3f2 	udiv	r3, r6, r2
    2bf0:	0776      	lsls	r6, r6, #29
    2bf2:	d504      	bpl.n	2bfe <temp_computation+0x2e>
    2bf4:	2800      	cmp	r0, #0
    2bf6:	bfb4      	ite	lt
    2bf8:	f103 33ff 	addlt.w	r3, r3, #4294967295
    2bfc:	3301      	addge	r3, #1
    2bfe:	f9b4 001a 	ldrsh.w	r0, [r4, #26]
    2c02:	f9b4 c012 	ldrsh.w	ip, [r4, #18]
    2c06:	f994 7011 	ldrsb.w	r7, [r4, #17]
    2c0a:	4343      	muls	r3, r0
    2c0c:	1418      	asrs	r0, r3, #16
    2c0e:	f9b4 300c 	ldrsh.w	r3, [r4, #12]
    2c12:	1acb      	subs	r3, r1, r3
    2c14:	4343      	muls	r3, r0
    2c16:	f994 1010 	ldrsb.w	r1, [r4, #16]
    2c1a:	eb0c 3363 	add.w	r3, ip, r3, asr #13
    2c1e:	ebc1 16e3 	rsb	r6, r1, r3, asr #7
    2c22:	4376      	muls	r6, r6
    2c24:	ebc1 11ec 	rsb	r1, r1, ip, asr #7
    2c28:	11b0      	asrs	r0, r6, #6
    2c2a:	4349      	muls	r1, r1
    2c2c:	4378      	muls	r0, r7
    2c2e:	1189      	asrs	r1, r1, #6
    2c30:	eb03 13a0 	add.w	r3, r3, r0, asr #6
    2c34:	4379      	muls	r1, r7
    2c36:	8ae0      	ldrh	r0, [r4, #22]
    2c38:	eba3 13a1 	sub.w	r3, r3, r1, asr #6
    2c3c:	fb10 f505 	smulbb	r5, r0, r5
    2c40:	fb95 f2f2 	sdiv	r2, r5, r2
    2c44:	eba3 2062 	sub.w	r0, r3, r2, asr #9
    2c48:	bdf0      	pop	{r4, r5, r6, r7, pc}
    2c4a:	bf00      	nop
    2c4c:	04015448 	.word	0x04015448

00002c50 <ADC_Configuration>:
    2c50:	b5f8      	push	{r3, r4, r5, r6, r7, lr}
    2c52:	4d19      	ldr	r5, [pc, #100]	; (2cb8 <ADC_Configuration+0x68>)
    2c54:	2201      	movs	r2, #1
    2c56:	f04f 4380 	mov.w	r3, #1073741824	; 0x40000000
    2c5a:	702a      	strb	r2, [r5, #0]
    2c5c:	f8d3 32a4 	ldr.w	r3, [r3, #676]	; 0x2a4
    2c60:	f013 0303 	ands.w	r3, r3, #3
    2c64:	4604      	mov	r4, r0
    2c66:	460f      	mov	r7, r1
    2c68:	d006      	beq.n	2c78 <ADC_Configuration+0x28>
    2c6a:	4293      	cmp	r3, r2
    2c6c:	d020      	beq.n	2cb0 <ADC_Configuration+0x60>
    2c6e:	4813      	ldr	r0, [pc, #76]	; (2cbc <ADC_Configuration+0x6c>)
    2c70:	f7ff fe8e 	bl	2990 <DbgConsole_Printf>
    2c74:	2000      	movs	r0, #0
    2c76:	e01a      	b.n	2cae <ADC_Configuration+0x5e>
    2c78:	2108      	movs	r1, #8
    2c7a:	20e5      	movs	r0, #229	; 0xe5
    2c7c:	f003 fa02 	bl	6084 <CLOCK_SetClkDiv>
    2c80:	2600      	movs	r6, #0
    2c82:	490d      	ldr	r1, [pc, #52]	; (2cb8 <ADC_Configuration+0x68>)
    2c84:	722e      	strb	r6, [r5, #8]
    2c86:	4620      	mov	r0, r4
    2c88:	60ee      	str	r6, [r5, #12]
    2c8a:	f000 f8f9 	bl	2e80 <ADC_Init>
    2c8e:	490c      	ldr	r1, [pc, #48]	; (2cc0 <ADC_Configuration+0x70>)
    2c90:	4b0c      	ldr	r3, [pc, #48]	; (2cc4 <ADC_Configuration+0x74>)
    2c92:	608b      	str	r3, [r1, #8]
    2c94:	4620      	mov	r0, r4
    2c96:	e9c1 6600 	strd	r6, r6, [r1]
    2c9a:	f000 f943 	bl	2f24 <ADC_SetConvSeqAConfig>
    2c9e:	4638      	mov	r0, r7
    2ca0:	f003 fc52 	bl	6548 <CLOCK_uDelay>
    2ca4:	68a3      	ldr	r3, [r4, #8]
    2ca6:	f043 4300 	orr.w	r3, r3, #2147483648	; 0x80000000
    2caa:	60a3      	str	r3, [r4, #8]
    2cac:	2001      	movs	r0, #1
    2cae:	bdf8      	pop	{r3, r4, r5, r6, r7, pc}
    2cb0:	461a      	mov	r2, r3
    2cb2:	2103      	movs	r1, #3
    2cb4:	e7e1      	b.n	2c7a <ADC_Configuration+0x2a>
    2cb6:	bf00      	nop
    2cb8:	0401569c 	.word	0x0401569c
    2cbc:	00030146 	.word	0x00030146
    2cc0:	040156ac 	.word	0x040156ac
    2cc4:	01000001 	.word	0x01000001

00002cc8 <load_calibration_param_from_flash>:
    2cc8:	b570      	push	{r4, r5, r6, lr}
    2cca:	4606      	mov	r6, r0
    2ccc:	4819      	ldr	r0, [pc, #100]	; (2d34 <load_calibration_param_from_flash+0x6c>)
    2cce:	f7ff ff35 	bl	2b3c <flashConfig_ExtractGpAdcTrimValues>
    2cd2:	4604      	mov	r4, r0
    2cd4:	b920      	cbnz	r0, 2ce0 <load_calibration_param_from_flash+0x18>
    2cd6:	4818      	ldr	r0, [pc, #96]	; (2d38 <load_calibration_param_from_flash+0x70>)
    2cd8:	f7ff fe5a 	bl	2990 <DbgConsole_Printf>
    2cdc:	4620      	mov	r0, r4
    2cde:	bd70      	pop	{r4, r5, r6, pc}
    2ce0:	4d16      	ldr	r5, [pc, #88]	; (2d3c <load_calibration_param_from_flash+0x74>)
    2ce2:	4628      	mov	r0, r5
    2ce4:	f7ff ff44 	bl	2b70 <flashConfig_ExtractTempSensorTrimValues>
    2ce8:	4604      	mov	r4, r0
    2cea:	b908      	cbnz	r0, 2cf0 <load_calibration_param_from_flash+0x28>
    2cec:	4814      	ldr	r0, [pc, #80]	; (2d40 <load_calibration_param_from_flash+0x78>)
    2cee:	e7f3      	b.n	2cd8 <load_calibration_param_from_flash+0x10>
    2cf0:	f9b5 2016 	ldrsh.w	r2, [r5, #22]
    2cf4:	0590      	lsls	r0, r2, #22
    2cf6:	bf42      	ittt	mi
    2cf8:	ea6f 5282 	mvnmi.w	r2, r2, lsl #22
    2cfc:	ea6f 5292 	mvnmi.w	r2, r2, lsr #22
    2d00:	82ea      	strhmi	r2, [r5, #22]
    2d02:	f9b5 2018 	ldrsh.w	r2, [r5, #24]
    2d06:	0591      	lsls	r1, r2, #22
    2d08:	490a      	ldr	r1, [pc, #40]	; (2d34 <load_calibration_param_from_flash+0x6c>)
    2d0a:	bf48      	it	mi
    2d0c:	ea6f 5282 	mvnmi.w	r2, r2, lsl #22
    2d10:	880b      	ldrh	r3, [r1, #0]
    2d12:	8849      	ldrh	r1, [r1, #2]
    2d14:	bf44      	itt	mi
    2d16:	ea6f 5292 	mvnmi.w	r2, r2, lsr #22
    2d1a:	832a      	strhmi	r2, [r5, #24]
    2d1c:	f3c3 0209 	ubfx	r2, r3, #0, #10
    2d20:	4b08      	ldr	r3, [pc, #32]	; (2d44 <load_calibration_param_from_flash+0x7c>)
    2d22:	ea03 2381 	and.w	r3, r3, r1, lsl #10
    2d26:	4313      	orrs	r3, r2
    2d28:	6773      	str	r3, [r6, #116]	; 0x74
    2d2a:	4b07      	ldr	r3, [pc, #28]	; (2d48 <load_calibration_param_from_flash+0x80>)
    2d2c:	2201      	movs	r2, #1
    2d2e:	701a      	strb	r2, [r3, #0]
    2d30:	e7d4      	b.n	2cdc <load_calibration_param_from_flash+0x14>
    2d32:	bf00      	nop
    2d34:	040156b8 	.word	0x040156b8
    2d38:	00030188 	.word	0x00030188
    2d3c:	040156c4 	.word	0x040156c4
    2d40:	000301cd 	.word	0x000301cd
    2d44:	000ffc00 	.word	0x000ffc00
    2d48:	040156c2 	.word	0x040156c2

00002d4c <get_temperature>:
    2d4c:	e92d 47ff 	stmdb	sp!, {r0, r1, r2, r3, r4, r5, r6, r7, r8, r9, sl, lr}
    2d50:	461f      	mov	r7, r3
    2d52:	4b42      	ldr	r3, [pc, #264]	; (2e5c <get_temperature+0x110>)
    2d54:	781b      	ldrb	r3, [r3, #0]
    2d56:	4689      	mov	r9, r1
    2d58:	4604      	mov	r4, r0
    2d5a:	4611      	mov	r1, r2
    2d5c:	b923      	cbnz	r3, 2d68 <get_temperature+0x1c>
    2d5e:	2600      	movs	r6, #0
    2d60:	4630      	mov	r0, r6
    2d62:	b004      	add	sp, #16
    2d64:	e8bd 87f0 	ldmia.w	sp!, {r4, r5, r6, r7, r8, r9, sl, pc}
    2d68:	f7ff ff72 	bl	2c50 <ADC_Configuration>
    2d6c:	4606      	mov	r6, r0
    2d6e:	2800      	cmp	r0, #0
    2d70:	d0f5      	beq.n	2d5e <get_temperature+0x12>
    2d72:	68a3      	ldr	r3, [r4, #8]
    2d74:	4d3a      	ldr	r5, [pc, #232]	; (2e60 <get_temperature+0x114>)
    2d76:	f023 4300 	bic.w	r3, r3, #2147483648	; 0x80000000
    2d7a:	60a3      	str	r3, [r4, #8]
    2d7c:	2101      	movs	r1, #1
    2d7e:	4620      	mov	r0, r4
    2d80:	f000 f93a 	bl	2ff8 <ADC_EnableTemperatureSensor>
    2d84:	2064      	movs	r0, #100	; 0x64
    2d86:	f003 fbdf 	bl	6548 <CLOCK_uDelay>
    2d8a:	6f23      	ldr	r3, [r4, #112]	; 0x70
    2d8c:	f423 437e 	bic.w	r3, r3, #65024	; 0xfe00
    2d90:	f443 433e 	orr.w	r3, r3, #48640	; 0xbe00
    2d94:	6723      	str	r3, [r4, #112]	; 0x70
    2d96:	2301      	movs	r3, #1
    2d98:	fa03 f309 	lsl.w	r3, r3, r9
    2d9c:	602b      	str	r3, [r5, #0]
    2d9e:	2102      	movs	r1, #2
    2da0:	f240 1301 	movw	r3, #257	; 0x101
    2da4:	e9c5 1301 	strd	r1, r3, [r5, #4]
    2da8:	4620      	mov	r0, r4
    2daa:	4629      	mov	r1, r5
    2dac:	f000 f8ba 	bl	2f24 <ADC_SetConvSeqAConfig>
    2db0:	68a3      	ldr	r3, [r4, #8]
    2db2:	f04f 0a00 	mov.w	sl, #0
    2db6:	f043 4300 	orr.w	r3, r3, #2147483648	; 0x80000000
    2dba:	60a3      	str	r3, [r4, #8]
    2dbc:	46d0      	mov	r8, sl
    2dbe:	45ba      	cmp	sl, r7
    2dc0:	d128      	bne.n	2e14 <get_temperature+0xc8>
    2dc2:	2100      	movs	r1, #0
    2dc4:	4620      	mov	r0, r4
    2dc6:	f000 f917 	bl	2ff8 <ADC_EnableTemperatureSensor>
    2dca:	68a3      	ldr	r3, [r4, #8]
    2dcc:	4924      	ldr	r1, [pc, #144]	; (2e60 <get_temperature+0x114>)
    2dce:	f023 4300 	bic.w	r3, r3, #2147483648	; 0x80000000
    2dd2:	60a3      	str	r3, [r4, #8]
    2dd4:	6f22      	ldr	r2, [r4, #112]	; 0x70
    2dd6:	f422 427e 	bic.w	r2, r2, #65024	; 0xfe00
    2dda:	f442 5220 	orr.w	r2, r2, #10240	; 0x2800
    2dde:	6722      	str	r2, [r4, #112]	; 0x70
    2de0:	2302      	movs	r3, #2
    2de2:	2240      	movs	r2, #64	; 0x40
    2de4:	e9c5 2300 	strd	r2, r3, [r5]
    2de8:	f240 1301 	movw	r3, #257	; 0x101
    2dec:	60ab      	str	r3, [r5, #8]
    2dee:	4620      	mov	r0, r4
    2df0:	f000 f898 	bl	2f24 <ADC_SetConvSeqAConfig>
    2df4:	68a3      	ldr	r3, [r4, #8]
    2df6:	2500      	movs	r5, #0
    2df8:	f043 4300 	orr.w	r3, r3, #2147483648	; 0x80000000
    2dfc:	60a3      	str	r3, [r4, #8]
    2dfe:	46a9      	mov	r9, r5
    2e00:	42af      	cmp	r7, r5
    2e02:	d119      	bne.n	2e38 <get_temperature+0xec>
    2e04:	463a      	mov	r2, r7
    2e06:	4641      	mov	r1, r8
    2e08:	4648      	mov	r0, r9
    2e0a:	f7ff fee1 	bl	2bd0 <temp_computation>
    2e0e:	9b0c      	ldr	r3, [sp, #48]	; 0x30
    2e10:	6018      	str	r0, [r3, #0]
    2e12:	e7a5      	b.n	2d60 <get_temperature+0x14>
    2e14:	68a3      	ldr	r3, [r4, #8]
    2e16:	f043 6380 	orr.w	r3, r3, #67108864	; 0x4000000
    2e1a:	60a3      	str	r3, [r4, #8]
    2e1c:	466a      	mov	r2, sp
    2e1e:	4649      	mov	r1, r9
    2e20:	4620      	mov	r0, r4
    2e22:	f000 f8a9 	bl	2f78 <ADC_GetChannelConversionResult>
    2e26:	2800      	cmp	r0, #0
    2e28:	d0f8      	beq.n	2e1c <get_temperature+0xd0>
    2e2a:	9b00      	ldr	r3, [sp, #0]
    2e2c:	4498      	add	r8, r3
    2e2e:	fa1f f888 	uxth.w	r8, r8
    2e32:	f10a 0a01 	add.w	sl, sl, #1
    2e36:	e7c2      	b.n	2dbe <get_temperature+0x72>
    2e38:	68a3      	ldr	r3, [r4, #8]
    2e3a:	f043 6380 	orr.w	r3, r3, #67108864	; 0x4000000
    2e3e:	60a3      	str	r3, [r4, #8]
    2e40:	466a      	mov	r2, sp
    2e42:	2106      	movs	r1, #6
    2e44:	4620      	mov	r0, r4
    2e46:	f000 f897 	bl	2f78 <ADC_GetChannelConversionResult>
    2e4a:	2800      	cmp	r0, #0
    2e4c:	d0f8      	beq.n	2e40 <get_temperature+0xf4>
    2e4e:	9b00      	ldr	r3, [sp, #0]
    2e50:	4499      	add	r9, r3
    2e52:	fa1f f989 	uxth.w	r9, r9
    2e56:	3501      	adds	r5, #1
    2e58:	e7d2      	b.n	2e00 <get_temperature+0xb4>
    2e5a:	bf00      	nop
    2e5c:	040156c2 	.word	0x040156c2
    2e60:	040156ac 	.word	0x040156ac

00002e64 <ADC_GetInstance.part.0>:
    2e64:	b508      	push	{r3, lr}
    2e66:	4a03      	ldr	r2, [pc, #12]	; (2e74 <ADC_GetInstance.part.0+0x10>)
    2e68:	4b03      	ldr	r3, [pc, #12]	; (2e78 <ADC_GetInstance.part.0+0x14>)
    2e6a:	4804      	ldr	r0, [pc, #16]	; (2e7c <ADC_GetInstance.part.0+0x18>)
    2e6c:	2125      	movs	r1, #37	; 0x25
    2e6e:	f007 fb67 	bl	a540 <__assert_func>
    2e72:	bf00      	nop
    2e74:	000302bf 	.word	0x000302bf
    2e78:	00030221 	.word	0x00030221
    2e7c:	00030243 	.word	0x00030243

00002e80 <ADC_Init>:
    2e80:	b538      	push	{r3, r4, r5, lr}
    2e82:	4605      	mov	r5, r0
    2e84:	460c      	mov	r4, r1
    2e86:	b929      	cbnz	r1, 2e94 <ADC_Init+0x14>
    2e88:	4b20      	ldr	r3, [pc, #128]	; (2f0c <ADC_Init+0x8c>)
    2e8a:	4a21      	ldr	r2, [pc, #132]	; (2f10 <ADC_Init+0x90>)
    2e8c:	4821      	ldr	r0, [pc, #132]	; (2f14 <ADC_Init+0x94>)
    2e8e:	2132      	movs	r1, #50	; 0x32
    2e90:	f007 fb56 	bl	a540 <__assert_func>
    2e94:	4b20      	ldr	r3, [pc, #128]	; (2f18 <ADC_Init+0x98>)
    2e96:	4298      	cmp	r0, r3
    2e98:	d135      	bne.n	2f06 <ADC_Init+0x86>
    2e9a:	201b      	movs	r0, #27
    2e9c:	f003 fc36 	bl	670c <CLOCK_EnableClock>
    2ea0:	2300      	movs	r3, #0
    2ea2:	666b      	str	r3, [r5, #100]	; 0x64
    2ea4:	7821      	ldrb	r1, [r4, #0]
    2ea6:	7922      	ldrb	r2, [r4, #4]
    2ea8:	2901      	cmp	r1, #1
    2eaa:	d101      	bne.n	2eb0 <ADC_Init+0x30>
    2eac:	f442 7280 	orr.w	r2, r2, #256	; 0x100
    2eb0:	7a23      	ldrb	r3, [r4, #8]
    2eb2:	025b      	lsls	r3, r3, #9
    2eb4:	2901      	cmp	r1, #1
    2eb6:	f403 63c0 	and.w	r3, r3, #1536	; 0x600
    2eba:	ea43 0302 	orr.w	r3, r3, r2
    2ebe:	bf01      	itttt	eq
    2ec0:	68e2      	ldreq	r2, [r4, #12]
    2ec2:	0312      	lsleq	r2, r2, #12
    2ec4:	f402 42e0 	andeq.w	r2, r2, #28672	; 0x7000
    2ec8:	4313      	orreq	r3, r2
    2eca:	4a13      	ldr	r2, [pc, #76]	; (2f18 <ADC_Init+0x98>)
    2ecc:	6013      	str	r3, [r2, #0]
    2ece:	6f13      	ldr	r3, [r2, #112]	; 0x70
    2ed0:	f043 0301 	orr.w	r3, r3, #1
    2ed4:	6713      	str	r3, [r2, #112]	; 0x70
    2ed6:	b931      	cbnz	r1, 2ee6 <ADC_Init+0x66>
    2ed8:	68e3      	ldr	r3, [r4, #12]
    2eda:	6f11      	ldr	r1, [r2, #112]	; 0x70
    2edc:	021b      	lsls	r3, r3, #8
    2ede:	f403 7380 	and.w	r3, r3, #256	; 0x100
    2ee2:	430b      	orrs	r3, r1
    2ee4:	6713      	str	r3, [r2, #112]	; 0x70
    2ee6:	490d      	ldr	r1, [pc, #52]	; (2f1c <ADC_Init+0x9c>)
    2ee8:	f44f 7096 	mov.w	r0, #300	; 0x12c
    2eec:	f004 f81a 	bl	6f24 <SDK_DelayAtLeastUs>
    2ef0:	4b0b      	ldr	r3, [pc, #44]	; (2f20 <ADC_Init+0xa0>)
    2ef2:	4a09      	ldr	r2, [pc, #36]	; (2f18 <ADC_Init+0x98>)
    2ef4:	681b      	ldr	r3, [r3, #0]
    2ef6:	f013 0f01 	tst.w	r3, #1
    2efa:	bf1c      	itt	ne
    2efc:	085b      	lsrne	r3, r3, #1
    2efe:	6753      	strne	r3, [r2, #116]	; 0x74
    2f00:	2301      	movs	r3, #1
    2f02:	66d3      	str	r3, [r2, #108]	; 0x6c
    2f04:	bd38      	pop	{r3, r4, r5, pc}
    2f06:	f7ff ffad 	bl	2e64 <ADC_GetInstance.part.0>
    2f0a:	bf00      	nop
    2f0c:	0003028b 	.word	0x0003028b
    2f10:	000302cf 	.word	0x000302cf
    2f14:	00030243 	.word	0x00030243
    2f18:	40089000 	.word	0x40089000
    2f1c:	02dc6c00 	.word	0x02dc6c00
    2f20:	0009fc80 	.word	0x0009fc80

00002f24 <ADC_SetConvSeqAConfig>:
    2f24:	b508      	push	{r3, lr}
    2f26:	b931      	cbnz	r1, 2f36 <ADC_SetConvSeqAConfig+0x12>
    2f28:	4b10      	ldr	r3, [pc, #64]	; (2f6c <ADC_SetConvSeqAConfig+0x48>)
    2f2a:	4a11      	ldr	r2, [pc, #68]	; (2f70 <ADC_SetConvSeqAConfig+0x4c>)
    2f2c:	4811      	ldr	r0, [pc, #68]	; (2f74 <ADC_SetConvSeqAConfig+0x50>)
    2f2e:	f44f 7199 	mov.w	r1, #306	; 0x132
    2f32:	f007 fb05 	bl	a540 <__assert_func>
    2f36:	684b      	ldr	r3, [r1, #4]
    2f38:	780a      	ldrb	r2, [r1, #0]
    2f3a:	031b      	lsls	r3, r3, #12
    2f3c:	f403 337c 	and.w	r3, r3, #258048	; 0x3f000
    2f40:	4313      	orrs	r3, r2
    2f42:	7a0a      	ldrb	r2, [r1, #8]
    2f44:	2a01      	cmp	r2, #1
    2f46:	7a4a      	ldrb	r2, [r1, #9]
    2f48:	bf08      	it	eq
    2f4a:	f443 2380 	orreq.w	r3, r3, #262144	; 0x40000
    2f4e:	b10a      	cbz	r2, 2f54 <ADC_SetConvSeqAConfig+0x30>
    2f50:	f443 2300 	orr.w	r3, r3, #524288	; 0x80000
    2f54:	7aca      	ldrb	r2, [r1, #11]
    2f56:	2a01      	cmp	r2, #1
    2f58:	7a8a      	ldrb	r2, [r1, #10]
    2f5a:	bf08      	it	eq
    2f5c:	f043 4380 	orreq.w	r3, r3, #1073741824	; 0x40000000
    2f60:	b10a      	cbz	r2, 2f66 <ADC_SetConvSeqAConfig+0x42>
    2f62:	f043 5380 	orr.w	r3, r3, #268435456	; 0x10000000
    2f66:	6083      	str	r3, [r0, #8]
    2f68:	bd08      	pop	{r3, pc}
    2f6a:	bf00      	nop
    2f6c:	0003028b 	.word	0x0003028b
    2f70:	000302d8 	.word	0x000302d8
    2f74:	00030243 	.word	0x00030243

00002f78 <ADC_GetChannelConversionResult>:
    2f78:	b508      	push	{r3, lr}
    2f7a:	b932      	cbnz	r2, 2f8a <ADC_GetChannelConversionResult+0x12>
    2f7c:	4b1a      	ldr	r3, [pc, #104]	; (2fe8 <ADC_GetChannelConversionResult+0x70>)
    2f7e:	4a1b      	ldr	r2, [pc, #108]	; (2fec <ADC_GetChannelConversionResult+0x74>)
    2f80:	f240 11d9 	movw	r1, #473	; 0x1d9
    2f84:	481a      	ldr	r0, [pc, #104]	; (2ff0 <ADC_GetChannelConversionResult+0x78>)
    2f86:	f007 fadb 	bl	a540 <__assert_func>
    2f8a:	2907      	cmp	r1, #7
    2f8c:	d904      	bls.n	2f98 <ADC_GetChannelConversionResult+0x20>
    2f8e:	4b19      	ldr	r3, [pc, #100]	; (2ff4 <ADC_GetChannelConversionResult+0x7c>)
    2f90:	4a16      	ldr	r2, [pc, #88]	; (2fec <ADC_GetChannelConversionResult+0x74>)
    2f92:	f44f 71ed 	mov.w	r1, #474	; 0x1da
    2f96:	e7f5      	b.n	2f84 <ADC_GetChannelConversionResult+0xc>
    2f98:	3108      	adds	r1, #8
    2f9a:	f850 1021 	ldr.w	r1, [r0, r1, lsl #2]
    2f9e:	2900      	cmp	r1, #0
    2fa0:	da1f      	bge.n	2fe2 <ADC_GetChannelConversionResult+0x6a>
    2fa2:	6800      	ldr	r0, [r0, #0]
    2fa4:	f3c0 2041 	ubfx	r0, r0, #9, #2
    2fa8:	f3c1 130b 	ubfx	r3, r1, #4, #12
    2fac:	2802      	cmp	r0, #2
    2fae:	6013      	str	r3, [r2, #0]
    2fb0:	d013      	beq.n	2fda <ADC_GetChannelConversionResult+0x62>
    2fb2:	2803      	cmp	r0, #3
    2fb4:	d013      	beq.n	2fde <ADC_GetChannelConversionResult+0x66>
    2fb6:	2801      	cmp	r0, #1
    2fb8:	d101      	bne.n	2fbe <ADC_GetChannelConversionResult+0x46>
    2fba:	089b      	lsrs	r3, r3, #2
    2fbc:	6013      	str	r3, [r2, #0]
    2fbe:	f3c1 4301 	ubfx	r3, r1, #16, #2
    2fc2:	7113      	strb	r3, [r2, #4]
    2fc4:	f3c1 4381 	ubfx	r3, r1, #18, #2
    2fc8:	7153      	strb	r3, [r2, #5]
    2fca:	f3c1 6383 	ubfx	r3, r1, #26, #4
    2fce:	f3c1 7180 	ubfx	r1, r1, #30, #1
    2fd2:	6093      	str	r3, [r2, #8]
    2fd4:	7311      	strb	r1, [r2, #12]
    2fd6:	2001      	movs	r0, #1
    2fd8:	bd08      	pop	{r3, pc}
    2fda:	091b      	lsrs	r3, r3, #4
    2fdc:	e7ee      	b.n	2fbc <ADC_GetChannelConversionResult+0x44>
    2fde:	099b      	lsrs	r3, r3, #6
    2fe0:	e7ec      	b.n	2fbc <ADC_GetChannelConversionResult+0x44>
    2fe2:	2000      	movs	r0, #0
    2fe4:	e7f8      	b.n	2fd8 <ADC_GetChannelConversionResult+0x60>
    2fe6:	bf00      	nop
    2fe8:	0003029a 	.word	0x0003029a
    2fec:	000302ee 	.word	0x000302ee
    2ff0:	00030243 	.word	0x00030243
    2ff4:	000302a7 	.word	0x000302a7

00002ff8 <ADC_EnableTemperatureSensor>:
    2ff8:	f04f 4380 	mov.w	r3, #1073741824	; 0x40000000
    2ffc:	b189      	cbz	r1, 3022 <ADC_EnableTemperatureSensor+0x2a>
    2ffe:	2201      	movs	r2, #1
    3000:	64da      	str	r2, [r3, #76]	; 0x4c
    3002:	f503 3300 	add.w	r3, r3, #131072	; 0x20000
    3006:	2208      	movs	r2, #8
    3008:	f8c3 20a0 	str.w	r2, [r3, #160]	; 0xa0
    300c:	f8d3 20a0 	ldr.w	r2, [r3, #160]	; 0xa0
    3010:	f042 0201 	orr.w	r2, r2, #1
    3014:	f8c3 20a0 	str.w	r2, [r3, #160]	; 0xa0
    3018:	6f03      	ldr	r3, [r0, #112]	; 0x70
    301a:	f443 433e 	orr.w	r3, r3, #48640	; 0xbe00
    301e:	6703      	str	r3, [r0, #112]	; 0x70
    3020:	4770      	bx	lr
    3022:	6cdb      	ldr	r3, [r3, #76]	; 0x4c
    3024:	2b01      	cmp	r3, #1
    3026:	d1fb      	bne.n	3020 <ADC_EnableTemperatureSensor+0x28>
    3028:	4b05      	ldr	r3, [pc, #20]	; (3040 <ADC_EnableTemperatureSensor+0x48>)
    302a:	f8c3 10a0 	str.w	r1, [r3, #160]	; 0xa0
    302e:	6f03      	ldr	r3, [r0, #112]	; 0x70
    3030:	f423 433e 	bic.w	r3, r3, #48640	; 0xbe00
    3034:	6703      	str	r3, [r0, #112]	; 0x70
    3036:	6f03      	ldr	r3, [r0, #112]	; 0x70
    3038:	f443 5320 	orr.w	r3, r3, #10240	; 0x2800
    303c:	e7ef      	b.n	301e <ADC_EnableTemperatureSensor+0x26>
    303e:	bf00      	nop
    3040:	40020000 	.word	0x40020000

00003044 <BOARD_GetClock32MCapacitanceCharacteristics>:
    3044:	4800      	ldr	r0, [pc, #0]	; (3048 <BOARD_GetClock32MCapacitanceCharacteristics+0x4>)
    3046:	4770      	bx	lr
    3048:	00030310 	.word	0x00030310

0000304c <UART_vInit>:
    304c:	b51f      	push	{r0, r1, r2, r3, r4, lr}
    304e:	4668      	mov	r0, sp
    3050:	f003 fcb4 	bl	69bc <USART_GetDefaultConfig>
    3054:	f44f 33e1 	mov.w	r3, #115200	; 0x1c200
    3058:	9300      	str	r3, [sp, #0]
    305a:	480b      	ldr	r0, [pc, #44]	; (3088 <UART_vInit+0x3c>)
    305c:	4c0b      	ldr	r4, [pc, #44]	; (308c <UART_vInit+0x40>)
    305e:	f240 1301 	movw	r3, #257	; 0x101
    3062:	f8ad 3008 	strh.w	r3, [sp, #8]
    3066:	f003 f983 	bl	6370 <CLOCK_GetFreq>
    306a:	4669      	mov	r1, sp
    306c:	4602      	mov	r2, r0
    306e:	4620      	mov	r0, r4
    3070:	f003 fd16 	bl	6aa0 <USART_Init>
    3074:	230a      	movs	r3, #10
    3076:	f8c4 3e10 	str.w	r3, [r4, #3600]	; 0xe10
    307a:	4b05      	ldr	r3, [pc, #20]	; (3090 <UART_vInit+0x44>)
    307c:	f44f 6200 	mov.w	r2, #2048	; 0x800
    3080:	601a      	str	r2, [r3, #0]
    3082:	b004      	add	sp, #16
    3084:	bd10      	pop	{r4, pc}
    3086:	bf00      	nop
    3088:	00010008 	.word	0x00010008
    308c:	4008b000 	.word	0x4008b000
    3090:	e000e100 	.word	0xe000e100

00003094 <FLEXCOMM0_IRQHandler>:
    3094:	b513      	push	{r0, r1, r4, lr}
    3096:	4c13      	ldr	r4, [pc, #76]	; (30e4 <FLEXCOMM0_IRQHandler+0x50>)
    3098:	f8d4 3e04 	ldr.w	r3, [r4, #3588]	; 0xe04
    309c:	f013 0f42 	tst.w	r3, #66	; 0x42
    30a0:	d00a      	beq.n	30b8 <FLEXCOMM0_IRQHandler+0x24>
    30a2:	f8d4 3e30 	ldr.w	r3, [r4, #3632]	; 0xe30
    30a6:	4810      	ldr	r0, [pc, #64]	; (30e8 <FLEXCOMM0_IRQHandler+0x54>)
    30a8:	f88d 3007 	strb.w	r3, [sp, #7]
    30ac:	f10d 0107 	add.w	r1, sp, #7
    30b0:	f002 fa6b 	bl	558a <ZQ_bQueueSend>
    30b4:	b002      	add	sp, #8
    30b6:	bd10      	pop	{r4, pc}
    30b8:	f8d4 3e04 	ldr.w	r3, [r4, #3588]	; 0xe04
    30bc:	069b      	lsls	r3, r3, #26
    30be:	d5f9      	bpl.n	30b4 <FLEXCOMM0_IRQHandler+0x20>
    30c0:	480a      	ldr	r0, [pc, #40]	; (30ec <FLEXCOMM0_IRQHandler+0x58>)
    30c2:	f10d 0107 	add.w	r1, sp, #7
    30c6:	f002 fa85 	bl	55d4 <ZQ_bQueueReceive>
    30ca:	2801      	cmp	r0, #1
    30cc:	bf15      	itete	ne
    30ce:	230f      	movne	r3, #15
    30d0:	f89d 3007 	ldrbeq.w	r3, [sp, #7]
    30d4:	f8c4 3e14 	strne.w	r3, [r4, #3604]	; 0xe14
    30d8:	f8c4 3e20 	streq.w	r3, [r4, #3616]	; 0xe20
    30dc:	bf18      	it	ne
    30de:	f8c4 3e10 	strne.w	r3, [r4, #3600]	; 0xe10
    30e2:	e7e7      	b.n	30b4 <FLEXCOMM0_IRQHandler+0x20>
    30e4:	4008b000 	.word	0x4008b000
    30e8:	04015560 	.word	0x04015560
    30ec:	04015570 	.word	0x04015570

000030f0 <UART_vRtsStartFlow>:
    30f0:	4770      	bx	lr
    30f2:	Address 0x000030f2 is out of bounds.


000030f4 <UART_vTxChar>:
    30f4:	4b03      	ldr	r3, [pc, #12]	; (3104 <UART_vTxChar+0x10>)
    30f6:	f8c3 0e20 	str.w	r0, [r3, #3616]	; 0xe20
    30fa:	f8d3 2e04 	ldr.w	r2, [r3, #3588]	; 0xe04
    30fe:	06d2      	lsls	r2, r2, #27
    3100:	d5fb      	bpl.n	30fa <UART_vTxChar+0x6>
    3102:	4770      	bx	lr
    3104:	4008b000 	.word	0x4008b000

00003108 <UART_bTxReady>:
    3108:	4b02      	ldr	r3, [pc, #8]	; (3114 <UART_bTxReady+0xc>)
    310a:	f8d3 0e04 	ldr.w	r0, [r3, #3588]	; 0xe04
    310e:	f000 0030 	and.w	r0, r0, #48	; 0x30
    3112:	4770      	bx	lr
    3114:	4008b000 	.word	0x4008b000

00003118 <UART_vSetTxInterrupt>:
    3118:	4b04      	ldr	r3, [pc, #16]	; (312c <UART_vSetTxInterrupt+0x14>)
    311a:	220f      	movs	r2, #15
    311c:	f8c3 2e14 	str.w	r2, [r3, #3604]	; 0xe14
    3120:	b100      	cbz	r0, 3124 <UART_vSetTxInterrupt+0xc>
    3122:	220a      	movs	r2, #10
    3124:	f8c3 2e10 	str.w	r2, [r3, #3600]	; 0xe10
    3128:	4770      	bx	lr
    312a:	bf00      	nop
    312c:	4008b000 	.word	0x4008b000

00003130 <APP_taskAtSerial>:
    3130:	b5f0      	push	{r4, r5, r6, r7, lr}
    3132:	b09d      	sub	sp, #116	; 0x74
    3134:	4832      	ldr	r0, [pc, #200]	; (3200 <APP_taskAtSerial+0xd0>)
    3136:	f10d 0107 	add.w	r1, sp, #7
    313a:	f002 fa4b 	bl	55d4 <ZQ_bQueueReceive>
    313e:	2801      	cmp	r0, #1
    3140:	d10d      	bne.n	315e <APP_taskAtSerial+0x2e>
    3142:	f89d 2007 	ldrb.w	r2, [sp, #7]
    3146:	4b2f      	ldr	r3, [pc, #188]	; (3204 <APP_taskAtSerial+0xd4>)
    3148:	2a02      	cmp	r2, #2
    314a:	d00a      	beq.n	3162 <APP_taskAtSerial+0x32>
    314c:	2a03      	cmp	r2, #3
    314e:	492e      	ldr	r1, [pc, #184]	; (3208 <APP_taskAtSerial+0xd8>)
    3150:	d009      	beq.n	3166 <APP_taskAtSerial+0x36>
    3152:	2a01      	cmp	r2, #1
    3154:	d12f      	bne.n	31b6 <APP_taskAtSerial+0x86>
    3156:	2000      	movs	r0, #0
    3158:	72d8      	strb	r0, [r3, #11]
    315a:	7318      	strb	r0, [r3, #12]
    315c:	700a      	strb	r2, [r1, #0]
    315e:	b01d      	add	sp, #116	; 0x74
    3160:	bdf0      	pop	{r4, r5, r6, r7, pc}
    3162:	7318      	strb	r0, [r3, #12]
    3164:	e7fb      	b.n	315e <APP_taskAtSerial+0x2e>
    3166:	7a58      	ldrb	r0, [r3, #9]
    3168:	2200      	movs	r2, #0
    316a:	2807      	cmp	r0, #7
    316c:	700a      	strb	r2, [r1, #0]
    316e:	d8f6      	bhi.n	315e <APP_taskAtSerial+0x2e>
    3170:	7a1c      	ldrb	r4, [r3, #8]
    3172:	7a9e      	ldrb	r6, [r3, #10]
    3174:	ea84 0100 	eor.w	r1, r4, r0
    3178:	461d      	mov	r5, r3
    317a:	4282      	cmp	r2, r0
    317c:	db16      	blt.n	31ac <APP_taskAtSerial+0x7c>
    317e:	428e      	cmp	r6, r1
    3180:	d1ed      	bne.n	315e <APP_taskAtSerial+0x2e>
    3182:	2c10      	cmp	r4, #16
    3184:	d1eb      	bne.n	315e <APP_taskAtSerial+0x2e>
    3186:	781a      	ldrb	r2, [r3, #0]
    3188:	1e51      	subs	r1, r2, #1
    318a:	2901      	cmp	r1, #1
    318c:	d8e7      	bhi.n	315e <APP_taskAtSerial+0x2e>
    318e:	785b      	ldrb	r3, [r3, #1]
    3190:	2b0f      	cmp	r3, #15
    3192:	d8e4      	bhi.n	315e <APP_taskAtSerial+0x2e>
    3194:	3310      	adds	r3, #16
    3196:	f88d 3010 	strb.w	r3, [sp, #16]
    319a:	a902      	add	r1, sp, #8
    319c:	2300      	movs	r3, #0
    319e:	481b      	ldr	r0, [pc, #108]	; (320c <APP_taskAtSerial+0xdc>)
    31a0:	f88d 2008 	strb.w	r2, [sp, #8]
    31a4:	9305      	str	r3, [sp, #20]
    31a6:	f002 f9f0 	bl	558a <ZQ_bQueueSend>
    31aa:	e7d8      	b.n	315e <APP_taskAtSerial+0x2e>
    31ac:	f815 7b01 	ldrb.w	r7, [r5], #1
    31b0:	3201      	adds	r2, #1
    31b2:	4079      	eors	r1, r7
    31b4:	e7e1      	b.n	317a <APP_taskAtSerial+0x4a>
    31b6:	7b18      	ldrb	r0, [r3, #12]
    31b8:	b118      	cbz	r0, 31c2 <APP_taskAtSerial+0x92>
    31ba:	2000      	movs	r0, #0
    31bc:	f082 0210 	eor.w	r2, r2, #16
    31c0:	7318      	strb	r0, [r3, #12]
    31c2:	7808      	ldrb	r0, [r1, #0]
    31c4:	3801      	subs	r0, #1
    31c6:	2803      	cmp	r0, #3
    31c8:	d8c9      	bhi.n	315e <APP_taskAtSerial+0x2e>
    31ca:	e8df f000 	tbb	[pc, r0]
    31ce:	0602      	.short	0x0602
    31d0:	100d      	.short	0x100d
    31d2:	721a      	strb	r2, [r3, #8]
    31d4:	2302      	movs	r3, #2
    31d6:	700b      	strb	r3, [r1, #0]
    31d8:	e7c1      	b.n	315e <APP_taskAtSerial+0x2e>
    31da:	2a08      	cmp	r2, #8
    31dc:	725a      	strb	r2, [r3, #9]
    31de:	d901      	bls.n	31e4 <APP_taskAtSerial+0xb4>
    31e0:	2300      	movs	r3, #0
    31e2:	e7f8      	b.n	31d6 <APP_taskAtSerial+0xa6>
    31e4:	2303      	movs	r3, #3
    31e6:	e7f6      	b.n	31d6 <APP_taskAtSerial+0xa6>
    31e8:	729a      	strb	r2, [r3, #10]
    31ea:	2304      	movs	r3, #4
    31ec:	e7f3      	b.n	31d6 <APP_taskAtSerial+0xa6>
    31ee:	7ad9      	ldrb	r1, [r3, #11]
    31f0:	7a58      	ldrb	r0, [r3, #9]
    31f2:	4288      	cmp	r0, r1
    31f4:	d9b3      	bls.n	315e <APP_taskAtSerial+0x2e>
    31f6:	1c48      	adds	r0, r1, #1
    31f8:	545a      	strb	r2, [r3, r1]
    31fa:	72d8      	strb	r0, [r3, #11]
    31fc:	e7af      	b.n	315e <APP_taskAtSerial+0x2e>
    31fe:	bf00      	nop
    3200:	04015560 	.word	0x04015560
    3204:	040156e3 	.word	0x040156e3
    3208:	040156e2 	.word	0x040156e2
    320c:	04015540 	.word	0x04015540

00003210 <bPutChar>:
    3210:	b513      	push	{r0, r1, r4, lr}
    3212:	4912      	ldr	r1, [pc, #72]	; (325c <bPutChar+0x4c>)
    3214:	f88d 0007 	strb.w	r0, [sp, #7]
    3218:	2000      	movs	r0, #0
    321a:	f7fd fad3 	bl	7c4 <ZPS_eEnterCriticalSection>
    321e:	f7ff ff73 	bl	3108 <UART_bTxReady>
    3222:	b190      	cbz	r0, 324a <bPutChar+0x3a>
    3224:	480e      	ldr	r0, [pc, #56]	; (3260 <bPutChar+0x50>)
    3226:	f002 f9f2 	bl	560e <ZQ_bQueueIsEmpty>
    322a:	b170      	cbz	r0, 324a <bPutChar+0x3a>
    322c:	2001      	movs	r0, #1
    322e:	f7ff ff73 	bl	3118 <UART_vSetTxInterrupt>
    3232:	f89d 0007 	ldrb.w	r0, [sp, #7]
    3236:	f7ff ff5d 	bl	30f4 <UART_vTxChar>
    323a:	2401      	movs	r4, #1
    323c:	4907      	ldr	r1, [pc, #28]	; (325c <bPutChar+0x4c>)
    323e:	2000      	movs	r0, #0
    3240:	f7fd fad6 	bl	7f0 <ZPS_eExitCriticalSection>
    3244:	4620      	mov	r0, r4
    3246:	b002      	add	sp, #8
    3248:	bd10      	pop	{r4, pc}
    324a:	4805      	ldr	r0, [pc, #20]	; (3260 <bPutChar+0x50>)
    324c:	f10d 0107 	add.w	r1, sp, #7
    3250:	f002 f99b 	bl	558a <ZQ_bQueueSend>
    3254:	1e04      	subs	r4, r0, #0
    3256:	bf18      	it	ne
    3258:	2401      	movne	r4, #1
    325a:	e7ef      	b.n	323c <bPutChar+0x2c>
    325c:	040156f0 	.word	0x040156f0
    3260:	04015570 	.word	0x04015570

00003264 <vSL_TxByte.constprop.0>:
    3264:	280f      	cmp	r0, #15
    3266:	b510      	push	{r4, lr}
    3268:	4604      	mov	r4, r0
    326a:	d804      	bhi.n	3276 <vSL_TxByte.constprop.0+0x12>
    326c:	f080 0410 	eor.w	r4, r0, #16
    3270:	2002      	movs	r0, #2
    3272:	f7ff ffcd 	bl	3210 <bPutChar>
    3276:	4620      	mov	r0, r4
    3278:	e8bd 4010 	ldmia.w	sp!, {r4, lr}
    327c:	f7ff bfc8 	b.w	3210 <bPutChar>

00003280 <vSL_WriteMessage>:
    3280:	b5f8      	push	{r3, r4, r5, r6, r7, lr}
    3282:	4605      	mov	r5, r0
    3284:	460c      	mov	r4, r1
    3286:	4616      	mov	r6, r2
    3288:	ea80 0701 	eor.w	r7, r0, r1
    328c:	2300      	movs	r3, #0
    328e:	42a3      	cmp	r3, r4
    3290:	db13      	blt.n	32ba <vSL_WriteMessage+0x3a>
    3292:	2001      	movs	r0, #1
    3294:	f7ff ffbc 	bl	3210 <bPutChar>
    3298:	4628      	mov	r0, r5
    329a:	f7ff ffe3 	bl	3264 <vSL_TxByte.constprop.0>
    329e:	4620      	mov	r0, r4
    32a0:	f7ff ffe0 	bl	3264 <vSL_TxByte.constprop.0>
    32a4:	4638      	mov	r0, r7
    32a6:	f7ff ffdd 	bl	3264 <vSL_TxByte.constprop.0>
    32aa:	2500      	movs	r5, #0
    32ac:	42a5      	cmp	r5, r4
    32ae:	db08      	blt.n	32c2 <vSL_WriteMessage+0x42>
    32b0:	e8bd 40f8 	ldmia.w	sp!, {r3, r4, r5, r6, r7, lr}
    32b4:	2003      	movs	r0, #3
    32b6:	f7ff bfab 	b.w	3210 <bPutChar>
    32ba:	5cf2      	ldrb	r2, [r6, r3]
    32bc:	3301      	adds	r3, #1
    32be:	4057      	eors	r7, r2
    32c0:	e7e5      	b.n	328e <vSL_WriteMessage+0xe>
    32c2:	5d70      	ldrb	r0, [r6, r5]
    32c4:	f7ff ffce 	bl	3264 <vSL_TxByte.constprop.0>
    32c8:	3501      	adds	r5, #1
    32ca:	e7ef      	b.n	32ac <vSL_WriteMessage+0x2c>

000032cc <gint_callback.part.0>:
    32cc:	b513      	push	{r0, r1, r4, lr}
    32ce:	4809      	ldr	r0, [pc, #36]	; (32f4 <gint_callback.part.0+0x28>)
    32d0:	4c09      	ldr	r4, [pc, #36]	; (32f8 <gint_callback.part.0+0x2c>)
    32d2:	f000 fc03 	bl	3adc <GINT_DisableCallback>
    32d6:	4668      	mov	r0, sp
    32d8:	f002 f936 	bl	5548 <NTAG_GetDefaultConfig>
    32dc:	4668      	mov	r0, sp
    32de:	f002 f937 	bl	5550 <NTAG_Init>
    32e2:	7820      	ldrb	r0, [r4, #0]
    32e4:	f002 fa3a 	bl	575c <ZTIMER_eStop>
    32e8:	7820      	ldrb	r0, [r4, #0]
    32ea:	210a      	movs	r1, #10
    32ec:	f002 fa0e 	bl	570c <ZTIMER_eStart>
    32f0:	b002      	add	sp, #8
    32f2:	bd10      	pop	{r4, pc}
    32f4:	40011000 	.word	0x40011000
    32f8:	04015582 	.word	0x04015582

000032fc <APP_u32GetSwitchIOState>:
    32fc:	4b05      	ldr	r3, [pc, #20]	; (3314 <APP_u32GetSwitchIOState+0x18>)
    32fe:	b510      	push	{r4, lr}
    3300:	681c      	ldr	r4, [r3, #0]
    3302:	f002 f933 	bl	556c <NTAG_PollFieldDetect>
    3306:	2801      	cmp	r0, #1
    3308:	4803      	ldr	r0, [pc, #12]	; (3318 <APP_u32GetSwitchIOState+0x1c>)
    330a:	bf08      	it	eq
    330c:	f444 0480 	orreq.w	r4, r4, #4194304	; 0x400000
    3310:	4020      	ands	r0, r4
    3312:	bd10      	pop	{r4, pc}
    3314:	40082100 	.word	0x40082100
    3318:	00488092 	.word	0x00488092

0000331c <gint_callback>:
    331c:	b508      	push	{r3, lr}
    331e:	f7ff ffed 	bl	32fc <APP_u32GetSwitchIOState>
    3322:	4b04      	ldr	r3, [pc, #16]	; (3334 <gint_callback+0x18>)
    3324:	4298      	cmp	r0, r3
    3326:	d003      	beq.n	3330 <gint_callback+0x14>
    3328:	e8bd 4008 	ldmia.w	sp!, {r3, lr}
    332c:	f7ff bfce 	b.w	32cc <gint_callback.part.0>
    3330:	bd08      	pop	{r3, pc}
    3332:	bf00      	nop
    3334:	00488092 	.word	0x00488092

00003338 <ntag_callback>:
    3338:	b508      	push	{r3, lr}
    333a:	f7ff ffdf 	bl	32fc <APP_u32GetSwitchIOState>
    333e:	4b04      	ldr	r3, [pc, #16]	; (3350 <ntag_callback+0x18>)
    3340:	4298      	cmp	r0, r3
    3342:	d003      	beq.n	334c <ntag_callback+0x14>
    3344:	e8bd 4008 	ldmia.w	sp!, {r3, lr}
    3348:	f7ff bfc0 	b.w	32cc <gint_callback.part.0>
    334c:	bd08      	pop	{r3, pc}
    334e:	bf00      	nop
    3350:	00488092 	.word	0x00488092

00003354 <APP_cbTimerButtonScan>:
    3354:	e92d 4ff0 	stmdb	sp!, {r4, r5, r6, r7, r8, r9, sl, fp, lr}
    3358:	b09b      	sub	sp, #108	; 0x6c
    335a:	f7ff ffcf 	bl	32fc <APP_u32GetSwitchIOState>
    335e:	f8df 80b8 	ldr.w	r8, [pc, #184]	; 3418 <APP_cbTimerButtonScan+0xc4>
    3362:	f8df b0b8 	ldr.w	fp, [pc, #184]	; 341c <APP_cbTimerButtonScan+0xc8>
    3366:	4d28      	ldr	r5, [pc, #160]	; (3408 <APP_cbTimerButtonScan+0xb4>)
    3368:	f8df a0b4 	ldr.w	sl, [pc, #180]	; 3420 <APP_cbTimerButtonScan+0xcc>
    336c:	4606      	mov	r6, r0
    336e:	2400      	movs	r4, #0
    3370:	27ff      	movs	r7, #255	; 0xff
    3372:	f04f 0901 	mov.w	r9, #1
    3376:	f818 3b01 	ldrb.w	r3, [r8], #1
    337a:	f89b 1000 	ldrb.w	r1, [fp]
    337e:	fa26 f303 	lsr.w	r3, r6, r3
    3382:	f003 0301 	and.w	r3, r3, #1
    3386:	ea43 0341 	orr.w	r3, r3, r1, lsl #1
    338a:	b2db      	uxtb	r3, r3
    338c:	f80b 3b01 	strb.w	r3, [fp], #1
    3390:	401f      	ands	r7, r3
    3392:	bb33      	cbnz	r3, 33e2 <APP_cbTimerButtonScan+0x8e>
    3394:	782b      	ldrb	r3, [r5, #0]
    3396:	b95b      	cbnz	r3, 33b0 <APP_cbTimerButtonScan+0x5c>
    3398:	2302      	movs	r3, #2
    339a:	f885 9000 	strb.w	r9, [r5]
    339e:	f88d 3000 	strb.w	r3, [sp]
    33a2:	4669      	mov	r1, sp
    33a4:	4650      	mov	r0, sl
    33a6:	f88d 4008 	strb.w	r4, [sp, #8]
    33aa:	9603      	str	r6, [sp, #12]
    33ac:	f002 f8ed 	bl	558a <ZQ_bQueueSend>
    33b0:	3401      	adds	r4, #1
    33b2:	2c06      	cmp	r4, #6
    33b4:	f105 0501 	add.w	r5, r5, #1
    33b8:	d1dd      	bne.n	3376 <APP_cbTimerButtonScan+0x22>
    33ba:	2fff      	cmp	r7, #255	; 0xff
    33bc:	4c13      	ldr	r4, [pc, #76]	; (340c <APP_cbTimerButtonScan+0xb8>)
    33be:	d11b      	bne.n	33f8 <APP_cbTimerButtonScan+0xa4>
    33c0:	4813      	ldr	r0, [pc, #76]	; (3410 <APP_cbTimerButtonScan+0xbc>)
    33c2:	f000 fb7b 	bl	3abc <GINT_EnableCallback>
    33c6:	4668      	mov	r0, sp
    33c8:	f002 f8be 	bl	5548 <NTAG_GetDefaultConfig>
    33cc:	4b11      	ldr	r3, [pc, #68]	; (3414 <APP_cbTimerButtonScan+0xc0>)
    33ce:	9300      	str	r3, [sp, #0]
    33d0:	4668      	mov	r0, sp
    33d2:	f002 f8bd 	bl	5550 <NTAG_Init>
    33d6:	7820      	ldrb	r0, [r4, #0]
    33d8:	f002 f9c0 	bl	575c <ZTIMER_eStop>
    33dc:	b01b      	add	sp, #108	; 0x6c
    33de:	e8bd 8ff0 	ldmia.w	sp!, {r4, r5, r6, r7, r8, r9, sl, fp, pc}
    33e2:	2bff      	cmp	r3, #255	; 0xff
    33e4:	d1e4      	bne.n	33b0 <APP_cbTimerButtonScan+0x5c>
    33e6:	782b      	ldrb	r3, [r5, #0]
    33e8:	2b00      	cmp	r3, #0
    33ea:	d0e1      	beq.n	33b0 <APP_cbTimerButtonScan+0x5c>
    33ec:	f04f 0300 	mov.w	r3, #0
    33f0:	702b      	strb	r3, [r5, #0]
    33f2:	f88d 9000 	strb.w	r9, [sp]
    33f6:	e7d4      	b.n	33a2 <APP_cbTimerButtonScan+0x4e>
    33f8:	7820      	ldrb	r0, [r4, #0]
    33fa:	f002 f9af 	bl	575c <ZTIMER_eStop>
    33fe:	7820      	ldrb	r0, [r4, #0]
    3400:	210a      	movs	r1, #10
    3402:	f002 f983 	bl	570c <ZTIMER_eStart>
    3406:	e7e9      	b.n	33dc <APP_cbTimerButtonScan+0x88>
    3408:	040156f4 	.word	0x040156f4
    340c:	04015582 	.word	0x04015582
    3410:	40011000 	.word	0x40011000
    3414:	00003339 	.word	0x00003339
    3418:	0003031c 	.word	0x0003031c
    341c:	0401544c 	.word	0x0401544c
    3420:	04015540 	.word	0x04015540

00003424 <APP_bButtonInitialise>:
    3424:	e92d 41ff 	stmdb	sp!, {r0, r1, r2, r3, r4, r5, r6, r7, r8, lr}
    3428:	2300      	movs	r3, #0
    342a:	4d1e      	ldr	r5, [pc, #120]	; (34a4 <APP_bButtonInitialise+0x80>)
    342c:	4e1e      	ldr	r6, [pc, #120]	; (34a8 <APP_bButtonInitialise+0x84>)
    342e:	f8df 8090 	ldr.w	r8, [pc, #144]	; 34c0 <APP_bButtonInitialise+0x9c>
    3432:	f8ad 3004 	strh.w	r3, [sp, #4]
    3436:	2406      	movs	r4, #6
    3438:	2780      	movs	r7, #128	; 0x80
    343a:	f815 2b01 	ldrb.w	r2, [r5], #1
    343e:	2a15      	cmp	r2, #21
    3440:	d806      	bhi.n	3450 <APP_bButtonInitialise+0x2c>
    3442:	f846 7022 	str.w	r7, [r6, r2, lsl #2]
    3446:	ab01      	add	r3, sp, #4
    3448:	2100      	movs	r1, #0
    344a:	4640      	mov	r0, r8
    344c:	f7ff fac0 	bl	29d0 <GPIO_PinInit>
    3450:	3c01      	subs	r4, #1
    3452:	f014 04ff 	ands.w	r4, r4, #255	; 0xff
    3456:	d1f0      	bne.n	343a <APP_bButtonInitialise+0x16>
    3458:	4814      	ldr	r0, [pc, #80]	; (34ac <APP_bButtonInitialise+0x88>)
    345a:	f000 fb01 	bl	3a60 <GINT_Init>
    345e:	4622      	mov	r2, r4
    3460:	4621      	mov	r1, r4
    3462:	4b13      	ldr	r3, [pc, #76]	; (34b0 <APP_bButtonInitialise+0x8c>)
    3464:	4811      	ldr	r0, [pc, #68]	; (34ac <APP_bButtonInitialise+0x88>)
    3466:	f000 fb0d 	bl	3a84 <GINT_SetCtrl>
    346a:	4622      	mov	r2, r4
    346c:	4621      	mov	r1, r4
    346e:	4b11      	ldr	r3, [pc, #68]	; (34b4 <APP_bButtonInitialise+0x90>)
    3470:	480e      	ldr	r0, [pc, #56]	; (34ac <APP_bButtonInitialise+0x88>)
    3472:	f000 fb1d 	bl	3ab0 <GINT_ConfigPins>
    3476:	480d      	ldr	r0, [pc, #52]	; (34ac <APP_bButtonInitialise+0x88>)
    3478:	f000 fb20 	bl	3abc <GINT_EnableCallback>
    347c:	a802      	add	r0, sp, #8
    347e:	f002 f863 	bl	5548 <NTAG_GetDefaultConfig>
    3482:	4b0d      	ldr	r3, [pc, #52]	; (34b8 <APP_bButtonInitialise+0x94>)
    3484:	9302      	str	r3, [sp, #8]
    3486:	a802      	add	r0, sp, #8
    3488:	f002 f862 	bl	5550 <NTAG_Init>
    348c:	4620      	mov	r0, r4
    348e:	f7ff ff61 	bl	3354 <APP_cbTimerButtonScan>
    3492:	f7ff ff33 	bl	32fc <APP_u32GetSwitchIOState>
    3496:	4b09      	ldr	r3, [pc, #36]	; (34bc <APP_bButtonInitialise+0x98>)
    3498:	1ac0      	subs	r0, r0, r3
    349a:	bf18      	it	ne
    349c:	2001      	movne	r0, #1
    349e:	b004      	add	sp, #16
    34a0:	e8bd 81f0 	ldmia.w	sp!, {r4, r5, r6, r7, r8, pc}
    34a4:	0003031c 	.word	0x0003031c
    34a8:	4000f000 	.word	0x4000f000
    34ac:	40011000 	.word	0x40011000
    34b0:	0000331d 	.word	0x0000331d
    34b4:	00088092 	.word	0x00088092
    34b8:	00003339 	.word	0x00003339
    34bc:	00488092 	.word	0x00488092
    34c0:	40080000 	.word	0x40080000

000034c4 <APP_vHandleFactoryNewKeyPress>:
    34c4:	2813      	cmp	r0, #19
    34c6:	b513      	push	{r0, r1, r4, lr}
    34c8:	d02b      	beq.n	3522 <APP_vHandleFactoryNewKeyPress+0x5e>
    34ca:	d80d      	bhi.n	34e8 <APP_vHandleFactoryNewKeyPress+0x24>
    34cc:	2804      	cmp	r0, #4
    34ce:	d01c      	beq.n	350a <APP_vHandleFactoryNewKeyPress+0x46>
    34d0:	2810      	cmp	r0, #16
    34d2:	d01a      	beq.n	350a <APP_vHandleFactoryNewKeyPress+0x46>
    34d4:	b160      	cbz	r0, 34f0 <APP_vHandleFactoryNewKeyPress+0x2c>
    34d6:	4c1b      	ldr	r4, [pc, #108]	; (3544 <APP_vHandleFactoryNewKeyPress+0x80>)
    34d8:	7820      	ldrb	r0, [r4, #0]
    34da:	f7fd fa87 	bl	9ec <APP_vSetLedsMask>
    34de:	7820      	ldrb	r0, [r4, #0]
    34e0:	f7fd fa9e 	bl	a20 <APP_vBlinkLeds>
    34e4:	b002      	add	sp, #8
    34e6:	bd10      	pop	{r4, pc}
    34e8:	2817      	cmp	r0, #23
    34ea:	d023      	beq.n	3534 <APP_vHandleFactoryNewKeyPress+0x70>
    34ec:	281f      	cmp	r0, #31
    34ee:	d1f2      	bne.n	34d6 <APP_vHandleFactoryNewKeyPress+0x12>
    34f0:	2000      	movs	r0, #0
    34f2:	f7ff f8df 	bl	26b4 <vAppSetGroupId>
    34f6:	4814      	ldr	r0, [pc, #80]	; (3548 <APP_vHandleFactoryNewKeyPress+0x84>)
    34f8:	f7ff fa4a 	bl	2990 <DbgConsole_Printf>
    34fc:	2301      	movs	r3, #1
    34fe:	4668      	mov	r0, sp
    3500:	f88d 3000 	strb.w	r3, [sp]
    3504:	f00e fbe4 	bl	11cd0 <BDB_vZclEventHandler>
    3508:	e7e5      	b.n	34d6 <APP_vHandleFactoryNewKeyPress+0x12>
    350a:	4c10      	ldr	r4, [pc, #64]	; (354c <APP_vHandleFactoryNewKeyPress+0x88>)
    350c:	4b10      	ldr	r3, [pc, #64]	; (3550 <APP_vHandleFactoryNewKeyPress+0x8c>)
    350e:	62e3      	str	r3, [r4, #44]	; 0x2c
    3510:	4b10      	ldr	r3, [pc, #64]	; (3554 <APP_vHandleFactoryNewKeyPress+0x90>)
    3512:	6363      	str	r3, [r4, #52]	; 0x34
    3514:	f00e fd7c 	bl	12010 <BDB_eNsStartNwkSteering>
    3518:	6ae1      	ldr	r1, [r4, #44]	; 0x2c
    351a:	480f      	ldr	r0, [pc, #60]	; (3558 <APP_vHandleFactoryNewKeyPress+0x94>)
    351c:	f7ff fa38 	bl	2990 <DbgConsole_Printf>
    3520:	e7d9      	b.n	34d6 <APP_vHandleFactoryNewKeyPress+0x12>
    3522:	480e      	ldr	r0, [pc, #56]	; (355c <APP_vHandleFactoryNewKeyPress+0x98>)
    3524:	f7ff fa34 	bl	2990 <DbgConsole_Printf>
    3528:	f011 fc92 	bl	14e50 <PDM_vDeleteAllDataRecords>
    352c:	b672      	cpsid	i
    352e:	f003 f9bd 	bl	68ac <RESET_SystemReset>
    3532:	e7d0      	b.n	34d6 <APP_vHandleFactoryNewKeyPress+0x12>
    3534:	4b0a      	ldr	r3, [pc, #40]	; (3560 <APP_vHandleFactoryNewKeyPress+0x9c>)
    3536:	480b      	ldr	r0, [pc, #44]	; (3564 <APP_vHandleFactoryNewKeyPress+0xa0>)
    3538:	2201      	movs	r2, #1
    353a:	701a      	strb	r2, [r3, #0]
    353c:	f7ff fa28 	bl	2990 <DbgConsole_Printf>
    3540:	e7c9      	b.n	34d6 <APP_vHandleFactoryNewKeyPress+0x12>
    3542:	bf00      	nop
    3544:	040156fa 	.word	0x040156fa
    3548:	00030322 	.word	0x00030322
    354c:	04003c00 	.word	0x04003c00
    3550:	02108800 	.word	0x02108800
    3554:	05ef7000 	.word	0x05ef7000
    3558:	0003032d 	.word	0x0003032d
    355c:	00030350 	.word	0x00030350
    3560:	04003c91 	.word	0x04003c91
    3564:	0003036c 	.word	0x0003036c

00003568 <APP_vHandleKeyPress>:
    3568:	b530      	push	{r4, r5, lr}
    356a:	4cbf      	ldr	r4, [pc, #764]	; (3868 <APP_vHandleKeyPress+0x300>)
    356c:	7823      	ldrb	r3, [r4, #0]
    356e:	b085      	sub	sp, #20
    3570:	2b03      	cmp	r3, #3
    3572:	f200 8216 	bhi.w	39a2 <APP_vHandleKeyPress+0x43a>
    3576:	e8df f013 	tbh	[pc, r3, lsl #1]
    357a:	0004      	.short	0x0004
    357c:	011a0090 	.word	0x011a0090
    3580:	0185      	.short	0x0185
    3582:	4aba      	ldr	r2, [pc, #744]	; (386c <APP_vHandleKeyPress+0x304>)
    3584:	2300      	movs	r3, #0
    3586:	7013      	strb	r3, [r2, #0]
    3588:	4ab9      	ldr	r2, [pc, #740]	; (3870 <APP_vHandleKeyPress+0x308>)
    358a:	7013      	strb	r3, [r2, #0]
    358c:	281f      	cmp	r0, #31
    358e:	d827      	bhi.n	35e0 <APP_vHandleKeyPress+0x78>
    3590:	e8df f010 	tbh	[pc, r0, lsl #1]
    3594:	00200079 	.word	0x00200079
    3598:	0154002e 	.word	0x0154002e
    359c:	002601be 	.word	0x002601be
    35a0:	00260026 	.word	0x00260026
    35a4:	00260026 	.word	0x00260026
    35a8:	00260026 	.word	0x00260026
    35ac:	00260026 	.word	0x00260026
    35b0:	00260026 	.word	0x00260026
    35b4:	00370031 	.word	0x00370031
    35b8:	0042003d 	.word	0x0042003d
    35bc:	004a0046 	.word	0x004a0046
    35c0:	0051004e 	.word	0x0051004e
    35c4:	005b0053 	.word	0x005b0053
    35c8:	00690062 	.word	0x00690062
    35cc:	01540070 	.word	0x01540070
    35d0:	00790073 	.word	0x00790073
    35d4:	2002      	movs	r0, #2
    35d6:	f7fe fe73 	bl	22c0 <vAppOnOff>
    35da:	48a6      	ldr	r0, [pc, #664]	; (3874 <APP_vHandleKeyPress+0x30c>)
    35dc:	f7ff f9d8 	bl	2990 <DbgConsole_Printf>
    35e0:	7820      	ldrb	r0, [r4, #0]
    35e2:	f7fd fa03 	bl	9ec <APP_vSetLedsMask>
    35e6:	7820      	ldrb	r0, [r4, #0]
    35e8:	f7fd fa1a 	bl	a20 <APP_vBlinkLeds>
    35ec:	b005      	add	sp, #20
    35ee:	bd30      	pop	{r4, r5, pc}
    35f0:	f00e fd0e 	bl	12010 <BDB_eNsStartNwkSteering>
    35f4:	e7f4      	b.n	35e0 <APP_vHandleKeyPress+0x78>
    35f6:	2201      	movs	r2, #1
    35f8:	2164      	movs	r1, #100	; 0x64
    35fa:	2000      	movs	r0, #0
    35fc:	f7fe fea0 	bl	2340 <vAppLevelMove>
    3600:	e7ee      	b.n	35e0 <APP_vHandleKeyPress+0x78>
    3602:	f44f 617a 	mov.w	r1, #4000	; 0xfa0
    3606:	2001      	movs	r0, #1
    3608:	f7fe fee2 	bl	23d0 <vAppEnhancedMoveHue>
    360c:	e7e8      	b.n	35e0 <APP_vHandleKeyPress+0x78>
    360e:	2114      	movs	r1, #20
    3610:	2001      	movs	r0, #1
    3612:	f7fe ff61 	bl	24d8 <vAppMoveSaturation>
    3616:	e7e3      	b.n	35e0 <APP_vHandleKeyPress+0x78>
    3618:	2001      	movs	r0, #1
    361a:	f7fe fe51 	bl	22c0 <vAppOnOff>
    361e:	e7df      	b.n	35e0 <APP_vHandleKeyPress+0x78>
    3620:	2200      	movs	r2, #0
    3622:	2164      	movs	r1, #100	; 0x64
    3624:	2001      	movs	r0, #1
    3626:	e7e9      	b.n	35fc <APP_vHandleKeyPress+0x94>
    3628:	f44f 617a 	mov.w	r1, #4000	; 0xfa0
    362c:	2003      	movs	r0, #3
    362e:	e7eb      	b.n	3608 <APP_vHandleKeyPress+0xa0>
    3630:	2114      	movs	r1, #20
    3632:	2003      	movs	r0, #3
    3634:	e7ed      	b.n	3612 <APP_vHandleKeyPress+0xaa>
    3636:	2040      	movs	r0, #64	; 0x40
    3638:	e7ef      	b.n	361a <APP_vHandleKeyPress+0xb2>
    363a:	4b8f      	ldr	r3, [pc, #572]	; (3878 <APP_vHandleKeyPress+0x310>)
    363c:	2001      	movs	r0, #1
    363e:	7018      	strb	r0, [r3, #0]
    3640:	4b8e      	ldr	r3, [pc, #568]	; (387c <APP_vHandleKeyPress+0x314>)
    3642:	8859      	ldrh	r1, [r3, #2]
    3644:	f7fe ffcc 	bl	25e0 <vAppRecallSceneById>
    3648:	e7ca      	b.n	35e0 <APP_vHandleKeyPress+0x78>
    364a:	4b8b      	ldr	r3, [pc, #556]	; (3878 <APP_vHandleKeyPress+0x310>)
    364c:	2201      	movs	r2, #1
    364e:	701a      	strb	r2, [r3, #0]
    3650:	4b8a      	ldr	r3, [pc, #552]	; (387c <APP_vHandleKeyPress+0x314>)
    3652:	2002      	movs	r0, #2
    3654:	8859      	ldrh	r1, [r3, #2]
    3656:	e7f5      	b.n	3644 <APP_vHandleKeyPress+0xdc>
    3658:	4b87      	ldr	r3, [pc, #540]	; (3878 <APP_vHandleKeyPress+0x310>)
    365a:	2201      	movs	r2, #1
    365c:	701a      	strb	r2, [r3, #0]
    365e:	4b87      	ldr	r3, [pc, #540]	; (387c <APP_vHandleKeyPress+0x314>)
    3660:	2003      	movs	r0, #3
    3662:	8859      	ldrh	r1, [r3, #2]
    3664:	e7ee      	b.n	3644 <APP_vHandleKeyPress+0xdc>
    3666:	4b84      	ldr	r3, [pc, #528]	; (3878 <APP_vHandleKeyPress+0x310>)
    3668:	2201      	movs	r2, #1
    366a:	701a      	strb	r2, [r3, #0]
    366c:	4b83      	ldr	r3, [pc, #524]	; (387c <APP_vHandleKeyPress+0x314>)
    366e:	2004      	movs	r0, #4
    3670:	8859      	ldrh	r1, [r3, #2]
    3672:	e7e7      	b.n	3644 <APP_vHandleKeyPress+0xdc>
    3674:	2301      	movs	r3, #1
    3676:	7023      	strb	r3, [r4, #0]
    3678:	e7b2      	b.n	35e0 <APP_vHandleKeyPress+0x78>
    367a:	4b7f      	ldr	r3, [pc, #508]	; (3878 <APP_vHandleKeyPress+0x310>)
    367c:	2200      	movs	r2, #0
    367e:	701a      	strb	r2, [r3, #0]
    3680:	f7fd fc90 	bl	fa4 <vSelectLight>
    3684:	e7ac      	b.n	35e0 <APP_vHandleKeyPress+0x78>
    3686:	2000      	movs	r0, #0
    3688:	f7ff f814 	bl	26b4 <vAppSetGroupId>
    368c:	2301      	movs	r3, #1
    368e:	f88d 3008 	strb.w	r3, [sp, #8]
    3692:	a802      	add	r0, sp, #8
    3694:	f00e fb1c 	bl	11cd0 <BDB_vZclEventHandler>
    3698:	e7a2      	b.n	35e0 <APP_vHandleKeyPress+0x78>
    369a:	4a74      	ldr	r2, [pc, #464]	; (386c <APP_vHandleKeyPress+0x304>)
    369c:	2300      	movs	r3, #0
    369e:	7013      	strb	r3, [r2, #0]
    36a0:	4a73      	ldr	r2, [pc, #460]	; (3870 <APP_vHandleKeyPress+0x308>)
    36a2:	7013      	strb	r3, [r2, #0]
    36a4:	281f      	cmp	r0, #31
    36a6:	d89b      	bhi.n	35e0 <APP_vHandleKeyPress+0x78>
    36a8:	a201      	add	r2, pc, #4	; (adr r2, 36b0 <APP_vHandleKeyPress+0x148>)
    36aa:	f852 f020 	ldr.w	pc, [r2, r0, lsl #2]
    36ae:	bf00      	nop
    36b0:	00003911 	.word	0x00003911
    36b4:	00003731 	.word	0x00003731
    36b8:	000035f1 	.word	0x000035f1
    36bc:	0000383d 	.word	0x0000383d
    36c0:	00003911 	.word	0x00003911
    36c4:	000035e1 	.word	0x000035e1
    36c8:	000035e1 	.word	0x000035e1
    36cc:	000035e1 	.word	0x000035e1
    36d0:	000035e1 	.word	0x000035e1
    36d4:	000035e1 	.word	0x000035e1
    36d8:	000035e1 	.word	0x000035e1
    36dc:	000035e1 	.word	0x000035e1
    36e0:	000035e1 	.word	0x000035e1
    36e4:	000035e1 	.word	0x000035e1
    36e8:	000035e1 	.word	0x000035e1
    36ec:	000035e1 	.word	0x000035e1
    36f0:	00003735 	.word	0x00003735
    36f4:	0000373b 	.word	0x0000373b
    36f8:	00003749 	.word	0x00003749
    36fc:	00003619 	.word	0x00003619
    3700:	00003759 	.word	0x00003759
    3704:	0000375f 	.word	0x0000375f
    3708:	00003769 	.word	0x00003769
    370c:	00003637 	.word	0x00003637
    3710:	0000376f 	.word	0x0000376f
    3714:	00003781 	.word	0x00003781
    3718:	0000378f 	.word	0x0000378f
    371c:	0000379d 	.word	0x0000379d
    3720:	000037ab 	.word	0x000037ab
    3724:	0000383d 	.word	0x0000383d
    3728:	0000367b 	.word	0x0000367b
    372c:	00003911 	.word	0x00003911
    3730:	2002      	movs	r0, #2
    3732:	e772      	b.n	361a <APP_vHandleKeyPress+0xb2>
    3734:	2201      	movs	r2, #1
    3736:	213c      	movs	r1, #60	; 0x3c
    3738:	e75f      	b.n	35fa <APP_vHandleKeyPress+0x92>
    373a:	2300      	movs	r3, #0
    373c:	461a      	mov	r2, r3
    373e:	2164      	movs	r1, #100	; 0x64
    3740:	2001      	movs	r0, #1
    3742:	f7fe feed 	bl	2520 <vAppMoveColourTemperature>
    3746:	e74b      	b.n	35e0 <APP_vHandleKeyPress+0x78>
    3748:	9300      	str	r3, [sp, #0]
    374a:	2201      	movs	r2, #1
    374c:	2314      	movs	r3, #20
    374e:	2102      	movs	r1, #2
    3750:	2007      	movs	r0, #7
    3752:	f7fe ff0f 	bl	2574 <vAppColorLoopSet>
    3756:	e743      	b.n	35e0 <APP_vHandleKeyPress+0x78>
    3758:	2200      	movs	r2, #0
    375a:	213c      	movs	r1, #60	; 0x3c
    375c:	e762      	b.n	3624 <APP_vHandleKeyPress+0xbc>
    375e:	2300      	movs	r3, #0
    3760:	461a      	mov	r2, r3
    3762:	2164      	movs	r1, #100	; 0x64
    3764:	2003      	movs	r0, #3
    3766:	e7ec      	b.n	3742 <APP_vHandleKeyPress+0x1da>
    3768:	f7fe ff2e 	bl	25c8 <vAPPColourLoopStop>
    376c:	e738      	b.n	35e0 <APP_vHandleKeyPress+0x78>
    376e:	4b42      	ldr	r3, [pc, #264]	; (3878 <APP_vHandleKeyPress+0x310>)
    3770:	2001      	movs	r0, #1
    3772:	7018      	strb	r0, [r3, #0]
    3774:	4b41      	ldr	r3, [pc, #260]	; (387c <APP_vHandleKeyPress+0x314>)
    3776:	8859      	ldrh	r1, [r3, #2]
    3778:	f7fe ff56 	bl	2628 <vAppStoreSceneById>
    377c:	2300      	movs	r3, #0
    377e:	e77a      	b.n	3676 <APP_vHandleKeyPress+0x10e>
    3780:	4b3d      	ldr	r3, [pc, #244]	; (3878 <APP_vHandleKeyPress+0x310>)
    3782:	2201      	movs	r2, #1
    3784:	701a      	strb	r2, [r3, #0]
    3786:	4b3d      	ldr	r3, [pc, #244]	; (387c <APP_vHandleKeyPress+0x314>)
    3788:	2002      	movs	r0, #2
    378a:	8859      	ldrh	r1, [r3, #2]
    378c:	e7f4      	b.n	3778 <APP_vHandleKeyPress+0x210>
    378e:	4b3a      	ldr	r3, [pc, #232]	; (3878 <APP_vHandleKeyPress+0x310>)
    3790:	2201      	movs	r2, #1
    3792:	701a      	strb	r2, [r3, #0]
    3794:	4b39      	ldr	r3, [pc, #228]	; (387c <APP_vHandleKeyPress+0x314>)
    3796:	2003      	movs	r0, #3
    3798:	8859      	ldrh	r1, [r3, #2]
    379a:	e7ed      	b.n	3778 <APP_vHandleKeyPress+0x210>
    379c:	4b36      	ldr	r3, [pc, #216]	; (3878 <APP_vHandleKeyPress+0x310>)
    379e:	2201      	movs	r2, #1
    37a0:	701a      	strb	r2, [r3, #0]
    37a2:	4b36      	ldr	r3, [pc, #216]	; (387c <APP_vHandleKeyPress+0x314>)
    37a4:	2004      	movs	r0, #4
    37a6:	8859      	ldrh	r1, [r3, #2]
    37a8:	e7e6      	b.n	3778 <APP_vHandleKeyPress+0x210>
    37aa:	2302      	movs	r3, #2
    37ac:	e763      	b.n	3676 <APP_vHandleKeyPress+0x10e>
    37ae:	281f      	cmp	r0, #31
    37b0:	f63f af16 	bhi.w	35e0 <APP_vHandleKeyPress+0x78>
    37b4:	a301      	add	r3, pc, #4	; (adr r3, 37bc <APP_vHandleKeyPress+0x254>)
    37b6:	f853 f020 	ldr.w	pc, [r3, r0, lsl #2]
    37ba:	bf00      	nop
    37bc:	00003687 	.word	0x00003687
    37c0:	00003731 	.word	0x00003731
    37c4:	000035f1 	.word	0x000035f1
    37c8:	0000383d 	.word	0x0000383d
    37cc:	00003911 	.word	0x00003911
    37d0:	000035e1 	.word	0x000035e1
    37d4:	000035e1 	.word	0x000035e1
    37d8:	000035e1 	.word	0x000035e1
    37dc:	000035e1 	.word	0x000035e1
    37e0:	000035e1 	.word	0x000035e1
    37e4:	000035e1 	.word	0x000035e1
    37e8:	000035e1 	.word	0x000035e1
    37ec:	000035e1 	.word	0x000035e1
    37f0:	000035e1 	.word	0x000035e1
    37f4:	000035e1 	.word	0x000035e1
    37f8:	000035e1 	.word	0x000035e1
    37fc:	0000384b 	.word	0x0000384b
    3800:	00003851 	.word	0x00003851
    3804:	000035e1 	.word	0x000035e1
    3808:	00003619 	.word	0x00003619
    380c:	00003859 	.word	0x00003859
    3810:	0000385f 	.word	0x0000385f
    3814:	000035e1 	.word	0x000035e1
    3818:	00003637 	.word	0x00003637
    381c:	000035e1 	.word	0x000035e1
    3820:	000035e1 	.word	0x000035e1
    3824:	000035f1 	.word	0x000035f1
    3828:	00003863 	.word	0x00003863
    382c:	00003881 	.word	0x00003881
    3830:	0000383d 	.word	0x0000383d
    3834:	0000367b 	.word	0x0000367b
    3838:	00003687 	.word	0x00003687
    383c:	4a0e      	ldr	r2, [pc, #56]	; (3878 <APP_vHandleKeyPress+0x310>)
    383e:	7813      	ldrb	r3, [r2, #0]
    3840:	fab3 f383 	clz	r3, r3
    3844:	095b      	lsrs	r3, r3, #5
    3846:	7013      	strb	r3, [r2, #0]
    3848:	e6ca      	b.n	35e0 <APP_vHandleKeyPress+0x78>
    384a:	2201      	movs	r2, #1
    384c:	2114      	movs	r1, #20
    384e:	e6d4      	b.n	35fa <APP_vHandleKeyPress+0x92>
    3850:	2001      	movs	r0, #1
    3852:	f7fe fde1 	bl	2418 <vAppGotoHueAndSat>
    3856:	e6c3      	b.n	35e0 <APP_vHandleKeyPress+0x78>
    3858:	2200      	movs	r2, #0
    385a:	2114      	movs	r1, #20
    385c:	e6e2      	b.n	3624 <APP_vHandleKeyPress+0xbc>
    385e:	2000      	movs	r0, #0
    3860:	e7f7      	b.n	3852 <APP_vHandleKeyPress+0x2ea>
    3862:	f7fe ff89 	bl	2778 <vAppChangeChannel>
    3866:	e6bb      	b.n	35e0 <APP_vHandleKeyPress+0x78>
    3868:	040156fa 	.word	0x040156fa
    386c:	04003c91 	.word	0x04003c91
    3870:	040156fb 	.word	0x040156fb
    3874:	00030376 	.word	0x00030376
    3878:	04015430 	.word	0x04015430
    387c:	04015646 	.word	0x04015646
    3880:	2303      	movs	r3, #3
    3882:	e6f8      	b.n	3676 <APP_vHandleKeyPress+0x10e>
    3884:	281f      	cmp	r0, #31
    3886:	f200 8087 	bhi.w	3998 <APP_vHandleKeyPress+0x430>
    388a:	a301      	add	r3, pc, #4	; (adr r3, 3890 <APP_vHandleKeyPress+0x328>)
    388c:	f853 f020 	ldr.w	pc, [r3, r0, lsl #2]
    3890:	0000398d 	.word	0x0000398d
    3894:	00003731 	.word	0x00003731
    3898:	000035f1 	.word	0x000035f1
    389c:	0000383d 	.word	0x0000383d
    38a0:	00003911 	.word	0x00003911
    38a4:	00003999 	.word	0x00003999
    38a8:	00003999 	.word	0x00003999
    38ac:	00003999 	.word	0x00003999
    38b0:	00003999 	.word	0x00003999
    38b4:	00003999 	.word	0x00003999
    38b8:	00003999 	.word	0x00003999
    38bc:	00003999 	.word	0x00003999
    38c0:	00003999 	.word	0x00003999
    38c4:	00003999 	.word	0x00003999
    38c8:	00003999 	.word	0x00003999
    38cc:	00003999 	.word	0x00003999
    38d0:	0000392f 	.word	0x0000392f
    38d4:	000035e1 	.word	0x000035e1
    38d8:	0000393d 	.word	0x0000393d
    38dc:	00003619 	.word	0x00003619
    38e0:	00003943 	.word	0x00003943
    38e4:	00003999 	.word	0x00003999
    38e8:	00003999 	.word	0x00003999
    38ec:	00003637 	.word	0x00003637
    38f0:	00003979 	.word	0x00003979
    38f4:	00003981 	.word	0x00003981
    38f8:	00003985 	.word	0x00003985
    38fc:	00003989 	.word	0x00003989
    3900:	0000377d 	.word	0x0000377d
    3904:	0000383d 	.word	0x0000383d
    3908:	0000367b 	.word	0x0000367b
    390c:	0000398d 	.word	0x0000398d
    3910:	4b25      	ldr	r3, [pc, #148]	; (39a8 <APP_vHandleKeyPress+0x440>)
    3912:	781a      	ldrb	r2, [r3, #0]
    3914:	4b25      	ldr	r3, [pc, #148]	; (39ac <APP_vHandleKeyPress+0x444>)
    3916:	eb03 0382 	add.w	r3, r3, r2, lsl #2
    391a:	2001      	movs	r0, #1
    391c:	885a      	ldrh	r2, [r3, #2]
    391e:	4b24      	ldr	r3, [pc, #144]	; (39b0 <APP_vHandleKeyPress+0x448>)
    3920:	811a      	strh	r2, [r3, #8]
    3922:	f00f ff13 	bl	1374c <BDB_eFbTriggerAsInitiator>
    3926:	4b23      	ldr	r3, [pc, #140]	; (39b4 <APP_vHandleKeyPress+0x44c>)
    3928:	22b6      	movs	r2, #182	; 0xb6
    392a:	701a      	strb	r2, [r3, #0]
    392c:	e658      	b.n	35e0 <APP_vHandleKeyPress+0x78>
    392e:	4b22      	ldr	r3, [pc, #136]	; (39b8 <APP_vHandleKeyPress+0x450>)
    3930:	781a      	ldrb	r2, [r3, #0]
    3932:	2a01      	cmp	r2, #1
    3934:	f47f ae54 	bne.w	35e0 <APP_vHandleKeyPress+0x78>
    3938:	2202      	movs	r2, #2
    393a:	e7f6      	b.n	392a <APP_vHandleKeyPress+0x3c2>
    393c:	f7fe fefe 	bl	273c <bAppSendBasicResetReq>
    3940:	e64e      	b.n	35e0 <APP_vHandleKeyPress+0x78>
    3942:	4b1d      	ldr	r3, [pc, #116]	; (39b8 <APP_vHandleKeyPress+0x450>)
    3944:	781a      	ldrb	r2, [r3, #0]
    3946:	b90a      	cbnz	r2, 394c <APP_vHandleKeyPress+0x3e4>
    3948:	2201      	movs	r2, #1
    394a:	e7ee      	b.n	392a <APP_vHandleKeyPress+0x3c2>
    394c:	2a02      	cmp	r2, #2
    394e:	f47f ae47 	bne.w	35e0 <APP_vHandleKeyPress+0x78>
    3952:	2500      	movs	r5, #0
    3954:	701d      	strb	r5, [r3, #0]
    3956:	f7fc ffe1 	bl	91c <ZPS_pvAplZdoGetAplHandle>
    395a:	e9cd 5500 	strd	r5, r5, [sp]
    395e:	2200      	movs	r2, #0
    3960:	2300      	movs	r3, #0
    3962:	f017 fd57 	bl	1b414 <zps_eAplZdoLeaveNetwork>
    3966:	2800      	cmp	r0, #0
    3968:	f43f ae3a 	beq.w	35e0 <APP_vHandleKeyPress+0x78>
    396c:	f7fd fe02 	bl	1574 <APP_vFactoryResetRecords>
    3970:	b672      	cpsid	i
    3972:	f002 ff9b 	bl	68ac <RESET_SystemReset>
    3976:	e633      	b.n	35e0 <APP_vHandleKeyPress+0x78>
    3978:	2000      	movs	r0, #0
    397a:	f7fe fea1 	bl	26c0 <vAppIdentifyEffect>
    397e:	e62f      	b.n	35e0 <APP_vHandleKeyPress+0x78>
    3980:	2001      	movs	r0, #1
    3982:	e7fa      	b.n	397a <APP_vHandleKeyPress+0x412>
    3984:	2002      	movs	r0, #2
    3986:	e7f8      	b.n	397a <APP_vHandleKeyPress+0x412>
    3988:	200b      	movs	r0, #11
    398a:	e7f6      	b.n	397a <APP_vHandleKeyPress+0x412>
    398c:	4a0b      	ldr	r2, [pc, #44]	; (39bc <APP_vHandleKeyPress+0x454>)
    398e:	2301      	movs	r3, #1
    3990:	f88d 3008 	strb.w	r3, [sp, #8]
    3994:	7013      	strb	r3, [r2, #0]
    3996:	e67c      	b.n	3692 <APP_vHandleKeyPress+0x12a>
    3998:	4a07      	ldr	r2, [pc, #28]	; (39b8 <APP_vHandleKeyPress+0x450>)
    399a:	2300      	movs	r3, #0
    399c:	7013      	strb	r3, [r2, #0]
    399e:	4a07      	ldr	r2, [pc, #28]	; (39bc <APP_vHandleKeyPress+0x454>)
    39a0:	e751      	b.n	3846 <APP_vHandleKeyPress+0x2de>
    39a2:	4b05      	ldr	r3, [pc, #20]	; (39b8 <APP_vHandleKeyPress+0x450>)
    39a4:	2200      	movs	r2, #0
    39a6:	e7c0      	b.n	392a <APP_vHandleKeyPress+0x3c2>
    39a8:	04015679 	.word	0x04015679
    39ac:	04015646 	.word	0x04015646
    39b0:	04003c00 	.word	0x04003c00
    39b4:	04015441 	.word	0x04015441
    39b8:	040156fb 	.word	0x040156fb
    39bc:	04003c91 	.word	0x04003c91

000039c0 <APP_vHandleKeyRelease>:
    39c0:	4b1c      	ldr	r3, [pc, #112]	; (3a34 <APP_vHandleKeyRelease+0x74>)
    39c2:	781b      	ldrb	r3, [r3, #0]
    39c4:	2b01      	cmp	r3, #1
    39c6:	d016      	beq.n	39f6 <APP_vHandleKeyRelease+0x36>
    39c8:	2b02      	cmp	r3, #2
    39ca:	d02d      	beq.n	3a28 <APP_vHandleKeyRelease+0x68>
    39cc:	bb83      	cbnz	r3, 3a30 <APP_vHandleKeyRelease+0x70>
    39ce:	3810      	subs	r0, #16
    39d0:	2806      	cmp	r0, #6
    39d2:	d82d      	bhi.n	3a30 <APP_vHandleKeyRelease+0x70>
    39d4:	e8df f000 	tbb	[pc, r0]
    39d8:	2c0b0704 	.word	0x2c0b0704
    39dc:	0704      	.short	0x0704
    39de:	0b          	.byte	0x0b
    39df:	00          	.byte	0x00
    39e0:	2000      	movs	r0, #0
    39e2:	f7fe bccf 	b.w	2384 <vAppLevelStop>
    39e6:	2100      	movs	r1, #0
    39e8:	4608      	mov	r0, r1
    39ea:	f7fe bcf1 	b.w	23d0 <vAppEnhancedMoveHue>
    39ee:	2100      	movs	r1, #0
    39f0:	4608      	mov	r0, r1
    39f2:	f7fe bd71 	b.w	24d8 <vAppMoveSaturation>
    39f6:	3810      	subs	r0, #16
    39f8:	2805      	cmp	r0, #5
    39fa:	d819      	bhi.n	3a30 <APP_vHandleKeyRelease+0x70>
    39fc:	a301      	add	r3, pc, #4	; (adr r3, 3a04 <APP_vHandleKeyRelease+0x44>)
    39fe:	f853 f020 	ldr.w	pc, [r3, r0, lsl #2]
    3a02:	bf00      	nop
    3a04:	000039e1 	.word	0x000039e1
    3a08:	00003a1d 	.word	0x00003a1d
    3a0c:	00003a31 	.word	0x00003a31
    3a10:	00003a31 	.word	0x00003a31
    3a14:	000039e1 	.word	0x000039e1
    3a18:	00003a1d 	.word	0x00003a1d
    3a1c:	2300      	movs	r3, #0
    3a1e:	461a      	mov	r2, r3
    3a20:	4619      	mov	r1, r3
    3a22:	4618      	mov	r0, r3
    3a24:	f7fe bd7c 	b.w	2520 <vAppMoveColourTemperature>
    3a28:	f000 00fb 	and.w	r0, r0, #251	; 0xfb
    3a2c:	2810      	cmp	r0, #16
    3a2e:	d0d7      	beq.n	39e0 <APP_vHandleKeyRelease+0x20>
    3a30:	4770      	bx	lr
    3a32:	bf00      	nop
    3a34:	040156fa 	.word	0x040156fa

00003a38 <GINT_GetInstance>:
    3a38:	b508      	push	{r3, lr}
    3a3a:	4b05      	ldr	r3, [pc, #20]	; (3a50 <GINT_GetInstance+0x18>)
    3a3c:	4298      	cmp	r0, r3
    3a3e:	d005      	beq.n	3a4c <GINT_GetInstance+0x14>
    3a40:	4b04      	ldr	r3, [pc, #16]	; (3a54 <GINT_GetInstance+0x1c>)
    3a42:	4a05      	ldr	r2, [pc, #20]	; (3a58 <GINT_GetInstance+0x20>)
    3a44:	4805      	ldr	r0, [pc, #20]	; (3a5c <GINT_GetInstance+0x24>)
    3a46:	2137      	movs	r1, #55	; 0x37
    3a48:	f006 fd7a 	bl	a540 <__assert_func>
    3a4c:	2000      	movs	r0, #0
    3a4e:	bd08      	pop	{r3, pc}
    3a50:	40011000 	.word	0x40011000
    3a54:	00030383 	.word	0x00030383
    3a58:	000303ef 	.word	0x000303ef
    3a5c:	000303a6 	.word	0x000303a6

00003a60 <GINT_Init>:
    3a60:	b508      	push	{r3, lr}
    3a62:	f7ff ffe9 	bl	3a38 <GINT_GetInstance>
    3a66:	4b06      	ldr	r3, [pc, #24]	; (3a80 <GINT_Init+0x20>)
    3a68:	2200      	movs	r2, #0
    3a6a:	f843 2020 	str.w	r2, [r3, r0, lsl #2]
    3a6e:	2013      	movs	r0, #19
    3a70:	f002 fe4c 	bl	670c <CLOCK_EnableClock>
    3a74:	e8bd 4008 	ldmia.w	sp!, {r3, lr}
    3a78:	2013      	movs	r0, #19
    3a7a:	f002 bf0d 	b.w	6898 <RESET_PeripheralReset>
    3a7e:	bf00      	nop
    3a80:	040156fc 	.word	0x040156fc

00003a84 <GINT_SetCtrl>:
    3a84:	b5f8      	push	{r3, r4, r5, r6, r7, lr}
    3a86:	460c      	mov	r4, r1
    3a88:	4615      	mov	r5, r2
    3a8a:	461f      	mov	r7, r3
    3a8c:	4606      	mov	r6, r0
    3a8e:	0064      	lsls	r4, r4, #1
    3a90:	f7ff ffd2 	bl	3a38 <GINT_GetInstance>
    3a94:	00ad      	lsls	r5, r5, #2
    3a96:	4b05      	ldr	r3, [pc, #20]	; (3aac <GINT_SetCtrl+0x28>)
    3a98:	f004 0402 	and.w	r4, r4, #2
    3a9c:	f005 0504 	and.w	r5, r5, #4
    3aa0:	432c      	orrs	r4, r5
    3aa2:	6034      	str	r4, [r6, #0]
    3aa4:	f843 7020 	str.w	r7, [r3, r0, lsl #2]
    3aa8:	bdf8      	pop	{r3, r4, r5, r6, r7, pc}
    3aaa:	bf00      	nop
    3aac:	040156fc 	.word	0x040156fc

00003ab0 <GINT_ConfigPins>:
    3ab0:	eb00 0181 	add.w	r1, r0, r1, lsl #2
    3ab4:	620a      	str	r2, [r1, #32]
    3ab6:	640b      	str	r3, [r1, #64]	; 0x40
    3ab8:	4770      	bx	lr
    3aba:	Address 0x00003aba is out of bounds.


00003abc <GINT_EnableCallback>:
    3abc:	b510      	push	{r4, lr}
    3abe:	4604      	mov	r4, r0
    3ac0:	f7ff ffba 	bl	3a38 <GINT_GetInstance>
    3ac4:	6823      	ldr	r3, [r4, #0]
    3ac6:	f043 0301 	orr.w	r3, r3, #1
    3aca:	6023      	str	r3, [r4, #0]
    3acc:	4b02      	ldr	r3, [pc, #8]	; (3ad8 <GINT_EnableCallback+0x1c>)
    3ace:	2204      	movs	r2, #4
    3ad0:	f8c3 2180 	str.w	r2, [r3, #384]	; 0x180
    3ad4:	601a      	str	r2, [r3, #0]
    3ad6:	bd10      	pop	{r4, pc}
    3ad8:	e000e100 	.word	0xe000e100

00003adc <GINT_DisableCallback>:
    3adc:	b510      	push	{r4, lr}
    3ade:	4604      	mov	r4, r0
    3ae0:	f7ff ffaa 	bl	3a38 <GINT_GetInstance>
    3ae4:	4a07      	ldr	r2, [pc, #28]	; (3b04 <GINT_DisableCallback+0x28>)
    3ae6:	2104      	movs	r1, #4
    3ae8:	f8c2 1080 	str.w	r1, [r2, #128]	; 0x80
    3aec:	f3bf 8f4f 	dsb	sy
    3af0:	f3bf 8f6f 	isb	sy
    3af4:	6823      	ldr	r3, [r4, #0]
    3af6:	f043 0301 	orr.w	r3, r3, #1
    3afa:	6023      	str	r3, [r4, #0]
    3afc:	f8c2 1180 	str.w	r1, [r2, #384]	; 0x180
    3b00:	bd10      	pop	{r4, pc}
    3b02:	bf00      	nop
    3b04:	e000e100 	.word	0xe000e100

00003b08 <GINT0_DriverIRQHandler>:
    3b08:	4a06      	ldr	r2, [pc, #24]	; (3b24 <GINT0_DriverIRQHandler+0x1c>)
    3b0a:	b508      	push	{r3, lr}
    3b0c:	6813      	ldr	r3, [r2, #0]
    3b0e:	f043 0301 	orr.w	r3, r3, #1
    3b12:	6013      	str	r3, [r2, #0]
    3b14:	4b04      	ldr	r3, [pc, #16]	; (3b28 <GINT0_DriverIRQHandler+0x20>)
    3b16:	681b      	ldr	r3, [r3, #0]
    3b18:	b103      	cbz	r3, 3b1c <GINT0_DriverIRQHandler+0x14>
    3b1a:	4798      	blx	r3
    3b1c:	f3bf 8f4f 	dsb	sy
    3b20:	bd08      	pop	{r3, pc}
    3b22:	bf00      	nop
    3b24:	40011000 	.word	0x40011000
    3b28:	040156fc 	.word	0x040156fc

00003b2c <bInitialiseOTAClusterAndAttributes>:
    3b2c:	b570      	push	{r4, r5, r6, lr}
    3b2e:	b08a      	sub	sp, #40	; 0x28
    3b30:	f7fd f90c 	bl	d4c <app_u8GetDeviceEndpoint>
    3b34:	2100      	movs	r1, #0
    3b36:	4606      	mov	r6, r0
    3b38:	f008 f834 	bl	bba4 <eOTA_UpdateClientAttributes>
    3b3c:	2309      	movs	r3, #9
    3b3e:	f88d 300c 	strb.w	r3, [sp, #12]
    3b42:	b130      	cbz	r0, 3b52 <bInitialiseOTAClusterAndAttributes+0x26>
    3b44:	4601      	mov	r1, r0
    3b46:	480e      	ldr	r0, [pc, #56]	; (3b80 <bInitialiseOTAClusterAndAttributes+0x54>)
    3b48:	f7fe ff22 	bl	2990 <DbgConsole_Printf>
    3b4c:	2000      	movs	r0, #0
    3b4e:	b00a      	add	sp, #40	; 0x28
    3b50:	bd70      	pop	{r4, r5, r6, pc}
    3b52:	aa04      	add	r2, sp, #16
    3b54:	e9cd 0200 	strd	r0, r2, [sp]
    3b58:	a903      	add	r1, sp, #12
    3b5a:	2201      	movs	r2, #1
    3b5c:	4630      	mov	r0, r6
    3b5e:	f008 f861 	bl	bc24 <eOTA_AllocateEndpointOTASpace>
    3b62:	b110      	cbz	r0, 3b6a <bInitialiseOTAClusterAndAttributes+0x3e>
    3b64:	4601      	mov	r1, r0
    3b66:	4807      	ldr	r0, [pc, #28]	; (3b84 <bInitialiseOTAClusterAndAttributes+0x58>)
    3b68:	e7ee      	b.n	3b48 <bInitialiseOTAClusterAndAttributes+0x1c>
    3b6a:	4907      	ldr	r1, [pc, #28]	; (3b88 <bInitialiseOTAClusterAndAttributes+0x5c>)
    3b6c:	2201      	movs	r2, #1
    3b6e:	4630      	mov	r0, r6
    3b70:	f007 ffb0 	bl	bad4 <eOTA_RestoreClientData>
    3b74:	4601      	mov	r1, r0
    3b76:	b108      	cbz	r0, 3b7c <bInitialiseOTAClusterAndAttributes+0x50>
    3b78:	4804      	ldr	r0, [pc, #16]	; (3b8c <bInitialiseOTAClusterAndAttributes+0x60>)
    3b7a:	e7e5      	b.n	3b48 <bInitialiseOTAClusterAndAttributes+0x1c>
    3b7c:	2001      	movs	r0, #1
    3b7e:	e7e6      	b.n	3b4e <bInitialiseOTAClusterAndAttributes+0x22>
    3b80:	00030400 	.word	0x00030400
    3b84:	00030431 	.word	0x00030431
    3b88:	04015708 	.word	0x04015708
    3b8c:	0003045f 	.word	0x0003045f

00003b90 <vAppInitOTA>:
    3b90:	b5f0      	push	{r4, r5, r6, r7, lr}
    3b92:	4b5b      	ldr	r3, [pc, #364]	; (3d00 <vAppInitOTA+0x170>)
    3b94:	b0a1      	sub	sp, #132	; 0x84
    3b96:	aa02      	add	r2, sp, #8
    3b98:	f103 0510 	add.w	r5, r3, #16
    3b9c:	4616      	mov	r6, r2
    3b9e:	6818      	ldr	r0, [r3, #0]
    3ba0:	6859      	ldr	r1, [r3, #4]
    3ba2:	4614      	mov	r4, r2
    3ba4:	c403      	stmia	r4!, {r0, r1}
    3ba6:	3308      	adds	r3, #8
    3ba8:	42ab      	cmp	r3, r5
    3baa:	4622      	mov	r2, r4
    3bac:	d1f7      	bne.n	3b9e <vAppInitOTA+0xe>
    3bae:	4855      	ldr	r0, [pc, #340]	; (3d04 <vAppInitOTA+0x174>)
    3bb0:	4d55      	ldr	r5, [pc, #340]	; (3d08 <vAppInitOTA+0x178>)
    3bb2:	4f56      	ldr	r7, [pc, #344]	; (3d0c <vAppInitOTA+0x17c>)
    3bb4:	f7fe feec 	bl	2990 <DbgConsole_Printf>
    3bb8:	2410      	movs	r4, #16
    3bba:	f815 1b01 	ldrb.w	r1, [r5], #1
    3bbe:	4638      	mov	r0, r7
    3bc0:	3c01      	subs	r4, #1
    3bc2:	f7fe fee5 	bl	2990 <DbgConsole_Printf>
    3bc6:	f014 04ff 	ands.w	r4, r4, #255	; 0xff
    3bca:	d1f6      	bne.n	3bba <vAppInitOTA+0x2a>
    3bcc:	4850      	ldr	r0, [pc, #320]	; (3d10 <vAppInitOTA+0x180>)
    3bce:	f7fe fedf 	bl	2990 <DbgConsole_Printf>
    3bd2:	f44f 7300 	mov.w	r3, #512	; 0x200
    3bd6:	494f      	ldr	r1, [pc, #316]	; (3d14 <vAppInitOTA+0x184>)
    3bd8:	f88d 402c 	strb.w	r4, [sp, #44]	; 0x2c
    3bdc:	2210      	movs	r2, #16
    3bde:	4630      	mov	r0, r6
    3be0:	930a      	str	r3, [sp, #40]	; 0x28
    3be2:	f02a ffab 	bl	2eb3c <memcmp>
    3be6:	b910      	cbnz	r0, 3bee <vAppInitOTA+0x5e>
    3be8:	484b      	ldr	r0, [pc, #300]	; (3d18 <vAppInitOTA+0x188>)
    3bea:	f7fe fed1 	bl	2990 <DbgConsole_Printf>
    3bee:	a906      	add	r1, sp, #24
    3bf0:	2000      	movs	r0, #0
    3bf2:	f007 febd 	bl	b970 <vOTA_FlashInit>
    3bf6:	f7ff ff99 	bl	3b2c <bInitialiseOTAClusterAndAttributes>
    3bfa:	2800      	cmp	r0, #0
    3bfc:	d05a      	beq.n	3cb4 <vAppInitOTA+0x124>
    3bfe:	f7fd f8a5 	bl	d4c <app_u8GetDeviceEndpoint>
    3c02:	aa0c      	add	r2, sp, #48	; 0x30
    3c04:	2100      	movs	r1, #0
    3c06:	f008 f8df 	bl	bdc8 <eOTA_GetCurrentOtaHeader>
    3c0a:	4844      	ldr	r0, [pc, #272]	; (3d1c <vAppInitOTA+0x18c>)
    3c0c:	4c44      	ldr	r4, [pc, #272]	; (3d20 <vAppInitOTA+0x190>)
    3c0e:	f7fe febf 	bl	2990 <DbgConsole_Printf>
    3c12:	990c      	ldr	r1, [sp, #48]	; 0x30
    3c14:	4843      	ldr	r0, [pc, #268]	; (3d24 <vAppInitOTA+0x194>)
    3c16:	f7fe febb 	bl	2990 <DbgConsole_Printf>
    3c1a:	f8bd 1034 	ldrh.w	r1, [sp, #52]	; 0x34
    3c1e:	4842      	ldr	r0, [pc, #264]	; (3d28 <vAppInitOTA+0x198>)
    3c20:	f7fe feb6 	bl	2990 <DbgConsole_Printf>
    3c24:	f8bd 1036 	ldrh.w	r1, [sp, #54]	; 0x36
    3c28:	4840      	ldr	r0, [pc, #256]	; (3d2c <vAppInitOTA+0x19c>)
    3c2a:	f7fe feb1 	bl	2990 <DbgConsole_Printf>
    3c2e:	f8bd 1038 	ldrh.w	r1, [sp, #56]	; 0x38
    3c32:	483f      	ldr	r0, [pc, #252]	; (3d30 <vAppInitOTA+0x1a0>)
    3c34:	f7fe feac 	bl	2990 <DbgConsole_Printf>
    3c38:	f8bd 103a 	ldrh.w	r1, [sp, #58]	; 0x3a
    3c3c:	483d      	ldr	r0, [pc, #244]	; (3d34 <vAppInitOTA+0x1a4>)
    3c3e:	f7fe fea7 	bl	2990 <DbgConsole_Printf>
    3c42:	f8bd 103c 	ldrh.w	r1, [sp, #60]	; 0x3c
