
../../../Binaries/GpEhSwitch_OM15082/GpEhSwitch_OM15082.axf:     file format elf32-littlearm


Disassembly of section .text:

00000180 <ResetISR>:
     180:	4804      	ldr	r0, [pc, #16]	; (194 <masterboot+0x4>)
     182:	6800      	ldr	r0, [r0, #0]
     184:	0000      	movs	r0, r0
     186:	d003      	beq.n	190 <masterboot>
     188:	4903      	ldr	r1, [pc, #12]	; (198 <masterboot+0x8>)
     18a:	6809      	ldr	r1, [r1, #0]
     18c:	468d      	mov	sp, r1
     18e:	4700      	bx	r0

00000190 <masterboot>:
     190:	4802      	ldr	r0, [pc, #8]	; (19c <masterboot+0xc>)
     192:	4700      	bx	r0
     194:	40000804 	.word	0x40000804
     198:	40000808 	.word	0x40000808
     19c:	00000233 	.word	0x00000233

000001a0 <ADC_SEQA_IRQHandler>:
     1a0:	e7fe      	b.n	1a0 <ADC_SEQA_IRQHandler>

000001a2 <NMI_Handler>:
     1a2:	e7fe      	b.n	1a2 <NMI_Handler>
     1a4:	e7fe      	b.n	1a4 <NMI_Handler+0x2>
     1a6:	e7fe      	b.n	1a6 <NMI_Handler+0x4>
     1a8:	e7fe      	b.n	1a8 <NMI_Handler+0x6>
     1aa:	e7fe      	b.n	1aa <NMI_Handler+0x8>

000001ac <SVC_Handler>:
     1ac:	e7fe      	b.n	1ac <SVC_Handler>

000001ae <DebugMon_Handler>:
     1ae:	e7fe      	b.n	1ae <DebugMon_Handler>

000001b0 <PendSV_Handler>:
     1b0:	e7fe      	b.n	1b0 <PendSV_Handler>
     1b2:	e7fe      	b.n	1b2 <PendSV_Handler+0x2>

000001b4 <MAC_154_IRQHandler>:
     1b4:	b508      	push	{r3, lr}
     1b6:	4b06      	ldr	r3, [pc, #24]	; (1d0 <MAC_154_IRQHandler+0x1c>)
     1b8:	b113      	cbz	r3, 1c0 <MAC_154_IRQHandler+0xc>
     1ba:	f004 fb43 	bl	4844 <vMMAC_IntHandlerBbc>
     1be:	bd08      	pop	{r3, pc}
     1c0:	4b04      	ldr	r3, [pc, #16]	; (1d4 <MAC_154_IRQHandler+0x20>)
     1c2:	b113      	cbz	r3, 1ca <MAC_154_IRQHandler+0x16>
     1c4:	f007 fbf0 	bl	79a8 <__ZIGBEE_MAC_IRQHandler_veneer>
     1c8:	e7f9      	b.n	1be <MAC_154_IRQHandler+0xa>
     1ca:	f7ff ffe9 	bl	1a0 <ADC_SEQA_IRQHandler>
     1ce:	bf00      	nop
     1d0:	00004845 	.word	0x00004845
     1d4:	03006b65 	.word	0x03006b65

000001d8 <MODEM_154_IRQHandler>:
     1d8:	b508      	push	{r3, lr}
     1da:	4b06      	ldr	r3, [pc, #24]	; (1f4 <MODEM_154_IRQHandler+0x1c>)
     1dc:	b113      	cbz	r3, 1e4 <MODEM_154_IRQHandler+0xc>
     1de:	f004 fb49 	bl	4874 <vMMAC_IntHandlerPhy>
     1e2:	bd08      	pop	{r3, pc}
     1e4:	4b04      	ldr	r3, [pc, #16]	; (1f8 <MODEM_154_IRQHandler+0x20>)
     1e6:	b113      	cbz	r3, 1ee <MODEM_154_IRQHandler+0x16>
     1e8:	f007 fbda 	bl	79a0 <__ZIGBEE_MODEM_IRQHandler_veneer>
     1ec:	e7f9      	b.n	1e2 <MODEM_154_IRQHandler+0xa>
     1ee:	f7ff ffd7 	bl	1a0 <ADC_SEQA_IRQHandler>
     1f2:	bf00      	nop
     1f4:	00004875 	.word	0x00004875
     1f8:	03000151 	.word	0x03000151

000001fc <data_init>:
     1fc:	440a      	add	r2, r1
     1fe:	4291      	cmp	r1, r2
     200:	d205      	bcs.n	20e <INT_STORAGE_SECTOR_SIZE+0xe>
     202:	1a40      	subs	r0, r0, r1
     204:	580b      	ldr	r3, [r1, r0]
     206:	f841 3b04 	str.w	r3, [r1], #4
     20a:	428a      	cmp	r2, r1
     20c:	d8fa      	bhi.n	204 <INT_STORAGE_SECTOR_SIZE+0x4>
     20e:	4770      	bx	lr

00000210 <bss_init>:
     210:	1842      	adds	r2, r0, r1
     212:	4290      	cmp	r0, r2
     214:	4603      	mov	r3, r0
     216:	d20b      	bcs.n	230 <bss_init+0x20>
     218:	3901      	subs	r1, #1
     21a:	f021 0103 	bic.w	r1, r1, #3
     21e:	3104      	adds	r1, #4
     220:	3301      	adds	r3, #1
     222:	429a      	cmp	r2, r3
     224:	bf2c      	ite	cs
     226:	460a      	movcs	r2, r1
     228:	2204      	movcc	r2, #4
     22a:	2100      	movs	r1, #0
     22c:	f007 baf4 	b.w	7818 <memset>
     230:	4770      	bx	lr

00000232 <ResetISR2>:
     232:	b538      	push	{r3, r4, r5, lr}
     234:	4b2f      	ldr	r3, [pc, #188]	; (2f4 <HEAP_SIZE>)
     236:	b98b      	cbnz	r3, 25c <ResetISR2+0x2a>
     238:	4c2f      	ldr	r4, [pc, #188]	; (2f8 <HEAP_SIZE+0x4>)
     23a:	4d30      	ldr	r5, [pc, #192]	; (2fc <HEAP_SIZE+0x8>)
     23c:	42ac      	cmp	r4, r5
     23e:	d34a      	bcc.n	2d6 <ResetISR2+0xa4>
     240:	4c2f      	ldr	r4, [pc, #188]	; (300 <HEAP_SIZE+0xc>)
     242:	4d30      	ldr	r5, [pc, #192]	; (304 <HEAP_SIZE+0x10>)
     244:	42ac      	cmp	r4, r5
     246:	d34d      	bcc.n	2e4 <ResetISR2+0xb2>
     248:	4b2f      	ldr	r3, [pc, #188]	; (308 <HEAP_SIZE+0x14>)
     24a:	4a30      	ldr	r2, [pc, #192]	; (30c <HEAP_SIZE+0x18>)
     24c:	601a      	str	r2, [r3, #0]
     24e:	4b30      	ldr	r3, [pc, #192]	; (310 <HEAP_SIZE+0x1c>)
     250:	b10b      	cbz	r3, 256 <ResetISR2+0x24>
     252:	f001 fc31 	bl	1ab8 <SystemInit>
     256:	f001 fbb3 	bl	19c0 <main>
     25a:	e7fe      	b.n	25a <ResetISR2+0x28>
     25c:	4b2d      	ldr	r3, [pc, #180]	; (314 <HEAP_SIZE+0x20>)
     25e:	6f1c      	ldr	r4, [r3, #112]	; 0x70
     260:	f8d3 50b0 	ldr.w	r5, [r3, #176]	; 0xb0
     264:	4b2c      	ldr	r3, [pc, #176]	; (318 <HEAP_SIZE+0x24>)
     266:	f004 047f 	and.w	r4, r4, #127	; 0x7f
     26a:	4798      	blx	r3
     26c:	2c40      	cmp	r4, #64	; 0x40
     26e:	d1e3      	bne.n	238 <ResetISR2+0x6>
     270:	4b2a      	ldr	r3, [pc, #168]	; (31c <HEAP_SIZE+0x28>)
     272:	402b      	ands	r3, r5
     274:	2b04      	cmp	r3, #4
     276:	d1df      	bne.n	238 <ResetISR2+0x6>
     278:	2802      	cmp	r0, #2
     27a:	d1dd      	bne.n	238 <ResetISR2+0x6>
     27c:	f04f 4380 	mov.w	r3, #1073741824	; 0x40000000
     280:	f8d3 3808 	ldr.w	r3, [r3, #2056]	; 0x808
     284:	b113      	cbz	r3, 28c <ResetISR2+0x5a>
     286:	4928      	ldr	r1, [pc, #160]	; (328 <HEAP_SIZE+0x34>)
     288:	6809      	ldr	r1, [r1, #0]
     28a:	468d      	mov	sp, r1
     28c:	4c24      	ldr	r4, [pc, #144]	; (320 <HEAP_SIZE+0x2c>)
     28e:	b994      	cbnz	r4, 2b6 <ResetISR2+0x84>
     290:	4c24      	ldr	r4, [pc, #144]	; (324 <HEAP_SIZE+0x30>)
     292:	b9dc      	cbnz	r4, 2cc <ResetISR2+0x9a>
     294:	4b1c      	ldr	r3, [pc, #112]	; (308 <HEAP_SIZE+0x14>)
     296:	4a1d      	ldr	r2, [pc, #116]	; (30c <HEAP_SIZE+0x18>)
     298:	601a      	str	r2, [r3, #0]
     29a:	4b1d      	ldr	r3, [pc, #116]	; (310 <HEAP_SIZE+0x1c>)
     29c:	b9c3      	cbnz	r3, 2d0 <ResetISR2+0x9e>
     29e:	f003 fcd3 	bl	3c48 <WarmMain>
     2a2:	e7fe      	b.n	2a2 <ResetISR2+0x70>
     2a4:	e9d4 0100 	ldrd	r0, r1, [r4]
     2a8:	68a2      	ldr	r2, [r4, #8]
     2aa:	340c      	adds	r4, #12
     2ac:	f7ff ffa6 	bl	1fc <data_init>
     2b0:	42ac      	cmp	r4, r5
     2b2:	d3f7      	bcc.n	2a4 <ResetISR2+0x72>
     2b4:	e7ec      	b.n	290 <ResetISR2+0x5e>
     2b6:	4d11      	ldr	r5, [pc, #68]	; (2fc <HEAP_SIZE+0x8>)
     2b8:	e7fa      	b.n	2b0 <ResetISR2+0x7e>
     2ba:	f854 0b08 	ldr.w	r0, [r4], #8
     2be:	f854 1c04 	ldr.w	r1, [r4, #-4]
     2c2:	f7ff ffa5 	bl	210 <bss_init>
     2c6:	42ac      	cmp	r4, r5
     2c8:	d3f7      	bcc.n	2ba <ResetISR2+0x88>
     2ca:	e7e3      	b.n	294 <ResetISR2+0x62>
     2cc:	4d0d      	ldr	r5, [pc, #52]	; (304 <HEAP_SIZE+0x10>)
     2ce:	e7fa      	b.n	2c6 <ResetISR2+0x94>
     2d0:	f001 fbf2 	bl	1ab8 <SystemInit>
     2d4:	e7e3      	b.n	29e <ResetISR2+0x6c>
     2d6:	e9d4 0100 	ldrd	r0, r1, [r4]
     2da:	68a2      	ldr	r2, [r4, #8]
     2dc:	340c      	adds	r4, #12
     2de:	f7ff ff8d 	bl	1fc <data_init>
     2e2:	e7ab      	b.n	23c <ResetISR2+0xa>
     2e4:	f854 0b08 	ldr.w	r0, [r4], #8
     2e8:	f854 1c04 	ldr.w	r1, [r4, #-4]
     2ec:	f7ff ff90 	bl	210 <bss_init>
     2f0:	e7a8      	b.n	244 <ResetISR2+0x12>
     2f2:	bf00      	nop
     2f4:	00003c49 	.word	0x00003c49
     2f8:	00000120 	.word	0x00000120
     2fc:	00000144 	.word	0x00000144
     300:	00000150 	.word	0x00000150
     304:	00000168 	.word	0x00000168
     308:	e000ed08 	.word	0xe000ed08
     30c:	00000000 	.word	0x00000000
     310:	00001ab9 	.word	0x00001ab9
     314:	40012000 	.word	0x40012000
     318:	03000e9d 	.word	0x03000e9d
     31c:	00020004 	.word	0x00020004
     320:	00000138 	.word	0x00000138
     324:	00000160 	.word	0x00000160
     328:	40000808 	.word	0x40000808

0000032c <APP_cbTimerShortPress>:
     32c:	4b01      	ldr	r3, [pc, #4]	; (334 <APP_cbTimerShortPress+0x8>)
     32e:	2201      	movs	r2, #1
     330:	701a      	strb	r2, [r3, #0]
     332:	4770      	bx	lr
     334:	04015af0 	.word	0x04015af0

00000338 <APP_cbTimerReceive>:
     338:	4770      	bx	lr
     33a:	Address 0x0000033a is out of bounds.


0000033c <bHandleEventSend>:
     33c:	b538      	push	{r3, r4, r5, lr}
     33e:	780b      	ldrb	r3, [r1, #0]
     340:	2b01      	cmp	r3, #1
     342:	460c      	mov	r4, r1
     344:	d022      	beq.n	38c <bHandleEventSend+0x50>
     346:	2b02      	cmp	r3, #2
     348:	d115      	bne.n	376 <bHandleEventSend+0x3a>
     34a:	7909      	ldrb	r1, [r1, #4]
     34c:	4817      	ldr	r0, [pc, #92]	; (3ac <bHandleEventSend+0x70>)
     34e:	f001 f8a1 	bl	1494 <DbgConsole_Printf>
     352:	68a1      	ldr	r1, [r4, #8]
     354:	4816      	ldr	r0, [pc, #88]	; (3b0 <bHandleEventSend+0x74>)
     356:	f001 f89d 	bl	1494 <DbgConsole_Printf>
     35a:	68a2      	ldr	r2, [r4, #8]
     35c:	4b15      	ldr	r3, [pc, #84]	; (3b4 <bHandleEventSend+0x78>)
     35e:	7925      	ldrb	r5, [r4, #4]
     360:	4815      	ldr	r0, [pc, #84]	; (3b8 <bHandleEventSend+0x7c>)
     362:	4013      	ands	r3, r2
     364:	2b00      	cmp	r3, #0
     366:	bf08      	it	eq
     368:	2505      	moveq	r5, #5
     36a:	4629      	mov	r1, r5
     36c:	f001 f892 	bl	1494 <DbgConsole_Printf>
     370:	4628      	mov	r0, r5
     372:	f000 fec1 	bl	10f8 <vHandleButtonPress>
     376:	4c11      	ldr	r4, [pc, #68]	; (3bc <bHandleEventSend+0x80>)
     378:	7820      	ldrb	r0, [r4, #0]
     37a:	f001 fa55 	bl	1828 <ZTIMER_eStop>
     37e:	7820      	ldrb	r0, [r4, #0]
     380:	f640 31b8 	movw	r1, #3000	; 0xbb8
     384:	f001 fa28 	bl	17d8 <ZTIMER_eStart>
     388:	2000      	movs	r0, #0
     38a:	bd38      	pop	{r3, r4, r5, pc}
     38c:	7909      	ldrb	r1, [r1, #4]
     38e:	480c      	ldr	r0, [pc, #48]	; (3c0 <bHandleEventSend+0x84>)
     390:	f001 f880 	bl	1494 <DbgConsole_Printf>
     394:	68a1      	ldr	r1, [r4, #8]
     396:	4806      	ldr	r0, [pc, #24]	; (3b0 <bHandleEventSend+0x74>)
     398:	f001 f87c 	bl	1494 <DbgConsole_Printf>
     39c:	7923      	ldrb	r3, [r4, #4]
     39e:	2b04      	cmp	r3, #4
     3a0:	bf96      	itet	ls
     3a2:	4a08      	ldrls	r2, [pc, #32]	; (3c4 <bHandleEventSend+0x88>)
     3a4:	2010      	movhi	r0, #16
     3a6:	5cd0      	ldrbls	r0, [r2, r3]
     3a8:	e7e3      	b.n	372 <bHandleEventSend+0x36>
     3aa:	bf00      	nop
     3ac:	000079b0 	.word	0x000079b0
     3b0:	000079c9 	.word	0x000079c9
     3b4:	00080080 	.word	0x00080080
     3b8:	000079df 	.word	0x000079df
     3bc:	04015bc2 	.word	0x04015bc2
     3c0:	000079f6 	.word	0x000079f6
     3c4:	00007a0d 	.word	0x00007a0d

000003c8 <APP_vInitResources>:
     3c8:	b510      	push	{r4, lr}
     3ca:	2103      	movs	r1, #3
     3cc:	480b      	ldr	r0, [pc, #44]	; (3fc <APP_vInitResources+0x34>)
     3ce:	f001 f98d 	bl	16ec <ZTIMER_eInit>
     3d2:	490b      	ldr	r1, [pc, #44]	; (400 <BOOT_RESUME_STACK_SIZE>)
     3d4:	480b      	ldr	r0, [pc, #44]	; (404 <BOOT_RESUME_STACK_SIZE+0x4>)
     3d6:	2301      	movs	r3, #1
     3d8:	2200      	movs	r2, #0
     3da:	f001 f9e1 	bl	17a0 <ZTIMER_eOpen>
     3de:	490a      	ldr	r1, [pc, #40]	; (408 <BOOT_RESUME_STACK_SIZE+0x8>)
     3e0:	480a      	ldr	r0, [pc, #40]	; (40c <BOOT_RESUME_STACK_SIZE+0xc>)
     3e2:	2301      	movs	r3, #1
     3e4:	2200      	movs	r2, #0
     3e6:	f001 f9db 	bl	17a0 <ZTIMER_eOpen>
     3ea:	e8bd 4010 	ldmia.w	sp!, {r4, lr}
     3ee:	4908      	ldr	r1, [pc, #32]	; (410 <BOOT_RESUME_STACK_SIZE+0x10>)
     3f0:	4808      	ldr	r0, [pc, #32]	; (414 <BOOT_RESUME_STACK_SIZE+0x14>)
     3f2:	2301      	movs	r3, #1
     3f4:	2200      	movs	r2, #0
     3f6:	f001 b9d3 	b.w	17a0 <ZTIMER_eOpen>
     3fa:	bf00      	nop
     3fc:	04015b90 	.word	0x04015b90
     400:	000011ed 	.word	0x000011ed
     404:	04015bc0 	.word	0x04015bc0
     408:	00000339 	.word	0x00000339
     40c:	04015bc1 	.word	0x04015bc1
     410:	0000032d 	.word	0x0000032d
     414:	04015bc2 	.word	0x04015bc2

00000418 <vInterruptFired>:
     418:	07c2      	lsls	r2, r0, #31
     41a:	d503      	bpl.n	424 <vInterruptFired+0xc>
     41c:	4b03      	ldr	r3, [pc, #12]	; (42c <vInterruptFired+0x14>)
     41e:	2201      	movs	r2, #1
     420:	701a      	strb	r2, [r3, #0]
     422:	4770      	bx	lr
     424:	0743      	lsls	r3, r0, #29
     426:	d5fc      	bpl.n	422 <vInterruptFired+0xa>
     428:	4b01      	ldr	r3, [pc, #4]	; (430 <vInterruptFired+0x18>)
     42a:	e7f8      	b.n	41e <vInterruptFired+0x6>
     42c:	04015bc5 	.word	0x04015bc5
     430:	04015bc4 	.word	0x04015bc4

00000434 <vSendMACFrame>:
     434:	e92d 41f0 	stmdb	sp!, {r4, r5, r6, r7, r8, lr}
     438:	b118      	cbz	r0, 442 <vSendMACFrame+0xe>
     43a:	4914      	ldr	r1, [pc, #80]	; (48c <vSendMACFrame+0x58>)
     43c:	2020      	movs	r0, #32
     43e:	f000 fe17 	bl	1070 <bAPP_NVMWriteBlock>
     442:	4c12      	ldr	r4, [pc, #72]	; (48c <vSendMACFrame+0x58>)
     444:	4e12      	ldr	r6, [pc, #72]	; (490 <vSendMACFrame+0x5c>)
     446:	7860      	ldrb	r0, [r4, #1]
     448:	f8df 804c 	ldr.w	r8, [pc, #76]	; 498 <vSendMACFrame+0x64>
     44c:	217f      	movs	r1, #127	; 0x7f
     44e:	f004 f99d 	bl	478c <vMMAC_SetChannelAndPower>
     452:	2500      	movs	r5, #0
     454:	4637      	mov	r7, r6
     456:	7861      	ldrb	r1, [r4, #1]
     458:	4640      	mov	r0, r8
     45a:	f001 f81b 	bl	1494 <DbgConsole_Printf>
     45e:	2300      	movs	r3, #0
     460:	480c      	ldr	r0, [pc, #48]	; (494 <vSendMACFrame+0x60>)
     462:	7033      	strb	r3, [r6, #0]
     464:	2102      	movs	r1, #2
     466:	f004 f97b 	bl	4760 <vMMAC_StartMacTransmit>
     46a:	783b      	ldrb	r3, [r7, #0]
     46c:	2b01      	cmp	r3, #1
     46e:	d106      	bne.n	47e <vSendMACFrame+0x4a>
     470:	7962      	ldrb	r2, [r4, #5]
     472:	3501      	adds	r5, #1
     474:	b2eb      	uxtb	r3, r5
     476:	429a      	cmp	r2, r3
     478:	d8ed      	bhi.n	456 <vSendMACFrame+0x22>
     47a:	e8bd 81f0 	ldmia.w	sp!, {r4, r5, r6, r7, r8, pc}
     47e:	f3bf 8f4f 	dsb	sy
     482:	bf30      	wfi
     484:	f3bf 8f6f 	isb	sy
     488:	e7ef      	b.n	46a <vSendMACFrame+0x36>
     48a:	bf00      	nop
     48c:	04015bcc 	.word	0x04015bcc
     490:	04015bc5 	.word	0x04015bc5
     494:	040159b4 	.word	0x040159b4
     498:	00007a12 	.word	0x00007a12

0000049c <vEnableRxAndReceive>:
     49c:	b538      	push	{r3, r4, r5, lr}
     49e:	4c11      	ldr	r4, [pc, #68]	; (4e4 <vEnableRxAndReceive+0x48>)
     4a0:	2300      	movs	r3, #0
     4a2:	7023      	strb	r3, [r4, #0]
     4a4:	f004 f936 	bl	4714 <vMMAC_RadioToOffAndWait>
     4a8:	480f      	ldr	r0, [pc, #60]	; (4e8 <vEnableRxAndReceive+0x4c>)
     4aa:	2102      	movs	r1, #2
     4ac:	f004 f992 	bl	47d4 <vMMAC_StartMacReceive>
     4b0:	f001 fa66 	bl	1980 <OSA_TimeGetMsec>
     4b4:	4605      	mov	r5, r0
     4b6:	7823      	ldrb	r3, [r4, #0]
     4b8:	b923      	cbnz	r3, 4c4 <vEnableRxAndReceive+0x28>
     4ba:	f001 fa61 	bl	1980 <OSA_TimeGetMsec>
     4be:	1b43      	subs	r3, r0, r5
     4c0:	2bf9      	cmp	r3, #249	; 0xf9
     4c2:	d9f8      	bls.n	4b6 <vEnableRxAndReceive+0x1a>
     4c4:	7823      	ldrb	r3, [r4, #0]
     4c6:	b143      	cbz	r3, 4da <vEnableRxAndReceive+0x3e>
     4c8:	4808      	ldr	r0, [pc, #32]	; (4ec <vEnableRxAndReceive+0x50>)
     4ca:	f000 ffe3 	bl	1494 <DbgConsole_Printf>
     4ce:	f000 f97f 	bl	7d0 <vHandleRxMacFrame>
     4d2:	e8bd 4038 	ldmia.w	sp!, {r3, r4, r5, lr}
     4d6:	f004 b919 	b.w	470c <vMMAC_RadioOff>
     4da:	4805      	ldr	r0, [pc, #20]	; (4f0 <vEnableRxAndReceive+0x54>)
     4dc:	f000 ffda 	bl	1494 <DbgConsole_Printf>
     4e0:	e7f7      	b.n	4d2 <vEnableRxAndReceive+0x36>
     4e2:	bf00      	nop
     4e4:	04015bc4 	.word	0x04015bc4
     4e8:	04015a50 	.word	0x04015a50
     4ec:	00007a32 	.word	0x00007a32
     4f0:	00007a55 	.word	0x00007a55

000004f4 <vAppMain>:
     4f4:	b510      	push	{r4, lr}
     4f6:	f002 fc29 	bl	2d4c <vDebugExceptionHandlersInitialise>
     4fa:	f7ff ff65 	bl	3c8 <APP_vInitResources>
     4fe:	f000 feef 	bl	12e0 <bButtonInitialize>
     502:	4604      	mov	r4, r0
     504:	2028      	movs	r0, #40	; 0x28
     506:	f006 f95b 	bl	67c0 <vRadio_Temp_Update>
     50a:	f004 f81b 	bl	4544 <vMMAC_Enable>
     50e:	f004 f9cb 	bl	48a8 <vMMAC_ConfigureRadio>
     512:	4805      	ldr	r0, [pc, #20]	; (528 <vAppMain+0x34>)
     514:	f004 f84a 	bl	45ac <vMMAC_EnableInterrupts>
     518:	b124      	cbz	r4, 524 <vAppMain+0x30>
     51a:	e8bd 4010 	ldmia.w	sp!, {r4, lr}
     51e:	2001      	movs	r0, #1
     520:	f000 b878 	b.w	614 <vClearPersistentData>
     524:	bd10      	pop	{r4, pc}
     526:	bf00      	nop
     528:	00000419 	.word	0x00000419

0000052c <APP_vSetUpHardware>:
     52c:	b538      	push	{r3, r4, r5, lr}
     52e:	4b11      	ldr	r3, [pc, #68]	; (574 <APP_vSetUpHardware+0x48>)
     530:	4a11      	ldr	r2, [pc, #68]	; (578 <APP_vSetUpHardware+0x4c>)
     532:	601a      	str	r2, [r3, #0]
     534:	f240 1209 	movw	r2, #265	; 0x109
     538:	4d10      	ldr	r5, [pc, #64]	; (57c <APP_vSetUpHardware+0x50>)
     53a:	4c11      	ldr	r4, [pc, #68]	; (580 <APP_vSetUpHardware+0x54>)
     53c:	605a      	str	r2, [r3, #4]
     53e:	f001 f89d 	bl	167c <BOARD_InitHardware>
     542:	2200      	movs	r2, #0
     544:	462b      	mov	r3, r5
     546:	4611      	mov	r1, r2
     548:	4620      	mov	r0, r4
     54a:	f000 ffc3 	bl	14d4 <GPIO_PinInit>
     54e:	2200      	movs	r2, #0
     550:	4611      	mov	r1, r2
     552:	4620      	mov	r0, r4
     554:	462b      	mov	r3, r5
     556:	f000 ffbd 	bl	14d4 <GPIO_PinInit>
     55a:	f04f 4380 	mov.w	r3, #1073741824	; 0x40000000
     55e:	2203      	movs	r2, #3
     560:	f8c3 2280 	str.w	r2, [r3, #640]	; 0x280
     564:	f001 fa58 	bl	1a18 <SystemCoreClockUpdate>
     568:	f001 f9f2 	bl	1950 <OSA_TimeInit>
     56c:	e8bd 4038 	ldmia.w	sp!, {r3, r4, r5, lr}
     570:	f000 beb6 	b.w	12e0 <bButtonInitialize>
     574:	40001000 	.word	0x40001000
     578:	e000f733 	.word	0xe000f733
     57c:	04015af1 	.word	0x04015af1
     580:	40080000 	.word	0x40080000

00000584 <main_task>:
     584:	b510      	push	{r4, lr}
     586:	4b09      	ldr	r3, [pc, #36]	; (5ac <main_task+0x28>)
     588:	781a      	ldrb	r2, [r3, #0]
     58a:	b91a      	cbnz	r2, 594 <main_task+0x10>
     58c:	2201      	movs	r2, #1
     58e:	701a      	strb	r2, [r3, #0]
     590:	f7ff ffb0 	bl	4f4 <vAppMain>
     594:	4c06      	ldr	r4, [pc, #24]	; (5b0 <main_task+0x2c>)
     596:	f001 f8bb 	bl	1710 <ZTIMER_vTask>
     59a:	f3bf 8f4f 	dsb	sy
     59e:	bf30      	wfi
     5a0:	f3bf 8f6f 	isb	sy
     5a4:	7823      	ldrb	r3, [r4, #0]
     5a6:	2b00      	cmp	r3, #0
     5a8:	d1f5      	bne.n	596 <main_task+0x12>
     5aa:	bd10      	pop	{r4, pc}
     5ac:	04015bc6 	.word	0x04015bc6
     5b0:	000082a6 	.word	0x000082a6

000005b4 <hardware_init>:
     5b4:	b510      	push	{r4, lr}
     5b6:	4c04      	ldr	r4, [pc, #16]	; (5c8 <hardware_init+0x14>)
     5b8:	7823      	ldrb	r3, [r4, #0]
     5ba:	b91b      	cbnz	r3, 5c4 <hardware_init+0x10>
     5bc:	f7ff ffb6 	bl	52c <APP_vSetUpHardware>
     5c0:	2301      	movs	r3, #1
     5c2:	7023      	strb	r3, [r4, #0]
     5c4:	bd10      	pop	{r4, pc}
     5c6:	bf00      	nop
     5c8:	04015bc3 	.word	0x04015bc3

000005cc <vSendDecommissioingCmd>:
     5cc:	2200      	movs	r2, #0
     5ce:	b510      	push	{r4, lr}
     5d0:	4610      	mov	r0, r2
     5d2:	2101      	movs	r1, #1
     5d4:	f000 fa98 	bl	b08 <GPD_ConstructMACAndNetworkHeader>
     5d8:	4b0b      	ldr	r3, [pc, #44]	; (608 <vSendDecommissioingCmd+0x3c>)
     5da:	4c0c      	ldr	r4, [pc, #48]	; (60c <vSendDecommissioingCmd+0x40>)
     5dc:	7818      	ldrb	r0, [r3, #0]
     5de:	181a      	adds	r2, r3, r0
     5e0:	21e1      	movs	r1, #225	; 0xe1
     5e2:	7711      	strb	r1, [r2, #28]
     5e4:	1c42      	adds	r2, r0, #1
     5e6:	701a      	strb	r2, [r3, #0]
     5e8:	69a2      	ldr	r2, [r4, #24]
     5ea:	2101      	movs	r1, #1
     5ec:	3a01      	subs	r2, #1
     5ee:	f000 faf7 	bl	be0 <bGPD_SecureFrame>
     5f2:	2300      	movs	r3, #0
     5f4:	4806      	ldr	r0, [pc, #24]	; (610 <vSendDecommissioingCmd+0x44>)
     5f6:	7023      	strb	r3, [r4, #0]
     5f8:	7723      	strb	r3, [r4, #28]
     5fa:	f000 ff4b 	bl	1494 <DbgConsole_Printf>
     5fe:	e8bd 4010 	ldmia.w	sp!, {r4, lr}
     602:	2001      	movs	r0, #1
     604:	f7ff bf16 	b.w	434 <vSendMACFrame>
     608:	040159b4 	.word	0x040159b4
     60c:	04015bcc 	.word	0x04015bcc
     610:	00007a73 	.word	0x00007a73

00000614 <vClearPersistentData>:
     614:	b5f0      	push	{r4, r5, r6, r7, lr}
     616:	4b14      	ldr	r3, [pc, #80]	; (668 <vClearPersistentData+0x54>)
     618:	b085      	sub	sp, #20
     61a:	466a      	mov	r2, sp
     61c:	4605      	mov	r5, r0
     61e:	f103 0710 	add.w	r7, r3, #16
     622:	4616      	mov	r6, r2
     624:	6818      	ldr	r0, [r3, #0]
     626:	6859      	ldr	r1, [r3, #4]
     628:	4614      	mov	r4, r2
     62a:	c403      	stmia	r4!, {r0, r1}
     62c:	3308      	adds	r3, #8
     62e:	42bb      	cmp	r3, r7
     630:	4622      	mov	r2, r4
     632:	d1f7      	bne.n	624 <vClearPersistentData+0x10>
     634:	480d      	ldr	r0, [pc, #52]	; (66c <vClearPersistentData+0x58>)
     636:	4c0e      	ldr	r4, [pc, #56]	; (670 <vClearPersistentData+0x5c>)
     638:	f000 ff2c 	bl	1494 <DbgConsole_Printf>
     63c:	4b0d      	ldr	r3, [pc, #52]	; (674 <vClearPersistentData+0x60>)
     63e:	4a0e      	ldr	r2, [pc, #56]	; (678 <vClearPersistentData+0x64>)
     640:	4631      	mov	r1, r6
     642:	e9c4 2300 	strd	r2, r3, [r4]
     646:	f104 0008 	add.w	r0, r4, #8
     64a:	2210      	movs	r2, #16
     64c:	f007 f84a 	bl	76e4 <memcpy>
     650:	2301      	movs	r3, #1
     652:	61a3      	str	r3, [r4, #24]
     654:	f44f 4328 	mov.w	r3, #43008	; 0xa800
     658:	83a3      	strh	r3, [r4, #28]
     65a:	b11d      	cbz	r5, 664 <vClearPersistentData+0x50>
     65c:	4621      	mov	r1, r4
     65e:	2020      	movs	r0, #32
     660:	f000 fd06 	bl	1070 <bAPP_NVMWriteBlock>
     664:	b005      	add	sp, #20
     666:	bdf0      	pop	{r4, r5, r6, r7, pc}
     668:	00007abf 	.word	0x00007abf
     66c:	00007aa5 	.word	0x00007aa5
     670:	04015bcc 	.word	0x04015bcc
     674:	04000300 	.word	0x04000300
     678:	ffff0b00 	.word	0xffff0b00

0000067c <vLoadPersistentData>:
     67c:	b510      	push	{r4, lr}
     67e:	4c09      	ldr	r4, [pc, #36]	; (6a4 <vLoadPersistentData+0x28>)
     680:	2020      	movs	r0, #32
     682:	4621      	mov	r1, r4
     684:	f000 fc8a 	bl	f9c <bAPP_ReadBlock>
     688:	b150      	cbz	r0, 6a0 <vLoadPersistentData+0x24>
     68a:	7f61      	ldrb	r1, [r4, #29]
     68c:	29a8      	cmp	r1, #168	; 0xa8
     68e:	d007      	beq.n	6a0 <vLoadPersistentData+0x24>
     690:	4805      	ldr	r0, [pc, #20]	; (6a8 <vLoadPersistentData+0x2c>)
     692:	f000 feff 	bl	1494 <DbgConsole_Printf>
     696:	e8bd 4010 	ldmia.w	sp!, {r4, lr}
     69a:	2000      	movs	r0, #0
     69c:	f7ff bfba 	b.w	614 <vClearPersistentData>
     6a0:	bd10      	pop	{r4, pc}
     6a2:	bf00      	nop
     6a4:	04015bcc 	.word	0x04015bcc
     6a8:	00007ad0 	.word	0x00007ad0

000006ac <vHandleOperationalState>:
     6ac:	b538      	push	{r3, r4, r5, lr}
     6ae:	4604      	mov	r4, r0
     6b0:	4808      	ldr	r0, [pc, #32]	; (6d4 <vHandleOperationalState+0x28>)
     6b2:	4d09      	ldr	r5, [pc, #36]	; (6d8 <vHandleOperationalState+0x2c>)
     6b4:	f000 feee 	bl	1494 <DbgConsole_Printf>
     6b8:	b12c      	cbz	r4, 6c6 <vHandleOperationalState+0x1a>
     6ba:	4620      	mov	r0, r4
     6bc:	f000 fc1a 	bl	ef4 <GPD_SendSpecificCommand>
     6c0:	2300      	movs	r3, #0
     6c2:	706b      	strb	r3, [r5, #1]
     6c4:	bd38      	pop	{r3, r4, r5, pc}
     6c6:	786b      	ldrb	r3, [r5, #1]
     6c8:	3301      	adds	r3, #1
     6ca:	706b      	strb	r3, [r5, #1]
     6cc:	e8bd 4038 	ldmia.w	sp!, {r3, r4, r5, lr}
     6d0:	f000 bc3e 	b.w	f50 <GPD_SendOperationalCommand>
     6d4:	00007afe 	.word	0x00007afe
     6d8:	04015bc7 	.word	0x04015bc7

000006dc <bEncryptDecyptKey>:
     6dc:	e92d 43f0 	stmdb	sp!, {r4, r5, r6, r7, r8, r9, lr}
     6e0:	b097      	sub	sp, #92	; 0x5c
     6e2:	2301      	movs	r3, #1
     6e4:	f88d 301b 	strb.w	r3, [sp, #27]
     6e8:	4b34      	ldr	r3, [pc, #208]	; (7bc <bEncryptDecyptKey+0xe0>)
     6ea:	aa0a      	add	r2, sp, #40	; 0x28
     6ec:	4605      	mov	r5, r0
     6ee:	460e      	mov	r6, r1
     6f0:	f103 0c10 	add.w	ip, r3, #16
     6f4:	4617      	mov	r7, r2
     6f6:	6818      	ldr	r0, [r3, #0]
     6f8:	6859      	ldr	r1, [r3, #4]
     6fa:	4614      	mov	r4, r2
     6fc:	c403      	stmia	r4!, {r0, r1}
     6fe:	3308      	adds	r3, #8
     700:	4563      	cmp	r3, ip
     702:	4622      	mov	r2, r4
     704:	d1f7      	bne.n	6f6 <bEncryptDecyptKey+0x1a>
     706:	4b2e      	ldr	r3, [pc, #184]	; (7c0 <bEncryptDecyptKey+0xe4>)
     708:	482e      	ldr	r0, [pc, #184]	; (7c4 <bEncryptDecyptKey+0xe8>)
     70a:	9308      	str	r3, [sp, #32]
     70c:	f10d 0848 	add.w	r8, sp, #72	; 0x48
     710:	f000 fec0 	bl	1494 <DbgConsole_Printf>
     714:	2210      	movs	r2, #16
     716:	2100      	movs	r1, #0
     718:	4640      	mov	r0, r8
     71a:	f007 f87d 	bl	7818 <memset>
     71e:	2204      	movs	r2, #4
     720:	a908      	add	r1, sp, #32
     722:	bb45      	cbnz	r5, 776 <bEncryptDecyptKey+0x9a>
     724:	f10d 004d 	add.w	r0, sp, #77	; 0x4d
     728:	f006 ffdc 	bl	76e4 <memcpy>
     72c:	4b26      	ldr	r3, [pc, #152]	; (7c8 <bEncryptDecyptKey+0xec>)
     72e:	699b      	ldr	r3, [r3, #24]
     730:	3b01      	subs	r3, #1
     732:	9307      	str	r3, [sp, #28]
     734:	2204      	movs	r2, #4
     736:	a907      	add	r1, sp, #28
     738:	f10d 0051 	add.w	r0, sp, #81	; 0x51
     73c:	f10d 0924 	add.w	r9, sp, #36	; 0x24
     740:	f006 ffd0 	bl	76e4 <memcpy>
     744:	2305      	movs	r3, #5
     746:	2204      	movs	r2, #4
     748:	a908      	add	r1, sp, #32
     74a:	4648      	mov	r0, r9
     74c:	f88d 3055 	strb.w	r3, [sp, #85]	; 0x55
     750:	f006 ffc8 	bl	76e4 <memcpy>
     754:	2210      	movs	r2, #16
     756:	4639      	mov	r1, r7
     758:	a80e      	add	r0, sp, #56	; 0x38
     75a:	f006 ffc3 	bl	76e4 <memcpy>
     75e:	a80e      	add	r0, sp, #56	; 0x38
     760:	f003 f84c 	bl	37fc <bACI_WriteKey>
     764:	4604      	mov	r4, r0
     766:	b998      	cbnz	r0, 790 <bEncryptDecyptKey+0xb4>
     768:	4818      	ldr	r0, [pc, #96]	; (7cc <bEncryptDecyptKey+0xf0>)
     76a:	f000 fe93 	bl	1494 <DbgConsole_Printf>
     76e:	4620      	mov	r0, r4
     770:	b017      	add	sp, #92	; 0x5c
     772:	e8bd 83f0 	ldmia.w	sp!, {r4, r5, r6, r7, r8, r9, pc}
     776:	f10d 0049 	add.w	r0, sp, #73	; 0x49
     77a:	f006 ffb3 	bl	76e4 <memcpy>
     77e:	2204      	movs	r2, #4
     780:	a908      	add	r1, sp, #32
     782:	f10d 004d 	add.w	r0, sp, #77	; 0x4d
     786:	f006 ffad 	bl	76e4 <memcpy>
     78a:	2204      	movs	r2, #4
     78c:	a908      	add	r1, sp, #32
     78e:	e7d3      	b.n	738 <bEncryptDecyptKey+0x5c>
     790:	f10d 031b 	add.w	r3, sp, #27
     794:	9304      	str	r3, [sp, #16]
     796:	2204      	movs	r2, #4
     798:	f106 0310 	add.w	r3, r6, #16
     79c:	e9cd 6302 	strd	r6, r3, [sp, #8]
     7a0:	4628      	mov	r0, r5
     7a2:	e9cd 8900 	strd	r8, r9, [sp]
     7a6:	2310      	movs	r3, #16
     7a8:	4611      	mov	r1, r2
     7aa:	f003 f831 	bl	3810 <vACI_OptimisedCcmStar>
     7ae:	f89d 001b 	ldrb.w	r0, [sp, #27]
     7b2:	3800      	subs	r0, #0
     7b4:	bf18      	it	ne
     7b6:	2001      	movne	r0, #1
     7b8:	e7da      	b.n	770 <bEncryptDecyptKey+0x94>
     7ba:	bf00      	nop
     7bc:	00007b50 	.word	0x00007b50
     7c0:	87654321 	.word	0x87654321
     7c4:	00007b1f 	.word	0x00007b1f
     7c8:	04015bcc 	.word	0x04015bcc
     7cc:	00007b36 	.word	0x00007b36

000007d0 <vHandleRxMacFrame>:
     7d0:	b57f      	push	{r0, r1, r2, r3, r4, r5, r6, lr}
     7d2:	2000      	movs	r0, #0
     7d4:	a901      	add	r1, sp, #4
     7d6:	f000 fb09 	bl	dec <bGPD_ParseMACFrame>
     7da:	2800      	cmp	r0, #0
     7dc:	d07a      	beq.n	8d4 <vHandleRxMacFrame+0x104>
     7de:	f89d 1004 	ldrb.w	r1, [sp, #4]
     7e2:	29f0      	cmp	r1, #240	; 0xf0
     7e4:	d006      	beq.n	7f4 <vHandleRxMacFrame+0x24>
     7e6:	29f3      	cmp	r1, #243	; 0xf3
     7e8:	d05b      	beq.n	8a2 <vHandleRxMacFrame+0xd2>
     7ea:	483c      	ldr	r0, [pc, #240]	; (8dc <vHandleRxMacFrame+0x10c>)
     7ec:	f000 fe52 	bl	1494 <DbgConsole_Printf>
     7f0:	b004      	add	sp, #16
     7f2:	bd70      	pop	{r4, r5, r6, pc}
     7f4:	483a      	ldr	r0, [pc, #232]	; (8e0 <vHandleRxMacFrame+0x110>)
     7f6:	f000 fe4d 	bl	1494 <DbgConsole_Printf>
     7fa:	f89d 3005 	ldrb.w	r3, [sp, #5]
     7fe:	2b00      	cmp	r3, #0
     800:	d0f6      	beq.n	7f0 <vHandleRxMacFrame+0x20>
     802:	4c38      	ldr	r4, [pc, #224]	; (8e4 <vHandleRxMacFrame+0x114>)
     804:	9902      	ldr	r1, [sp, #8]
     806:	7823      	ldrb	r3, [r4, #0]
     808:	2503      	movs	r5, #3
     80a:	f043 0304 	orr.w	r3, r3, #4
     80e:	7023      	strb	r3, [r4, #0]
     810:	7165      	strb	r5, [r4, #5]
     812:	780b      	ldrb	r3, [r1, #0]
     814:	07d8      	lsls	r0, r3, #31
     816:	d52f      	bpl.n	878 <vHandleRxMacFrame+0xa8>
     818:	2202      	movs	r2, #2
     81a:	3101      	adds	r1, #1
     81c:	18a0      	adds	r0, r4, r2
     81e:	f006 ff61 	bl	76e4 <memcpy>
     822:	8861      	ldrh	r1, [r4, #2]
     824:	4830      	ldr	r0, [pc, #192]	; (8e8 <vHandleRxMacFrame+0x118>)
     826:	f000 fe35 	bl	1494 <DbgConsole_Printf>
     82a:	9b02      	ldr	r3, [sp, #8]
     82c:	781a      	ldrb	r2, [r3, #0]
     82e:	0791      	lsls	r1, r2, #30
     830:	d532      	bpl.n	898 <vHandleRxMacFrame+0xc8>
     832:	0752      	lsls	r2, r2, #29
     834:	eb03 0105 	add.w	r1, r3, r5
     838:	d520      	bpl.n	87c <vHandleRxMacFrame+0xac>
     83a:	2000      	movs	r0, #0
     83c:	f7ff ff4e 	bl	6dc <bEncryptDecyptKey>
     840:	4606      	mov	r6, r0
     842:	4601      	mov	r1, r0
     844:	4829      	ldr	r0, [pc, #164]	; (8ec <vHandleRxMacFrame+0x11c>)
     846:	f000 fe25 	bl	1494 <DbgConsole_Printf>
     84a:	b186      	cbz	r6, 86e <vHandleRxMacFrame+0x9e>
     84c:	7823      	ldrb	r3, [r4, #0]
     84e:	9902      	ldr	r1, [sp, #8]
     850:	4827      	ldr	r0, [pc, #156]	; (8f0 <vHandleRxMacFrame+0x120>)
     852:	f043 0308 	orr.w	r3, r3, #8
     856:	7023      	strb	r3, [r4, #0]
     858:	780b      	ldrb	r3, [r1, #0]
     85a:	2210      	movs	r2, #16
     85c:	095b      	lsrs	r3, r3, #5
     85e:	4429      	add	r1, r5
     860:	71e3      	strb	r3, [r4, #7]
     862:	f006 ff3f 	bl	76e4 <memcpy>
     866:	79e1      	ldrb	r1, [r4, #7]
     868:	4822      	ldr	r0, [pc, #136]	; (8f4 <vHandleRxMacFrame+0x124>)
     86a:	f000 fe13 	bl	1494 <DbgConsole_Printf>
     86e:	491d      	ldr	r1, [pc, #116]	; (8e4 <vHandleRxMacFrame+0x114>)
     870:	2020      	movs	r0, #32
     872:	f000 fbfd 	bl	1070 <bAPP_NVMWriteBlock>
     876:	e7bb      	b.n	7f0 <vHandleRxMacFrame+0x20>
     878:	2501      	movs	r5, #1
     87a:	e7d6      	b.n	82a <vHandleRxMacFrame+0x5a>
     87c:	7822      	ldrb	r2, [r4, #0]
     87e:	481c      	ldr	r0, [pc, #112]	; (8f0 <vHandleRxMacFrame+0x120>)
     880:	f042 0208 	orr.w	r2, r2, #8
     884:	7022      	strb	r2, [r4, #0]
     886:	781b      	ldrb	r3, [r3, #0]
     888:	2210      	movs	r2, #16
     88a:	095b      	lsrs	r3, r3, #5
     88c:	71e3      	strb	r3, [r4, #7]
     88e:	f006 ff29 	bl	76e4 <memcpy>
     892:	79e1      	ldrb	r1, [r4, #7]
     894:	4818      	ldr	r0, [pc, #96]	; (8f8 <vHandleRxMacFrame+0x128>)
     896:	e7e8      	b.n	86a <vHandleRxMacFrame+0x9a>
     898:	7823      	ldrb	r3, [r4, #0]
     89a:	f043 0308 	orr.w	r3, r3, #8
     89e:	7023      	strb	r3, [r4, #0]
     8a0:	e7e5      	b.n	86e <vHandleRxMacFrame+0x9e>
     8a2:	f89d 3005 	ldrb.w	r3, [sp, #5]
     8a6:	2b00      	cmp	r3, #0
     8a8:	d0a2      	beq.n	7f0 <vHandleRxMacFrame+0x20>
     8aa:	9b02      	ldr	r3, [sp, #8]
     8ac:	4d0d      	ldr	r5, [pc, #52]	; (8e4 <vHandleRxMacFrame+0x114>)
     8ae:	781b      	ldrb	r3, [r3, #0]
     8b0:	7869      	ldrb	r1, [r5, #1]
     8b2:	4812      	ldr	r0, [pc, #72]	; (8fc <vHandleRxMacFrame+0x12c>)
     8b4:	f003 040f 	and.w	r4, r3, #15
     8b8:	4622      	mov	r2, r4
     8ba:	f000 fdeb 	bl	1494 <DbgConsole_Printf>
     8be:	782b      	ldrb	r3, [r5, #0]
     8c0:	480f      	ldr	r0, [pc, #60]	; (900 <vHandleRxMacFrame+0x130>)
     8c2:	f043 0302 	orr.w	r3, r3, #2
     8c6:	702b      	strb	r3, [r5, #0]
     8c8:	f104 010b 	add.w	r1, r4, #11
     8cc:	2303      	movs	r3, #3
     8ce:	7069      	strb	r1, [r5, #1]
     8d0:	716b      	strb	r3, [r5, #5]
     8d2:	e7ca      	b.n	86a <vHandleRxMacFrame+0x9a>
     8d4:	480b      	ldr	r0, [pc, #44]	; (904 <vHandleRxMacFrame+0x134>)
     8d6:	f000 fddd 	bl	1494 <DbgConsole_Printf>
     8da:	e789      	b.n	7f0 <vHandleRxMacFrame+0x20>
     8dc:	00007c8e 	.word	0x00007c8e
     8e0:	00007b61 	.word	0x00007b61
     8e4:	04015bcc 	.word	0x04015bcc
     8e8:	00007b8c 	.word	0x00007b8c
     8ec:	00007bb3 	.word	0x00007bb3
     8f0:	04015bd4 	.word	0x04015bd4
     8f4:	00007bcb 	.word	0x00007bcb
     8f8:	00007bed 	.word	0x00007bed
     8fc:	00007c1d 	.word	0x00007c1d
     900:	00007c71 	.word	0x00007c71
     904:	00007cbb 	.word	0x00007cbb

00000908 <vSendChannelRequestCmd>:
     908:	b5f8      	push	{r3, r4, r5, r6, r7, lr}
     90a:	4c22      	ldr	r4, [pc, #136]	; (994 <vSendChannelRequestCmd+0x8c>)
     90c:	79a6      	ldrb	r6, [r4, #6]
     90e:	f000 f94b 	bl	ba8 <GPD_ConstructMaintenaceFrame>
     912:	4a21      	ldr	r2, [pc, #132]	; (998 <vSendChannelRequestCmd+0x90>)
     914:	7811      	ldrb	r1, [r2, #0]
     916:	1c4b      	adds	r3, r1, #1
     918:	b2d8      	uxtb	r0, r3
     91a:	1853      	adds	r3, r2, r1
     91c:	27e3      	movs	r7, #227	; 0xe3
     91e:	1c75      	adds	r5, r6, #1
     920:	771f      	strb	r7, [r3, #28]
     922:	2e0e      	cmp	r6, #14
     924:	f04f 0301 	mov.w	r3, #1
     928:	b2ed      	uxtb	r5, r5
     92a:	7163      	strb	r3, [r4, #5]
     92c:	d930      	bls.n	990 <vSendChannelRequestCmd+0x88>
     92e:	f1a6 030f 	sub.w	r3, r6, #15
     932:	b2db      	uxtb	r3, r3
     934:	2b0f      	cmp	r3, #15
     936:	bf28      	it	cs
     938:	2300      	movcs	r3, #0
     93a:	2d0e      	cmp	r5, #14
     93c:	d905      	bls.n	94a <vSendChannelRequestCmd+0x42>
     93e:	f1a6 050e 	sub.w	r5, r6, #14
     942:	b2ed      	uxtb	r5, r5
     944:	2d0f      	cmp	r5, #15
     946:	bf28      	it	cs
     948:	2500      	movcs	r5, #0
     94a:	4f14      	ldr	r7, [pc, #80]	; (99c <vSendChannelRequestCmd+0x94>)
     94c:	5cfe      	ldrb	r6, [r7, r3]
     94e:	1813      	adds	r3, r2, r0
     950:	5d78      	ldrb	r0, [r7, r5]
     952:	f1a0 050b 	sub.w	r5, r0, #11
     956:	f1a6 000b 	sub.w	r0, r6, #11
     95a:	ea40 1005 	orr.w	r0, r0, r5, lsl #4
     95e:	7718      	strb	r0, [r3, #28]
     960:	79a3      	ldrb	r3, [r4, #6]
     962:	480f      	ldr	r0, [pc, #60]	; (9a0 <vSendChannelRequestCmd+0x98>)
     964:	2b0e      	cmp	r3, #14
     966:	f101 0102 	add.w	r1, r1, #2
     96a:	bf84      	itt	hi
     96c:	2300      	movhi	r3, #0
     96e:	71a3      	strbhi	r3, [r4, #6]
     970:	7011      	strb	r1, [r2, #0]
     972:	f000 fd8f 	bl	1494 <DbgConsole_Printf>
     976:	2000      	movs	r0, #0
     978:	f7ff fd5c 	bl	434 <vSendMACFrame>
     97c:	79a3      	ldrb	r3, [r4, #6]
     97e:	7066      	strb	r6, [r4, #1]
     980:	3301      	adds	r3, #1
     982:	71a3      	strb	r3, [r4, #6]
     984:	4903      	ldr	r1, [pc, #12]	; (994 <vSendChannelRequestCmd+0x8c>)
     986:	e8bd 40f8 	ldmia.w	sp!, {r3, r4, r5, r6, r7, lr}
     98a:	2020      	movs	r0, #32
     98c:	f000 bb70 	b.w	1070 <bAPP_NVMWriteBlock>
     990:	4633      	mov	r3, r6
     992:	e7d2      	b.n	93a <vSendChannelRequestCmd+0x32>
     994:	04015bcc 	.word	0x04015bcc
     998:	040159b4 	.word	0x040159b4
     99c:	00007d8d 	.word	0x00007d8d
     9a0:	00007ce0 	.word	0x00007ce0

000009a4 <vSendCommissioningCmd>:
     9a4:	b537      	push	{r0, r1, r2, r4, r5, lr}
     9a6:	4c24      	ldr	r4, [pc, #144]	; (a38 <vSendCommissioningCmd+0x94>)
     9a8:	4d24      	ldr	r5, [pc, #144]	; (a3c <vSendCommissioningCmd+0x98>)
     9aa:	2100      	movs	r1, #0
     9ac:	4608      	mov	r0, r1
     9ae:	2201      	movs	r2, #1
     9b0:	9101      	str	r1, [sp, #4]
     9b2:	f000 f8a9 	bl	b08 <GPD_ConstructMACAndNetworkHeader>
     9b6:	7820      	ldrb	r0, [r4, #0]
     9b8:	1823      	adds	r3, r4, r0
     9ba:	22e0      	movs	r2, #224	; 0xe0
     9bc:	771a      	strb	r2, [r3, #28]
     9be:	1c43      	adds	r3, r0, #1
     9c0:	fa54 f383 	uxtab	r3, r4, r3
     9c4:	2203      	movs	r2, #3
     9c6:	771a      	strb	r2, [r3, #28]
     9c8:	1c83      	adds	r3, r0, #2
     9ca:	fa54 f383 	uxtab	r3, r4, r3
     9ce:	22f3      	movs	r2, #243	; 0xf3
     9d0:	771a      	strb	r2, [r3, #28]
     9d2:	79eb      	ldrb	r3, [r5, #7]
     9d4:	1cc2      	adds	r2, r0, #3
     9d6:	fa54 f282 	uxtab	r2, r4, r2
     9da:	009b      	lsls	r3, r3, #2
     9dc:	3004      	adds	r0, #4
     9de:	f063 031c 	orn	r3, r3, #28
     9e2:	b2c0      	uxtb	r0, r0
     9e4:	7713      	strb	r3, [r2, #28]
     9e6:	7020      	strb	r0, [r4, #0]
     9e8:	301c      	adds	r0, #28
     9ea:	2210      	movs	r2, #16
     9ec:	f105 0108 	add.w	r1, r5, #8
     9f0:	4420      	add	r0, r4
     9f2:	f006 fe77 	bl	76e4 <memcpy>
     9f6:	7821      	ldrb	r1, [r4, #0]
     9f8:	311c      	adds	r1, #28
     9fa:	4421      	add	r1, r4
     9fc:	2001      	movs	r0, #1
     9fe:	f7ff fe6d 	bl	6dc <bEncryptDecyptKey>
     a02:	7820      	ldrb	r0, [r4, #0]
     a04:	69ab      	ldr	r3, [r5, #24]
     a06:	3014      	adds	r0, #20
     a08:	b2c0      	uxtb	r0, r0
     a0a:	2204      	movs	r2, #4
     a0c:	7020      	strb	r0, [r4, #0]
     a0e:	301c      	adds	r0, #28
     a10:	eb0d 0102 	add.w	r1, sp, r2
     a14:	3b01      	subs	r3, #1
     a16:	4420      	add	r0, r4
     a18:	9301      	str	r3, [sp, #4]
     a1a:	f006 fe63 	bl	76e4 <memcpy>
     a1e:	7823      	ldrb	r3, [r4, #0]
     a20:	4807      	ldr	r0, [pc, #28]	; (a40 <vSendCommissioningCmd+0x9c>)
     a22:	3304      	adds	r3, #4
     a24:	7023      	strb	r3, [r4, #0]
     a26:	2401      	movs	r4, #1
     a28:	716c      	strb	r4, [r5, #5]
     a2a:	f000 fd33 	bl	1494 <DbgConsole_Printf>
     a2e:	4620      	mov	r0, r4
     a30:	f7ff fd00 	bl	434 <vSendMACFrame>
     a34:	b003      	add	sp, #12
     a36:	bd30      	pop	{r4, r5, pc}
     a38:	040159b4 	.word	0x040159b4
     a3c:	04015bcc 	.word	0x04015bcc
     a40:	00007d13 	.word	0x00007d13

00000a44 <vSendGPDSuccessCmd>:
     a44:	2200      	movs	r2, #0
     a46:	b508      	push	{r3, lr}
     a48:	4610      	mov	r0, r2
     a4a:	2101      	movs	r1, #1
     a4c:	f000 f85c 	bl	b08 <GPD_ConstructMACAndNetworkHeader>
     a50:	4b0a      	ldr	r3, [pc, #40]	; (a7c <vSendGPDSuccessCmd+0x38>)
     a52:	7818      	ldrb	r0, [r3, #0]
     a54:	181a      	adds	r2, r3, r0
     a56:	21e2      	movs	r1, #226	; 0xe2
     a58:	7711      	strb	r1, [r2, #28]
     a5a:	1c42      	adds	r2, r0, #1
     a5c:	701a      	strb	r2, [r3, #0]
     a5e:	4a08      	ldr	r2, [pc, #32]	; (a80 <vSendGPDSuccessCmd+0x3c>)
     a60:	6992      	ldr	r2, [r2, #24]
     a62:	2101      	movs	r1, #1
     a64:	3a01      	subs	r2, #1
     a66:	f000 f8bb 	bl	be0 <bGPD_SecureFrame>
     a6a:	4806      	ldr	r0, [pc, #24]	; (a84 <vSendGPDSuccessCmd+0x40>)
     a6c:	f000 fd12 	bl	1494 <DbgConsole_Printf>
     a70:	e8bd 4008 	ldmia.w	sp!, {r3, lr}
     a74:	2001      	movs	r0, #1
     a76:	f7ff bcdd 	b.w	434 <vSendMACFrame>
     a7a:	bf00      	nop
     a7c:	040159b4 	.word	0x040159b4
     a80:	04015bcc 	.word	0x04015bcc
     a84:	00007d45 	.word	0x00007d45

00000a88 <bHandleCommissioningStateMachine>:
     a88:	b510      	push	{r4, lr}
     a8a:	4b10      	ldr	r3, [pc, #64]	; (acc <bHandleCommissioningStateMachine+0x44>)
     a8c:	4a10      	ldr	r2, [pc, #64]	; (ad0 <bHandleCommissioningStateMachine+0x48>)
     a8e:	2000      	movs	r0, #0
     a90:	7058      	strb	r0, [r3, #1]
     a92:	7813      	ldrb	r3, [r2, #0]
     a94:	0799      	lsls	r1, r3, #30
     a96:	d515      	bpl.n	ac4 <bHandleCommissioningStateMachine+0x3c>
     a98:	075c      	lsls	r4, r3, #29
     a9a:	d50f      	bpl.n	abc <bHandleCommissioningStateMachine+0x34>
     a9c:	0719      	lsls	r1, r3, #28
     a9e:	d50d      	bpl.n	abc <bHandleCommissioningStateMachine+0x34>
     aa0:	f013 0410 	ands.w	r4, r3, #16
     aa4:	d003      	beq.n	aae <bHandleCommissioningStateMachine+0x26>
     aa6:	f043 0301 	orr.w	r3, r3, #1
     aaa:	7013      	strb	r3, [r2, #0]
     aac:	bd10      	pop	{r4, pc}
     aae:	f043 0311 	orr.w	r3, r3, #17
     ab2:	7013      	strb	r3, [r2, #0]
     ab4:	f7ff ffc6 	bl	a44 <vSendGPDSuccessCmd>
     ab8:	4620      	mov	r0, r4
     aba:	e7f7      	b.n	aac <bHandleCommissioningStateMachine+0x24>
     abc:	f7ff ff72 	bl	9a4 <vSendCommissioningCmd>
     ac0:	2001      	movs	r0, #1
     ac2:	e7f3      	b.n	aac <bHandleCommissioningStateMachine+0x24>
     ac4:	f7ff ff20 	bl	908 <vSendChannelRequestCmd>
     ac8:	e7fa      	b.n	ac0 <bHandleCommissioningStateMachine+0x38>
     aca:	bf00      	nop
     acc:	04015bc7 	.word	0x04015bc7
     ad0:	04015bcc 	.word	0x04015bcc

00000ad4 <HandleGPDStateMachine>:
     ad4:	b510      	push	{r4, lr}
     ad6:	4604      	mov	r4, r0
     ad8:	4809      	ldr	r0, [pc, #36]	; (b00 <HandleGPDStateMachine+0x2c>)
     ada:	f000 fcdb 	bl	1494 <DbgConsole_Printf>
     ade:	4b09      	ldr	r3, [pc, #36]	; (b04 <HandleGPDStateMachine+0x30>)
     ae0:	781b      	ldrb	r3, [r3, #0]
     ae2:	07db      	lsls	r3, r3, #31
     ae4:	d504      	bpl.n	af0 <HandleGPDStateMachine+0x1c>
     ae6:	4620      	mov	r0, r4
     ae8:	e8bd 4010 	ldmia.w	sp!, {r4, lr}
     aec:	f7ff bdde 	b.w	6ac <vHandleOperationalState>
     af0:	f7ff ffca 	bl	a88 <bHandleCommissioningStateMachine>
     af4:	b118      	cbz	r0, afe <HandleGPDStateMachine+0x2a>
     af6:	e8bd 4010 	ldmia.w	sp!, {r4, lr}
     afa:	f7ff bccf 	b.w	49c <vEnableRxAndReceive>
     afe:	bd10      	pop	{r4, pc}
     b00:	00007d73 	.word	0x00007d73
     b04:	04015bcc 	.word	0x04015bcc

00000b08 <GPD_ConstructMACAndNetworkHeader>:
     b08:	b5f7      	push	{r0, r1, r2, r4, r5, r6, r7, lr}
     b0a:	4c21      	ldr	r4, [pc, #132]	; (b90 <GPD_ConstructMACAndNetworkHeader+0x88>)
     b0c:	4b21      	ldr	r3, [pc, #132]	; (b94 <GPD_ConstructMACAndNetworkHeader+0x8c>)
     b0e:	4d22      	ldr	r5, [pc, #136]	; (b98 <GPD_ConstructMACAndNetworkHeader+0x90>)
     b10:	9301      	str	r3, [sp, #4]
     b12:	460e      	mov	r6, r1
     b14:	4617      	mov	r7, r2
     b16:	2100      	movs	r1, #0
     b18:	229c      	movs	r2, #156	; 0x9c
     b1a:	4620      	mov	r0, r4
     b1c:	f006 fe7c 	bl	7818 <memset>
     b20:	f640 0301 	movw	r3, #2049	; 0x801
     b24:	8063      	strh	r3, [r4, #2]
     b26:	886b      	ldrh	r3, [r5, #2]
     b28:	80a3      	strh	r3, [r4, #4]
     b2a:	f64f 73ff 	movw	r3, #65535	; 0xffff
     b2e:	8123      	strh	r3, [r4, #8]
     b30:	238c      	movs	r3, #140	; 0x8c
     b32:	7723      	strb	r3, [r4, #28]
     b34:	b146      	cbz	r6, b48 <GPD_ConstructMACAndNetworkHeader+0x40>
     b36:	2318      	movs	r3, #24
     b38:	7763      	strb	r3, [r4, #29]
     b3a:	79eb      	ldrb	r3, [r5, #7]
     b3c:	2b04      	cmp	r3, #4
     b3e:	d001      	beq.n	b44 <GPD_ConstructMACAndNetworkHeader+0x3c>
     b40:	2b07      	cmp	r3, #7
     b42:	d101      	bne.n	b48 <GPD_ConstructMACAndNetworkHeader+0x40>
     b44:	2338      	movs	r3, #56	; 0x38
     b46:	7763      	strb	r3, [r4, #29]
     b48:	b11f      	cbz	r7, b52 <GPD_ConstructMACAndNetworkHeader+0x4a>
     b4a:	7f63      	ldrb	r3, [r4, #29]
     b4c:	f043 0340 	orr.w	r3, r3, #64	; 0x40
     b50:	7763      	strb	r3, [r4, #29]
     b52:	2204      	movs	r2, #4
     b54:	2302      	movs	r3, #2
     b56:	4811      	ldr	r0, [pc, #68]	; (b9c <GPD_ConstructMACAndNetworkHeader+0x94>)
     b58:	7023      	strb	r3, [r4, #0]
     b5a:	eb0d 0102 	add.w	r1, sp, r2
     b5e:	f006 fdc1 	bl	76e4 <memcpy>
     b62:	7820      	ldrb	r0, [r4, #0]
     b64:	3004      	adds	r0, #4
     b66:	b2c0      	uxtb	r0, r0
     b68:	7020      	strb	r0, [r4, #0]
     b6a:	b146      	cbz	r6, b7e <GPD_ConstructMACAndNetworkHeader+0x76>
     b6c:	301c      	adds	r0, #28
     b6e:	490c      	ldr	r1, [pc, #48]	; (ba0 <GPD_ConstructMACAndNetworkHeader+0x98>)
     b70:	2204      	movs	r2, #4
     b72:	4420      	add	r0, r4
     b74:	f006 fdb6 	bl	76e4 <memcpy>
     b78:	7823      	ldrb	r3, [r4, #0]
     b7a:	3304      	adds	r3, #4
     b7c:	7023      	strb	r3, [r4, #0]
     b7e:	69ab      	ldr	r3, [r5, #24]
     b80:	1c5a      	adds	r2, r3, #1
     b82:	61aa      	str	r2, [r5, #24]
     b84:	4a07      	ldr	r2, [pc, #28]	; (ba4 <GPD_ConstructMACAndNetworkHeader+0x9c>)
     b86:	b2db      	uxtb	r3, r3
     b88:	7063      	strb	r3, [r4, #1]
     b8a:	7013      	strb	r3, [r2, #0]
     b8c:	b003      	add	sp, #12
     b8e:	bdf0      	pop	{r4, r5, r6, r7, pc}
     b90:	040159b4 	.word	0x040159b4
     b94:	87654321 	.word	0x87654321
     b98:	04015bcc 	.word	0x04015bcc
     b9c:	040159d2 	.word	0x040159d2
     ba0:	04015be4 	.word	0x04015be4
     ba4:	04015bc7 	.word	0x04015bc7

00000ba8 <GPD_ConstructMaintenaceFrame>:
     ba8:	b510      	push	{r4, lr}
     baa:	4c0b      	ldr	r4, [pc, #44]	; (bd8 <GPD_ConstructMaintenaceFrame+0x30>)
     bac:	229c      	movs	r2, #156	; 0x9c
     bae:	4620      	mov	r0, r4
     bb0:	2100      	movs	r1, #0
     bb2:	f006 fe31 	bl	7818 <memset>
     bb6:	f640 0301 	movw	r3, #2049	; 0x801
     bba:	8063      	strh	r3, [r4, #2]
     bbc:	4b07      	ldr	r3, [pc, #28]	; (bdc <GPD_ConstructMaintenaceFrame+0x34>)
     bbe:	885b      	ldrh	r3, [r3, #2]
     bc0:	80a3      	strh	r3, [r4, #4]
     bc2:	f64f 73ff 	movw	r3, #65535	; 0xffff
     bc6:	8123      	strh	r3, [r4, #8]
     bc8:	7823      	ldrb	r3, [r4, #0]
     bca:	1c5a      	adds	r2, r3, #1
     bcc:	7022      	strb	r2, [r4, #0]
     bce:	441c      	add	r4, r3
     bd0:	230d      	movs	r3, #13
     bd2:	7723      	strb	r3, [r4, #28]
     bd4:	bd10      	pop	{r4, pc}
     bd6:	bf00      	nop
     bd8:	040159b4 	.word	0x040159b4
     bdc:	04015bcc 	.word	0x04015bcc

00000be0 <bGPD_SecureFrame>:
     be0:	e92d 4ff0 	stmdb	sp!, {r4, r5, r6, r7, r8, r9, sl, fp, lr}
     be4:	b0ad      	sub	sp, #180	; 0xb4
     be6:	f10d 0b34 	add.w	fp, sp, #52	; 0x34
     bea:	9209      	str	r2, [sp, #36]	; 0x24
     bec:	461c      	mov	r4, r3
     bee:	2210      	movs	r2, #16
     bf0:	4b74      	ldr	r3, [pc, #464]	; (dc4 <bGPD_SecureFrame+0x1e4>)
     bf2:	930c      	str	r3, [sp, #48]	; 0x30
     bf4:	4606      	mov	r6, r0
     bf6:	460d      	mov	r5, r1
     bf8:	4658      	mov	r0, fp
     bfa:	2100      	movs	r1, #0
     bfc:	f10d 087c 	add.w	r8, sp, #124	; 0x7c
     c00:	f006 fe0a 	bl	7818 <memset>
     c04:	af0b      	add	r7, sp, #44	; 0x2c
     c06:	2232      	movs	r2, #50	; 0x32
     c08:	2100      	movs	r1, #0
     c0a:	4640      	mov	r0, r8
     c0c:	f006 fe04 	bl	7818 <memset>
     c10:	2204      	movs	r2, #4
     c12:	2100      	movs	r1, #0
     c14:	4638      	mov	r0, r7
     c16:	f006 fdff 	bl	7818 <memset>
     c1a:	7823      	ldrb	r3, [r4, #0]
     c1c:	2b31      	cmp	r3, #49	; 0x31
     c1e:	d833      	bhi.n	c88 <bGPD_SecureFrame+0xa8>
     c20:	4632      	mov	r2, r6
     c22:	f104 011c 	add.w	r1, r4, #28
     c26:	4640      	mov	r0, r8
     c28:	f006 fd5c 	bl	76e4 <memcpy>
     c2c:	2d01      	cmp	r5, #1
     c2e:	d105      	bne.n	c3c <bGPD_SecureFrame+0x5c>
     c30:	2204      	movs	r2, #4
     c32:	a90c      	add	r1, sp, #48	; 0x30
     c34:	f10d 0035 	add.w	r0, sp, #53	; 0x35
     c38:	f006 fd54 	bl	76e4 <memcpy>
     c3c:	2204      	movs	r2, #4
     c3e:	a90c      	add	r1, sp, #48	; 0x30
     c40:	f10d 0039 	add.w	r0, sp, #57	; 0x39
     c44:	f006 fd4e 	bl	76e4 <memcpy>
     c48:	2204      	movs	r2, #4
     c4a:	a909      	add	r1, sp, #36	; 0x24
     c4c:	f10d 003d 	add.w	r0, sp, #61	; 0x3d
     c50:	f006 fd48 	bl	76e4 <memcpy>
     c54:	f106 0a1c 	add.w	sl, r6, #28
     c58:	2305      	movs	r3, #5
     c5a:	2d01      	cmp	r5, #1
     c5c:	7822      	ldrb	r2, [r4, #0]
     c5e:	f88d 3041 	strb.w	r3, [sp, #65]	; 0x41
     c62:	44a2      	add	sl, r4
     c64:	d112      	bne.n	c8c <bGPD_SecureFrame+0xac>
     c66:	1b92      	subs	r2, r2, r6
     c68:	4651      	mov	r1, sl
     c6a:	a815      	add	r0, sp, #84	; 0x54
     c6c:	f006 fd3a 	bl	76e4 <memcpy>
     c70:	4955      	ldr	r1, [pc, #340]	; (dc8 <bGPD_SecureFrame+0x1e8>)
     c72:	2210      	movs	r2, #16
     c74:	a811      	add	r0, sp, #68	; 0x44
     c76:	f006 fd35 	bl	76e4 <memcpy>
     c7a:	a811      	add	r0, sp, #68	; 0x44
     c7c:	f002 fdbe 	bl	37fc <bACI_WriteKey>
     c80:	b988      	cbnz	r0, ca6 <bGPD_SecureFrame+0xc6>
     c82:	4852      	ldr	r0, [pc, #328]	; (dcc <bGPD_SecureFrame+0x1ec>)
     c84:	f000 fc06 	bl	1494 <DbgConsole_Printf>
     c88:	2000      	movs	r0, #0
     c8a:	e047      	b.n	d1c <bGPD_SecureFrame+0x13c>
     c8c:	1f11      	subs	r1, r2, #4
     c8e:	b2c9      	uxtb	r1, r1
     c90:	311c      	adds	r1, #28
     c92:	2204      	movs	r2, #4
     c94:	4421      	add	r1, r4
     c96:	4638      	mov	r0, r7
     c98:	f006 fd24 	bl	76e4 <memcpy>
     c9c:	7822      	ldrb	r2, [r4, #0]
     c9e:	3a04      	subs	r2, #4
     ca0:	b2d2      	uxtb	r2, r2
     ca2:	7022      	strb	r2, [r4, #0]
     ca4:	e7df      	b.n	c66 <bGPD_SecureFrame+0x86>
     ca6:	484a      	ldr	r0, [pc, #296]	; (dd0 <bGPD_SecureFrame+0x1f0>)
     ca8:	f000 fbf4 	bl	1494 <DbgConsole_Printf>
     cac:	4a49      	ldr	r2, [pc, #292]	; (dd4 <bGPD_SecureFrame+0x1f4>)
     cae:	f8cd b01c 	str.w	fp, [sp, #28]
     cb2:	465b      	mov	r3, fp
     cb4:	f04f 0910 	mov.w	r9, #16
     cb8:	f813 1b01 	ldrb.w	r1, [r3], #1
     cbc:	9308      	str	r3, [sp, #32]
     cbe:	4610      	mov	r0, r2
     cc0:	f109 39ff 	add.w	r9, r9, #4294967295
     cc4:	f000 fbe6 	bl	1494 <DbgConsole_Printf>
     cc8:	f019 09ff 	ands.w	r9, r9, #255	; 0xff
     ccc:	4a41      	ldr	r2, [pc, #260]	; (dd4 <bGPD_SecureFrame+0x1f4>)
     cce:	9b08      	ldr	r3, [sp, #32]
     cd0:	d1f2      	bne.n	cb8 <bGPD_SecureFrame+0xd8>
     cd2:	7823      	ldrb	r3, [r4, #0]
     cd4:	f8cd b000 	str.w	fp, [sp]
     cd8:	f10d 022b 	add.w	r2, sp, #43	; 0x2b
     cdc:	f10d 0954 	add.w	r9, sp, #84	; 0x54
     ce0:	1b9b      	subs	r3, r3, r6
     ce2:	e9cd 7203 	strd	r7, r2, [sp, #12]
     ce6:	b2db      	uxtb	r3, r3
     ce8:	4632      	mov	r2, r6
     cea:	2104      	movs	r1, #4
     cec:	4628      	mov	r0, r5
     cee:	e9cd 8901 	strd	r8, r9, [sp, #4]
     cf2:	f002 fd8d 	bl	3810 <vACI_OptimisedCcmStar>
     cf6:	7822      	ldrb	r2, [r4, #0]
     cf8:	4649      	mov	r1, r9
     cfa:	1b92      	subs	r2, r2, r6
     cfc:	4650      	mov	r0, sl
     cfe:	f006 fcf1 	bl	76e4 <memcpy>
     d02:	2d01      	cmp	r5, #1
     d04:	d10d      	bne.n	d22 <bGPD_SecureFrame+0x142>
     d06:	7820      	ldrb	r0, [r4, #0]
     d08:	301c      	adds	r0, #28
     d0a:	2204      	movs	r2, #4
     d0c:	4639      	mov	r1, r7
     d0e:	4420      	add	r0, r4
     d10:	f006 fce8 	bl	76e4 <memcpy>
     d14:	7823      	ldrb	r3, [r4, #0]
     d16:	3304      	adds	r3, #4
     d18:	7023      	strb	r3, [r4, #0]
     d1a:	4628      	mov	r0, r5
     d1c:	b02d      	add	sp, #180	; 0xb4
     d1e:	e8bd 8ff0 	ldmia.w	sp!, {r4, r5, r6, r7, r8, r9, sl, fp, pc}
     d22:	f89d 102b 	ldrb.w	r1, [sp, #43]	; 0x2b
     d26:	482c      	ldr	r0, [pc, #176]	; (dd8 <bGPD_SecureFrame+0x1f8>)
     d28:	f000 fbb4 	bl	1494 <DbgConsole_Printf>
     d2c:	f89d 302b 	ldrb.w	r3, [sp, #43]	; 0x2b
     d30:	b12b      	cbz	r3, d3e <bGPD_SecureFrame+0x15e>
     d32:	f89d 002b 	ldrb.w	r0, [sp, #43]	; 0x2b
     d36:	3800      	subs	r0, #0
     d38:	bf18      	it	ne
     d3a:	2001      	movne	r0, #1
     d3c:	e7ee      	b.n	d1c <bGPD_SecureFrame+0x13c>
     d3e:	7823      	ldrb	r3, [r4, #0]
     d40:	4826      	ldr	r0, [pc, #152]	; (ddc <bGPD_SecureFrame+0x1fc>)
     d42:	4629      	mov	r1, r5
     d44:	1b9b      	subs	r3, r3, r6
     d46:	4632      	mov	r2, r6
     d48:	f000 fba4 	bl	1494 <DbgConsole_Printf>
     d4c:	4820      	ldr	r0, [pc, #128]	; (dd0 <bGPD_SecureFrame+0x1f0>)
     d4e:	4d21      	ldr	r5, [pc, #132]	; (dd4 <bGPD_SecureFrame+0x1f4>)
     d50:	f000 fba0 	bl	1494 <DbgConsole_Printf>
     d54:	2410      	movs	r4, #16
     d56:	9b07      	ldr	r3, [sp, #28]
     d58:	4628      	mov	r0, r5
     d5a:	f813 1b01 	ldrb.w	r1, [r3], #1
     d5e:	9307      	str	r3, [sp, #28]
     d60:	3c01      	subs	r4, #1
     d62:	f000 fb97 	bl	1494 <DbgConsole_Printf>
     d66:	f014 04ff 	ands.w	r4, r4, #255	; 0xff
     d6a:	d1f4      	bne.n	d56 <bGPD_SecureFrame+0x176>
     d6c:	481c      	ldr	r0, [pc, #112]	; (de0 <bGPD_SecureFrame+0x200>)
     d6e:	4d19      	ldr	r5, [pc, #100]	; (dd4 <bGPD_SecureFrame+0x1f4>)
     d70:	f000 fb90 	bl	1494 <DbgConsole_Printf>
     d74:	2432      	movs	r4, #50	; 0x32
     d76:	f818 1b01 	ldrb.w	r1, [r8], #1
     d7a:	4628      	mov	r0, r5
     d7c:	3c01      	subs	r4, #1
     d7e:	f000 fb89 	bl	1494 <DbgConsole_Printf>
     d82:	f014 04ff 	ands.w	r4, r4, #255	; 0xff
     d86:	d1f6      	bne.n	d76 <bGPD_SecureFrame+0x196>
     d88:	4816      	ldr	r0, [pc, #88]	; (de4 <bGPD_SecureFrame+0x204>)
     d8a:	4d12      	ldr	r5, [pc, #72]	; (dd4 <bGPD_SecureFrame+0x1f4>)
     d8c:	f000 fb82 	bl	1494 <DbgConsole_Printf>
     d90:	2428      	movs	r4, #40	; 0x28
     d92:	f819 1b01 	ldrb.w	r1, [r9], #1
     d96:	4628      	mov	r0, r5
     d98:	3c01      	subs	r4, #1
     d9a:	f000 fb7b 	bl	1494 <DbgConsole_Printf>
     d9e:	f014 04ff 	ands.w	r4, r4, #255	; 0xff
     da2:	d1f6      	bne.n	d92 <bGPD_SecureFrame+0x1b2>
     da4:	4810      	ldr	r0, [pc, #64]	; (de8 <bGPD_SecureFrame+0x208>)
     da6:	4d0b      	ldr	r5, [pc, #44]	; (dd4 <bGPD_SecureFrame+0x1f4>)
     da8:	f000 fb74 	bl	1494 <DbgConsole_Printf>
     dac:	2404      	movs	r4, #4
     dae:	f817 1b01 	ldrb.w	r1, [r7], #1
     db2:	4628      	mov	r0, r5
     db4:	3c01      	subs	r4, #1
     db6:	f000 fb6d 	bl	1494 <DbgConsole_Printf>
     dba:	f014 04ff 	ands.w	r4, r4, #255	; 0xff
     dbe:	d1f6      	bne.n	dae <bGPD_SecureFrame+0x1ce>
     dc0:	e7b7      	b.n	d32 <bGPD_SecureFrame+0x152>
     dc2:	bf00      	nop
     dc4:	87654321 	.word	0x87654321
     dc8:	04015bd4 	.word	0x04015bd4
     dcc:	00007b36 	.word	0x00007b36
     dd0:	00007d9c 	.word	0x00007d9c
     dd4:	00007daf 	.word	0x00007daf
     dd8:	00007db6 	.word	0x00007db6
     ddc:	00007dc6 	.word	0x00007dc6
     de0:	00007df0 	.word	0x00007df0
     de4:	00007e14 	.word	0x00007e14
     de8:	00007e33 	.word	0x00007e33

00000dec <bGPD_ParseMACFrame>:
     dec:	4a34      	ldr	r2, [pc, #208]	; (ec0 <bGPD_ParseMACFrame+0xd4>)
     dee:	e92d 41f3 	stmdb	sp!, {r0, r1, r4, r5, r6, r7, r8, lr}
     df2:	f892 30b8 	ldrb.w	r3, [r2, #184]	; 0xb8
     df6:	460d      	mov	r5, r1
     df8:	f003 010c 	and.w	r1, r3, #12
     dfc:	2400      	movs	r4, #0
     dfe:	290c      	cmp	r1, #12
     e00:	9401      	str	r4, [sp, #4]
     e02:	4616      	mov	r6, r2
     e04:	d15a      	bne.n	ebc <bGPD_ParseMACFrame+0xd0>
     e06:	f013 0840 	ands.w	r8, r3, #64	; 0x40
     e0a:	d11f      	bne.n	e4c <bGPD_ParseMACFrame+0x60>
     e0c:	061b      	lsls	r3, r3, #24
     e0e:	d53a      	bpl.n	e86 <bGPD_ParseMACFrame+0x9a>
     e10:	f892 70b9 	ldrb.w	r7, [r2, #185]	; 0xb9
     e14:	f007 0407 	and.w	r4, r7, #7
     e18:	f3c7 07c1 	ubfx	r7, r7, #3, #2
     e1c:	2f03      	cmp	r7, #3
     e1e:	d006      	beq.n	e2e <bGPD_ParseMACFrame+0x42>
     e20:	b128      	cbz	r0, e2e <bGPD_ParseMACFrame+0x42>
     e22:	4828      	ldr	r0, [pc, #160]	; (ec4 <bGPD_ParseMACFrame+0xd8>)
     e24:	4639      	mov	r1, r7
     e26:	f000 fb35 	bl	1494 <DbgConsole_Printf>
     e2a:	2400      	movs	r4, #0
     e2c:	e00e      	b.n	e4c <bGPD_ParseMACFrame+0x60>
     e2e:	2c00      	cmp	r4, #0
     e30:	d1fb      	bne.n	e2a <bGPD_ParseMACFrame+0x3e>
     e32:	2204      	movs	r2, #4
     e34:	4924      	ldr	r1, [pc, #144]	; (ec8 <bGPD_ParseMACFrame+0xdc>)
     e36:	eb0d 0002 	add.w	r0, sp, r2
     e3a:	f006 fc53 	bl	76e4 <memcpy>
     e3e:	9901      	ldr	r1, [sp, #4]
     e40:	4a22      	ldr	r2, [pc, #136]	; (ecc <bGPD_ParseMACFrame+0xe0>)
     e42:	4291      	cmp	r1, r2
     e44:	d006      	beq.n	e54 <bGPD_ParseMACFrame+0x68>
     e46:	4822      	ldr	r0, [pc, #136]	; (ed0 <bGPD_ParseMACFrame+0xe4>)
     e48:	f000 fb24 	bl	1494 <DbgConsole_Printf>
     e4c:	4620      	mov	r0, r4
     e4e:	b002      	add	sp, #8
     e50:	e8bd 81f0 	ldmia.w	sp!, {r4, r5, r6, r7, r8, pc}
     e54:	b377      	cbz	r7, eb4 <bGPD_ParseMACFrame+0xc8>
     e56:	4b1f      	ldr	r3, [pc, #124]	; (ed4 <bGPD_ParseMACFrame+0xe8>)
     e58:	f8d6 10be 	ldr.w	r1, [r6, #190]	; 0xbe
     e5c:	699a      	ldr	r2, [r3, #24]
     e5e:	60a9      	str	r1, [r5, #8]
     e60:	4291      	cmp	r1, r2
     e62:	d901      	bls.n	e68 <bGPD_ParseMACFrame+0x7c>
     e64:	481c      	ldr	r0, [pc, #112]	; (ed8 <bGPD_ParseMACFrame+0xec>)
     e66:	e7ef      	b.n	e48 <bGPD_ParseMACFrame+0x5c>
     e68:	481c      	ldr	r0, [pc, #112]	; (edc <bGPD_ParseMACFrame+0xf0>)
     e6a:	f000 fb13 	bl	1494 <DbgConsole_Printf>
     e6e:	4621      	mov	r1, r4
     e70:	4b1b      	ldr	r3, [pc, #108]	; (ee0 <bGPD_ParseMACFrame+0xf4>)
     e72:	68aa      	ldr	r2, [r5, #8]
     e74:	200a      	movs	r0, #10
     e76:	f7ff feb3 	bl	be0 <bGPD_SecureFrame>
     e7a:	4604      	mov	r4, r0
     e7c:	b9e0      	cbnz	r0, eb8 <bGPD_ParseMACFrame+0xcc>
     e7e:	4819      	ldr	r0, [pc, #100]	; (ee4 <bGPD_ParseMACFrame+0xf8>)
     e80:	f000 fb08 	bl	1494 <DbgConsole_Printf>
     e84:	e7e2      	b.n	e4c <bGPD_ParseMACFrame+0x60>
     e86:	2401      	movs	r4, #1
     e88:	4621      	mov	r1, r4
     e8a:	4817      	ldr	r0, [pc, #92]	; (ee8 <bGPD_ParseMACFrame+0xfc>)
     e8c:	f000 fb02 	bl	1494 <DbgConsole_Printf>
     e90:	1c62      	adds	r2, r4, #1
     e92:	4434      	add	r4, r6
     e94:	f894 30b8 	ldrb.w	r3, [r4, #184]	; 0xb8
     e98:	702b      	strb	r3, [r5, #0]
     e9a:	2300      	movs	r3, #0
     e9c:	606b      	str	r3, [r5, #4]
     e9e:	f896 309c 	ldrb.w	r3, [r6, #156]	; 0x9c
     ea2:	4293      	cmp	r3, r2
     ea4:	d304      	bcc.n	eb0 <bGPD_ParseMACFrame+0xc4>
     ea6:	4911      	ldr	r1, [pc, #68]	; (eec <bGPD_ParseMACFrame+0x100>)
     ea8:	1a9b      	subs	r3, r3, r2
     eaa:	4411      	add	r1, r2
     eac:	6069      	str	r1, [r5, #4]
     eae:	706b      	strb	r3, [r5, #1]
     eb0:	2401      	movs	r4, #1
     eb2:	e7cb      	b.n	e4c <bGPD_ParseMACFrame+0x60>
     eb4:	2406      	movs	r4, #6
     eb6:	e7e7      	b.n	e88 <bGPD_ParseMACFrame+0x9c>
     eb8:	240a      	movs	r4, #10
     eba:	e7e5      	b.n	e88 <bGPD_ParseMACFrame+0x9c>
     ebc:	480c      	ldr	r0, [pc, #48]	; (ef0 <bGPD_ParseMACFrame+0x104>)
     ebe:	e7df      	b.n	e80 <bGPD_ParseMACFrame+0x94>
     ec0:	040159b4 	.word	0x040159b4
     ec4:	00007e4c 	.word	0x00007e4c
     ec8:	04015a6e 	.word	0x04015a6e
     ecc:	87654321 	.word	0x87654321
     ed0:	00007e87 	.word	0x00007e87
     ed4:	04015bcc 	.word	0x04015bcc
     ed8:	00007ecf 	.word	0x00007ecf
     edc:	00007f20 	.word	0x00007f20
     ee0:	04015a50 	.word	0x04015a50
     ee4:	00007f55 	.word	0x00007f55
     ee8:	00007f79 	.word	0x00007f79
     eec:	04015a6c 	.word	0x04015a6c
     ef0:	00007faf 	.word	0x00007faf

00000ef4 <GPD_SendSpecificCommand>:
     ef4:	2101      	movs	r1, #1
     ef6:	b510      	push	{r4, lr}
     ef8:	2200      	movs	r2, #0
     efa:	4604      	mov	r4, r0
     efc:	4608      	mov	r0, r1
     efe:	f7ff fe03 	bl	b08 <GPD_ConstructMACAndNetworkHeader>
     f02:	4b10      	ldr	r3, [pc, #64]	; (f44 <GPD_SendSpecificCommand+0x50>)
     f04:	7818      	ldrb	r0, [r3, #0]
     f06:	1819      	adds	r1, r3, r0
     f08:	1c42      	adds	r2, r0, #1
     f0a:	b2d2      	uxtb	r2, r2
     f0c:	701a      	strb	r2, [r3, #0]
     f0e:	770c      	strb	r4, [r1, #28]
     f10:	f1a4 0135 	sub.w	r1, r4, #53	; 0x35
     f14:	2901      	cmp	r1, #1
     f16:	d804      	bhi.n	f22 <GPD_SendSpecificCommand+0x2e>
     f18:	1c81      	adds	r1, r0, #2
     f1a:	7019      	strb	r1, [r3, #0]
     f1c:	4413      	add	r3, r2
     f1e:	2241      	movs	r2, #65	; 0x41
     f20:	771a      	strb	r2, [r3, #28]
     f22:	4b09      	ldr	r3, [pc, #36]	; (f48 <GPD_SendSpecificCommand+0x54>)
     f24:	699a      	ldr	r2, [r3, #24]
     f26:	4b07      	ldr	r3, [pc, #28]	; (f44 <GPD_SendSpecificCommand+0x50>)
     f28:	3a01      	subs	r2, #1
     f2a:	2101      	movs	r1, #1
     f2c:	f7ff fe58 	bl	be0 <bGPD_SecureFrame>
     f30:	4621      	mov	r1, r4
     f32:	4806      	ldr	r0, [pc, #24]	; (f4c <GPD_SendSpecificCommand+0x58>)
     f34:	f000 faae 	bl	1494 <DbgConsole_Printf>
     f38:	e8bd 4010 	ldmia.w	sp!, {r4, lr}
     f3c:	2001      	movs	r0, #1
     f3e:	f7ff ba79 	b.w	434 <vSendMACFrame>
     f42:	bf00      	nop
     f44:	040159b4 	.word	0x040159b4
     f48:	04015bcc 	.word	0x04015bcc
     f4c:	00007fc5 	.word	0x00007fc5

00000f50 <GPD_SendOperationalCommand>:
     f50:	2101      	movs	r1, #1
     f52:	b508      	push	{r3, lr}
     f54:	4608      	mov	r0, r1
     f56:	2200      	movs	r2, #0
     f58:	f7ff fdd6 	bl	b08 <GPD_ConstructMACAndNetworkHeader>
     f5c:	4b0c      	ldr	r3, [pc, #48]	; (f90 <GPD_SendOperationalCommand+0x40>)
     f5e:	7818      	ldrb	r0, [r3, #0]
     f60:	1c42      	adds	r2, r0, #1
     f62:	701a      	strb	r2, [r3, #0]
     f64:	181a      	adds	r2, r3, r0
     f66:	2121      	movs	r1, #33	; 0x21
     f68:	7711      	strb	r1, [r2, #28]
     f6a:	4a0a      	ldr	r2, [pc, #40]	; (f94 <GPD_SendOperationalCommand+0x44>)
     f6c:	7811      	ldrb	r1, [r2, #0]
     f6e:	f041 0120 	orr.w	r1, r1, #32
     f72:	7011      	strb	r1, [r2, #0]
     f74:	6992      	ldr	r2, [r2, #24]
     f76:	2101      	movs	r1, #1
     f78:	3a01      	subs	r2, #1
     f7a:	f7ff fe31 	bl	be0 <bGPD_SecureFrame>
     f7e:	4806      	ldr	r0, [pc, #24]	; (f98 <GPD_SendOperationalCommand+0x48>)
     f80:	f000 fa88 	bl	1494 <DbgConsole_Printf>
     f84:	e8bd 4008 	ldmia.w	sp!, {r3, lr}
     f88:	2001      	movs	r0, #1
     f8a:	f7ff ba53 	b.w	434 <vSendMACFrame>
     f8e:	bf00      	nop
     f90:	040159b4 	.word	0x040159b4
     f94:	04015bcc 	.word	0x04015bcc
     f98:	00007ffa 	.word	0x00007ffa

00000f9c <bAPP_ReadBlock>:
     f9c:	e92d 47f0 	stmdb	sp!, {r4, r5, r6, r7, r8, r9, sl, lr}
     fa0:	f8df a064 	ldr.w	sl, [pc, #100]	; 1008 <STACK_SIZE+0x28>
     fa4:	f8df 9064 	ldr.w	r9, [pc, #100]	; 100c <STACK_SIZE+0x2c>
     fa8:	4607      	mov	r7, r0
     faa:	460e      	mov	r6, r1
     fac:	2500      	movs	r5, #0
     fae:	46d0      	mov	r8, sl
     fb0:	f8da 4000 	ldr.w	r4, [sl]
     fb4:	442c      	add	r4, r5
     fb6:	0264      	lsls	r4, r4, #9
     fb8:	f204 12ff 	addw	r2, r4, #511	; 0x1ff
     fbc:	4621      	mov	r1, r4
     fbe:	4648      	mov	r0, r9
     fc0:	f001 fce2 	bl	2988 <FLASH_BlankCheck>
     fc4:	2804      	cmp	r0, #4
     fc6:	d018      	beq.n	ffa <STACK_SIZE+0x1a>
     fc8:	4a0e      	ldr	r2, [pc, #56]	; (1004 <STACK_SIZE+0x24>)
     fca:	2300      	movs	r3, #0
     fcc:	429f      	cmp	r7, r3
     fce:	dc0f      	bgt.n	ff0 <STACK_SIZE+0x10>
     fd0:	490c      	ldr	r1, [pc, #48]	; (1004 <STACK_SIZE+0x24>)
     fd2:	2220      	movs	r2, #32
     fd4:	4630      	mov	r0, r6
     fd6:	f006 fb85 	bl	76e4 <memcpy>
     fda:	7f73      	ldrb	r3, [r6, #29]
     fdc:	2ba8      	cmp	r3, #168	; 0xa8
     fde:	d10c      	bne.n	ffa <STACK_SIZE+0x1a>
     fe0:	f8d8 3000 	ldr.w	r3, [r8]
     fe4:	442b      	add	r3, r5
     fe6:	f8c8 3000 	str.w	r3, [r8]
     fea:	2001      	movs	r0, #1
     fec:	e8bd 87f0 	ldmia.w	sp!, {r4, r5, r6, r7, r8, r9, sl, pc}
     ff0:	5d19      	ldrb	r1, [r3, r4]
     ff2:	f802 1b01 	strb.w	r1, [r2], #1
     ff6:	3301      	adds	r3, #1
     ff8:	e7e8      	b.n	fcc <bAPP_ReadBlock+0x30>
     ffa:	3501      	adds	r5, #1
     ffc:	2d0e      	cmp	r5, #14
     ffe:	d1d7      	bne.n	fb0 <bAPP_ReadBlock+0x14>
    1000:	e7f3      	b.n	fea <STACK_SIZE+0xa>
    1002:	bf00      	nop
    1004:	04015bec 	.word	0x04015bec
    1008:	04015af4 	.word	0x04015af4
    100c:	40009000 	.word	0x40009000

00001010 <bAPP_NVMWrite>:
    1010:	b570      	push	{r4, r5, r6, lr}
    1012:	f240 25ca 	movw	r5, #714	; 0x2ca
    1016:	42a8      	cmp	r0, r5
    1018:	bf94      	ite	ls
    101a:	4605      	movls	r5, r0
    101c:	f44f 752f 	movhi.w	r5, #700	; 0x2bc
    1020:	2201      	movs	r2, #1
    1022:	4812      	ldr	r0, [pc, #72]	; (106c <bAPP_NVMWrite+0x5c>)
    1024:	4629      	mov	r1, r5
    1026:	461c      	mov	r4, r3
    1028:	f001 fca7 	bl	297a <FLASH_ErasePages>
    102c:	2804      	cmp	r0, #4
    102e:	d001      	beq.n	1034 <bAPP_NVMWrite+0x24>
    1030:	2000      	movs	r0, #0
    1032:	bd70      	pop	{r4, r5, r6, pc}
    1034:	026e      	lsls	r6, r5, #9
    1036:	480d      	ldr	r0, [pc, #52]	; (106c <bAPP_NVMWrite+0x5c>)
    1038:	f206 12ff 	addw	r2, r6, #511	; 0x1ff
    103c:	4631      	mov	r1, r6
    103e:	f001 fca3 	bl	2988 <FLASH_BlankCheck>
    1042:	2804      	cmp	r0, #4
    1044:	d1f4      	bne.n	1030 <bAPP_NVMWrite+0x20>
    1046:	23a8      	movs	r3, #168	; 0xa8
    1048:	7763      	strb	r3, [r4, #29]
    104a:	4622      	mov	r2, r4
    104c:	f44f 7300 	mov.w	r3, #512	; 0x200
    1050:	4631      	mov	r1, r6
    1052:	4806      	ldr	r0, [pc, #24]	; (106c <bAPP_NVMWrite+0x5c>)
    1054:	f001 fca5 	bl	29a2 <FLASH_Program>
    1058:	2201      	movs	r2, #1
    105a:	4604      	mov	r4, r0
    105c:	1e69      	subs	r1, r5, #1
    105e:	4803      	ldr	r0, [pc, #12]	; (106c <bAPP_NVMWrite+0x5c>)
    1060:	f001 fc8b 	bl	297a <FLASH_ErasePages>
    1064:	1f23      	subs	r3, r4, #4
    1066:	4258      	negs	r0, r3
    1068:	4158      	adcs	r0, r3
    106a:	e7e2      	b.n	1032 <bAPP_NVMWrite+0x22>
    106c:	40009000 	.word	0x40009000

00001070 <bAPP_NVMWriteBlock>:
    1070:	b570      	push	{r4, r5, r6, lr}
    1072:	f5b0 7f00 	cmp.w	r0, #512	; 0x200
    1076:	4d0a      	ldr	r5, [pc, #40]	; (10a0 <bAPP_NVMWriteBlock+0x30>)
    1078:	bf28      	it	cs
    107a:	f44f 7000 	movcs.w	r0, #512	; 0x200
    107e:	4604      	mov	r4, r0
    1080:	4602      	mov	r2, r0
    1082:	4628      	mov	r0, r5
    1084:	f006 fb2e 	bl	76e4 <memcpy>
    1088:	4b06      	ldr	r3, [pc, #24]	; (10a4 <bAPP_NVMWriteBlock+0x34>)
    108a:	6819      	ldr	r1, [r3, #0]
    108c:	1c48      	adds	r0, r1, #1
    108e:	6018      	str	r0, [r3, #0]
    1090:	b2e2      	uxtb	r2, r4
    1092:	462b      	mov	r3, r5
    1094:	2100      	movs	r1, #0
    1096:	e8bd 4070 	ldmia.w	sp!, {r4, r5, r6, lr}
    109a:	f7ff bfb9 	b.w	1010 <bAPP_NVMWrite>
    109e:	bf00      	nop
    10a0:	04015bec 	.word	0x04015bec
    10a4:	04015af4 	.word	0x04015af4

000010a8 <gint_callback>:
    10a8:	b538      	push	{r3, r4, r5, lr}
    10aa:	4b0d      	ldr	r3, [pc, #52]	; (10e0 <gint_callback+0x38>)
    10ac:	4d0d      	ldr	r5, [pc, #52]	; (10e4 <gint_callback+0x3c>)
    10ae:	480e      	ldr	r0, [pc, #56]	; (10e8 <gint_callback+0x40>)
    10b0:	2200      	movs	r2, #0
    10b2:	701a      	strb	r2, [r3, #0]
    10b4:	4b0d      	ldr	r3, [pc, #52]	; (10ec <gint_callback+0x44>)
    10b6:	681c      	ldr	r4, [r3, #0]
    10b8:	402c      	ands	r4, r5
    10ba:	4621      	mov	r1, r4
    10bc:	f000 f9ea 	bl	1494 <DbgConsole_Printf>
    10c0:	42ac      	cmp	r4, r5
    10c2:	d00c      	beq.n	10de <gint_callback+0x36>
    10c4:	4c0a      	ldr	r4, [pc, #40]	; (10f0 <gint_callback+0x48>)
    10c6:	480b      	ldr	r0, [pc, #44]	; (10f4 <gint_callback+0x4c>)
    10c8:	f000 fa6e 	bl	15a8 <GINT_DisableCallback>
    10cc:	7820      	ldrb	r0, [r4, #0]
    10ce:	f000 fbab 	bl	1828 <ZTIMER_eStop>
    10d2:	7820      	ldrb	r0, [r4, #0]
    10d4:	210a      	movs	r1, #10
    10d6:	e8bd 4038 	ldmia.w	sp!, {r3, r4, r5, lr}
    10da:	f000 bb7d 	b.w	17d8 <ZTIMER_eStart>
    10de:	bd38      	pop	{r3, r4, r5, pc}
    10e0:	04015af0 	.word	0x04015af0
    10e4:	00088092 	.word	0x00088092
    10e8:	00008030 	.word	0x00008030
    10ec:	40082100 	.word	0x40082100
    10f0:	04015bc0 	.word	0x04015bc0
    10f4:	40011000 	.word	0x40011000

000010f8 <vHandleButtonPress>:
    10f8:	b510      	push	{r4, lr}
    10fa:	4604      	mov	r4, r0
    10fc:	f7ff fabe 	bl	67c <vLoadPersistentData>
    1100:	2c0f      	cmp	r4, #15
    1102:	d81a      	bhi.n	113a <vHandleButtonPress+0x42>
    1104:	e8df f004 	tbb	[pc, r4]
    1108:	3e2d1a08 	.word	0x3e2d1a08
    110c:	19194743 	.word	0x19194743
    1110:	19191919 	.word	0x19191919
    1114:	45451919 	.word	0x45451919
    1118:	4c2c      	ldr	r4, [pc, #176]	; (11cc <vHandleButtonPress+0xd4>)
    111a:	7823      	ldrb	r3, [r4, #0]
    111c:	07d8      	lsls	r0, r3, #31
    111e:	d50c      	bpl.n	113a <vHandleButtonPress+0x42>
    1120:	4621      	mov	r1, r4
    1122:	2020      	movs	r0, #32
    1124:	7723      	strb	r3, [r4, #28]
    1126:	f7ff ffa3 	bl	1070 <bAPP_NVMWriteBlock>
    112a:	7f22      	ldrb	r2, [r4, #28]
    112c:	7821      	ldrb	r1, [r4, #0]
    112e:	4828      	ldr	r0, [pc, #160]	; (11d0 <vHandleButtonPress+0xd8>)
    1130:	f000 f9b0 	bl	1494 <DbgConsole_Printf>
    1134:	4b27      	ldr	r3, [pc, #156]	; (11d4 <vHandleButtonPress+0xdc>)
    1136:	2201      	movs	r2, #1
    1138:	701a      	strb	r2, [r3, #0]
    113a:	bd10      	pop	{r4, pc}
    113c:	4c25      	ldr	r4, [pc, #148]	; (11d4 <vHandleButtonPress+0xdc>)
    113e:	7823      	ldrb	r3, [r4, #0]
    1140:	b13b      	cbz	r3, 1152 <vHandleButtonPress+0x5a>
    1142:	4b22      	ldr	r3, [pc, #136]	; (11cc <vHandleButtonPress+0xd4>)
    1144:	4824      	ldr	r0, [pc, #144]	; (11d8 <vHandleButtonPress+0xe0>)
    1146:	2202      	movs	r2, #2
    1148:	701a      	strb	r2, [r3, #0]
    114a:	f000 f9a3 	bl	1494 <DbgConsole_Printf>
    114e:	2300      	movs	r3, #0
    1150:	7023      	strb	r3, [r4, #0]
    1152:	4822      	ldr	r0, [pc, #136]	; (11dc <vHandleButtonPress+0xe4>)
    1154:	f000 f99e 	bl	1494 <DbgConsole_Printf>
    1158:	2000      	movs	r0, #0
    115a:	e8bd 4010 	ldmia.w	sp!, {r4, lr}
    115e:	f7ff bcb9 	b.w	ad4 <HandleGPDStateMachine>
    1162:	4c1c      	ldr	r4, [pc, #112]	; (11d4 <vHandleButtonPress+0xdc>)
    1164:	481e      	ldr	r0, [pc, #120]	; (11e0 <vHandleButtonPress+0xe8>)
    1166:	f000 f995 	bl	1494 <DbgConsole_Printf>
    116a:	7823      	ldrb	r3, [r4, #0]
    116c:	b143      	cbz	r3, 1180 <vHandleButtonPress+0x88>
    116e:	4b17      	ldr	r3, [pc, #92]	; (11cc <vHandleButtonPress+0xd4>)
    1170:	781b      	ldrb	r3, [r3, #0]
    1172:	07d9      	lsls	r1, r3, #31
    1174:	d5e1      	bpl.n	113a <vHandleButtonPress+0x42>
    1176:	f7ff fa29 	bl	5cc <vSendDecommissioingCmd>
    117a:	2300      	movs	r3, #0
    117c:	7023      	strb	r3, [r4, #0]
    117e:	e7dc      	b.n	113a <vHandleButtonPress+0x42>
    1180:	2020      	movs	r0, #32
    1182:	e7ea      	b.n	115a <vHandleButtonPress+0x62>
    1184:	4817      	ldr	r0, [pc, #92]	; (11e4 <vHandleButtonPress+0xec>)
    1186:	f000 f985 	bl	1494 <DbgConsole_Printf>
    118a:	2035      	movs	r0, #53	; 0x35
    118c:	e7e5      	b.n	115a <vHandleButtonPress+0x62>
    118e:	2036      	movs	r0, #54	; 0x36
    1190:	e7e3      	b.n	115a <vHandleButtonPress+0x62>
    1192:	2034      	movs	r0, #52	; 0x34
    1194:	e7e1      	b.n	115a <vHandleButtonPress+0x62>
    1196:	4c0d      	ldr	r4, [pc, #52]	; (11cc <vHandleButtonPress+0xd4>)
    1198:	4813      	ldr	r0, [pc, #76]	; (11e8 <vHandleButtonPress+0xf0>)
    119a:	7f22      	ldrb	r2, [r4, #28]
    119c:	7821      	ldrb	r1, [r4, #0]
    119e:	f000 f979 	bl	1494 <DbgConsole_Printf>
    11a2:	7823      	ldrb	r3, [r4, #0]
    11a4:	2b02      	cmp	r3, #2
    11a6:	d1c8      	bne.n	113a <vHandleButtonPress+0x42>
    11a8:	7f23      	ldrb	r3, [r4, #28]
    11aa:	07da      	lsls	r2, r3, #31
    11ac:	d5c5      	bpl.n	113a <vHandleButtonPress+0x42>
    11ae:	7023      	strb	r3, [r4, #0]
    11b0:	4621      	mov	r1, r4
    11b2:	2300      	movs	r3, #0
    11b4:	2020      	movs	r0, #32
    11b6:	7723      	strb	r3, [r4, #28]
    11b8:	f7ff ff5a 	bl	1070 <bAPP_NVMWriteBlock>
    11bc:	7f22      	ldrb	r2, [r4, #28]
    11be:	7821      	ldrb	r1, [r4, #0]
    11c0:	4803      	ldr	r0, [pc, #12]	; (11d0 <vHandleButtonPress+0xd8>)
    11c2:	e8bd 4010 	ldmia.w	sp!, {r4, lr}
    11c6:	f000 b965 	b.w	1494 <DbgConsole_Printf>
    11ca:	bf00      	nop
    11cc:	04015bcc 	.word	0x04015bcc
    11d0:	00008059 	.word	0x00008059
    11d4:	04015dec 	.word	0x04015dec
    11d8:	00008079 	.word	0x00008079
    11dc:	0000808b 	.word	0x0000808b
    11e0:	000080b0 	.word	0x000080b0
    11e4:	000080cd 	.word	0x000080cd
    11e8:	000080ea 	.word	0x000080ea

000011ec <APP_cbTimerButtonScan>:
    11ec:	4b32      	ldr	r3, [pc, #200]	; (12b8 <APP_cbTimerButtonScan+0xcc>)
    11ee:	e92d 4ff0 	stmdb	sp!, {r4, r5, r6, r7, r8, r9, sl, fp, lr}
    11f2:	681e      	ldr	r6, [r3, #0]
    11f4:	4f31      	ldr	r7, [pc, #196]	; (12bc <APP_cbTimerButtonScan+0xd0>)
    11f6:	f8df 90dc 	ldr.w	r9, [pc, #220]	; 12d4 <APP_cbTimerButtonScan+0xe8>
    11fa:	4d31      	ldr	r5, [pc, #196]	; (12c0 <APP_cbTimerButtonScan+0xd4>)
    11fc:	f8df 80d8 	ldr.w	r8, [pc, #216]	; 12d8 <APP_cbTimerButtonScan+0xec>
    1200:	f8df a0d8 	ldr.w	sl, [pc, #216]	; 12dc <APP_cbTimerButtonScan+0xf0>
    1204:	f026 467f 	bic.w	r6, r6, #4278190080	; 0xff000000
    1208:	f426 0677 	bic.w	r6, r6, #16187392	; 0xf70000
    120c:	f426 46fe 	bic.w	r6, r6, #32512	; 0x7f00
    1210:	b085      	sub	sp, #20
    1212:	f026 066d 	bic.w	r6, r6, #109	; 0x6d
    1216:	2400      	movs	r4, #0
    1218:	f04f 0bff 	mov.w	fp, #255	; 0xff
    121c:	f817 3b01 	ldrb.w	r3, [r7], #1
    1220:	f899 1000 	ldrb.w	r1, [r9]
    1224:	fa26 f303 	lsr.w	r3, r6, r3
    1228:	f003 0301 	and.w	r3, r3, #1
    122c:	ea43 0341 	orr.w	r3, r3, r1, lsl #1
    1230:	b2db      	uxtb	r3, r3
    1232:	f809 3b01 	strb.w	r3, [r9], #1
    1236:	ea03 0b0b 	and.w	fp, r3, fp
    123a:	bb3b      	cbnz	r3, 128c <APP_cbTimerButtonScan+0xa0>
    123c:	782b      	ldrb	r3, [r5, #0]
    123e:	b97b      	cbnz	r3, 1260 <APP_cbTimerButtonScan+0x74>
    1240:	2301      	movs	r3, #1
    1242:	702b      	strb	r3, [r5, #0]
    1244:	2302      	movs	r3, #2
    1246:	f88d 3004 	strb.w	r3, [sp, #4]
    124a:	f88d 4008 	strb.w	r4, [sp, #8]
    124e:	9603      	str	r6, [sp, #12]
    1250:	4621      	mov	r1, r4
    1252:	4650      	mov	r0, sl
    1254:	f000 f91e 	bl	1494 <DbgConsole_Printf>
    1258:	a901      	add	r1, sp, #4
    125a:	4640      	mov	r0, r8
    125c:	f7ff f86e 	bl	33c <bHandleEventSend>
    1260:	3401      	adds	r4, #1
    1262:	2c05      	cmp	r4, #5
    1264:	f105 0501 	add.w	r5, r5, #1
    1268:	d1d8      	bne.n	121c <APP_cbTimerButtonScan+0x30>
    126a:	f1bb 0fff 	cmp.w	fp, #255	; 0xff
    126e:	4d15      	ldr	r5, [pc, #84]	; (12c4 <APP_cbTimerButtonScan+0xd8>)
    1270:	d11c      	bne.n	12ac <APP_cbTimerButtonScan+0xc0>
    1272:	4621      	mov	r1, r4
    1274:	4814      	ldr	r0, [pc, #80]	; (12c8 <APP_cbTimerButtonScan+0xdc>)
    1276:	f000 f90d 	bl	1494 <DbgConsole_Printf>
    127a:	4814      	ldr	r0, [pc, #80]	; (12cc <APP_cbTimerButtonScan+0xe0>)
    127c:	f000 f984 	bl	1588 <GINT_EnableCallback>
    1280:	7828      	ldrb	r0, [r5, #0]
    1282:	f000 fad1 	bl	1828 <ZTIMER_eStop>
    1286:	b005      	add	sp, #20
    1288:	e8bd 8ff0 	ldmia.w	sp!, {r4, r5, r6, r7, r8, r9, sl, fp, pc}
    128c:	2bff      	cmp	r3, #255	; 0xff
    128e:	d1e7      	bne.n	1260 <APP_cbTimerButtonScan+0x74>
    1290:	782b      	ldrb	r3, [r5, #0]
    1292:	2b00      	cmp	r3, #0
    1294:	d0e4      	beq.n	1260 <APP_cbTimerButtonScan+0x74>
    1296:	2300      	movs	r3, #0
    1298:	702b      	strb	r3, [r5, #0]
    129a:	2301      	movs	r3, #1
    129c:	480c      	ldr	r0, [pc, #48]	; (12d0 <APP_cbTimerButtonScan+0xe4>)
    129e:	f88d 3004 	strb.w	r3, [sp, #4]
    12a2:	f88d 4008 	strb.w	r4, [sp, #8]
    12a6:	9603      	str	r6, [sp, #12]
    12a8:	4621      	mov	r1, r4
    12aa:	e7d3      	b.n	1254 <APP_cbTimerButtonScan+0x68>
    12ac:	7828      	ldrb	r0, [r5, #0]
    12ae:	210a      	movs	r1, #10
    12b0:	f000 fa92 	bl	17d8 <ZTIMER_eStart>
    12b4:	e7e7      	b.n	1286 <APP_cbTimerButtonScan+0x9a>
    12b6:	bf00      	nop
    12b8:	40082100 	.word	0x40082100
    12bc:	00008140 	.word	0x00008140
    12c0:	04015ded 	.word	0x04015ded
    12c4:	04015bc0 	.word	0x04015bc0
    12c8:	00008138 	.word	0x00008138
    12cc:	40011000 	.word	0x40011000
    12d0:	0000812a 	.word	0x0000812a
    12d4:	04015af8 	.word	0x04015af8
    12d8:	04015b80 	.word	0x04015b80
    12dc:	0000811c 	.word	0x0000811c

000012e0 <bButtonInitialize>:
    12e0:	e92d 41f3 	stmdb	sp!, {r0, r1, r4, r5, r6, r7, r8, lr}
    12e4:	2300      	movs	r3, #0
    12e6:	4d1b      	ldr	r5, [pc, #108]	; (1354 <bButtonInitialize+0x74>)
    12e8:	4e1b      	ldr	r6, [pc, #108]	; (1358 <bButtonInitialize+0x78>)
    12ea:	f8df 8080 	ldr.w	r8, [pc, #128]	; 136c <bButtonInitialize+0x8c>
    12ee:	f8ad 3004 	strh.w	r3, [sp, #4]
    12f2:	2405      	movs	r4, #5
    12f4:	2780      	movs	r7, #128	; 0x80
    12f6:	f815 2b01 	ldrb.w	r2, [r5], #1
    12fa:	2a15      	cmp	r2, #21
    12fc:	d806      	bhi.n	130c <bButtonInitialize+0x2c>
    12fe:	f846 7022 	str.w	r7, [r6, r2, lsl #2]
    1302:	ab01      	add	r3, sp, #4
    1304:	2100      	movs	r1, #0
    1306:	4640      	mov	r0, r8
    1308:	f000 f8e4 	bl	14d4 <GPIO_PinInit>
    130c:	3c01      	subs	r4, #1
    130e:	f014 04ff 	ands.w	r4, r4, #255	; 0xff
    1312:	d1f0      	bne.n	12f6 <bButtonInitialize+0x16>
    1314:	4d11      	ldr	r5, [pc, #68]	; (135c <bButtonInitialize+0x7c>)
    1316:	4812      	ldr	r0, [pc, #72]	; (1360 <bButtonInitialize+0x80>)
    1318:	f000 f908 	bl	152c <GINT_Init>
    131c:	4622      	mov	r2, r4
    131e:	4621      	mov	r1, r4
    1320:	4b10      	ldr	r3, [pc, #64]	; (1364 <bButtonInitialize+0x84>)
    1322:	480f      	ldr	r0, [pc, #60]	; (1360 <bButtonInitialize+0x80>)
    1324:	f000 f914 	bl	1550 <GINT_SetCtrl>
    1328:	462b      	mov	r3, r5
    132a:	4622      	mov	r2, r4
    132c:	4621      	mov	r1, r4
    132e:	480c      	ldr	r0, [pc, #48]	; (1360 <bButtonInitialize+0x80>)
    1330:	f000 f924 	bl	157c <GINT_ConfigPins>
    1334:	480a      	ldr	r0, [pc, #40]	; (1360 <bButtonInitialize+0x80>)
    1336:	f000 f927 	bl	1588 <GINT_EnableCallback>
    133a:	4620      	mov	r0, r4
    133c:	f7ff ff56 	bl	11ec <APP_cbTimerButtonScan>
    1340:	4b09      	ldr	r3, [pc, #36]	; (1368 <bButtonInitialize+0x88>)
    1342:	681b      	ldr	r3, [r3, #0]
    1344:	ea35 0303 	bics.w	r3, r5, r3
    1348:	bf14      	ite	ne
    134a:	2001      	movne	r0, #1
    134c:	2000      	moveq	r0, #0
    134e:	b002      	add	sp, #8
    1350:	e8bd 81f0 	ldmia.w	sp!, {r4, r5, r6, r7, r8, pc}
    1354:	00008140 	.word	0x00008140
    1358:	4000f000 	.word	0x4000f000
    135c:	00088092 	.word	0x00088092
    1360:	40011000 	.word	0x40011000
    1364:	000010a9 	.word	0x000010a9
    1368:	40082100 	.word	0x40082100
    136c:	40080000 	.word	0x40080000

00001370 <DbgConsole_SendDataReliable>:
    1370:	b510      	push	{r4, lr}
    1372:	460c      	mov	r4, r1
    1374:	4601      	mov	r1, r0
    1376:	b930      	cbnz	r0, 1386 <DbgConsole_SendDataReliable+0x16>
    1378:	4b0b      	ldr	r3, [pc, #44]	; (13a8 <DbgConsole_SendDataReliable+0x38>)
    137a:	4a0c      	ldr	r2, [pc, #48]	; (13ac <DbgConsole_SendDataReliable+0x3c>)
    137c:	f240 11d1 	movw	r1, #465	; 0x1d1
    1380:	480b      	ldr	r0, [pc, #44]	; (13b0 <DbgConsole_SendDataReliable+0x40>)
    1382:	f003 f8bf 	bl	4504 <__assert_func>
    1386:	b924      	cbnz	r4, 1392 <DbgConsole_SendDataReliable+0x22>
    1388:	4b0a      	ldr	r3, [pc, #40]	; (13b4 <DbgConsole_SendDataReliable+0x44>)
    138a:	4a08      	ldr	r2, [pc, #32]	; (13ac <DbgConsole_SendDataReliable+0x3c>)
    138c:	f44f 71e9 	mov.w	r1, #466	; 0x1d2
    1390:	e7f6      	b.n	1380 <DbgConsole_SendDataReliable+0x10>
    1392:	4622      	mov	r2, r4
    1394:	4808      	ldr	r0, [pc, #32]	; (13b8 <DbgConsole_SendDataReliable+0x48>)
    1396:	f002 ffa1 	bl	42dc <SerialManager_WriteBlocking>
    139a:	2800      	cmp	r0, #0
    139c:	bf0c      	ite	eq
    139e:	4620      	moveq	r0, r4
    13a0:	f04f 30ff 	movne.w	r0, #4294967295
    13a4:	bd10      	pop	{r4, pc}
    13a6:	bf00      	nop
    13a8:	00008145 	.word	0x00008145
    13ac:	000081e4 	.word	0x000081e4
    13b0:	00008150 	.word	0x00008150
    13b4:	000081b2 	.word	0x000081b2
    13b8:	04015e0c 	.word	0x04015e0c

000013bc <DbgConsole_PrintCallback>:
    13bc:	e92d 43f8 	stmdb	sp!, {r3, r4, r5, r6, r7, r8, r9, lr}
    13c0:	2500      	movs	r5, #0
    13c2:	4606      	mov	r6, r0
    13c4:	460c      	mov	r4, r1
    13c6:	4690      	mov	r8, r2
    13c8:	461f      	mov	r7, r3
    13ca:	46a9      	mov	r9, r5
    13cc:	42bd      	cmp	r5, r7
    13ce:	db01      	blt.n	13d4 <DbgConsole_PrintCallback+0x18>
    13d0:	e8bd 83f8 	ldmia.w	sp!, {r3, r4, r5, r6, r7, r8, r9, pc}
    13d4:	6821      	ldr	r1, [r4, #0]
    13d6:	1c4b      	adds	r3, r1, #1
    13d8:	2b7f      	cmp	r3, #127	; 0x7f
    13da:	d904      	bls.n	13e6 <DbgConsole_PrintCallback+0x2a>
    13dc:	4630      	mov	r0, r6
    13de:	f7ff ffc7 	bl	1370 <DbgConsole_SendDataReliable>
    13e2:	f8c4 9000 	str.w	r9, [r4]
    13e6:	6823      	ldr	r3, [r4, #0]
    13e8:	f806 8003 	strb.w	r8, [r6, r3]
    13ec:	6823      	ldr	r3, [r4, #0]
    13ee:	3301      	adds	r3, #1
    13f0:	6023      	str	r3, [r4, #0]
    13f2:	3501      	adds	r5, #1
    13f4:	e7ea      	b.n	13cc <DbgConsole_PrintCallback+0x10>
    13f6:	Address 0x000013f6 is out of bounds.


000013f8 <DbgConsole_Init>:
    13f8:	b510      	push	{r4, lr}
    13fa:	b088      	sub	sp, #32
    13fc:	e9cd 3104 	strd	r3, r1, [sp, #16]
    1400:	2301      	movs	r3, #1
    1402:	2100      	movs	r1, #0
    1404:	429a      	cmp	r2, r3
    1406:	f8ad 1018 	strh.w	r1, [sp, #24]
    140a:	f88d 001a 	strb.w	r0, [sp, #26]
    140e:	f88d 301b 	strb.w	r3, [sp, #27]
    1412:	f88d 301c 	strb.w	r3, [sp, #28]
    1416:	f88d 2008 	strb.w	r2, [sp, #8]
    141a:	d12e      	bne.n	147a <DbgConsole_Init+0x82>
    141c:	4c18      	ldr	r4, [pc, #96]	; (1480 <DbgConsole_Init+0x88>)
    141e:	ab04      	add	r3, sp, #16
    1420:	221c      	movs	r2, #28
    1422:	4620      	mov	r0, r4
    1424:	9303      	str	r3, [sp, #12]
    1426:	f006 f9f7 	bl	7818 <memset>
    142a:	4669      	mov	r1, sp
    142c:	4620      	mov	r0, r4
    142e:	6124      	str	r4, [r4, #16]
    1430:	f002 fed0 	bl	41d4 <SerialManager_Init>
    1434:	b130      	cbz	r0, 1444 <DbgConsole_Init+0x4c>
    1436:	4b13      	ldr	r3, [pc, #76]	; (1484 <DbgConsole_Init+0x8c>)
    1438:	4a13      	ldr	r2, [pc, #76]	; (1488 <DbgConsole_Init+0x90>)
    143a:	f44f 7133 	mov.w	r1, #716	; 0x2cc
    143e:	4813      	ldr	r0, [pc, #76]	; (148c <DbgConsole_Init+0x94>)
    1440:	f003 f860 	bl	4504 <__assert_func>
    1444:	6920      	ldr	r0, [r4, #16]
    1446:	f104 0114 	add.w	r1, r4, #20
    144a:	f002 feef 	bl	422c <SerialManager_OpenWriteHandle>
    144e:	b120      	cbz	r0, 145a <DbgConsole_Init+0x62>
    1450:	4b0c      	ldr	r3, [pc, #48]	; (1484 <DbgConsole_Init+0x8c>)
    1452:	4a0d      	ldr	r2, [pc, #52]	; (1488 <DbgConsole_Init+0x90>)
    1454:	f240 21d6 	movw	r1, #726	; 0x2d6
    1458:	e7f1      	b.n	143e <DbgConsole_Init+0x46>
    145a:	6920      	ldr	r0, [r4, #16]
    145c:	f104 0118 	add.w	r1, r4, #24
    1460:	f002 ff0e 	bl	4280 <SerialManager_OpenReadHandle>
    1464:	b120      	cbz	r0, 1470 <DbgConsole_Init+0x78>
    1466:	4b07      	ldr	r3, [pc, #28]	; (1484 <DbgConsole_Init+0x8c>)
    1468:	4a07      	ldr	r2, [pc, #28]	; (1488 <DbgConsole_Init+0x90>)
    146a:	f240 21e1 	movw	r1, #737	; 0x2e1
    146e:	e7e6      	b.n	143e <DbgConsole_Init+0x46>
    1470:	4b07      	ldr	r3, [pc, #28]	; (1490 <DbgConsole_Init+0x98>)
    1472:	6922      	ldr	r2, [r4, #16]
    1474:	601a      	str	r2, [r3, #0]
    1476:	b008      	add	sp, #32
    1478:	bd10      	pop	{r4, pc}
    147a:	f243 5021 	movw	r0, #13601	; 0x3521
    147e:	e7fa      	b.n	1476 <DbgConsole_Init+0x7e>
    1480:	04015df8 	.word	0x04015df8
    1484:	000081bc 	.word	0x000081bc
    1488:	00008200 	.word	0x00008200
    148c:	00008150 	.word	0x00008150
    1490:	04015df4 	.word	0x04015df4

00001494 <DbgConsole_Printf>:
    1494:	b40f      	push	{r0, r1, r2, r3}
    1496:	b500      	push	{lr}
    1498:	b0a3      	sub	sp, #140	; 0x8c
    149a:	2100      	movs	r1, #0
    149c:	227c      	movs	r2, #124	; 0x7c
    149e:	a803      	add	r0, sp, #12
    14a0:	9102      	str	r1, [sp, #8]
    14a2:	f006 f9b9 	bl	7818 <memset>
    14a6:	4b09      	ldr	r3, [pc, #36]	; (14cc <DbgConsole_Printf+0x38>)
    14a8:	6818      	ldr	r0, [r3, #0]
    14aa:	b150      	cbz	r0, 14c2 <DbgConsole_Printf+0x2e>
    14ac:	a925      	add	r1, sp, #148	; 0x94
    14ae:	4b08      	ldr	r3, [pc, #32]	; (14d0 <DbgConsole_Printf+0x3c>)
    14b0:	9824      	ldr	r0, [sp, #144]	; 0x90
    14b2:	9101      	str	r1, [sp, #4]
    14b4:	aa02      	add	r2, sp, #8
    14b6:	f002 fbcf 	bl	3c58 <StrFormatPrintf>
    14ba:	4601      	mov	r1, r0
    14bc:	a802      	add	r0, sp, #8
    14be:	f7ff ff57 	bl	1370 <DbgConsole_SendDataReliable>
    14c2:	b023      	add	sp, #140	; 0x8c
    14c4:	f85d eb04 	ldr.w	lr, [sp], #4
    14c8:	b004      	add	sp, #16
    14ca:	4770      	bx	lr
    14cc:	04015df4 	.word	0x04015df4
    14d0:	000013bd 	.word	0x000013bd

000014d4 <GPIO_PinInit>:
    14d4:	b510      	push	{r4, lr}
    14d6:	2401      	movs	r4, #1
    14d8:	fa04 f202 	lsl.w	r2, r4, r2
    14dc:	781c      	ldrb	r4, [r3, #0]
    14de:	b924      	cbnz	r4, 14ea <GPIO_PinInit+0x16>
    14e0:	f501 6110 	add.w	r1, r1, #2304	; 0x900
    14e4:	f840 2021 	str.w	r2, [r0, r1, lsl #2]
    14e8:	bd10      	pop	{r4, pc}
    14ea:	785b      	ldrb	r3, [r3, #1]
    14ec:	b933      	cbnz	r3, 14fc <GPIO_PinInit+0x28>
    14ee:	f501 630a 	add.w	r3, r1, #2208	; 0x8a0
    14f2:	f840 2023 	str.w	r2, [r0, r3, lsl #2]
    14f6:	f501 610e 	add.w	r1, r1, #2272	; 0x8e0
    14fa:	e7f3      	b.n	14e4 <GPIO_PinInit+0x10>
    14fc:	f501 6308 	add.w	r3, r1, #2176	; 0x880
    1500:	e7f7      	b.n	14f2 <GPIO_PinInit+0x1e>
    1502:	Address 0x00001502 is out of bounds.


00001504 <GINT_GetInstance>:
    1504:	b508      	push	{r3, lr}
    1506:	4b05      	ldr	r3, [pc, #20]	; (151c <GINT_GetInstance+0x18>)
    1508:	4298      	cmp	r0, r3
    150a:	d005      	beq.n	1518 <GINT_GetInstance+0x14>
    150c:	4b04      	ldr	r3, [pc, #16]	; (1520 <GINT_GetInstance+0x1c>)
    150e:	4a05      	ldr	r2, [pc, #20]	; (1524 <GINT_GetInstance+0x20>)
    1510:	4805      	ldr	r0, [pc, #20]	; (1528 <GINT_GetInstance+0x24>)
    1512:	2137      	movs	r1, #55	; 0x37
    1514:	f002 fff6 	bl	4504 <__assert_func>
    1518:	2000      	movs	r0, #0
    151a:	bd08      	pop	{r3, pc}
    151c:	40011000 	.word	0x40011000
    1520:	00008210 	.word	0x00008210
    1524:	0000827c 	.word	0x0000827c
    1528:	00008233 	.word	0x00008233

0000152c <GINT_Init>:
    152c:	b508      	push	{r3, lr}
    152e:	f7ff ffe9 	bl	1504 <GINT_GetInstance>
    1532:	4b06      	ldr	r3, [pc, #24]	; (154c <GINT_Init+0x20>)
    1534:	2200      	movs	r2, #0
    1536:	f843 2020 	str.w	r2, [r3, r0, lsl #2]
    153a:	2013      	movs	r0, #19
    153c:	f000 fee6 	bl	230c <CLOCK_EnableClock>
    1540:	e8bd 4008 	ldmia.w	sp!, {r3, lr}
    1544:	2013      	movs	r0, #19
    1546:	f000 bfa7 	b.w	2498 <RESET_PeripheralReset>
    154a:	bf00      	nop
    154c:	04015e14 	.word	0x04015e14

00001550 <GINT_SetCtrl>:
    1550:	b5f8      	push	{r3, r4, r5, r6, r7, lr}
    1552:	460c      	mov	r4, r1
    1554:	4615      	mov	r5, r2
    1556:	461f      	mov	r7, r3
    1558:	4606      	mov	r6, r0
    155a:	0064      	lsls	r4, r4, #1
    155c:	f7ff ffd2 	bl	1504 <GINT_GetInstance>
    1560:	00ad      	lsls	r5, r5, #2
    1562:	4b05      	ldr	r3, [pc, #20]	; (1578 <GINT_SetCtrl+0x28>)
    1564:	f004 0402 	and.w	r4, r4, #2
    1568:	f005 0504 	and.w	r5, r5, #4
    156c:	432c      	orrs	r4, r5
    156e:	6034      	str	r4, [r6, #0]
    1570:	f843 7020 	str.w	r7, [r3, r0, lsl #2]
    1574:	bdf8      	pop	{r3, r4, r5, r6, r7, pc}
    1576:	bf00      	nop
    1578:	04015e14 	.word	0x04015e14

0000157c <GINT_ConfigPins>:
    157c:	eb00 0181 	add.w	r1, r0, r1, lsl #2
    1580:	620a      	str	r2, [r1, #32]
    1582:	640b      	str	r3, [r1, #64]	; 0x40
    1584:	4770      	bx	lr
    1586:	Address 0x00001586 is out of bounds.


00001588 <GINT_EnableCallback>:
    1588:	b510      	push	{r4, lr}
    158a:	4604      	mov	r4, r0
    158c:	f7ff ffba 	bl	1504 <GINT_GetInstance>
    1590:	6823      	ldr	r3, [r4, #0]
    1592:	f043 0301 	orr.w	r3, r3, #1
    1596:	6023      	str	r3, [r4, #0]
    1598:	4b02      	ldr	r3, [pc, #8]	; (15a4 <GINT_EnableCallback+0x1c>)
    159a:	2204      	movs	r2, #4
    159c:	f8c3 2180 	str.w	r2, [r3, #384]	; 0x180
    15a0:	601a      	str	r2, [r3, #0]
    15a2:	bd10      	pop	{r4, pc}
    15a4:	e000e100 	.word	0xe000e100

000015a8 <GINT_DisableCallback>:
    15a8:	b510      	push	{r4, lr}
    15aa:	4604      	mov	r4, r0
    15ac:	f7ff ffaa 	bl	1504 <GINT_GetInstance>
    15b0:	4a07      	ldr	r2, [pc, #28]	; (15d0 <GINT_DisableCallback+0x28>)
    15b2:	2104      	movs	r1, #4
    15b4:	f8c2 1080 	str.w	r1, [r2, #128]	; 0x80
    15b8:	f3bf 8f4f 	dsb	sy
    15bc:	f3bf 8f6f 	isb	sy
    15c0:	6823      	ldr	r3, [r4, #0]
    15c2:	f043 0301 	orr.w	r3, r3, #1
    15c6:	6023      	str	r3, [r4, #0]
    15c8:	f8c2 1180 	str.w	r1, [r2, #384]	; 0x180
    15cc:	bd10      	pop	{r4, pc}
    15ce:	bf00      	nop
    15d0:	e000e100 	.word	0xe000e100

000015d4 <GINT0_DriverIRQHandler>:
    15d4:	4a06      	ldr	r2, [pc, #24]	; (15f0 <GINT0_DriverIRQHandler+0x1c>)
    15d6:	b508      	push	{r3, lr}
    15d8:	6813      	ldr	r3, [r2, #0]
    15da:	f043 0301 	orr.w	r3, r3, #1
    15de:	6013      	str	r3, [r2, #0]
    15e0:	4b04      	ldr	r3, [pc, #16]	; (15f4 <GINT0_DriverIRQHandler+0x20>)
    15e2:	681b      	ldr	r3, [r3, #0]
    15e4:	b103      	cbz	r3, 15e8 <GINT0_DriverIRQHandler+0x14>
    15e6:	4798      	blx	r3
    15e8:	f3bf 8f4f 	dsb	sy
    15ec:	bd08      	pop	{r3, pc}
    15ee:	bf00      	nop
    15f0:	40011000 	.word	0x40011000
    15f4:	04015e14 	.word	0x04015e14

000015f8 <BOARD_InitClocks>:
    15f8:	b510      	push	{r4, lr}
    15fa:	f000 fd9d 	bl	2138 <CLOCK_EnableAPBBridge>
    15fe:	481b      	ldr	r0, [pc, #108]	; (166c <BOARD_InitClocks+0x74>)
    1600:	4c1b      	ldr	r4, [pc, #108]	; (1670 <BOARD_InitClocks+0x78>)
    1602:	f000 fe83 	bl	230c <CLOCK_EnableClock>
    1606:	481b      	ldr	r0, [pc, #108]	; (1674 <BOARD_InitClocks+0x7c>)
    1608:	f000 fe80 	bl	230c <CLOCK_EnableClock>
    160c:	481a      	ldr	r0, [pc, #104]	; (1678 <BOARD_InitClocks+0x80>)
    160e:	f000 fe7d 	bl	230c <CLOCK_EnableClock>
    1612:	200d      	movs	r0, #13
    1614:	f000 fe7a 	bl	230c <CLOCK_EnableClock>
    1618:	200b      	movs	r0, #11
    161a:	f000 fe77 	bl	230c <CLOCK_EnableClock>
    161e:	200e      	movs	r0, #14
    1620:	f000 fe74 	bl	230c <CLOCK_EnableClock>
    1624:	201b      	movs	r0, #27
    1626:	f000 fe71 	bl	230c <CLOCK_EnableClock>
    162a:	f8d4 30b8 	ldr.w	r3, [r4, #184]	; 0xb8
    162e:	f443 0380 	orr.w	r3, r3, #4194304	; 0x400000
    1632:	f8c4 30b8 	str.w	r3, [r4, #184]	; 0xb8
    1636:	f241 00ac 	movw	r0, #4268	; 0x10ac
    163a:	f000 fadb 	bl	1bf4 <CLOCK_AttachClk>
    163e:	f44f 708c 	mov.w	r0, #280	; 0x118
    1642:	f000 fe63 	bl	230c <CLOCK_EnableClock>
    1646:	f240 100d 	movw	r0, #269	; 0x10d
    164a:	f000 fe5f 	bl	230c <CLOCK_EnableClock>
    164e:	f241 00ad 	movw	r0, #4269	; 0x10ad
    1652:	f000 facf 	bl	1bf4 <CLOCK_AttachClk>
    1656:	f241 00a9 	movw	r0, #4265	; 0x10a9
    165a:	f000 facb 	bl	1bf4 <CLOCK_AttachClk>
    165e:	f8d4 30b8 	ldr.w	r3, [r4, #184]	; 0xb8
    1662:	f443 0380 	orr.w	r3, r3, #4194304	; 0x400000
    1666:	f8c4 30b8 	str.w	r3, [r4, #184]	; 0xb8
    166a:	bd10      	pop	{r4, pc}
    166c:	00010008 	.word	0x00010008
    1670:	40012000 	.word	0x40012000
    1674:	00010004 	.word	0x00010004
    1678:	00010005 	.word	0x00010005

0000167c <BOARD_InitHardware>:
    167c:	b508      	push	{r3, lr}
    167e:	f04f 4380 	mov.w	r3, #1073741824	; 0x40000000
    1682:	4a0d      	ldr	r2, [pc, #52]	; (16b8 <BOARD_InitHardware+0x3c>)
    1684:	f8c3 2ff0 	str.w	r2, [r3, #4080]	; 0xff0
    1688:	f001 fada 	bl	2c40 <POWER_Init>
    168c:	480b      	ldr	r0, [pc, #44]	; (16bc <BOARD_InitHardware+0x40>)
    168e:	f000 ff03 	bl	2498 <RESET_PeripheralReset>
    1692:	200e      	movs	r0, #14
    1694:	f000 ff00 	bl	2498 <RESET_PeripheralReset>
    1698:	4809      	ldr	r0, [pc, #36]	; (16c0 <BOARD_InitHardware+0x44>)
    169a:	f000 fefd 	bl	2498 <RESET_PeripheralReset>
    169e:	4a09      	ldr	r2, [pc, #36]	; (16c4 <BOARD_InitHardware+0x48>)
    16a0:	6813      	ldr	r3, [r2, #0]
    16a2:	f043 0308 	orr.w	r3, r3, #8
    16a6:	6013      	str	r3, [r2, #0]
    16a8:	f7ff ffa6 	bl	15f8 <BOARD_InitClocks>
    16ac:	f000 f9a0 	bl	19f0 <BOARD_InitDebugConsole>
    16b0:	e8bd 4008 	ldmia.w	sp!, {r3, lr}
    16b4:	f000 b808 	b.w	16c8 <BOARD_InitPins>
    16b8:	87654320 	.word	0x87654320
    16bc:	0001000b 	.word	0x0001000b
    16c0:	0001000d 	.word	0x0001000d
    16c4:	40012000 	.word	0x40012000

000016c8 <BOARD_InitPins>:
    16c8:	4b05      	ldr	r3, [pc, #20]	; (16e0 <BOARD_InitPins+0x18>)
    16ca:	2292      	movs	r2, #146	; 0x92
    16cc:	621a      	str	r2, [r3, #32]
    16ce:	625a      	str	r2, [r3, #36]	; 0x24
    16d0:	631a      	str	r2, [r3, #48]	; 0x30
    16d2:	635a      	str	r2, [r3, #52]	; 0x34
    16d4:	f240 1285 	movw	r2, #389	; 0x185
    16d8:	629a      	str	r2, [r3, #40]	; 0x28
    16da:	62da      	str	r2, [r3, #44]	; 0x2c
    16dc:	4770      	bx	lr
    16de:	bf00      	nop
    16e0:	4000f000 	.word	0x4000f000

000016e4 <BOARD_GetClock32MCapacitanceCharacteristics>:
    16e4:	4800      	ldr	r0, [pc, #0]	; (16e8 <BOARD_GetClock32MCapacitanceCharacteristics+0x4>)
    16e6:	4770      	bx	lr
    16e8:	00008290 	.word	0x00008290

000016ec <ZTIMER_eInit>:
    16ec:	b510      	push	{r4, lr}
    16ee:	b158      	cbz	r0, 1708 <ZTIMER_eInit+0x1c>
    16f0:	b151      	cbz	r1, 1708 <ZTIMER_eInit+0x1c>
    16f2:	4a06      	ldr	r2, [pc, #24]	; (170c <ZTIMER_eInit+0x20>)
    16f4:	2400      	movs	r4, #0
    16f6:	7111      	strb	r1, [r2, #4]
    16f8:	6090      	str	r0, [r2, #8]
    16fa:	6014      	str	r4, [r2, #0]
    16fc:	010a      	lsls	r2, r1, #4
    16fe:	4621      	mov	r1, r4
    1700:	f006 f88a 	bl	7818 <memset>
    1704:	4620      	mov	r0, r4
    1706:	bd10      	pop	{r4, pc}
    1708:	2001      	movs	r0, #1
    170a:	e7fc      	b.n	1706 <ZTIMER_eInit+0x1a>
    170c:	04015e18 	.word	0x04015e18

00001710 <ZTIMER_vTask>:
    1710:	e92d 41f3 	stmdb	sp!, {r0, r1, r4, r5, r6, r7, r8, lr}
    1714:	4c21      	ldr	r4, [pc, #132]	; (179c <ZTIMER_vTask+0x8c>)
    1716:	6823      	ldr	r3, [r4, #0]
    1718:	9300      	str	r3, [sp, #0]
    171a:	f000 f931 	bl	1980 <OSA_TimeGetMsec>
    171e:	9001      	str	r0, [sp, #4]
    1720:	9a01      	ldr	r2, [sp, #4]
    1722:	9b00      	ldr	r3, [sp, #0]
    1724:	429a      	cmp	r2, r3
    1726:	d30b      	bcc.n	1740 <ZTIMER_vTask+0x30>
    1728:	9b01      	ldr	r3, [sp, #4]
    172a:	9a00      	ldr	r2, [sp, #0]
    172c:	1a9b      	subs	r3, r3, r2
    172e:	6023      	str	r3, [r4, #0]
    1730:	6823      	ldr	r3, [r4, #0]
    1732:	2b00      	cmp	r3, #0
    1734:	d12f      	bne.n	1796 <ZTIMER_vTask+0x86>
    1736:	9b01      	ldr	r3, [sp, #4]
    1738:	6023      	str	r3, [r4, #0]
    173a:	b002      	add	sp, #8
    173c:	e8bd 81f0 	ldmia.w	sp!, {r4, r5, r6, r7, r8, pc}
    1740:	9b00      	ldr	r3, [sp, #0]
    1742:	43db      	mvns	r3, r3
    1744:	6023      	str	r3, [r4, #0]
    1746:	9a01      	ldr	r2, [sp, #4]
    1748:	6823      	ldr	r3, [r4, #0]
    174a:	4413      	add	r3, r2
    174c:	e7ef      	b.n	172e <ZTIMER_vTask+0x1e>
    174e:	68a2      	ldr	r2, [r4, #8]
    1750:	eb02 1506 	add.w	r5, r2, r6, lsl #4
    1754:	0131      	lsls	r1, r6, #4
    1756:	786b      	ldrb	r3, [r5, #1]
    1758:	2b02      	cmp	r3, #2
    175a:	d106      	bne.n	176a <ZTIMER_vTask+0x5a>
    175c:	686b      	ldr	r3, [r5, #4]
    175e:	6820      	ldr	r0, [r4, #0]
    1760:	4283      	cmp	r3, r0
    1762:	d907      	bls.n	1774 <ZTIMER_vTask+0x64>
    1764:	6822      	ldr	r2, [r4, #0]
    1766:	1a9b      	subs	r3, r3, r2
    1768:	606b      	str	r3, [r5, #4]
    176a:	3601      	adds	r6, #1
    176c:	7923      	ldrb	r3, [r4, #4]
    176e:	429e      	cmp	r6, r3
    1770:	dbed      	blt.n	174e <ZTIMER_vTask+0x3e>
    1772:	e7e0      	b.n	1736 <ZTIMER_vTask+0x26>
    1774:	f3ef 8810 	mrs	r8, PRIMASK
    1778:	b672      	cpsid	i
    177a:	706f      	strb	r7, [r5, #1]
    177c:	5c53      	ldrb	r3, [r2, r1]
    177e:	07db      	lsls	r3, r3, #31
    1780:	d501      	bpl.n	1786 <ZTIMER_vTask+0x76>
    1782:	f002 fed2 	bl	452a <PWRM_eFinishActivity>
    1786:	f388 8810 	msr	PRIMASK, r8
    178a:	68eb      	ldr	r3, [r5, #12]
    178c:	2b00      	cmp	r3, #0
    178e:	d0ec      	beq.n	176a <ZTIMER_vTask+0x5a>
    1790:	68a8      	ldr	r0, [r5, #8]
    1792:	4798      	blx	r3
    1794:	e7e9      	b.n	176a <ZTIMER_vTask+0x5a>
    1796:	2600      	movs	r6, #0
    1798:	2703      	movs	r7, #3
    179a:	e7e7      	b.n	176c <ZTIMER_vTask+0x5c>
    179c:	04015e18 	.word	0x04015e18

000017a0 <ZTIMER_eOpen>:
    17a0:	b5f0      	push	{r4, r5, r6, r7, lr}
    17a2:	4607      	mov	r7, r0
    17a4:	480b      	ldr	r0, [pc, #44]	; (17d4 <ZTIMER_eOpen+0x34>)
    17a6:	f890 c004 	ldrb.w	ip, [r0, #4]
    17aa:	6886      	ldr	r6, [r0, #8]
    17ac:	2500      	movs	r5, #0
    17ae:	45ac      	cmp	ip, r5
    17b0:	dc01      	bgt.n	17b6 <ZTIMER_eOpen+0x16>
    17b2:	2001      	movs	r0, #1
    17b4:	e00a      	b.n	17cc <ZTIMER_eOpen+0x2c>
    17b6:	4634      	mov	r4, r6
    17b8:	7870      	ldrb	r0, [r6, #1]
    17ba:	3610      	adds	r6, #16
    17bc:	b938      	cbnz	r0, 17ce <ZTIMER_eOpen+0x2e>
    17be:	7023      	strb	r3, [r4, #0]
    17c0:	2301      	movs	r3, #1
    17c2:	e9c4 2102 	strd	r2, r1, [r4, #8]
    17c6:	6060      	str	r0, [r4, #4]
    17c8:	7063      	strb	r3, [r4, #1]
    17ca:	703d      	strb	r5, [r7, #0]
    17cc:	bdf0      	pop	{r4, r5, r6, r7, pc}
    17ce:	3501      	adds	r5, #1
    17d0:	e7ed      	b.n	17ae <ZTIMER_eOpen+0xe>
    17d2:	bf00      	nop
    17d4:	04015e18 	.word	0x04015e18

000017d8 <ZTIMER_eStart>:
    17d8:	b5f8      	push	{r3, r4, r5, r6, r7, lr}
    17da:	4c12      	ldr	r4, [pc, #72]	; (1824 <ZTIMER_eStart+0x4c>)
    17dc:	7923      	ldrb	r3, [r4, #4]
    17de:	4283      	cmp	r3, r0
    17e0:	460d      	mov	r5, r1
    17e2:	d31c      	bcc.n	181e <ZTIMER_eStart+0x46>
    17e4:	68a2      	ldr	r2, [r4, #8]
    17e6:	0106      	lsls	r6, r0, #4
    17e8:	eb02 1000 	add.w	r0, r2, r0, lsl #4
    17ec:	7843      	ldrb	r3, [r0, #1]
    17ee:	b1b3      	cbz	r3, 181e <ZTIMER_eStart+0x46>
    17f0:	b1a9      	cbz	r1, 181e <ZTIMER_eStart+0x46>
    17f2:	f3ef 8710 	mrs	r7, PRIMASK
    17f6:	b672      	cpsid	i
    17f8:	68a2      	ldr	r2, [r4, #8]
    17fa:	1993      	adds	r3, r2, r6
    17fc:	5d92      	ldrb	r2, [r2, r6]
    17fe:	07d2      	lsls	r2, r2, #31
    1800:	d504      	bpl.n	180c <ZTIMER_eStart+0x34>
    1802:	785b      	ldrb	r3, [r3, #1]
    1804:	2b02      	cmp	r3, #2
    1806:	d001      	beq.n	180c <ZTIMER_eStart+0x34>
    1808:	f002 fe8a 	bl	4520 <PWRM_eStartActivity>
    180c:	68a3      	ldr	r3, [r4, #8]
    180e:	4433      	add	r3, r6
    1810:	2202      	movs	r2, #2
    1812:	605d      	str	r5, [r3, #4]
    1814:	705a      	strb	r2, [r3, #1]
    1816:	f387 8810 	msr	PRIMASK, r7
    181a:	2000      	movs	r0, #0
    181c:	bdf8      	pop	{r3, r4, r5, r6, r7, pc}
    181e:	2001      	movs	r0, #1
    1820:	e7fc      	b.n	181c <ZTIMER_eStart+0x44>
    1822:	bf00      	nop
    1824:	04015e18 	.word	0x04015e18

00001828 <ZTIMER_eStop>:
    1828:	b570      	push	{r4, r5, r6, lr}
    182a:	4c10      	ldr	r4, [pc, #64]	; (186c <ZTIMER_eStop+0x44>)
    182c:	7923      	ldrb	r3, [r4, #4]
    182e:	4283      	cmp	r3, r0
    1830:	d31a      	bcc.n	1868 <ZTIMER_eStop+0x40>
    1832:	68a3      	ldr	r3, [r4, #8]
    1834:	0105      	lsls	r5, r0, #4
    1836:	eb03 1000 	add.w	r0, r3, r0, lsl #4
    183a:	7843      	ldrb	r3, [r0, #1]
    183c:	b1a3      	cbz	r3, 1868 <ZTIMER_eStop+0x40>
    183e:	f3ef 8610 	mrs	r6, PRIMASK
    1842:	b672      	cpsid	i
    1844:	68a3      	ldr	r3, [r4, #8]
    1846:	195a      	adds	r2, r3, r5
    1848:	5d5b      	ldrb	r3, [r3, r5]
    184a:	07db      	lsls	r3, r3, #31
    184c:	d504      	bpl.n	1858 <ZTIMER_eStop+0x30>
    184e:	7853      	ldrb	r3, [r2, #1]
    1850:	2b02      	cmp	r3, #2
    1852:	d101      	bne.n	1858 <ZTIMER_eStop+0x30>
    1854:	f002 fe69 	bl	452a <PWRM_eFinishActivity>
    1858:	68a3      	ldr	r3, [r4, #8]
    185a:	442b      	add	r3, r5
    185c:	2201      	movs	r2, #1
    185e:	705a      	strb	r2, [r3, #1]
    1860:	f386 8810 	msr	PRIMASK, r6
    1864:	2000      	movs	r0, #0
    1866:	bd70      	pop	{r4, r5, r6, pc}
    1868:	2001      	movs	r0, #1
    186a:	e7fc      	b.n	1866 <ZTIMER_eStop+0x3e>
    186c:	04015e18 	.word	0x04015e18

00001870 <OSA_EnableIRQGlobal>:
    1870:	4a03      	ldr	r2, [pc, #12]	; (1880 <OSA_EnableIRQGlobal+0x10>)
    1872:	6813      	ldr	r3, [r2, #0]
    1874:	b11b      	cbz	r3, 187e <OSA_EnableIRQGlobal+0xe>
    1876:	3b01      	subs	r3, #1
    1878:	6013      	str	r3, [r2, #0]
    187a:	b903      	cbnz	r3, 187e <OSA_EnableIRQGlobal+0xe>
    187c:	b662      	cpsie	i
    187e:	4770      	bx	lr
    1880:	04015e24 	.word	0x04015e24

00001884 <OSA_DisableIRQGlobal>:
    1884:	b672      	cpsid	i
    1886:	4a02      	ldr	r2, [pc, #8]	; (1890 <OSA_DisableIRQGlobal+0xc>)
    1888:	6813      	ldr	r3, [r2, #0]
    188a:	3301      	adds	r3, #1
    188c:	6013      	str	r3, [r2, #0]
    188e:	4770      	bx	lr
    1890:	04015e24 	.word	0x04015e24

00001894 <task_init>:
    1894:	4b0c      	ldr	r3, [pc, #48]	; (18c8 <task_init+0x34>)
    1896:	2200      	movs	r2, #0
    1898:	f8c3 2084 	str.w	r2, [r3, #132]	; 0x84
    189c:	f103 0278 	add.w	r2, r3, #120	; 0x78
    18a0:	671a      	str	r2, [r3, #112]	; 0x70
    18a2:	f103 0264 	add.w	r2, r3, #100	; 0x64
    18a6:	65da      	str	r2, [r3, #92]	; 0x5c
    18a8:	f103 0250 	add.w	r2, r3, #80	; 0x50
    18ac:	649a      	str	r2, [r3, #72]	; 0x48
    18ae:	f103 023c 	add.w	r2, r3, #60	; 0x3c
    18b2:	635a      	str	r2, [r3, #52]	; 0x34
    18b4:	f103 0228 	add.w	r2, r3, #40	; 0x28
    18b8:	621a      	str	r2, [r3, #32]
    18ba:	f103 0214 	add.w	r2, r3, #20
    18be:	60da      	str	r2, [r3, #12]
    18c0:	4a02      	ldr	r2, [pc, #8]	; (18cc <task_init+0x38>)
    18c2:	6013      	str	r3, [r2, #0]
    18c4:	4770      	bx	lr
    18c6:	bf00      	nop
    18c8:	04015e34 	.word	0x04015e34
    18cc:	04015e30 	.word	0x04015e30

000018d0 <OSA_TaskCreate>:
    18d0:	4a1d      	ldr	r2, [pc, #116]	; (1948 <OSA_TaskCreate+0x78>)
    18d2:	4603      	mov	r3, r0
    18d4:	6810      	ldr	r0, [r2, #0]
    18d6:	b530      	push	{r4, r5, lr}
    18d8:	b188      	cbz	r0, 18fe <OSA_TaskCreate+0x2e>
    18da:	68c4      	ldr	r4, [r0, #12]
    18dc:	6014      	str	r4, [r2, #0]
    18de:	681a      	ldr	r2, [r3, #0]
    18e0:	6002      	str	r2, [r0, #0]
    18e2:	2201      	movs	r2, #1
    18e4:	7102      	strb	r2, [r0, #4]
    18e6:	889c      	ldrh	r4, [r3, #4]
    18e8:	6081      	str	r1, [r0, #8]
    18ea:	4918      	ldr	r1, [pc, #96]	; (194c <OSA_TaskCreate+0x7c>)
    18ec:	80c4      	strh	r4, [r0, #6]
    18ee:	2300      	movs	r3, #0
    18f0:	e9c0 3303 	strd	r3, r3, [r0, #12]
    18f4:	680b      	ldr	r3, [r1, #0]
    18f6:	b91b      	cbnz	r3, 1900 <OSA_TaskCreate+0x30>
    18f8:	e9c0 0003 	strd	r0, r0, [r0, #12]
    18fc:	6008      	str	r0, [r1, #0]
    18fe:	bd30      	pop	{r4, r5, pc}
    1900:	88dd      	ldrh	r5, [r3, #6]
    1902:	691a      	ldr	r2, [r3, #16]
    1904:	42a5      	cmp	r5, r4
    1906:	d306      	bcc.n	1916 <OSA_TaskCreate+0x46>
    1908:	e9c0 3203 	strd	r3, r2, [r0, #12]
    190c:	691a      	ldr	r2, [r3, #16]
    190e:	6008      	str	r0, [r1, #0]
    1910:	60d0      	str	r0, [r2, #12]
    1912:	6118      	str	r0, [r3, #16]
    1914:	e7f3      	b.n	18fe <OSA_TaskCreate+0x2e>
    1916:	88d1      	ldrh	r1, [r2, #6]
    1918:	42a1      	cmp	r1, r4
    191a:	d805      	bhi.n	1928 <OSA_TaskCreate+0x58>
    191c:	e9c0 3203 	strd	r3, r2, [r0, #12]
    1920:	691a      	ldr	r2, [r3, #16]
    1922:	60d0      	str	r0, [r2, #12]
    1924:	6118      	str	r0, [r3, #16]
    1926:	e7ea      	b.n	18fe <OSA_TaskCreate+0x2e>
    1928:	68da      	ldr	r2, [r3, #12]
    192a:	4293      	cmp	r3, r2
    192c:	d0e7      	beq.n	18fe <OSA_TaskCreate+0x2e>
    192e:	88d1      	ldrh	r1, [r2, #6]
    1930:	42a1      	cmp	r1, r4
    1932:	d306      	bcc.n	1942 <OSA_TaskCreate+0x72>
    1934:	6913      	ldr	r3, [r2, #16]
    1936:	6103      	str	r3, [r0, #16]
    1938:	6913      	ldr	r3, [r2, #16]
    193a:	60c2      	str	r2, [r0, #12]
    193c:	60d8      	str	r0, [r3, #12]
    193e:	6110      	str	r0, [r2, #16]
    1940:	e7dd      	b.n	18fe <OSA_TaskCreate+0x2e>
    1942:	68d2      	ldr	r2, [r2, #12]
    1944:	e7f1      	b.n	192a <OSA_TaskCreate+0x5a>
    1946:	bf00      	nop
    1948:	04015e30 	.word	0x04015e30
    194c:	04015ec0 	.word	0x04015ec0

00001950 <OSA_TimeInit>:
    1950:	4b09      	ldr	r3, [pc, #36]	; (1978 <OSA_TimeInit+0x28>)
    1952:	681a      	ldr	r2, [r3, #0]
    1954:	f022 0201 	bic.w	r2, r2, #1
    1958:	601a      	str	r2, [r3, #0]
    195a:	4a08      	ldr	r2, [pc, #32]	; (197c <OSA_TimeInit+0x2c>)
    195c:	f44f 717a 	mov.w	r1, #1000	; 0x3e8
    1960:	6812      	ldr	r2, [r2, #0]
    1962:	fbb2 f2f1 	udiv	r2, r2, r1
    1966:	3a01      	subs	r2, #1
    1968:	605a      	str	r2, [r3, #4]
    196a:	2200      	movs	r2, #0
    196c:	609a      	str	r2, [r3, #8]
    196e:	681a      	ldr	r2, [r3, #0]
    1970:	f042 0207 	orr.w	r2, r2, #7
    1974:	601a      	str	r2, [r3, #0]
    1976:	4770      	bx	lr
    1978:	e000e010 	.word	0xe000e010
    197c:	04015b20 	.word	0x04015b20

00001980 <OSA_TimeGetMsec>:
    1980:	4b01      	ldr	r3, [pc, #4]	; (1988 <OSA_TimeGetMsec+0x8>)
    1982:	6818      	ldr	r0, [r3, #0]
    1984:	4770      	bx	lr
    1986:	bf00      	nop
    1988:	04015e28 	.word	0x04015e28

0000198c <OSA_InterruptEnable>:
    198c:	f7ff bf70 	b.w	1870 <OSA_EnableIRQGlobal>

00001990 <OSA_InterruptDisable>:
    1990:	f7ff bf78 	b.w	1884 <OSA_DisableIRQGlobal>

00001994 <OSA_Start>:
    1994:	b508      	push	{r3, lr}
    1996:	4d08      	ldr	r5, [pc, #32]	; (19b8 <OSA_Start+0x24>)
    1998:	4c08      	ldr	r4, [pc, #32]	; (19bc <OSA_Start+0x28>)
    199a:	682a      	ldr	r2, [r5, #0]
    199c:	6022      	str	r2, [r4, #0]
    199e:	6823      	ldr	r3, [r4, #0]
    19a0:	791a      	ldrb	r2, [r3, #4]
    19a2:	b132      	cbz	r2, 19b2 <OSA_Start+0x1e>
    19a4:	681a      	ldr	r2, [r3, #0]
    19a6:	b10a      	cbz	r2, 19ac <OSA_Start+0x18>
    19a8:	6898      	ldr	r0, [r3, #8]
    19aa:	4790      	blx	r2
    19ac:	682b      	ldr	r3, [r5, #0]
    19ae:	6023      	str	r3, [r4, #0]
    19b0:	e7f5      	b.n	199e <OSA_Start+0xa>
    19b2:	68db      	ldr	r3, [r3, #12]
    19b4:	e7fb      	b.n	19ae <OSA_Start+0x1a>
    19b6:	bf00      	nop
    19b8:	04015ec0 	.word	0x04015ec0
    19bc:	04015e2c 	.word	0x04015e2c

000019c0 <main>:
    19c0:	b508      	push	{r3, lr}
    19c2:	f7ff ff67 	bl	1894 <task_init>
    19c6:	f7fe fdf5 	bl	5b4 <hardware_init>
    19ca:	f7ff ffc1 	bl	1950 <OSA_TimeInit>
    19ce:	2100      	movs	r1, #0
    19d0:	4802      	ldr	r0, [pc, #8]	; (19dc <main+0x1c>)
    19d2:	f7ff ff7d 	bl	18d0 <OSA_TaskCreate>
    19d6:	f7ff ffdd 	bl	1994 <OSA_Start>
    19da:	bf00      	nop
    19dc:	04015b00 	.word	0x04015b00

000019e0 <SysTick_Handler>:
    19e0:	4a02      	ldr	r2, [pc, #8]	; (19ec <SysTick_Handler+0xc>)
    19e2:	6813      	ldr	r3, [r2, #0]
    19e4:	3301      	adds	r3, #1
    19e6:	6013      	str	r3, [r2, #0]
    19e8:	4770      	bx	lr
    19ea:	bf00      	nop
    19ec:	04015e28 	.word	0x04015e28

000019f0 <BOARD_InitDebugConsole>:
    19f0:	b510      	push	{r4, lr}
    19f2:	4808      	ldr	r0, [pc, #32]	; (1a14 <BOARD_InitDebugConsole+0x24>)
    19f4:	f000 faca 	bl	1f8c <CLOCK_GetFreq>
    19f8:	2201      	movs	r2, #1
    19fa:	4603      	mov	r3, r0
    19fc:	f44f 31e1 	mov.w	r1, #115200	; 0x1c200
    1a00:	2000      	movs	r0, #0
    1a02:	f7ff fcf9 	bl	13f8 <DbgConsole_Init>
    1a06:	4604      	mov	r4, r0
    1a08:	f44f 70fa 	mov.w	r0, #500	; 0x1f4
    1a0c:	f000 fb9c 	bl	2148 <CLOCK_uDelay>
    1a10:	4620      	mov	r0, r4
    1a12:	bd10      	pop	{r4, pc}
    1a14:	00010008 	.word	0x00010008

00001a18 <SystemCoreClockUpdate>:
    1a18:	f04f 4380 	mov.w	r3, #1073741824	; 0x40000000
    1a1c:	f8d3 2280 	ldr.w	r2, [r3, #640]	; 0x280
    1a20:	f002 0207 	and.w	r2, r2, #7
    1a24:	2a06      	cmp	r2, #6
    1a26:	d838      	bhi.n	1a9a <SystemCoreClockUpdate+0x82>
    1a28:	e8df f002 	tbb	[pc, r2]
    1a2c:	29041810 	.word	0x29041810
    1a30:	372f      	.short	0x372f
    1a32:	35          	.byte	0x35
    1a33:	00          	.byte	0x00
    1a34:	4b1a      	ldr	r3, [pc, #104]	; (1aa0 <SystemCoreClockUpdate+0x88>)
    1a36:	f04f 4280 	mov.w	r2, #1073741824	; 0x40000000
    1a3a:	f8d2 2380 	ldr.w	r2, [r2, #896]	; 0x380
    1a3e:	b2d2      	uxtb	r2, r2
    1a40:	3201      	adds	r2, #1
    1a42:	fbb3 f3f2 	udiv	r3, r3, r2
    1a46:	4a17      	ldr	r2, [pc, #92]	; (1aa4 <SystemCoreClockUpdate+0x8c>)
    1a48:	6013      	str	r3, [r2, #0]
    1a4a:	4770      	bx	lr
    1a4c:	4b16      	ldr	r3, [pc, #88]	; (1aa8 <SystemCoreClockUpdate+0x90>)
    1a4e:	4a17      	ldr	r2, [pc, #92]	; (1aac <SystemCoreClockUpdate+0x94>)
    1a50:	6c1b      	ldr	r3, [r3, #64]	; 0x40
    1a52:	f413 1380 	ands.w	r3, r3, #1048576	; 0x100000
    1a56:	bf18      	it	ne
    1a58:	4613      	movne	r3, r2
    1a5a:	e7ec      	b.n	1a36 <SystemCoreClockUpdate+0x1e>
    1a5c:	f8d3 3284 	ldr.w	r3, [r3, #644]	; 0x284
    1a60:	f013 0f02 	tst.w	r3, #2
    1a64:	4b10      	ldr	r3, [pc, #64]	; (1aa8 <SystemCoreClockUpdate+0x90>)
    1a66:	f8d3 30b8 	ldr.w	r3, [r3, #184]	; 0xb8
    1a6a:	d005      	beq.n	1a78 <SystemCoreClockUpdate+0x60>
    1a6c:	f013 6380 	ands.w	r3, r3, #67108864	; 0x4000000
    1a70:	bf18      	it	ne
    1a72:	f44f 4300 	movne.w	r3, #32768	; 0x8000
    1a76:	e7de      	b.n	1a36 <SystemCoreClockUpdate+0x1e>
    1a78:	f013 7300 	ands.w	r3, r3, #33554432	; 0x2000000
    1a7c:	e7f8      	b.n	1a70 <SystemCoreClockUpdate+0x58>
    1a7e:	4b0a      	ldr	r3, [pc, #40]	; (1aa8 <SystemCoreClockUpdate+0x90>)
    1a80:	4a07      	ldr	r2, [pc, #28]	; (1aa0 <SystemCoreClockUpdate+0x88>)
    1a82:	6c1b      	ldr	r3, [r3, #64]	; 0x40
    1a84:	f413 1300 	ands.w	r3, r3, #2097152	; 0x200000
    1a88:	e7e5      	b.n	1a56 <SystemCoreClockUpdate+0x3e>
    1a8a:	4b07      	ldr	r3, [pc, #28]	; (1aa8 <SystemCoreClockUpdate+0x90>)
    1a8c:	4a08      	ldr	r2, [pc, #32]	; (1ab0 <SystemCoreClockUpdate+0x98>)
    1a8e:	6c1b      	ldr	r3, [r3, #64]	; 0x40
    1a90:	f413 0380 	ands.w	r3, r3, #4194304	; 0x400000
    1a94:	e7df      	b.n	1a56 <SystemCoreClockUpdate+0x3e>
    1a96:	4b07      	ldr	r3, [pc, #28]	; (1ab4 <SystemCoreClockUpdate+0x9c>)
    1a98:	e7cd      	b.n	1a36 <SystemCoreClockUpdate+0x1e>
    1a9a:	2300      	movs	r3, #0
    1a9c:	e7cb      	b.n	1a36 <SystemCoreClockUpdate+0x1e>
    1a9e:	bf00      	nop
    1aa0:	01e84800 	.word	0x01e84800
    1aa4:	04015b20 	.word	0x04015b20
    1aa8:	40012000 	.word	0x40012000
    1aac:	00b71b00 	.word	0x00b71b00
    1ab0:	02dc6c00 	.word	0x02dc6c00
    1ab4:	000f4240 	.word	0x000f4240

00001ab8 <SystemInit>:
    1ab8:	b508      	push	{r3, lr}
    1aba:	f7ff ffad 	bl	1a18 <SystemCoreClockUpdate>
    1abe:	4a0c      	ldr	r2, [pc, #48]	; (1af0 <SystemInit+0x38>)
    1ac0:	68d3      	ldr	r3, [r2, #12]
    1ac2:	f423 63e0 	bic.w	r3, r3, #1792	; 0x700
    1ac6:	041b      	lsls	r3, r3, #16
    1ac8:	0c1b      	lsrs	r3, r3, #16
    1aca:	f043 63bf 	orr.w	r3, r3, #100139008	; 0x5f80000
    1ace:	f443 3301 	orr.w	r3, r3, #132096	; 0x20400
    1ad2:	60d3      	str	r3, [r2, #12]
    1ad4:	4b07      	ldr	r3, [pc, #28]	; (1af4 <SystemInit+0x3c>)
    1ad6:	681b      	ldr	r3, [r3, #0]
    1ad8:	07da      	lsls	r2, r3, #31
    1ada:	d507      	bpl.n	1aec <SystemInit+0x34>
    1adc:	4906      	ldr	r1, [pc, #24]	; (1af8 <SystemInit+0x40>)
    1ade:	6c4a      	ldr	r2, [r1, #68]	; 0x44
    1ae0:	f3c3 0346 	ubfx	r3, r3, #1, #7
    1ae4:	f022 027f 	bic.w	r2, r2, #127	; 0x7f
    1ae8:	4313      	orrs	r3, r2
    1aea:	644b      	str	r3, [r1, #68]	; 0x44
    1aec:	bd08      	pop	{r3, pc}
    1aee:	bf00      	nop
    1af0:	e000ed00 	.word	0xe000ed00
    1af4:	0009fcd0 	.word	0x0009fcd0
    1af8:	40012000 	.word	0x40012000

00001afc <DMIC0_IRQHandler>:
    1afc:	b508      	push	{r3, lr}
    1afe:	f7fe fb4f 	bl	1a0 <ADC_SEQA_IRQHandler>
    1b02:	bd08      	pop	{r3, pc}

00001b04 <CIC_IRB_IRQHandler>:
    1b04:	b508      	push	{r3, lr}
    1b06:	f7fe fb4b 	bl	1a0 <ADC_SEQA_IRQHandler>
    1b0a:	bd08      	pop	{r3, pc}

00001b0c <HWVAD0_IRQHandler>:
    1b0c:	b508      	push	{r3, lr}
    1b0e:	f7fe fb47 	bl	1a0 <ADC_SEQA_IRQHandler>
    1b12:	bd08      	pop	{r3, pc}

00001b14 <PINT0_IRQHandler>:
    1b14:	b508      	push	{r3, lr}
    1b16:	f7fe fb43 	bl	1a0 <ADC_SEQA_IRQHandler>
    1b1a:	bd08      	pop	{r3, pc}

00001b1c <PINT1_IRQHandler>:
    1b1c:	b508      	push	{r3, lr}
    1b1e:	f7fe fb3f 	bl	1a0 <ADC_SEQA_IRQHandler>
    1b22:	bd08      	pop	{r3, pc}

00001b24 <PINT2_IRQHandler>:
    1b24:	b508      	push	{r3, lr}
    1b26:	f7fe fb3b 	bl	1a0 <ADC_SEQA_IRQHandler>
    1b2a:	bd08      	pop	{r3, pc}

00001b2c <PINT3_IRQHandler>:
    1b2c:	b508      	push	{r3, lr}
    1b2e:	f7fe fb37 	bl	1a0 <ADC_SEQA_IRQHandler>
    1b32:	bd08      	pop	{r3, pc}

00001b34 <GINT0_IRQHandler>:
    1b34:	b508      	push	{r3, lr}
    1b36:	f7ff fd4d 	bl	15d4 <GINT0_DriverIRQHandler>
    1b3a:	bd08      	pop	{r3, pc}

00001b3c <CTIMER0_IRQHandler>:
    1b3c:	b508      	push	{r3, lr}
    1b3e:	f001 ffad 	bl	3a9c <CTIMER0_DriverIRQHandler>
    1b42:	bd08      	pop	{r3, pc}

00001b44 <CTIMER1_IRQHandler>:
    1b44:	b508      	push	{r3, lr}
    1b46:	f001 ffb0 	bl	3aaa <CTIMER1_DriverIRQHandler>
    1b4a:	bd08      	pop	{r3, pc}

00001b4c <FLEXCOMM0_IRQHandler>:
    1b4c:	b508      	push	{r3, lr}
    1b4e:	f000 fe19 	bl	2784 <FLEXCOMM0_DriverIRQHandler>
    1b52:	bd08      	pop	{r3, pc}

00001b54 <FLEXCOMM1_IRQHandler>:
    1b54:	b508      	push	{r3, lr}
    1b56:	f000 fe33 	bl	27c0 <FLEXCOMM1_DriverIRQHandler>
    1b5a:	bd08      	pop	{r3, pc}

00001b5c <FLEXCOMM2_IRQHandler>:
    1b5c:	b508      	push	{r3, lr}
    1b5e:	f000 fe4d 	bl	27fc <FLEXCOMM2_DriverIRQHandler>
    1b62:	bd08      	pop	{r3, pc}

00001b64 <FLEXCOMM3_IRQHandler>:
    1b64:	b508      	push	{r3, lr}
    1b66:	f000 fe67 	bl	2838 <FLEXCOMM3_DriverIRQHandler>
    1b6a:	bd08      	pop	{r3, pc}

00001b6c <FLEXCOMM4_IRQHandler>:
    1b6c:	b508      	push	{r3, lr}
    1b6e:	f000 fe7f 	bl	2870 <FLEXCOMM4_DriverIRQHandler>
    1b72:	bd08      	pop	{r3, pc}

00001b74 <FLEXCOMM5_IRQHandler>:
    1b74:	b508      	push	{r3, lr}
    1b76:	f000 fe99 	bl	28ac <FLEXCOMM5_DriverIRQHandler>
    1b7a:	bd08      	pop	{r3, pc}

00001b7c <FLEXCOMM6_IRQHandler>:
    1b7c:	b508      	push	{r3, lr}
    1b7e:	f000 feb3 	bl	28e8 <FLEXCOMM6_DriverIRQHandler>
    1b82:	bd08      	pop	{r3, pc}

00001b84 <WWDT_GetInstance>:
    1b84:	b508      	push	{r3, lr}
    1b86:	4b05      	ldr	r3, [pc, #20]	; (1b9c <WWDT_GetInstance+0x18>)
    1b88:	4298      	cmp	r0, r3
    1b8a:	d005      	beq.n	1b98 <WWDT_GetInstance+0x14>
    1b8c:	4b04      	ldr	r3, [pc, #16]	; (1ba0 <WWDT_GetInstance+0x1c>)
    1b8e:	4a05      	ldr	r2, [pc, #20]	; (1ba4 <WWDT_GetInstance+0x20>)
    1b90:	4805      	ldr	r0, [pc, #20]	; (1ba8 <WWDT_GetInstance+0x24>)
    1b92:	2141      	movs	r1, #65	; 0x41
    1b94:	f002 fcb6 	bl	4504 <__assert_func>
    1b98:	2000      	movs	r0, #0
    1b9a:	bd08      	pop	{r3, pc}
    1b9c:	4000a000 	.word	0x4000a000
    1ba0:	000082a7 	.word	0x000082a7
    1ba4:	0000830a 	.word	0x0000830a
    1ba8:	000082c1 	.word	0x000082c1

00001bac <WWDT_Deinit>:
    1bac:	b508      	push	{r3, lr}
    1bae:	f7ff ffe9 	bl	1b84 <WWDT_GetInstance>
    1bb2:	e8bd 4008 	ldmia.w	sp!, {r3, lr}
    1bb6:	2016      	movs	r0, #22
    1bb8:	f000 ba6c 	b.w	2094 <CLOCK_DisableClock>

00001bbc <WWDT_Refresh>:
    1bbc:	f3ef 8310 	mrs	r3, PRIMASK
    1bc0:	b672      	cpsid	i
    1bc2:	22aa      	movs	r2, #170	; 0xaa
    1bc4:	6082      	str	r2, [r0, #8]
    1bc6:	2255      	movs	r2, #85	; 0x55
    1bc8:	6082      	str	r2, [r0, #8]
    1bca:	f383 8810 	msr	PRIMASK, r3
    1bce:	4770      	bx	lr

00001bd0 <CLOCK_u8OscCapConvert>:
    1bd0:	283f      	cmp	r0, #63	; 0x3f
    1bd2:	d804      	bhi.n	1bde <CLOCK_u8OscCapConvert+0xe>
    1bd4:	4281      	cmp	r1, r0
    1bd6:	d808      	bhi.n	1bea <CLOCK_u8OscCapConvert+0x1a>
    1bd8:	1a40      	subs	r0, r0, r1
    1bda:	b2c0      	uxtb	r0, r0
    1bdc:	4770      	bx	lr
    1bde:	f1c1 037f 	rsb	r3, r1, #127	; 0x7f
    1be2:	4283      	cmp	r3, r0
    1be4:	d303      	bcc.n	1bee <CLOCK_u8OscCapConvert+0x1e>
    1be6:	4408      	add	r0, r1
    1be8:	e7f7      	b.n	1bda <CLOCK_u8OscCapConvert+0xa>
    1bea:	2000      	movs	r0, #0
    1bec:	e7f5      	b.n	1bda <CLOCK_u8OscCapConvert+0xa>
    1bee:	207f      	movs	r0, #127	; 0x7f
    1bf0:	e7f3      	b.n	1bda <CLOCK_u8OscCapConvert+0xa>
    1bf2:	Address 0x00001bf2 is out of bounds.


00001bf4 <CLOCK_AttachClk>:
    1bf4:	f242 03bd 	movw	r3, #8381	; 0x20bd
    1bf8:	4298      	cmp	r0, r3
    1bfa:	d822      	bhi.n	1c42 <CLOCK_AttachClk+0x4e>
    1bfc:	f242 03a0 	movw	r3, #8352	; 0x20a0
    1c00:	4298      	cmp	r0, r3
    1c02:	d80e      	bhi.n	1c22 <CLOCK_AttachClk+0x2e>
    1c04:	f241 03a9 	movw	r3, #4265	; 0x10a9
    1c08:	4298      	cmp	r0, r3
    1c0a:	d012      	beq.n	1c32 <CLOCK_AttachClk+0x3e>
    1c0c:	f3c0 030b 	ubfx	r3, r0, #0, #12
    1c10:	2bb1      	cmp	r3, #177	; 0xb1
    1c12:	d843      	bhi.n	1c9c <CLOCK_AttachClk+0xa8>
    1c14:	2ba7      	cmp	r3, #167	; 0xa7
    1c16:	d81b      	bhi.n	1c50 <CLOCK_AttachClk+0x5c>
    1c18:	2ba2      	cmp	r3, #162	; 0xa2
    1c1a:	d047      	beq.n	1cac <CLOCK_AttachClk+0xb8>
    1c1c:	2800      	cmp	r0, #0
    1c1e:	d13f      	bne.n	1ca0 <CLOCK_AttachClk+0xac>
    1c20:	4770      	bx	lr
    1c22:	f5a0 5202 	sub.w	r2, r0, #8320	; 0x2080
    1c26:	3a21      	subs	r2, #33	; 0x21
    1c28:	2301      	movs	r3, #1
    1c2a:	4093      	lsls	r3, r2
    1c2c:	4a30      	ldr	r2, [pc, #192]	; (1cf0 <CLOCK_AttachClk+0xfc>)
    1c2e:	4213      	tst	r3, r2
    1c30:	d0ec      	beq.n	1c0c <CLOCK_AttachClk+0x18>
    1c32:	4a30      	ldr	r2, [pc, #192]	; (1cf4 <CLOCK_AttachClk+0x100>)
    1c34:	f8d2 30ac 	ldr.w	r3, [r2, #172]	; 0xac
    1c38:	f043 5380 	orr.w	r3, r3, #268435456	; 0x10000000
    1c3c:	f8c2 30ac 	str.w	r3, [r2, #172]	; 0xac
    1c40:	e7e4      	b.n	1c0c <CLOCK_AttachClk+0x18>
    1c42:	f243 03a0 	movw	r3, #12448	; 0x30a0
    1c46:	4298      	cmp	r0, r3
    1c48:	d0f3      	beq.n	1c32 <CLOCK_AttachClk+0x3e>
    1c4a:	f244 03a2 	movw	r3, #16546	; 0x40a2
    1c4e:	e7db      	b.n	1c08 <CLOCK_AttachClk+0x14>
    1c50:	3ba8      	subs	r3, #168	; 0xa8
    1c52:	2b09      	cmp	r3, #9
    1c54:	d824      	bhi.n	1ca0 <CLOCK_AttachClk+0xac>
    1c56:	e8df f003 	tbb	[pc, r3]
    1c5a:	2527      	.short	0x2527
    1c5c:	23232323 	.word	0x23232323
    1c60:	2b230523 	.word	0x2b230523
    1c64:	23de      	movs	r3, #222	; 0xde
    1c66:	009a      	lsls	r2, r3, #2
    1c68:	f102 4280 	add.w	r2, r2, #1073741824	; 0x40000000
    1c6c:	6811      	ldr	r1, [r2, #0]
    1c6e:	f041 4180 	orr.w	r1, r1, #1073741824	; 0x40000000
    1c72:	6011      	str	r1, [r2, #0]
    1c74:	b150      	cbz	r0, 1c8c <CLOCK_AttachClk+0x98>
    1c76:	b2c2      	uxtb	r2, r0
    1c78:	f3c0 3003 	ubfx	r0, r0, #12, #4
    1c7c:	3801      	subs	r0, #1
    1c7e:	2abd      	cmp	r2, #189	; 0xbd
    1c80:	b2c0      	uxtb	r0, r0
    1c82:	d119      	bne.n	1cb8 <CLOCK_AttachClk+0xc4>
    1c84:	4a1b      	ldr	r2, [pc, #108]	; (1cf4 <CLOCK_AttachClk+0x100>)
    1c86:	6210      	str	r0, [r2, #32]
    1c88:	2b00      	cmp	r3, #0
    1c8a:	d0c9      	beq.n	1c20 <CLOCK_AttachClk+0x2c>
    1c8c:	009b      	lsls	r3, r3, #2
    1c8e:	f103 4380 	add.w	r3, r3, #1073741824	; 0x40000000
    1c92:	681a      	ldr	r2, [r3, #0]
    1c94:	f022 4280 	bic.w	r2, r2, #1073741824	; 0x40000000
    1c98:	601a      	str	r2, [r3, #0]
    1c9a:	4770      	bx	lr
    1c9c:	2bbb      	cmp	r3, #187	; 0xbb
    1c9e:	d009      	beq.n	1cb4 <CLOCK_AttachClk+0xc0>
    1ca0:	2300      	movs	r3, #0
    1ca2:	e7e8      	b.n	1c76 <CLOCK_AttachClk+0x82>
    1ca4:	23e5      	movs	r3, #229	; 0xe5
    1ca6:	e7de      	b.n	1c66 <CLOCK_AttachClk+0x72>
    1ca8:	23e4      	movs	r3, #228	; 0xe4
    1caa:	e7dc      	b.n	1c66 <CLOCK_AttachClk+0x72>
    1cac:	23e1      	movs	r3, #225	; 0xe1
    1cae:	e7da      	b.n	1c66 <CLOCK_AttachClk+0x72>
    1cb0:	23db      	movs	r3, #219	; 0xdb
    1cb2:	e7d8      	b.n	1c66 <CLOCK_AttachClk+0x72>
    1cb4:	23ea      	movs	r3, #234	; 0xea
    1cb6:	e7d6      	b.n	1c66 <CLOCK_AttachClk+0x72>
    1cb8:	2aa1      	cmp	r2, #161	; 0xa1
    1cba:	d112      	bne.n	1ce2 <CLOCK_AttachClk+0xee>
    1cbc:	4a0e      	ldr	r2, [pc, #56]	; (1cf8 <CLOCK_AttachClk+0x104>)
    1cbe:	2801      	cmp	r0, #1
    1cc0:	6811      	ldr	r1, [r2, #0]
    1cc2:	d806      	bhi.n	1cd2 <CLOCK_AttachClk+0xde>
    1cc4:	f021 0101 	bic.w	r1, r1, #1
    1cc8:	6011      	str	r1, [r2, #0]
    1cca:	6811      	ldr	r1, [r2, #0]
    1ccc:	4308      	orrs	r0, r1
    1cce:	6010      	str	r0, [r2, #0]
    1cd0:	e7da      	b.n	1c88 <CLOCK_AttachClk+0x94>
    1cd2:	f021 0102 	bic.w	r1, r1, #2
    1cd6:	6011      	str	r1, [r2, #0]
    1cd8:	6811      	ldr	r1, [r2, #0]
    1cda:	3802      	subs	r0, #2
    1cdc:	ea41 0040 	orr.w	r0, r1, r0, lsl #1
    1ce0:	e7f5      	b.n	1cce <CLOCK_AttachClk+0xda>
    1ce2:	2ab3      	cmp	r2, #179	; 0xb3
    1ce4:	d0d0      	beq.n	1c88 <CLOCK_AttachClk+0x94>
    1ce6:	0092      	lsls	r2, r2, #2
    1ce8:	f102 4280 	add.w	r2, r2, #1073741824	; 0x40000000
    1cec:	e7ef      	b.n	1cce <CLOCK_AttachClk+0xda>
    1cee:	bf00      	nop
    1cf0:	10000081 	.word	0x10000081
    1cf4:	40020000 	.word	0x40020000
    1cf8:	40000284 	.word	0x40000284

00001cfc <CLOCK_GetXtal32kFreq>:
    1cfc:	4b04      	ldr	r3, [pc, #16]	; (1d10 <CLOCK_GetXtal32kFreq+0x14>)
    1cfe:	f8d3 00b8 	ldr.w	r0, [r3, #184]	; 0xb8
    1d02:	f010 6080 	ands.w	r0, r0, #67108864	; 0x4000000
    1d06:	bf18      	it	ne
    1d08:	f44f 4000 	movne.w	r0, #32768	; 0x8000
    1d0c:	4770      	bx	lr
    1d0e:	bf00      	nop
    1d10:	40012000 	.word	0x40012000

00001d14 <CLOCK_GetFro32kFreq>:
    1d14:	4b04      	ldr	r3, [pc, #16]	; (1d28 <CLOCK_GetFro32kFreq+0x14>)
    1d16:	f8d3 00b8 	ldr.w	r0, [r3, #184]	; 0xb8
    1d1a:	f010 7000 	ands.w	r0, r0, #33554432	; 0x2000000
    1d1e:	bf18      	it	ne
    1d20:	f44f 4000 	movne.w	r0, #32768	; 0x8000
    1d24:	4770      	bx	lr
    1d26:	bf00      	nop
    1d28:	40012000 	.word	0x40012000

00001d2c <CLOCK_GetOsc32kFreq>:
    1d2c:	f04f 4380 	mov.w	r3, #1073741824	; 0x40000000
    1d30:	f8d3 3284 	ldr.w	r3, [r3, #644]	; 0x284
    1d34:	079b      	lsls	r3, r3, #30
    1d36:	d501      	bpl.n	1d3c <CLOCK_GetOsc32kFreq+0x10>
    1d38:	f7ff bfe0 	b.w	1cfc <CLOCK_GetXtal32kFreq>
    1d3c:	f7ff bfea 	b.w	1d14 <CLOCK_GetFro32kFreq>

00001d40 <CLOCK_GetFro12MFreq>:
    1d40:	4b03      	ldr	r3, [pc, #12]	; (1d50 <CLOCK_GetFro12MFreq+0x10>)
    1d42:	6c18      	ldr	r0, [r3, #64]	; 0x40
    1d44:	4b03      	ldr	r3, [pc, #12]	; (1d54 <CLOCK_GetFro12MFreq+0x14>)
    1d46:	f410 1080 	ands.w	r0, r0, #1048576	; 0x100000
    1d4a:	bf18      	it	ne
    1d4c:	4618      	movne	r0, r3
    1d4e:	4770      	bx	lr
    1d50:	40012000 	.word	0x40012000
    1d54:	00b71b00 	.word	0x00b71b00

00001d58 <CLOCK_GetFro32MFreq>:
    1d58:	4b03      	ldr	r3, [pc, #12]	; (1d68 <CLOCK_GetFro32MFreq+0x10>)
    1d5a:	6c18      	ldr	r0, [r3, #64]	; 0x40
    1d5c:	4b03      	ldr	r3, [pc, #12]	; (1d6c <CLOCK_GetFro32MFreq+0x14>)
    1d5e:	f410 1000 	ands.w	r0, r0, #2097152	; 0x200000
    1d62:	bf18      	it	ne
    1d64:	4618      	movne	r0, r3
    1d66:	4770      	bx	lr
    1d68:	40012000 	.word	0x40012000
    1d6c:	01e84800 	.word	0x01e84800

00001d70 <CLOCK_GetOsc32MFreq>:
    1d70:	f04f 4380 	mov.w	r3, #1073741824	; 0x40000000
    1d74:	f8d3 3284 	ldr.w	r3, [r3, #644]	; 0x284
    1d78:	07db      	lsls	r3, r3, #31
    1d7a:	d401      	bmi.n	1d80 <CLOCK_GetOsc32MFreq+0x10>
    1d7c:	f7ff bfec 	b.w	1d58 <CLOCK_GetFro32MFreq>
    1d80:	4800      	ldr	r0, [pc, #0]	; (1d84 <CLOCK_GetOsc32MFreq+0x14>)
    1d82:	4770      	bx	lr
    1d84:	01e84800 	.word	0x01e84800

00001d88 <CLOCK_GetWdtOscFreq>:
    1d88:	f04f 4380 	mov.w	r3, #1073741824	; 0x40000000
    1d8c:	f8d3 32c4 	ldr.w	r3, [r3, #708]	; 0x2c4
    1d90:	f003 0303 	and.w	r3, r3, #3
    1d94:	2b02      	cmp	r3, #2
    1d96:	d007      	beq.n	1da8 <CLOCK_GetWdtOscFreq+0x20>
    1d98:	2b03      	cmp	r3, #3
    1d9a:	d007      	beq.n	1dac <CLOCK_GetWdtOscFreq+0x24>
    1d9c:	2b01      	cmp	r3, #1
    1d9e:	d001      	beq.n	1da4 <CLOCK_GetWdtOscFreq+0x1c>
    1da0:	f7ff bfe6 	b.w	1d70 <CLOCK_GetOsc32MFreq>
    1da4:	f7ff bfc2 	b.w	1d2c <CLOCK_GetOsc32kFreq>
    1da8:	4801      	ldr	r0, [pc, #4]	; (1db0 <CLOCK_GetWdtOscFreq+0x28>)
    1daa:	4770      	bx	lr
    1dac:	2000      	movs	r0, #0
    1dae:	4770      	bx	lr
    1db0:	000f4240 	.word	0x000f4240

00001db4 <CLOCK_GetFro48MFreq>:
    1db4:	4b03      	ldr	r3, [pc, #12]	; (1dc4 <CLOCK_GetFro48MFreq+0x10>)
    1db6:	6c18      	ldr	r0, [r3, #64]	; 0x40
    1db8:	4b03      	ldr	r3, [pc, #12]	; (1dc8 <CLOCK_GetFro48MFreq+0x14>)
    1dba:	f410 0080 	ands.w	r0, r0, #4194304	; 0x400000
    1dbe:	bf18      	it	ne
    1dc0:	4618      	movne	r0, r3
    1dc2:	4770      	bx	lr
    1dc4:	40012000 	.word	0x40012000
    1dc8:	02dc6c00 	.word	0x02dc6c00

00001dcc <CLOCK_GetPWMClockFreq>:
    1dcc:	f04f 4380 	mov.w	r3, #1073741824	; 0x40000000
    1dd0:	f8d3 32c0 	ldr.w	r3, [r3, #704]	; 0x2c0
    1dd4:	f013 0303 	ands.w	r3, r3, #3
    1dd8:	d003      	beq.n	1de2 <CLOCK_GetPWMClockFreq+0x16>
    1dda:	2b01      	cmp	r3, #1
    1ddc:	d003      	beq.n	1de6 <CLOCK_GetPWMClockFreq+0x1a>
    1dde:	2000      	movs	r0, #0
    1de0:	4770      	bx	lr
    1de2:	f7ff bfc5 	b.w	1d70 <CLOCK_GetOsc32MFreq>
    1de6:	f7ff bfe5 	b.w	1db4 <CLOCK_GetFro48MFreq>
    1dea:	Address 0x00001dea is out of bounds.


00001dec <CLOCK_GetMainClockRate>:
    1dec:	f04f 4380 	mov.w	r3, #1073741824	; 0x40000000
    1df0:	f8d3 3280 	ldr.w	r3, [r3, #640]	; 0x280
    1df4:	f003 0307 	and.w	r3, r3, #7
    1df8:	2b06      	cmp	r3, #6
    1dfa:	d811      	bhi.n	1e20 <CLOCK_GetMainClockRate+0x34>
    1dfc:	e8df f003 	tbb	[pc, r3]
    1e00:	0a040806 	.word	0x0a040806
    1e04:	100c      	.short	0x100c
    1e06:	0e          	.byte	0x0e
    1e07:	00          	.byte	0x00
    1e08:	4806      	ldr	r0, [pc, #24]	; (1e24 <CLOCK_GetMainClockRate+0x38>)
    1e0a:	4770      	bx	lr
    1e0c:	f7ff bf98 	b.w	1d40 <CLOCK_GetFro12MFreq>
    1e10:	f7ff bf8c 	b.w	1d2c <CLOCK_GetOsc32kFreq>
    1e14:	f7ff bfa0 	b.w	1d58 <CLOCK_GetFro32MFreq>
    1e18:	f7ff bfcc 	b.w	1db4 <CLOCK_GetFro48MFreq>
    1e1c:	4802      	ldr	r0, [pc, #8]	; (1e28 <CLOCK_GetMainClockRate+0x3c>)
    1e1e:	4770      	bx	lr
    1e20:	2000      	movs	r0, #0
    1e22:	4770      	bx	lr
    1e24:	01e84800 	.word	0x01e84800
    1e28:	000f4240 	.word	0x000f4240

00001e2c <CLOCK_GetCoreSysClkFreq>:
    1e2c:	b508      	push	{r3, lr}
    1e2e:	f7ff ffdd 	bl	1dec <CLOCK_GetMainClockRate>
    1e32:	f04f 4380 	mov.w	r3, #1073741824	; 0x40000000
    1e36:	f8d3 3380 	ldr.w	r3, [r3, #896]	; 0x380
    1e3a:	b2db      	uxtb	r3, r3
    1e3c:	3301      	adds	r3, #1
    1e3e:	fbb0 f0f3 	udiv	r0, r0, r3
    1e42:	bd08      	pop	{r3, pc}

00001e44 <CLOCK_GetFRGInputClock>:
    1e44:	f04f 4380 	mov.w	r3, #1073741824	; 0x40000000
    1e48:	f8d3 32e8 	ldr.w	r3, [r3, #744]	; 0x2e8
    1e4c:	f003 0303 	and.w	r3, r3, #3
    1e50:	2b01      	cmp	r3, #1
    1e52:	d004      	beq.n	1e5e <CLOCK_GetFRGInputClock+0x1a>
    1e54:	2b02      	cmp	r3, #2
    1e56:	d004      	beq.n	1e62 <CLOCK_GetFRGInputClock+0x1e>
    1e58:	b92b      	cbnz	r3, 1e66 <CLOCK_GetFRGInputClock+0x22>
    1e5a:	f7ff bfc7 	b.w	1dec <CLOCK_GetMainClockRate>
    1e5e:	f7ff bf87 	b.w	1d70 <CLOCK_GetOsc32MFreq>
    1e62:	f7ff bfa7 	b.w	1db4 <CLOCK_GetFro48MFreq>
    1e66:	2000      	movs	r0, #0
    1e68:	4770      	bx	lr

00001e6a <CLOCK_GetFRGClock>:
    1e6a:	b510      	push	{r4, lr}
    1e6c:	f04f 4480 	mov.w	r4, #1073741824	; 0x40000000
    1e70:	f8d4 33a0 	ldr.w	r3, [r4, #928]	; 0x3a0
    1e74:	b2db      	uxtb	r3, r3
    1e76:	2bff      	cmp	r3, #255	; 0xff
    1e78:	d10e      	bne.n	1e98 <CLOCK_GetFRGClock+0x2e>
    1e7a:	f7ff ffe3 	bl	1e44 <CLOCK_GetFRGInputClock>
    1e7e:	f8d4 23a0 	ldr.w	r2, [r4, #928]	; 0x3a0
    1e82:	4601      	mov	r1, r0
    1e84:	f3c2 2207 	ubfx	r2, r2, #8, #8
    1e88:	f502 7280 	add.w	r2, r2, #256	; 0x100
    1e8c:	2300      	movs	r3, #0
    1e8e:	0200      	lsls	r0, r0, #8
    1e90:	0e09      	lsrs	r1, r1, #24
    1e92:	f005 faad 	bl	73f0 <__aeabi_uldivmod>
    1e96:	bd10      	pop	{r4, pc}
    1e98:	2000      	movs	r0, #0
    1e9a:	e7fc      	b.n	1e96 <CLOCK_GetFRGClock+0x2c>

00001e9c <CLOCK_GetFro64MFreq>:
    1e9c:	4b03      	ldr	r3, [pc, #12]	; (1eac <CLOCK_GetFro64MFreq+0x10>)
    1e9e:	6c18      	ldr	r0, [r3, #64]	; 0x40
    1ea0:	4b03      	ldr	r3, [pc, #12]	; (1eb0 <CLOCK_GetFro64MFreq+0x14>)
    1ea2:	f410 0000 	ands.w	r0, r0, #8388608	; 0x800000
    1ea6:	bf18      	it	ne
    1ea8:	4618      	movne	r0, r3
    1eaa:	4770      	bx	lr
    1eac:	40012000 	.word	0x40012000
    1eb0:	03d09000 	.word	0x03d09000

00001eb4 <CLOCK_GetClkOutFreq>:
    1eb4:	f04f 4280 	mov.w	r2, #1073741824	; 0x40000000
    1eb8:	b508      	push	{r3, lr}
    1eba:	f8d2 3288 	ldr.w	r3, [r2, #648]	; 0x288
    1ebe:	f003 0307 	and.w	r3, r3, #7
    1ec2:	3b01      	subs	r3, #1
    1ec4:	4611      	mov	r1, r2
    1ec6:	2b06      	cmp	r3, #6
    1ec8:	d80e      	bhi.n	1ee8 <CLOCK_GetClkOutFreq+0x34>
    1eca:	e8df f003 	tbb	[pc, r3]
    1ece:	1310      	.short	0x1310
    1ed0:	0419161e 	.word	0x0419161e
    1ed4:	1c          	.byte	0x1c
    1ed5:	00          	.byte	0x00
    1ed6:	480e      	ldr	r0, [pc, #56]	; (1f10 <CLOCK_GetClkOutFreq+0x5c>)
    1ed8:	f8d1 3384 	ldr.w	r3, [r1, #900]	; 0x384
    1edc:	f003 030f 	and.w	r3, r3, #15
    1ee0:	3301      	adds	r3, #1
    1ee2:	fbb0 f0f3 	udiv	r0, r0, r3
    1ee6:	bd08      	pop	{r3, pc}
    1ee8:	f7ff ff80 	bl	1dec <CLOCK_GetMainClockRate>
    1eec:	e7f4      	b.n	1ed8 <CLOCK_GetClkOutFreq+0x24>
    1eee:	f7ff ff05 	bl	1cfc <CLOCK_GetXtal32kFreq>
    1ef2:	e7f1      	b.n	1ed8 <CLOCK_GetClkOutFreq+0x24>
    1ef4:	f7ff ff0e 	bl	1d14 <CLOCK_GetFro32kFreq>
    1ef8:	e7ee      	b.n	1ed8 <CLOCK_GetClkOutFreq+0x24>
    1efa:	f7ff ffcf 	bl	1e9c <CLOCK_GetFro64MFreq>
    1efe:	e7eb      	b.n	1ed8 <CLOCK_GetClkOutFreq+0x24>
    1f00:	f7ff ff58 	bl	1db4 <CLOCK_GetFro48MFreq>
    1f04:	e7e8      	b.n	1ed8 <CLOCK_GetClkOutFreq+0x24>
    1f06:	2000      	movs	r0, #0
    1f08:	e7e6      	b.n	1ed8 <CLOCK_GetClkOutFreq+0x24>
    1f0a:	4802      	ldr	r0, [pc, #8]	; (1f14 <CLOCK_GetClkOutFreq+0x60>)
    1f0c:	e7e4      	b.n	1ed8 <CLOCK_GetClkOutFreq+0x24>
    1f0e:	bf00      	nop
    1f10:	000f4240 	.word	0x000f4240
    1f14:	01e84800 	.word	0x01e84800

00001f18 <CLOCK_GetSpifiOscFreq>:
    1f18:	b508      	push	{r3, lr}
    1f1a:	f04f 4380 	mov.w	r3, #1073741824	; 0x40000000
    1f1e:	4619      	mov	r1, r3
    1f20:	f8d3 22a0 	ldr.w	r2, [r3, #672]	; 0x2a0
    1f24:	f002 0207 	and.w	r2, r2, #7
    1f28:	2a03      	cmp	r2, #3
    1f2a:	d803      	bhi.n	1f34 <CLOCK_GetSpifiOscFreq+0x1c>
    1f2c:	e8df f002 	tbb	[pc, r2]
    1f30:	110e140b 	.word	0x110e140b
    1f34:	2000      	movs	r0, #0
    1f36:	f8d1 3390 	ldr.w	r3, [r1, #912]	; 0x390
    1f3a:	f003 0303 	and.w	r3, r3, #3
    1f3e:	3301      	adds	r3, #1
    1f40:	fbb0 f0f3 	udiv	r0, r0, r3
    1f44:	bd08      	pop	{r3, pc}
    1f46:	f7ff ff51 	bl	1dec <CLOCK_GetMainClockRate>
    1f4a:	e7f4      	b.n	1f36 <CLOCK_GetSpifiOscFreq+0x1e>
    1f4c:	f7ff ffa6 	bl	1e9c <CLOCK_GetFro64MFreq>
    1f50:	e7f1      	b.n	1f36 <CLOCK_GetSpifiOscFreq+0x1e>
    1f52:	f7ff ff2f 	bl	1db4 <CLOCK_GetFro48MFreq>
    1f56:	e7ee      	b.n	1f36 <CLOCK_GetSpifiOscFreq+0x1e>
    1f58:	4800      	ldr	r0, [pc, #0]	; (1f5c <CLOCK_GetSpifiOscFreq+0x44>)
    1f5a:	e7ec      	b.n	1f36 <CLOCK_GetSpifiOscFreq+0x1e>
    1f5c:	01e84800 	.word	0x01e84800

00001f60 <CLOCK_GetApbCLkFreq>:
    1f60:	4b08      	ldr	r3, [pc, #32]	; (1f84 <CLOCK_GetApbCLkFreq+0x24>)
    1f62:	6a1b      	ldr	r3, [r3, #32]
    1f64:	f003 0303 	and.w	r3, r3, #3
    1f68:	2b02      	cmp	r3, #2
    1f6a:	d005      	beq.n	1f78 <CLOCK_GetApbCLkFreq+0x18>
    1f6c:	2b03      	cmp	r3, #3
    1f6e:	d005      	beq.n	1f7c <CLOCK_GetApbCLkFreq+0x1c>
    1f70:	2b01      	cmp	r3, #1
    1f72:	d005      	beq.n	1f80 <CLOCK_GetApbCLkFreq+0x20>
    1f74:	f7ff bf3a 	b.w	1dec <CLOCK_GetMainClockRate>
    1f78:	f7ff beee 	b.w	1d58 <CLOCK_GetFro32MFreq>
    1f7c:	f7ff bf1a 	b.w	1db4 <CLOCK_GetFro48MFreq>
    1f80:	4801      	ldr	r0, [pc, #4]	; (1f88 <CLOCK_GetApbCLkFreq+0x28>)
    1f82:	4770      	bx	lr
    1f84:	40020000 	.word	0x40020000
    1f88:	01e84800 	.word	0x01e84800

00001f8c <CLOCK_GetFreq>:
    1f8c:	b508      	push	{r3, lr}
    1f8e:	4b3e      	ldr	r3, [pc, #248]	; (2088 <CLOCK_GetFreq+0xfc>)
    1f90:	4298      	cmp	r0, r3
    1f92:	d80a      	bhi.n	1faa <CLOCK_GetFreq+0x1e>
    1f94:	f5b0 3f80 	cmp.w	r0, #65536	; 0x10000
    1f98:	d209      	bcs.n	1fae <CLOCK_GetFreq+0x22>
    1f9a:	f5b0 7f89 	cmp.w	r0, #274	; 0x112
    1f9e:	d06d      	beq.n	207c <CLOCK_GetFreq+0xf0>
    1fa0:	d82c      	bhi.n	1ffc <CLOCK_GetFreq+0x70>
    1fa2:	280a      	cmp	r0, #10
    1fa4:	d05b      	beq.n	205e <CLOCK_GetFreq+0xd2>
    1fa6:	2816      	cmp	r0, #22
    1fa8:	d05d      	beq.n	2066 <CLOCK_GetFreq+0xda>
    1faa:	2000      	movs	r0, #0
    1fac:	e025      	b.n	1ffa <CLOCK_GetFreq+0x6e>
    1fae:	f5a0 3080 	sub.w	r0, r0, #65536	; 0x10000
    1fb2:	280e      	cmp	r0, #14
    1fb4:	d8f9      	bhi.n	1faa <CLOCK_GetFreq+0x1e>
    1fb6:	a301      	add	r3, pc, #4	; (adr r3, 1fbc <CLOCK_GetFreq+0x30>)
    1fb8:	f853 f020 	ldr.w	pc, [r3, r0, lsl #2]
    1fbc:	0000200f 	.word	0x0000200f
    1fc0:	00002017 	.word	0x00002017
    1fc4:	00002017 	.word	0x00002017
    1fc8:	0000201f 	.word	0x0000201f
    1fcc:	00002085 	.word	0x00002085
    1fd0:	00002027 	.word	0x00002027
    1fd4:	00001ff9 	.word	0x00001ff9
    1fd8:	0000202f 	.word	0x0000202f
    1fdc:	00002037 	.word	0x00002037
    1fe0:	0000203f 	.word	0x0000203f
    1fe4:	00002047 	.word	0x00002047
    1fe8:	00001fab 	.word	0x00001fab
    1fec:	00002067 	.word	0x00002067
    1ff0:	0000204f 	.word	0x0000204f
    1ff4:	00002057 	.word	0x00002057
    1ff8:	4824      	ldr	r0, [pc, #144]	; (208c <CLOCK_GetFreq+0x100>)
    1ffa:	bd08      	pop	{r3, pc}
    1ffc:	f46f 7300 	mvn.w	r3, #512	; 0x200
    2000:	4418      	add	r0, r3
    2002:	2801      	cmp	r0, #1
    2004:	d8d1      	bhi.n	1faa <CLOCK_GetFreq+0x1e>
    2006:	e8bd 4008 	ldmia.w	sp!, {r3, lr}
    200a:	f7ff bfa9 	b.w	1f60 <CLOCK_GetApbCLkFreq>
    200e:	e8bd 4008 	ldmia.w	sp!, {r3, lr}
    2012:	f7ff beeb 	b.w	1dec <CLOCK_GetMainClockRate>
    2016:	e8bd 4008 	ldmia.w	sp!, {r3, lr}
    201a:	f7ff bf07 	b.w	1e2c <CLOCK_GetCoreSysClkFreq>
    201e:	e8bd 4008 	ldmia.w	sp!, {r3, lr}
    2022:	f7ff be6b 	b.w	1cfc <CLOCK_GetXtal32kFreq>
    2026:	e8bd 4008 	ldmia.w	sp!, {r3, lr}
    202a:	f7ff be73 	b.w	1d14 <CLOCK_GetFro32kFreq>
    202e:	e8bd 4008 	ldmia.w	sp!, {r3, lr}
    2032:	f7ff be85 	b.w	1d40 <CLOCK_GetFro12MFreq>
    2036:	e8bd 4008 	ldmia.w	sp!, {r3, lr}
    203a:	f7ff be8d 	b.w	1d58 <CLOCK_GetFro32MFreq>
    203e:	e8bd 4008 	ldmia.w	sp!, {r3, lr}
    2042:	f7ff beb7 	b.w	1db4 <CLOCK_GetFro48MFreq>
    2046:	e8bd 4008 	ldmia.w	sp!, {r3, lr}
    204a:	f7ff bf27 	b.w	1e9c <CLOCK_GetFro64MFreq>
    204e:	e8bd 4008 	ldmia.w	sp!, {r3, lr}
    2052:	f7ff bf0a 	b.w	1e6a <CLOCK_GetFRGClock>
    2056:	e8bd 4008 	ldmia.w	sp!, {r3, lr}
    205a:	f7ff bf2b 	b.w	1eb4 <CLOCK_GetClkOutFreq>
    205e:	e8bd 4008 	ldmia.w	sp!, {r3, lr}
    2062:	f7ff bf59 	b.w	1f18 <CLOCK_GetSpifiOscFreq>
    2066:	f7ff fe8f 	bl	1d88 <CLOCK_GetWdtOscFreq>
    206a:	f04f 4380 	mov.w	r3, #1073741824	; 0x40000000
    206e:	f8d3 336c 	ldr.w	r3, [r3, #876]	; 0x36c
    2072:	b2db      	uxtb	r3, r3
    2074:	3301      	adds	r3, #1
    2076:	fbb0 f0f3 	udiv	r0, r0, r3
    207a:	e7be      	b.n	1ffa <CLOCK_GetFreq+0x6e>
    207c:	e8bd 4008 	ldmia.w	sp!, {r3, lr}
    2080:	f7ff bea4 	b.w	1dcc <CLOCK_GetPWMClockFreq>
    2084:	4802      	ldr	r0, [pc, #8]	; (2090 <CLOCK_GetFreq+0x104>)
    2086:	e7b8      	b.n	1ffa <CLOCK_GetFreq+0x6e>
    2088:	0001000e 	.word	0x0001000e
    208c:	000f4240 	.word	0x000f4240
    2090:	01e84800 	.word	0x01e84800

00002094 <CLOCK_DisableClock>:
    2094:	f5b0 7f00 	cmp.w	r0, #512	; 0x200
    2098:	ea4f 2310 	mov.w	r3, r0, lsr #8
    209c:	d30c      	bcc.n	20b8 <CLOCK_DisableClock+0x24>
    209e:	2b02      	cmp	r3, #2
    20a0:	d014      	beq.n	20cc <CLOCK_DisableClock+0x38>
    20a2:	f5a0 3080 	sub.w	r0, r0, #65536	; 0x10000
    20a6:	3803      	subs	r0, #3
    20a8:	2807      	cmp	r0, #7
    20aa:	d831      	bhi.n	2110 <CLOCK_DisableClock+0x7c>
    20ac:	e8df f000 	tbb	[pc, r0]
    20b0:	3015231d 	.word	0x3015231d
    20b4:	3b36312b 	.word	0x3b36312b
    20b8:	2201      	movs	r2, #1
    20ba:	b2c0      	uxtb	r0, r0
    20bc:	fa02 f000 	lsl.w	r0, r2, r0
    20c0:	3390      	adds	r3, #144	; 0x90
    20c2:	f04f 4280 	mov.w	r2, #1073741824	; 0x40000000
    20c6:	f842 0023 	str.w	r0, [r2, r3, lsl #2]
    20ca:	4770      	bx	lr
    20cc:	2301      	movs	r3, #1
    20ce:	b2c0      	uxtb	r0, r0
    20d0:	fa03 f000 	lsl.w	r0, r3, r0
    20d4:	4b16      	ldr	r3, [pc, #88]	; (2130 <CLOCK_DisableClock+0x9c>)
    20d6:	6198      	str	r0, [r3, #24]
    20d8:	4770      	bx	lr
    20da:	4a16      	ldr	r2, [pc, #88]	; (2134 <CLOCK_DisableClock+0xa0>)
    20dc:	f8d2 30b8 	ldr.w	r3, [r2, #184]	; 0xb8
    20e0:	f023 7300 	bic.w	r3, r3, #33554432	; 0x2000000
    20e4:	f8c2 30b8 	str.w	r3, [r2, #184]	; 0xb8
    20e8:	4770      	bx	lr
    20ea:	4a12      	ldr	r2, [pc, #72]	; (2134 <CLOCK_DisableClock+0xa0>)
    20ec:	f8d2 30b8 	ldr.w	r3, [r2, #184]	; 0xb8
    20f0:	f023 6380 	bic.w	r3, r3, #67108864	; 0x4000000
    20f4:	e7f6      	b.n	20e4 <CLOCK_DisableClock+0x50>
    20f6:	4a0e      	ldr	r2, [pc, #56]	; (2130 <CLOCK_DisableClock+0x9c>)
    20f8:	f8d2 30ac 	ldr.w	r3, [r2, #172]	; 0xac
    20fc:	f423 0380 	bic.w	r3, r3, #4194304	; 0x400000
    2100:	f8c2 30ac 	str.w	r3, [r2, #172]	; 0xac
    2104:	4770      	bx	lr
    2106:	4a0b      	ldr	r2, [pc, #44]	; (2134 <CLOCK_DisableClock+0xa0>)
    2108:	6c13      	ldr	r3, [r2, #64]	; 0x40
    210a:	f423 1380 	bic.w	r3, r3, #1048576	; 0x100000
    210e:	6413      	str	r3, [r2, #64]	; 0x40
    2110:	4770      	bx	lr
    2112:	4a08      	ldr	r2, [pc, #32]	; (2134 <CLOCK_DisableClock+0xa0>)
    2114:	6c13      	ldr	r3, [r2, #64]	; 0x40
    2116:	f423 1300 	bic.w	r3, r3, #2097152	; 0x200000
    211a:	e7f8      	b.n	210e <CLOCK_DisableClock+0x7a>
    211c:	4a05      	ldr	r2, [pc, #20]	; (2134 <CLOCK_DisableClock+0xa0>)
    211e:	6c13      	ldr	r3, [r2, #64]	; 0x40
    2120:	f423 0380 	bic.w	r3, r3, #4194304	; 0x400000
    2124:	e7f3      	b.n	210e <CLOCK_DisableClock+0x7a>
    2126:	4a03      	ldr	r2, [pc, #12]	; (2134 <CLOCK_DisableClock+0xa0>)
    2128:	6c13      	ldr	r3, [r2, #64]	; 0x40
    212a:	f423 0300 	bic.w	r3, r3, #8388608	; 0x800000
    212e:	e7ee      	b.n	210e <CLOCK_DisableClock+0x7a>
    2130:	40020000 	.word	0x40020000
    2134:	40012000 	.word	0x40012000

00002138 <CLOCK_EnableAPBBridge>:
    2138:	f04f 4280 	mov.w	r2, #1073741824	; 0x40000000
    213c:	6cd3      	ldr	r3, [r2, #76]	; 0x4c
    213e:	f043 0301 	orr.w	r3, r3, #1
    2142:	64d3      	str	r3, [r2, #76]	; 0x4c
    2144:	4770      	bx	lr
    2146:	Address 0x00002146 is out of bounds.


00002148 <CLOCK_uDelay>:
    2148:	b5f8      	push	{r3, r4, r5, r6, r7, lr}
    214a:	4914      	ldr	r1, [pc, #80]	; (219c <CLOCK_uDelay+0x54>)
    214c:	4c14      	ldr	r4, [pc, #80]	; (21a0 <CLOCK_uDelay+0x58>)
    214e:	68e5      	ldr	r5, [r4, #12]
    2150:	680e      	ldr	r6, [r1, #0]
    2152:	68e3      	ldr	r3, [r4, #12]
    2154:	f043 7380 	orr.w	r3, r3, #16777216	; 0x1000000
    2158:	60e3      	str	r3, [r4, #12]
    215a:	680b      	ldr	r3, [r1, #0]
    215c:	f043 0301 	orr.w	r3, r3, #1
    2160:	600b      	str	r3, [r1, #0]
    2162:	4607      	mov	r7, r0
    2164:	f7ff fe62 	bl	1e2c <CLOCK_GetCoreSysClkFreq>
    2168:	684a      	ldr	r2, [r1, #4]
    216a:	4b0e      	ldr	r3, [pc, #56]	; (21a4 <CLOCK_uDelay+0x5c>)
    216c:	fbb0 f3f3 	udiv	r3, r0, r3
    2170:	f005 7580 	and.w	r5, r5, #16777216	; 0x1000000
    2174:	f006 0601 	and.w	r6, r6, #1
    2178:	fb07 2003 	mla	r0, r7, r3, r2
    217c:	684b      	ldr	r3, [r1, #4]
    217e:	1ac3      	subs	r3, r0, r3
    2180:	2b00      	cmp	r3, #0
    2182:	dcfb      	bgt.n	217c <CLOCK_uDelay+0x34>
    2184:	b91e      	cbnz	r6, 218e <CLOCK_uDelay+0x46>
    2186:	680b      	ldr	r3, [r1, #0]
    2188:	f023 0301 	bic.w	r3, r3, #1
    218c:	600b      	str	r3, [r1, #0]
    218e:	b91d      	cbnz	r5, 2198 <CLOCK_uDelay+0x50>
    2190:	68e3      	ldr	r3, [r4, #12]
    2192:	f023 7380 	bic.w	r3, r3, #16777216	; 0x1000000
    2196:	60e3      	str	r3, [r4, #12]
    2198:	bdf8      	pop	{r3, r4, r5, r6, r7, pc}
    219a:	bf00      	nop
    219c:	e0001000 	.word	0xe0001000
    21a0:	e000edf0 	.word	0xe000edf0
    21a4:	000f4240 	.word	0x000f4240

000021a8 <CLOCK_SetXtal32M_LDO>:
    21a8:	4a0a      	ldr	r2, [pc, #40]	; (21d4 <CLOCK_SetXtal32M_LDO+0x2c>)
    21aa:	f8d2 30a8 	ldr.w	r3, [r2, #168]	; 0xa8
    21ae:	f240 31fa 	movw	r1, #1018	; 0x3fa
    21b2:	4019      	ands	r1, r3
    21b4:	f5b1 7fd5 	cmp.w	r1, #426	; 0x1aa
    21b8:	d00a      	beq.n	21d0 <CLOCK_SetXtal32M_LDO+0x28>
    21ba:	f423 737e 	bic.w	r3, r3, #1016	; 0x3f8
    21be:	f023 0302 	bic.w	r3, r3, #2
    21c2:	f443 73d5 	orr.w	r3, r3, #426	; 0x1aa
    21c6:	f8c2 30a8 	str.w	r3, [r2, #168]	; 0xa8
    21ca:	2014      	movs	r0, #20
    21cc:	f7ff bfbc 	b.w	2148 <CLOCK_uDelay>
    21d0:	4770      	bx	lr
    21d2:	bf00      	nop
    21d4:	40020000 	.word	0x40020000

000021d8 <CLOCK_Xtal32M_Trim>:
    21d8:	e92d 41f0 	stmdb	sp!, {r4, r5, r6, r7, r8, lr}
    21dc:	4605      	mov	r5, r0
    21de:	460f      	mov	r7, r1
    21e0:	f7ff ffe2 	bl	21a8 <CLOCK_SetXtal32M_LDO>
    21e4:	4b33      	ldr	r3, [pc, #204]	; (22b4 <CLOCK_Xtal32M_Trim+0xdc>)
    21e6:	681c      	ldr	r4, [r3, #0]
    21e8:	f248 0301 	movw	r3, #32769	; 0x8001
    21ec:	43a3      	bics	r3, r4
    21ee:	d157      	bne.n	22a0 <CLOCK_Xtal32M_Trim+0xc8>
    21f0:	4b31      	ldr	r3, [pc, #196]	; (22b8 <CLOCK_Xtal32M_Trim+0xe0>)
    21f2:	681a      	ldr	r2, [r3, #0]
    21f4:	4b31      	ldr	r3, [pc, #196]	; (22bc <CLOCK_Xtal32M_Trim+0xe4>)
    21f6:	429a      	cmp	r2, r3
    21f8:	d952      	bls.n	22a0 <CLOCK_Xtal32M_Trim+0xc8>
    21fa:	f3c4 0246 	ubfx	r2, r4, #1, #7
    21fe:	f3c4 2006 	ubfx	r0, r4, #8, #7
    2202:	f3c4 4106 	ubfx	r1, r4, #16, #7
    2206:	f3c4 7380 	ubfx	r3, r4, #30, #1
    220a:	f3c4 54c6 	ubfx	r4, r4, #23, #7
    220e:	eba0 0c02 	sub.w	ip, r0, r2
    2212:	1a64      	subs	r4, r4, r1
    2214:	ebac 008c 	sub.w	r0, ip, ip, lsl #2
    2218:	eba4 0684 	sub.w	r6, r4, r4, lsl #2
    221c:	4402      	add	r2, r0
    221e:	440e      	add	r6, r1
    2220:	f8d7 8000 	ldr.w	r8, [r7]
    2224:	68b9      	ldr	r1, [r7, #8]
    2226:	ebc1 0048 	rsb	r0, r1, r8, lsl #1
    222a:	380f      	subs	r0, #15
    222c:	2127      	movs	r1, #39	; 0x27
    222e:	f1c3 0301 	rsb	r3, r3, #1
    2232:	fb01 0303 	mla	r3, r1, r3, r0
    2236:	6878      	ldr	r0, [r7, #4]
    2238:	f44f 77c8 	mov.w	r7, #400	; 0x190
    223c:	ebc0 0048 	rsb	r0, r0, r8, lsl #1
    2240:	437a      	muls	r2, r7
    2242:	f1a0 0815 	sub.w	r8, r0, #21
    2246:	2005      	movs	r0, #5
    2248:	fb95 f5f0 	sdiv	r5, r5, r0
    224c:	18e8      	adds	r0, r5, r3
    224e:	fb0c 2000 	mla	r0, ip, r0, r2
    2252:	210d      	movs	r1, #13
    2254:	30c8      	adds	r0, #200	; 0xc8
    2256:	fb90 f0f7 	sdiv	r0, r0, r7
    225a:	f7ff fcb9 	bl	1bd0 <CLOCK_u8OscCapConvert>
    225e:	437e      	muls	r6, r7
    2260:	4602      	mov	r2, r0
    2262:	eb05 0008 	add.w	r0, r5, r8
    2266:	fb04 6000 	mla	r0, r4, r0, r6
    226a:	210d      	movs	r1, #13
    226c:	30c8      	adds	r0, #200	; 0xc8
    226e:	fb90 f0f7 	sdiv	r0, r0, r7
    2272:	f7ff fcad 	bl	1bd0 <CLOCK_u8OscCapConvert>
    2276:	4912      	ldr	r1, [pc, #72]	; (22c0 <CLOCK_Xtal32M_Trim+0xe8>)
    2278:	0112      	lsls	r2, r2, #4
    227a:	02c3      	lsls	r3, r0, #11
    227c:	f402 62fe 	and.w	r2, r2, #2032	; 0x7f0
    2280:	f403 337e 	and.w	r3, r3, #260096	; 0x3f800
    2284:	f8d1 40ac 	ldr.w	r4, [r1, #172]	; 0xac
    2288:	4313      	orrs	r3, r2
    228a:	4a0e      	ldr	r2, [pc, #56]	; (22c4 <CLOCK_Xtal32M_Trim+0xec>)
    228c:	4022      	ands	r2, r4
    228e:	4313      	orrs	r3, r2
    2290:	f043 63b8 	orr.w	r3, r3, #96468992	; 0x5c00000
    2294:	f043 0301 	orr.w	r3, r3, #1
    2298:	f8c1 30ac 	str.w	r3, [r1, #172]	; 0xac
    229c:	e8bd 81f0 	ldmia.w	sp!, {r4, r5, r6, r7, r8, pc}
    22a0:	f06f 060e 	mvn.w	r6, #14
    22a4:	2413      	movs	r4, #19
    22a6:	f06f 020d 	mvn.w	r2, #13
    22aa:	f04f 0c14 	mov.w	ip, #20
    22ae:	2300      	movs	r3, #0
    22b0:	e7b6      	b.n	2220 <CLOCK_Xtal32M_Trim+0x48>
    22b2:	bf00      	nop
    22b4:	0009fcf0 	.word	0x0009fcf0
    22b8:	0009fc68 	.word	0x0009fc68
    22bc:	0133f0d2 	.word	0x0133f0d2
    22c0:	40020000 	.word	0x40020000
    22c4:	f87c000e 	.word	0xf87c000e

000022c8 <CLOCK_XtalBasicTrim>:
    22c8:	b508      	push	{r3, lr}
    22ca:	f7ff fa0b 	bl	16e4 <BOARD_GetClock32MCapacitanceCharacteristics>
    22ce:	4601      	mov	r1, r0
    22d0:	b930      	cbnz	r0, 22e0 <CLOCK_XtalBasicTrim+0x18>
    22d2:	4b06      	ldr	r3, [pc, #24]	; (22ec <CLOCK_XtalBasicTrim+0x24>)
    22d4:	4a06      	ldr	r2, [pc, #24]	; (22f0 <CLOCK_XtalBasicTrim+0x28>)
    22d6:	4807      	ldr	r0, [pc, #28]	; (22f4 <CLOCK_XtalBasicTrim+0x2c>)
    22d8:	f240 31de 	movw	r1, #990	; 0x3de
    22dc:	f002 f912 	bl	4504 <__assert_func>
    22e0:	e8bd 4008 	ldmia.w	sp!, {r3, lr}
    22e4:	2000      	movs	r0, #0
    22e6:	f7ff bf77 	b.w	21d8 <CLOCK_Xtal32M_Trim>
    22ea:	bf00      	nop
    22ec:	0000831b 	.word	0x0000831b
    22f0:	00008381 	.word	0x00008381
    22f4:	00008337 	.word	0x00008337

000022f8 <CLOCK_Xtal32M_WaitUntilStable>:
    22f8:	4a03      	ldr	r2, [pc, #12]	; (2308 <CLOCK_Xtal32M_WaitUntilStable+0x10>)
    22fa:	f8d2 30b4 	ldr.w	r3, [r2, #180]	; 0xb4
    22fe:	07db      	lsls	r3, r3, #31
    2300:	d5fb      	bpl.n	22fa <CLOCK_Xtal32M_WaitUntilStable+0x2>
    2302:	f7ff bf21 	b.w	2148 <CLOCK_uDelay>
    2306:	bf00      	nop
    2308:	40020000 	.word	0x40020000

0000230c <CLOCK_EnableClock>:
    230c:	f5b0 7f00 	cmp.w	r0, #512	; 0x200
    2310:	b508      	push	{r3, lr}
    2312:	ea4f 2310 	mov.w	r3, r0, lsr #8
    2316:	d30c      	bcc.n	2332 <CLOCK_EnableClock+0x26>
    2318:	2b02      	cmp	r3, #2
    231a:	d014      	beq.n	2346 <CLOCK_EnableClock+0x3a>
    231c:	f5a0 3080 	sub.w	r0, r0, #65536	; 0x10000
    2320:	3803      	subs	r0, #3
    2322:	2807      	cmp	r0, #7
    2324:	d80e      	bhi.n	2344 <CLOCK_EnableClock+0x38>
    2326:	e8df f000 	tbb	[pc, r0]
    232a:	2818      	.short	0x2818
    232c:	4e480d3a 	.word	0x4e480d3a
    2330:	5853      	.short	0x5853
    2332:	2201      	movs	r2, #1
    2334:	b2c0      	uxtb	r0, r0
    2336:	fa02 f000 	lsl.w	r0, r2, r0
    233a:	3388      	adds	r3, #136	; 0x88
    233c:	f04f 4280 	mov.w	r2, #1073741824	; 0x40000000
    2340:	f842 0023 	str.w	r0, [r2, r3, lsl #2]
    2344:	bd08      	pop	{r3, pc}
    2346:	f04f 4280 	mov.w	r2, #1073741824	; 0x40000000
    234a:	2301      	movs	r3, #1
    234c:	b2c0      	uxtb	r0, r0
    234e:	64d3      	str	r3, [r2, #76]	; 0x4c
    2350:	fa03 f000 	lsl.w	r0, r3, r0
    2354:	4b23      	ldr	r3, [pc, #140]	; (23e4 <CLOCK_EnableClock+0xd8>)
    2356:	6158      	str	r0, [r3, #20]
    2358:	e7f4      	b.n	2344 <CLOCK_EnableClock+0x38>
    235a:	4a23      	ldr	r2, [pc, #140]	; (23e8 <CLOCK_EnableClock+0xdc>)
    235c:	f8d2 30b8 	ldr.w	r3, [r2, #184]	; 0xb8
    2360:	f043 6380 	orr.w	r3, r3, #67108864	; 0x4000000
    2364:	f8c2 30b8 	str.w	r3, [r2, #184]	; 0xb8
    2368:	f04f 4280 	mov.w	r2, #1073741824	; 0x40000000
    236c:	f8d2 3284 	ldr.w	r3, [r2, #644]	; 0x284
    2370:	f043 0302 	orr.w	r3, r3, #2
    2374:	f8c2 3284 	str.w	r3, [r2, #644]	; 0x284
    2378:	e7e4      	b.n	2344 <CLOCK_EnableClock+0x38>
    237a:	4b1a      	ldr	r3, [pc, #104]	; (23e4 <CLOCK_EnableClock+0xd8>)
    237c:	f8d3 20ac 	ldr.w	r2, [r3, #172]	; 0xac
    2380:	0252      	lsls	r2, r2, #9
    2382:	d4df      	bmi.n	2344 <CLOCK_EnableClock+0x38>
    2384:	f8d3 20ac 	ldr.w	r2, [r3, #172]	; 0xac
    2388:	f042 6200 	orr.w	r2, r2, #134217728	; 0x8000000
    238c:	f8c3 20ac 	str.w	r2, [r3, #172]	; 0xac
    2390:	f7ff ff9a 	bl	22c8 <CLOCK_XtalBasicTrim>
    2394:	e8bd 4008 	ldmia.w	sp!, {r3, lr}
    2398:	20c8      	movs	r0, #200	; 0xc8
    239a:	f7ff bfad 	b.w	22f8 <CLOCK_Xtal32M_WaitUntilStable>
    239e:	4a12      	ldr	r2, [pc, #72]	; (23e8 <CLOCK_EnableClock+0xdc>)
    23a0:	f8d2 30b8 	ldr.w	r3, [r2, #184]	; 0xb8
    23a4:	f043 7300 	orr.w	r3, r3, #33554432	; 0x2000000
    23a8:	f8c2 30b8 	str.w	r3, [r2, #184]	; 0xb8
    23ac:	f04f 4280 	mov.w	r2, #1073741824	; 0x40000000
    23b0:	f8d2 3284 	ldr.w	r3, [r2, #644]	; 0x284
    23b4:	f023 0302 	bic.w	r3, r3, #2
    23b8:	e7dc      	b.n	2374 <CLOCK_EnableClock+0x68>
    23ba:	4a0b      	ldr	r2, [pc, #44]	; (23e8 <CLOCK_EnableClock+0xdc>)
    23bc:	6c13      	ldr	r3, [r2, #64]	; 0x40
    23be:	f443 1380 	orr.w	r3, r3, #1048576	; 0x100000
    23c2:	6413      	str	r3, [r2, #64]	; 0x40
    23c4:	e7be      	b.n	2344 <CLOCK_EnableClock+0x38>
    23c6:	4a08      	ldr	r2, [pc, #32]	; (23e8 <CLOCK_EnableClock+0xdc>)
    23c8:	6c13      	ldr	r3, [r2, #64]	; 0x40
    23ca:	f443 1300 	orr.w	r3, r3, #2097152	; 0x200000
    23ce:	e7f8      	b.n	23c2 <CLOCK_EnableClock+0xb6>
    23d0:	4a05      	ldr	r2, [pc, #20]	; (23e8 <CLOCK_EnableClock+0xdc>)
    23d2:	6c13      	ldr	r3, [r2, #64]	; 0x40
    23d4:	f443 0380 	orr.w	r3, r3, #4194304	; 0x400000
    23d8:	e7f3      	b.n	23c2 <CLOCK_EnableClock+0xb6>
    23da:	4a03      	ldr	r2, [pc, #12]	; (23e8 <CLOCK_EnableClock+0xdc>)
    23dc:	6c13      	ldr	r3, [r2, #64]	; 0x40
    23de:	f443 0300 	orr.w	r3, r3, #8388608	; 0x800000
    23e2:	e7ee      	b.n	23c2 <CLOCK_EnableClock+0xb6>
    23e4:	40020000 	.word	0x40020000
    23e8:	40012000 	.word	0x40012000

000023ec <RESET_SetPeripheralReset>:
    23ec:	b281      	uxth	r1, r0
    23ee:	2201      	movs	r2, #1
    23f0:	408a      	lsls	r2, r1
    23f2:	f64f 71e0 	movw	r1, #65504	; 0xffe0
    23f6:	4208      	tst	r0, r1
    23f8:	b508      	push	{r3, lr}
    23fa:	ea4f 4310 	mov.w	r3, r0, lsr #16
    23fe:	d005      	beq.n	240c <RESET_SetPeripheralReset+0x20>
    2400:	4b0b      	ldr	r3, [pc, #44]	; (2430 <RESET_SetPeripheralReset+0x44>)
    2402:	4a0c      	ldr	r2, [pc, #48]	; (2434 <RESET_SetPeripheralReset+0x48>)
    2404:	480c      	ldr	r0, [pc, #48]	; (2438 <RESET_SetPeripheralReset+0x4c>)
    2406:	2135      	movs	r1, #53	; 0x35
    2408:	f002 f87c 	bl	4504 <__assert_func>
    240c:	2b01      	cmp	r3, #1
    240e:	d905      	bls.n	241c <RESET_SetPeripheralReset+0x30>
    2410:	4b0a      	ldr	r3, [pc, #40]	; (243c <RESET_SetPeripheralReset+0x50>)
    2412:	605a      	str	r2, [r3, #4]
    2414:	6819      	ldr	r1, [r3, #0]
    2416:	4211      	tst	r1, r2
    2418:	d0fc      	beq.n	2414 <RESET_SetPeripheralReset+0x28>
    241a:	bd08      	pop	{r3, pc}
    241c:	009b      	lsls	r3, r3, #2
    241e:	f103 4380 	add.w	r3, r3, #1073741824	; 0x40000000
    2422:	f8c3 2120 	str.w	r2, [r3, #288]	; 0x120
    2426:	f8d3 1100 	ldr.w	r1, [r3, #256]	; 0x100
    242a:	4211      	tst	r1, r2
    242c:	d0fb      	beq.n	2426 <RESET_SetPeripheralReset+0x3a>
    242e:	e7f4      	b.n	241a <RESET_SetPeripheralReset+0x2e>
    2430:	00008395 	.word	0x00008395
    2434:	000083ec 	.word	0x000083ec
    2438:	000083a2 	.word	0x000083a2
    243c:	40020000 	.word	0x40020000

00002440 <RESET_ClearPeripheralReset>:
    2440:	b281      	uxth	r1, r0
    2442:	2201      	movs	r2, #1
    2444:	408a      	lsls	r2, r1
    2446:	f64f 71e0 	movw	r1, #65504	; 0xffe0
    244a:	4208      	tst	r0, r1
    244c:	b508      	push	{r3, lr}
    244e:	ea4f 4310 	mov.w	r3, r0, lsr #16
    2452:	d005      	beq.n	2460 <RESET_ClearPeripheralReset+0x20>
    2454:	4b0c      	ldr	r3, [pc, #48]	; (2488 <RESET_ClearPeripheralReset+0x48>)
    2456:	4a0d      	ldr	r2, [pc, #52]	; (248c <RESET_ClearPeripheralReset+0x4c>)
    2458:	480d      	ldr	r0, [pc, #52]	; (2490 <RESET_ClearPeripheralReset+0x50>)
    245a:	215e      	movs	r1, #94	; 0x5e
    245c:	f002 f852 	bl	4504 <__assert_func>
    2460:	2b01      	cmp	r3, #1
    2462:	d906      	bls.n	2472 <RESET_ClearPeripheralReset+0x32>
    2464:	4b0b      	ldr	r3, [pc, #44]	; (2494 <RESET_ClearPeripheralReset+0x54>)
    2466:	609a      	str	r2, [r3, #8]
    2468:	6819      	ldr	r1, [r3, #0]
    246a:	ea32 0101 	bics.w	r1, r2, r1
    246e:	d0fb      	beq.n	2468 <RESET_ClearPeripheralReset+0x28>
    2470:	bd08      	pop	{r3, pc}
    2472:	009b      	lsls	r3, r3, #2
    2474:	f103 4380 	add.w	r3, r3, #1073741824	; 0x40000000
    2478:	f8c3 2140 	str.w	r2, [r3, #320]	; 0x140
    247c:	f8d3 1100 	ldr.w	r1, [r3, #256]	; 0x100
    2480:	ea32 0101 	bics.w	r1, r2, r1
    2484:	d0fa      	beq.n	247c <RESET_ClearPeripheralReset+0x3c>
    2486:	e7f3      	b.n	2470 <RESET_ClearPeripheralReset+0x30>
    2488:	00008395 	.word	0x00008395
    248c:	00008405 	.word	0x00008405
    2490:	000083a2 	.word	0x000083a2
    2494:	40020000 	.word	0x40020000

00002498 <RESET_PeripheralReset>:
    2498:	b510      	push	{r4, lr}
    249a:	4604      	mov	r4, r0
    249c:	f7ff ffa6 	bl	23ec <RESET_SetPeripheralReset>
    24a0:	4620      	mov	r0, r4
    24a2:	e8bd 4010 	ldmia.w	sp!, {r4, lr}
    24a6:	f7ff bfcb 	b.w	2440 <RESET_ClearPeripheralReset>
    24aa:	Address 0x000024aa is out of bounds.


000024ac <USART_GetDefaultConfig>:
    24ac:	b510      	push	{r4, lr}
    24ae:	4604      	mov	r4, r0
    24b0:	b930      	cbnz	r0, 24c0 <USART_GetDefaultConfig+0x14>
    24b2:	4b0b      	ldr	r3, [pc, #44]	; (24e0 <USART_GetDefaultConfig+0x34>)
    24b4:	4a0b      	ldr	r2, [pc, #44]	; (24e4 <USART_GetDefaultConfig+0x38>)
    24b6:	480c      	ldr	r0, [pc, #48]	; (24e8 <USART_GetDefaultConfig+0x3c>)
    24b8:	f44f 7189 	mov.w	r1, #274	; 0x112
    24bc:	f002 f822 	bl	4504 <__assert_func>
    24c0:	2210      	movs	r2, #16
    24c2:	2100      	movs	r1, #0
    24c4:	f005 f9a8 	bl	7818 <memset>
    24c8:	f44f 3380 	mov.w	r3, #65536	; 0x10000
    24cc:	f44f 32e1 	mov.w	r2, #115200	; 0x1c200
    24d0:	e9c4 2300 	strd	r2, r3, [r4]
    24d4:	2300      	movs	r3, #0
    24d6:	60a3      	str	r3, [r4, #8]
    24d8:	81a3      	strh	r3, [r4, #12]
    24da:	73a3      	strb	r3, [r4, #14]
    24dc:	bd10      	pop	{r4, pc}
    24de:	bf00      	nop
    24e0:	00008470 	.word	0x00008470
    24e4:	00008529 	.word	0x00008529
    24e8:	00008426 	.word	0x00008426

000024ec <USART_SetBaudRate>:
    24ec:	e92d 43f8 	stmdb	sp!, {r3, r4, r5, r6, r7, r8, r9, lr}
    24f0:	b108      	cbz	r0, 24f6 <USART_SetBaudRate+0xa>
    24f2:	b101      	cbz	r1, 24f6 <USART_SetBaudRate+0xa>
    24f4:	b932      	cbnz	r2, 2504 <USART_SetBaudRate+0x18>
    24f6:	4b23      	ldr	r3, [pc, #140]	; (2584 <USART_SetBaudRate+0x98>)
    24f8:	4a23      	ldr	r2, [pc, #140]	; (2588 <USART_SetBaudRate+0x9c>)
    24fa:	4824      	ldr	r0, [pc, #144]	; (258c <USART_SetBaudRate+0xa0>)
    24fc:	f44f 719e 	mov.w	r1, #316	; 0x13c
    2500:	f002 f800 	bl	4504 <__assert_func>
    2504:	6803      	ldr	r3, [r0, #0]
    2506:	051b      	lsls	r3, r3, #20
    2508:	d50a      	bpl.n	2520 <USART_SetBaudRate+0x34>
    250a:	6803      	ldr	r3, [r0, #0]
    250c:	f413 4380 	ands.w	r3, r3, #16384	; 0x4000
    2510:	d003      	beq.n	251a <USART_SetBaudRate+0x2e>
    2512:	fbb2 f2f1 	udiv	r2, r2, r1
    2516:	3a01      	subs	r2, #1
    2518:	6202      	str	r2, [r0, #32]
    251a:	2000      	movs	r0, #0
    251c:	e8bd 83f8 	ldmia.w	sp!, {r3, r4, r5, r6, r7, r8, r9, pc}
    2520:	270a      	movs	r7, #10
    2522:	f04f 36ff 	mov.w	r6, #4294967295
    2526:	f04f 0c0f 	mov.w	ip, #15
    252a:	fb07 f902 	mul.w	r9, r7, r2
    252e:	ea4f 1e01 	mov.w	lr, r1, lsl #4
    2532:	46b0      	mov	r8, r6
    2534:	4665      	mov	r5, ip
    2536:	fbb9 f4fe 	udiv	r4, r9, lr
    253a:	3c05      	subs	r4, #5
    253c:	f5b4 2f20 	cmp.w	r4, #655360	; 0xa0000
    2540:	f105 0301 	add.w	r3, r5, #1
    2544:	d20e      	bcs.n	2564 <USART_SetBaudRate+0x78>
    2546:	fbb4 f4f7 	udiv	r4, r4, r7
    254a:	fb04 3303 	mla	r3, r4, r3, r3
    254e:	fbb2 f3f3 	udiv	r3, r2, r3
    2552:	4299      	cmp	r1, r3
    2554:	bf34      	ite	cc
    2556:	1a5b      	subcc	r3, r3, r1
    2558:	1acb      	subcs	r3, r1, r3
    255a:	4543      	cmp	r3, r8
    255c:	bf3e      	ittt	cc
    255e:	4626      	movcc	r6, r4
    2560:	46ac      	movcc	ip, r5
    2562:	4698      	movcc	r8, r3
    2564:	3d01      	subs	r5, #1
    2566:	2d07      	cmp	r5, #7
    2568:	ebae 0e01 	sub.w	lr, lr, r1
    256c:	d1e3      	bne.n	2536 <USART_SetBaudRate+0x4a>
    256e:	f5b6 3f80 	cmp.w	r6, #65536	; 0x10000
    2572:	d203      	bcs.n	257c <USART_SetBaudRate+0x90>
    2574:	f8c0 c028 	str.w	ip, [r0, #40]	; 0x28
    2578:	6206      	str	r6, [r0, #32]
    257a:	e7ce      	b.n	251a <USART_SetBaudRate+0x2e>
    257c:	f241 6051 	movw	r0, #5713	; 0x1651
    2580:	e7cc      	b.n	251c <USART_SetBaudRate+0x30>
    2582:	bf00      	nop
    2584:	0000847f 	.word	0x0000847f
    2588:	00008540 	.word	0x00008540
    258c:	00008426 	.word	0x00008426

00002590 <USART_Init>:
    2590:	b570      	push	{r4, r5, r6, lr}
    2592:	460d      	mov	r5, r1
    2594:	4616      	mov	r6, r2
    2596:	4604      	mov	r4, r0
    2598:	b108      	cbz	r0, 259e <USART_Init+0xe>
    259a:	b101      	cbz	r1, 259e <USART_Init+0xe>
    259c:	b92a      	cbnz	r2, 25aa <USART_Init+0x1a>
    259e:	4b3c      	ldr	r3, [pc, #240]	; (2690 <USART_Init+0x100>)
    25a0:	4a3c      	ldr	r2, [pc, #240]	; (2694 <USART_Init+0x104>)
    25a2:	483d      	ldr	r0, [pc, #244]	; (2698 <USART_Init+0x108>)
    25a4:	21b7      	movs	r1, #183	; 0xb7
    25a6:	f001 ffad 	bl	4504 <__assert_func>
    25aa:	2101      	movs	r1, #1
    25ac:	f000 f8b4 	bl	2718 <FLEXCOMM_Init>
    25b0:	2800      	cmp	r0, #0
    25b2:	d167      	bne.n	2684 <USART_Init+0xf4>
    25b4:	7a6b      	ldrb	r3, [r5, #9]
    25b6:	b1d3      	cbz	r3, 25ee <USART_Init+0x5e>
    25b8:	f8d4 3e00 	ldr.w	r3, [r4, #3584]	; 0xe00
    25bc:	f043 1301 	orr.w	r3, r3, #65537	; 0x10001
    25c0:	f8c4 3e00 	str.w	r3, [r4, #3584]	; 0xe00
    25c4:	f8d4 3e08 	ldr.w	r3, [r4, #3592]	; 0xe08
    25c8:	f423 6370 	bic.w	r3, r3, #3840	; 0xf00
    25cc:	f8c4 3e08 	str.w	r3, [r4, #3592]	; 0xe08
    25d0:	7aeb      	ldrb	r3, [r5, #11]
    25d2:	f8d4 2e08 	ldr.w	r2, [r4, #3592]	; 0xe08
    25d6:	021b      	lsls	r3, r3, #8
    25d8:	f403 6370 	and.w	r3, r3, #3840	; 0xf00
    25dc:	4313      	orrs	r3, r2
    25de:	f8c4 3e08 	str.w	r3, [r4, #3592]	; 0xe08
    25e2:	f8d4 3e08 	ldr.w	r3, [r4, #3592]	; 0xe08
    25e6:	f043 0301 	orr.w	r3, r3, #1
    25ea:	f8c4 3e08 	str.w	r3, [r4, #3592]	; 0xe08
    25ee:	7a2b      	ldrb	r3, [r5, #8]
    25f0:	b1d3      	cbz	r3, 2628 <USART_Init+0x98>
    25f2:	f8d4 3e00 	ldr.w	r3, [r4, #3584]	; 0xe00
    25f6:	f043 1302 	orr.w	r3, r3, #131074	; 0x20002
    25fa:	f8c4 3e00 	str.w	r3, [r4, #3584]	; 0xe00
    25fe:	f8d4 3e08 	ldr.w	r3, [r4, #3592]	; 0xe08
    2602:	f423 2370 	bic.w	r3, r3, #983040	; 0xf0000
    2606:	f8c4 3e08 	str.w	r3, [r4, #3592]	; 0xe08
    260a:	7b2b      	ldrb	r3, [r5, #12]
    260c:	f8d4 2e08 	ldr.w	r2, [r4, #3592]	; 0xe08
    2610:	041b      	lsls	r3, r3, #16
    2612:	f403 2370 	and.w	r3, r3, #983040	; 0xf0000
    2616:	4313      	orrs	r3, r2
    2618:	f8c4 3e08 	str.w	r3, [r4, #3592]	; 0xe08
    261c:	f8d4 3e08 	ldr.w	r3, [r4, #3592]	; 0xe08
    2620:	f043 0302 	orr.w	r3, r3, #2
    2624:	f8c4 3e08 	str.w	r3, [r4, #3592]	; 0xe08
    2628:	7b6a      	ldrb	r2, [r5, #13]
    262a:	79e9      	ldrb	r1, [r5, #7]
    262c:	0293      	lsls	r3, r2, #10
    262e:	f403 6300 	and.w	r3, r3, #2048	; 0x800
    2632:	ea43 33c1 	orr.w	r3, r3, r1, lsl #15
    2636:	7929      	ldrb	r1, [r5, #4]
    2638:	0109      	lsls	r1, r1, #4
    263a:	f001 0130 	and.w	r1, r1, #48	; 0x30
    263e:	430b      	orrs	r3, r1
    2640:	7969      	ldrb	r1, [r5, #5]
    2642:	0189      	lsls	r1, r1, #6
    2644:	f001 0140 	and.w	r1, r1, #64	; 0x40
    2648:	430b      	orrs	r3, r1
    264a:	79a9      	ldrb	r1, [r5, #6]
    264c:	0089      	lsls	r1, r1, #2
    264e:	f001 010c 	and.w	r1, r1, #12
    2652:	0392      	lsls	r2, r2, #14
    2654:	430b      	orrs	r3, r1
    2656:	f402 4280 	and.w	r2, r2, #16384	; 0x4000
    265a:	4313      	orrs	r3, r2
    265c:	7baa      	ldrb	r2, [r5, #14]
    265e:	6829      	ldr	r1, [r5, #0]
    2660:	0312      	lsls	r2, r2, #12
    2662:	f402 5280 	and.w	r2, r2, #4096	; 0x1000
    2666:	4313      	orrs	r3, r2
    2668:	f043 0301 	orr.w	r3, r3, #1
    266c:	6023      	str	r3, [r4, #0]
    266e:	4632      	mov	r2, r6
    2670:	4620      	mov	r0, r4
    2672:	f7ff ff3b 	bl	24ec <USART_SetBaudRate>
    2676:	b928      	cbnz	r0, 2684 <USART_Init+0xf4>
    2678:	7aab      	ldrb	r3, [r5, #10]
    267a:	b123      	cbz	r3, 2686 <USART_Init+0xf6>
    267c:	6863      	ldr	r3, [r4, #4]
    267e:	f443 7380 	orr.w	r3, r3, #256	; 0x100
    2682:	6063      	str	r3, [r4, #4]
    2684:	bd70      	pop	{r4, r5, r6, pc}
    2686:	6863      	ldr	r3, [r4, #4]
    2688:	f423 7380 	bic.w	r3, r3, #256	; 0x100
    268c:	e7f9      	b.n	2682 <USART_Init+0xf2>
    268e:	bf00      	nop
    2690:	000084be 	.word	0x000084be
    2694:	0000851e 	.word	0x0000851e
    2698:	00008426 	.word	0x00008426

0000269c <USART_WriteBlocking>:
    269c:	b508      	push	{r3, lr}
    269e:	b100      	cbz	r0, 26a2 <USART_WriteBlocking+0x6>
    26a0:	b931      	cbnz	r1, 26b0 <USART_WriteBlocking+0x14>
    26a2:	4b0d      	ldr	r3, [pc, #52]	; (26d8 <USART_WriteBlocking+0x3c>)
    26a4:	4a0d      	ldr	r2, [pc, #52]	; (26dc <USART_WriteBlocking+0x40>)
    26a6:	480e      	ldr	r0, [pc, #56]	; (26e0 <USART_WriteBlocking+0x44>)
    26a8:	f44f 71be 	mov.w	r1, #380	; 0x17c
    26ac:	f001 ff2a 	bl	4504 <__assert_func>
    26b0:	f8d0 3e00 	ldr.w	r3, [r0, #3584]	; 0xe00
    26b4:	07db      	lsls	r3, r3, #31
    26b6:	d505      	bpl.n	26c4 <USART_WriteBlocking+0x28>
    26b8:	440a      	add	r2, r1
    26ba:	4291      	cmp	r1, r2
    26bc:	d103      	bne.n	26c6 <USART_WriteBlocking+0x2a>
    26be:	6883      	ldr	r3, [r0, #8]
    26c0:	071b      	lsls	r3, r3, #28
    26c2:	d5fc      	bpl.n	26be <USART_WriteBlocking+0x22>
    26c4:	bd08      	pop	{r3, pc}
    26c6:	f8d0 3e04 	ldr.w	r3, [r0, #3588]	; 0xe04
    26ca:	069b      	lsls	r3, r3, #26
    26cc:	d5fb      	bpl.n	26c6 <USART_WriteBlocking+0x2a>
    26ce:	f811 3b01 	ldrb.w	r3, [r1], #1
    26d2:	f8c0 3e20 	str.w	r3, [r0, #3616]	; 0xe20
    26d6:	e7f0      	b.n	26ba <USART_WriteBlocking+0x1e>
    26d8:	000084fa 	.word	0x000084fa
    26dc:	00008552 	.word	0x00008552
    26e0:	00008426 	.word	0x00008426

000026e4 <FLEXCOMM_GetInstance>:
    26e4:	4a08      	ldr	r2, [pc, #32]	; (2708 <FLEXCOMM_GetInstance+0x24>)
    26e6:	b508      	push	{r3, lr}
    26e8:	4603      	mov	r3, r0
    26ea:	2000      	movs	r0, #0
    26ec:	f852 1b04 	ldr.w	r1, [r2], #4
    26f0:	428b      	cmp	r3, r1
    26f2:	d008      	beq.n	2706 <FLEXCOMM_GetInstance+0x22>
    26f4:	3001      	adds	r0, #1
    26f6:	2807      	cmp	r0, #7
    26f8:	d1f8      	bne.n	26ec <FLEXCOMM_GetInstance+0x8>
    26fa:	4b04      	ldr	r3, [pc, #16]	; (270c <FLEXCOMM_GetInstance+0x28>)
    26fc:	4a04      	ldr	r2, [pc, #16]	; (2710 <FLEXCOMM_GetInstance+0x2c>)
    26fe:	4805      	ldr	r0, [pc, #20]	; (2714 <FLEXCOMM_GetInstance+0x30>)
    2700:	215f      	movs	r1, #95	; 0x5f
    2702:	f001 feff 	bl	4504 <__assert_func>
    2706:	bd08      	pop	{r3, pc}
    2708:	00008730 	.word	0x00008730
    270c:	00008420 	.word	0x00008420
    2710:	0000865b 	.word	0x0000865b
    2714:	00008566 	.word	0x00008566

00002718 <FLEXCOMM_Init>:
    2718:	b538      	push	{r3, r4, r5, lr}
    271a:	4605      	mov	r5, r0
    271c:	460c      	mov	r4, r1
    271e:	f7ff ffe1 	bl	26e4 <FLEXCOMM_GetInstance>
    2722:	2800      	cmp	r0, #0
    2724:	db26      	blt.n	2774 <FLEXCOMM_Init+0x5c>
    2726:	4b16      	ldr	r3, [pc, #88]	; (2780 <FLEXCOMM_Init+0x68>)
    2728:	f853 0020 	ldr.w	r0, [r3, r0, lsl #2]
    272c:	f7ff fdee 	bl	230c <CLOCK_EnableClock>
    2730:	b15c      	cbz	r4, 274a <FLEXCOMM_Init+0x32>
    2732:	2c04      	cmp	r4, #4
    2734:	d817      	bhi.n	2766 <FLEXCOMM_Init+0x4e>
    2736:	f8d5 2ff8 	ldr.w	r2, [r5, #4088]	; 0xff8
    273a:	1ce1      	adds	r1, r4, #3
    273c:	2301      	movs	r3, #1
    273e:	408b      	lsls	r3, r1
    2740:	4213      	tst	r3, r2
    2742:	bf14      	ite	ne
    2744:	2301      	movne	r3, #1
    2746:	2300      	moveq	r3, #0
    2748:	b1b3      	cbz	r3, 2778 <FLEXCOMM_Init+0x60>
    274a:	f8d5 3ff8 	ldr.w	r3, [r5, #4088]	; 0xff8
    274e:	071b      	lsls	r3, r3, #28
    2750:	d505      	bpl.n	275e <FLEXCOMM_Init+0x46>
    2752:	f8d5 3ff8 	ldr.w	r3, [r5, #4088]	; 0xff8
    2756:	f003 0307 	and.w	r3, r3, #7
    275a:	42a3      	cmp	r3, r4
    275c:	d10e      	bne.n	277c <FLEXCOMM_Init+0x64>
    275e:	f8c5 4ff8 	str.w	r4, [r5, #4088]	; 0xff8
    2762:	2000      	movs	r0, #0
    2764:	bd38      	pop	{r3, r4, r5, pc}
    2766:	2c05      	cmp	r4, #5
    2768:	d106      	bne.n	2778 <FLEXCOMM_Init+0x60>
    276a:	f8d5 3ff8 	ldr.w	r3, [r5, #4088]	; 0xff8
    276e:	f3c3 13c0 	ubfx	r3, r3, #7, #1
    2772:	e7e9      	b.n	2748 <FLEXCOMM_Init+0x30>
    2774:	2004      	movs	r0, #4
    2776:	e7f5      	b.n	2764 <FLEXCOMM_Init+0x4c>
    2778:	2003      	movs	r0, #3
    277a:	e7f3      	b.n	2764 <FLEXCOMM_Init+0x4c>
    277c:	2001      	movs	r0, #1
    277e:	e7f1      	b.n	2764 <FLEXCOMM_Init+0x4c>
    2780:	0000874c 	.word	0x0000874c

00002784 <FLEXCOMM0_DriverIRQHandler>:
    2784:	b508      	push	{r3, lr}
    2786:	4b08      	ldr	r3, [pc, #32]	; (27a8 <FLEXCOMM0_DriverIRQHandler+0x24>)
    2788:	681b      	ldr	r3, [r3, #0]
    278a:	b92b      	cbnz	r3, 2798 <FLEXCOMM0_DriverIRQHandler+0x14>
    278c:	4b07      	ldr	r3, [pc, #28]	; (27ac <FLEXCOMM0_DriverIRQHandler+0x28>)
    278e:	4a08      	ldr	r2, [pc, #32]	; (27b0 <FLEXCOMM0_DriverIRQHandler+0x2c>)
    2790:	4808      	ldr	r0, [pc, #32]	; (27b4 <FLEXCOMM0_DriverIRQHandler+0x30>)
    2792:	21af      	movs	r1, #175	; 0xaf
    2794:	f001 feb6 	bl	4504 <__assert_func>
    2798:	4a07      	ldr	r2, [pc, #28]	; (27b8 <FLEXCOMM0_DriverIRQHandler+0x34>)
    279a:	4808      	ldr	r0, [pc, #32]	; (27bc <FLEXCOMM0_DriverIRQHandler+0x38>)
    279c:	6811      	ldr	r1, [r2, #0]
    279e:	4798      	blx	r3
    27a0:	f3bf 8f4f 	dsb	sy
    27a4:	bd08      	pop	{r3, pc}
    27a6:	bf00      	nop
    27a8:	04015ee0 	.word	0x04015ee0
    27ac:	000085b3 	.word	0x000085b3
    27b0:	00008670 	.word	0x00008670
    27b4:	00008566 	.word	0x00008566
    27b8:	04015ec4 	.word	0x04015ec4
    27bc:	4008b000 	.word	0x4008b000

000027c0 <FLEXCOMM1_DriverIRQHandler>:
    27c0:	b508      	push	{r3, lr}
    27c2:	4b08      	ldr	r3, [pc, #32]	; (27e4 <FLEXCOMM1_DriverIRQHandler+0x24>)
    27c4:	685b      	ldr	r3, [r3, #4]
    27c6:	b92b      	cbnz	r3, 27d4 <FLEXCOMM1_DriverIRQHandler+0x14>
    27c8:	4b07      	ldr	r3, [pc, #28]	; (27e8 <FLEXCOMM1_DriverIRQHandler+0x28>)
    27ca:	4a08      	ldr	r2, [pc, #32]	; (27ec <FLEXCOMM1_DriverIRQHandler+0x2c>)
    27cc:	4808      	ldr	r0, [pc, #32]	; (27f0 <FLEXCOMM1_DriverIRQHandler+0x30>)
    27ce:	21bc      	movs	r1, #188	; 0xbc
    27d0:	f001 fe98 	bl	4504 <__assert_func>
    27d4:	4a07      	ldr	r2, [pc, #28]	; (27f4 <FLEXCOMM1_DriverIRQHandler+0x34>)
    27d6:	4808      	ldr	r0, [pc, #32]	; (27f8 <FLEXCOMM1_DriverIRQHandler+0x38>)
    27d8:	6851      	ldr	r1, [r2, #4]
    27da:	4798      	blx	r3
    27dc:	f3bf 8f4f 	dsb	sy
    27e0:	bd08      	pop	{r3, pc}
    27e2:	bf00      	nop
    27e4:	04015ee0 	.word	0x04015ee0
    27e8:	000085cb 	.word	0x000085cb
    27ec:	0000868b 	.word	0x0000868b
    27f0:	00008566 	.word	0x00008566
    27f4:	04015ec4 	.word	0x04015ec4
    27f8:	4008c000 	.word	0x4008c000

000027fc <FLEXCOMM2_DriverIRQHandler>:
    27fc:	b508      	push	{r3, lr}
    27fe:	4b08      	ldr	r3, [pc, #32]	; (2820 <FLEXCOMM2_DriverIRQHandler+0x24>)
    2800:	689b      	ldr	r3, [r3, #8]
    2802:	b92b      	cbnz	r3, 2810 <FLEXCOMM2_DriverIRQHandler+0x14>
    2804:	4b07      	ldr	r3, [pc, #28]	; (2824 <FLEXCOMM2_DriverIRQHandler+0x28>)
    2806:	4a08      	ldr	r2, [pc, #32]	; (2828 <FLEXCOMM2_DriverIRQHandler+0x2c>)
    2808:	4808      	ldr	r0, [pc, #32]	; (282c <FLEXCOMM2_DriverIRQHandler+0x30>)
    280a:	21c9      	movs	r1, #201	; 0xc9
    280c:	f001 fe7a 	bl	4504 <__assert_func>
    2810:	4a07      	ldr	r2, [pc, #28]	; (2830 <FLEXCOMM2_DriverIRQHandler+0x34>)
    2812:	4808      	ldr	r0, [pc, #32]	; (2834 <FLEXCOMM2_DriverIRQHandler+0x38>)
    2814:	6891      	ldr	r1, [r2, #8]
    2816:	4798      	blx	r3
    2818:	f3bf 8f4f 	dsb	sy
    281c:	bd08      	pop	{r3, pc}
    281e:	bf00      	nop
    2820:	04015ee0 	.word	0x04015ee0
    2824:	000085e3 	.word	0x000085e3
    2828:	000086a6 	.word	0x000086a6
    282c:	00008566 	.word	0x00008566
    2830:	04015ec4 	.word	0x04015ec4
    2834:	40003000 	.word	0x40003000

00002838 <FLEXCOMM3_DriverIRQHandler>:
    2838:	b508      	push	{r3, lr}
    283a:	4b08      	ldr	r3, [pc, #32]	; (285c <FLEXCOMM3_DriverIRQHandler+0x24>)
    283c:	68db      	ldr	r3, [r3, #12]
    283e:	b92b      	cbnz	r3, 284c <FLEXCOMM3_DriverIRQHandler+0x14>
    2840:	4b07      	ldr	r3, [pc, #28]	; (2860 <FLEXCOMM3_DriverIRQHandler+0x28>)
    2842:	4a08      	ldr	r2, [pc, #32]	; (2864 <FLEXCOMM3_DriverIRQHandler+0x2c>)
    2844:	4808      	ldr	r0, [pc, #32]	; (2868 <FLEXCOMM3_DriverIRQHandler+0x30>)
    2846:	21d6      	movs	r1, #214	; 0xd6
    2848:	f001 fe5c 	bl	4504 <__assert_func>
    284c:	4a07      	ldr	r2, [pc, #28]	; (286c <FLEXCOMM3_DriverIRQHandler+0x34>)
    284e:	f04f 2040 	mov.w	r0, #1073758208	; 0x40004000
    2852:	68d1      	ldr	r1, [r2, #12]
    2854:	4798      	blx	r3
    2856:	f3bf 8f4f 	dsb	sy
    285a:	bd08      	pop	{r3, pc}
    285c:	04015ee0 	.word	0x04015ee0
    2860:	000085fb 	.word	0x000085fb
    2864:	000086c1 	.word	0x000086c1
    2868:	00008566 	.word	0x00008566
    286c:	04015ec4 	.word	0x04015ec4

00002870 <FLEXCOMM4_DriverIRQHandler>:
    2870:	b508      	push	{r3, lr}
    2872:	4b08      	ldr	r3, [pc, #32]	; (2894 <FLEXCOMM4_DriverIRQHandler+0x24>)
    2874:	691b      	ldr	r3, [r3, #16]
    2876:	b92b      	cbnz	r3, 2884 <FLEXCOMM4_DriverIRQHandler+0x14>
    2878:	4b07      	ldr	r3, [pc, #28]	; (2898 <FLEXCOMM4_DriverIRQHandler+0x28>)
    287a:	4a08      	ldr	r2, [pc, #32]	; (289c <FLEXCOMM4_DriverIRQHandler+0x2c>)
    287c:	4808      	ldr	r0, [pc, #32]	; (28a0 <FLEXCOMM4_DriverIRQHandler+0x30>)
    287e:	21e3      	movs	r1, #227	; 0xe3
    2880:	f001 fe40 	bl	4504 <__assert_func>
    2884:	4a07      	ldr	r2, [pc, #28]	; (28a4 <FLEXCOMM4_DriverIRQHandler+0x34>)
    2886:	4808      	ldr	r0, [pc, #32]	; (28a8 <FLEXCOMM4_DriverIRQHandler+0x38>)
    2888:	6911      	ldr	r1, [r2, #16]
    288a:	4798      	blx	r3
    288c:	f3bf 8f4f 	dsb	sy
    2890:	bd08      	pop	{r3, pc}
    2892:	bf00      	nop
    2894:	04015ee0 	.word	0x04015ee0
    2898:	00008613 	.word	0x00008613
    289c:	000086dc 	.word	0x000086dc
    28a0:	00008566 	.word	0x00008566
    28a4:	04015ec4 	.word	0x04015ec4
    28a8:	4008d000 	.word	0x4008d000

000028ac <FLEXCOMM5_DriverIRQHandler>:
    28ac:	b508      	push	{r3, lr}
    28ae:	4b08      	ldr	r3, [pc, #32]	; (28d0 <FLEXCOMM5_DriverIRQHandler+0x24>)
    28b0:	695b      	ldr	r3, [r3, #20]
    28b2:	b92b      	cbnz	r3, 28c0 <FLEXCOMM5_DriverIRQHandler+0x14>
    28b4:	4b07      	ldr	r3, [pc, #28]	; (28d4 <FLEXCOMM5_DriverIRQHandler+0x28>)
    28b6:	4a08      	ldr	r2, [pc, #32]	; (28d8 <FLEXCOMM5_DriverIRQHandler+0x2c>)
    28b8:	4808      	ldr	r0, [pc, #32]	; (28dc <FLEXCOMM5_DriverIRQHandler+0x30>)
    28ba:	21f1      	movs	r1, #241	; 0xf1
    28bc:	f001 fe22 	bl	4504 <__assert_func>
    28c0:	4a07      	ldr	r2, [pc, #28]	; (28e0 <FLEXCOMM5_DriverIRQHandler+0x34>)
    28c2:	4808      	ldr	r0, [pc, #32]	; (28e4 <FLEXCOMM5_DriverIRQHandler+0x38>)
    28c4:	6951      	ldr	r1, [r2, #20]
    28c6:	4798      	blx	r3
    28c8:	f3bf 8f4f 	dsb	sy
    28cc:	bd08      	pop	{r3, pc}
    28ce:	bf00      	nop
    28d0:	04015ee0 	.word	0x04015ee0
    28d4:	0000862b 	.word	0x0000862b
    28d8:	000086f7 	.word	0x000086f7
    28dc:	00008566 	.word	0x00008566
    28e0:	04015ec4 	.word	0x04015ec4
    28e4:	4008e000 	.word	0x4008e000

000028e8 <FLEXCOMM6_DriverIRQHandler>:
    28e8:	b508      	push	{r3, lr}
    28ea:	4b08      	ldr	r3, [pc, #32]	; (290c <FLEXCOMM6_DriverIRQHandler+0x24>)
    28ec:	699b      	ldr	r3, [r3, #24]
    28ee:	b92b      	cbnz	r3, 28fc <FLEXCOMM6_DriverIRQHandler+0x14>
    28f0:	4b07      	ldr	r3, [pc, #28]	; (2910 <FLEXCOMM6_DriverIRQHandler+0x28>)
    28f2:	4a08      	ldr	r2, [pc, #32]	; (2914 <FLEXCOMM6_DriverIRQHandler+0x2c>)
    28f4:	4808      	ldr	r0, [pc, #32]	; (2918 <FLEXCOMM6_DriverIRQHandler+0x30>)
    28f6:	21fe      	movs	r1, #254	; 0xfe
    28f8:	f001 fe04 	bl	4504 <__assert_func>
    28fc:	4a07      	ldr	r2, [pc, #28]	; (291c <FLEXCOMM6_DriverIRQHandler+0x34>)
    28fe:	4808      	ldr	r0, [pc, #32]	; (2920 <FLEXCOMM6_DriverIRQHandler+0x38>)
    2900:	6991      	ldr	r1, [r2, #24]
    2902:	4798      	blx	r3
    2904:	f3bf 8f4f 	dsb	sy
    2908:	bd08      	pop	{r3, pc}
    290a:	bf00      	nop
    290c:	04015ee0 	.word	0x04015ee0
    2910:	00008643 	.word	0x00008643
    2914:	00008712 	.word	0x00008712
    2918:	00008566 	.word	0x00008566
    291c:	04015ec4 	.word	0x04015ec4
    2920:	40005000 	.word	0x40005000

00002924 <FLASH_Wait>:
    2924:	f8d0 3fe0 	ldr.w	r3, [r0, #4064]	; 0xfe0
    2928:	075b      	lsls	r3, r3, #29
    292a:	d5fb      	bpl.n	2924 <FLASH_Wait>
    292c:	f8d0 0fe0 	ldr.w	r0, [r0, #4064]	; 0xfe0
    2930:	f020 0008 	bic.w	r0, r0, #8
    2934:	4770      	bx	lr

00002936 <FLASH_Erase>:
    2936:	b5f8      	push	{r3, r4, r5, r6, r7, lr}
    2938:	1a52      	subs	r2, r2, r1
    293a:	4604      	mov	r4, r0
    293c:	250f      	movs	r5, #15
    293e:	2000      	movs	r0, #0
    2940:	f24c 76ff 	movw	r6, #51199	; 0xc7ff
    2944:	27aa      	movs	r7, #170	; 0xaa
    2946:	b902      	cbnz	r2, 294a <FLASH_Erase+0x14>
    2948:	bdf8      	pop	{r3, r4, r5, r6, r7, pc}
    294a:	f5b2 4f48 	cmp.w	r2, #51200	; 0xc800
    294e:	bf94      	ite	ls
    2950:	188b      	addls	r3, r1, r2
    2952:	198b      	addhi	r3, r1, r6
    2954:	f04f 00bb 	mov.w	r0, #187	; 0xbb
    2958:	f8c4 5fe8 	str.w	r5, [r4, #4072]	; 0xfe8
    295c:	701f      	strb	r7, [r3, #0]
    295e:	7008      	strb	r0, [r1, #0]
    2960:	f103 0101 	add.w	r1, r3, #1
    2964:	f04f 0304 	mov.w	r3, #4
    2968:	6023      	str	r3, [r4, #0]
    296a:	4620      	mov	r0, r4
    296c:	bf8c      	ite	hi
    296e:	f5a2 4248 	subhi.w	r2, r2, #51200	; 0xc800
    2972:	2200      	movls	r2, #0
    2974:	f7ff ffd6 	bl	2924 <FLASH_Wait>
    2978:	e7e5      	b.n	2946 <FLASH_Erase+0x10>

0000297a <FLASH_ErasePages>:
    297a:	0252      	lsls	r2, r2, #9
    297c:	3a01      	subs	r2, #1
    297e:	eb02 2241 	add.w	r2, r2, r1, lsl #9
    2982:	0249      	lsls	r1, r1, #9
    2984:	f7ff bfd7 	b.w	2936 <FLASH_Erase>

00002988 <FLASH_BlankCheck>:
    2988:	b410      	push	{r4}
    298a:	240f      	movs	r4, #15
    298c:	f8c0 4fe8 	str.w	r4, [r0, #4072]	; 0xfe8
    2990:	24aa      	movs	r4, #170	; 0xaa
    2992:	7014      	strb	r4, [r2, #0]
    2994:	22bb      	movs	r2, #187	; 0xbb
    2996:	700a      	strb	r2, [r1, #0]
    2998:	2205      	movs	r2, #5
    299a:	bc10      	pop	{r4}
    299c:	6002      	str	r2, [r0, #0]
    299e:	f7ff bfc1 	b.w	2924 <FLASH_Wait>

000029a2 <FLASH_Program>:
    29a2:	b570      	push	{r4, r5, r6, lr}
    29a4:	4604      	mov	r4, r0
    29a6:	4608      	mov	r0, r1
    29a8:	18c6      	adds	r6, r0, r3
    29aa:	4611      	mov	r1, r2
    29ac:	461a      	mov	r2, r3
    29ae:	230f      	movs	r3, #15
    29b0:	f8c4 3fe8 	str.w	r3, [r4, #4072]	; 0xfe8
    29b4:	2302      	movs	r3, #2
    29b6:	60e3      	str	r3, [r4, #12]
    29b8:	f004 fe94 	bl	76e4 <memcpy>
    29bc:	4275      	negs	r5, r6
    29be:	2300      	movs	r3, #0
    29c0:	f3c5 0508 	ubfx	r5, r5, #0, #9
    29c4:	461a      	mov	r2, r3
    29c6:	429d      	cmp	r5, r3
    29c8:	d104      	bne.n	29d4 <FLASH_Program+0x32>
    29ca:	4620      	mov	r0, r4
    29cc:	f7ff ffaa 	bl	2924 <FLASH_Wait>
    29d0:	60e2      	str	r2, [r4, #12]
    29d2:	bd70      	pop	{r4, r5, r6, pc}
    29d4:	54f2      	strb	r2, [r6, r3]
    29d6:	3301      	adds	r3, #1
    29d8:	e7f5      	b.n	29c6 <FLASH_Program+0x24>

000029da <swap_bytes>:
    29da:	ba00      	rev	r0, r0
    29dc:	4770      	bx	lr

000029de <aes_one_block>:
    29de:	b530      	push	{r4, r5, lr}
    29e0:	2300      	movs	r3, #0
    29e2:	2b04      	cmp	r3, #4
    29e4:	d103      	bne.n	29ee <aes_one_block+0x10>
    29e6:	2300      	movs	r3, #0
    29e8:	2b04      	cmp	r3, #4
    29ea:	d10b      	bne.n	2a04 <aes_one_block+0x26>
    29ec:	bd30      	pop	{r4, r5, pc}
    29ee:	6884      	ldr	r4, [r0, #8]
    29f0:	07a4      	lsls	r4, r4, #30
    29f2:	bf41      	itttt	mi
    29f4:	f103 0410 	addmi.w	r4, r3, #16
    29f8:	f852 5023 	ldrmi.w	r5, [r2, r3, lsl #2]
    29fc:	f840 5024 	strmi.w	r5, [r0, r4, lsl #2]
    2a00:	3301      	addmi	r3, #1
    2a02:	e7ee      	b.n	29e2 <aes_one_block+0x4>
    2a04:	6882      	ldr	r2, [r0, #8]
    2a06:	0752      	lsls	r2, r2, #29
    2a08:	bf41      	itttt	mi
    2a0a:	f103 0218 	addmi.w	r2, r3, #24
    2a0e:	f850 2022 	ldrmi.w	r2, [r0, r2, lsl #2]
    2a12:	f841 2023 	strmi.w	r2, [r1, r3, lsl #2]
    2a16:	3301      	addmi	r3, #1
    2a18:	e7e6      	b.n	29e8 <aes_one_block+0xa>

00002a1a <aes_set_forward>:
    2a1a:	6883      	ldr	r3, [r0, #8]
    2a1c:	06da      	lsls	r2, r3, #27
    2a1e:	d506      	bpl.n	2a2e <aes_set_forward+0x14>
    2a20:	2310      	movs	r3, #16
    2a22:	6043      	str	r3, [r0, #4]
    2a24:	6883      	ldr	r3, [r0, #8]
    2a26:	07db      	lsls	r3, r3, #31
    2a28:	d5fc      	bpl.n	2a24 <aes_set_forward+0xa>
    2a2a:	2300      	movs	r3, #0
    2a2c:	6043      	str	r3, [r0, #4]
    2a2e:	4770      	bx	lr

00002a30 <AES_SetKey>:
    2a30:	2a18      	cmp	r2, #24
    2a32:	b538      	push	{r3, r4, r5, lr}
    2a34:	4603      	mov	r3, r0
    2a36:	d00d      	beq.n	2a54 <AES_SetKey+0x24>
    2a38:	2a20      	cmp	r2, #32
    2a3a:	d021      	beq.n	2a80 <AES_SetKey+0x50>
    2a3c:	2a10      	cmp	r2, #16
    2a3e:	d022      	beq.n	2a86 <AES_SetKey+0x56>
    2a40:	f44f 7200 	mov.w	r2, #512	; 0x200
    2a44:	6042      	str	r2, [r0, #4]
    2a46:	689a      	ldr	r2, [r3, #8]
    2a48:	07d2      	lsls	r2, r2, #31
    2a4a:	d5fc      	bpl.n	2a46 <AES_SetKey+0x16>
    2a4c:	2200      	movs	r2, #0
    2a4e:	605a      	str	r2, [r3, #4]
    2a50:	2004      	movs	r0, #4
    2a52:	bd38      	pop	{r3, r4, r5, pc}
    2a54:	2406      	movs	r4, #6
    2a56:	2001      	movs	r0, #1
    2a58:	681a      	ldr	r2, [r3, #0]
    2a5a:	f422 7240 	bic.w	r2, r2, #768	; 0x300
    2a5e:	ea42 2200 	orr.w	r2, r2, r0, lsl #8
    2a62:	601a      	str	r2, [r3, #0]
    2a64:	2200      	movs	r2, #0
    2a66:	f851 0022 	ldr.w	r0, [r1, r2, lsl #2]
    2a6a:	f7ff ffb6 	bl	29da <swap_bytes>
    2a6e:	f102 0508 	add.w	r5, r2, #8
    2a72:	3201      	adds	r2, #1
    2a74:	42a2      	cmp	r2, r4
    2a76:	f843 0025 	str.w	r0, [r3, r5, lsl #2]
    2a7a:	d1f4      	bne.n	2a66 <AES_SetKey+0x36>
    2a7c:	2000      	movs	r0, #0
    2a7e:	e7e8      	b.n	2a52 <AES_SetKey+0x22>
    2a80:	2408      	movs	r4, #8
    2a82:	2002      	movs	r0, #2
    2a84:	e7e8      	b.n	2a58 <AES_SetKey+0x28>
    2a86:	2404      	movs	r4, #4
    2a88:	2000      	movs	r0, #0
    2a8a:	e7e5      	b.n	2a58 <AES_SetKey+0x28>

00002a8c <AES_EncryptEcb>:
    2a8c:	b5f8      	push	{r3, r4, r5, r6, r7, lr}
    2a8e:	4616      	mov	r6, r2
    2a90:	071a      	lsls	r2, r3, #28
    2a92:	4605      	mov	r5, r0
    2a94:	461c      	mov	r4, r3
    2a96:	d001      	beq.n	2a9c <AES_EncryptEcb+0x10>
    2a98:	2004      	movs	r0, #4
    2a9a:	bdf8      	pop	{r3, r4, r5, r6, r7, pc}
    2a9c:	2351      	movs	r3, #81	; 0x51
    2a9e:	7003      	strb	r3, [r0, #0]
    2aa0:	2301      	movs	r3, #1
    2aa2:	8043      	strh	r3, [r0, #2]
    2aa4:	6883      	ldr	r3, [r0, #8]
    2aa6:	069b      	lsls	r3, r3, #26
    2aa8:	d5f6      	bpl.n	2a98 <AES_EncryptEcb+0xc>
    2aaa:	f7ff ffb6 	bl	2a1a <aes_set_forward>
    2aae:	4426      	add	r6, r4
    2ab0:	190f      	adds	r7, r1, r4
    2ab2:	1b3a      	subs	r2, r7, r4
    2ab4:	1b31      	subs	r1, r6, r4
    2ab6:	b90c      	cbnz	r4, 2abc <AES_EncryptEcb+0x30>
    2ab8:	4620      	mov	r0, r4
    2aba:	e7ee      	b.n	2a9a <AES_EncryptEcb+0xe>
    2abc:	4628      	mov	r0, r5
    2abe:	f7ff ff8e 	bl	29de <aes_one_block>
    2ac2:	3c10      	subs	r4, #16
    2ac4:	e7f5      	b.n	2ab2 <AES_EncryptEcb+0x26>
    2ac6:	Address 0x00002ac6 is out of bounds.


00002ac8 <POWER_ApplyActiveVoltage>:
    2ac8:	b51f      	push	{r0, r1, r2, r3, r4, lr}
    2aca:	4604      	mov	r4, r0
    2acc:	4601      	mov	r1, r0
    2ace:	2209      	movs	r2, #9
    2ad0:	a801      	add	r0, sp, #4
    2ad2:	f004 fe07 	bl	76e4 <memcpy>
    2ad6:	7823      	ldrb	r3, [r4, #0]
    2ad8:	4942      	ldr	r1, [pc, #264]	; (2be4 <POWER_ApplyActiveVoltage+0x11c>)
    2ada:	2b09      	cmp	r3, #9
    2adc:	f991 2000 	ldrsb.w	r2, [r1]
    2ae0:	d847      	bhi.n	2b72 <POWER_ApplyActiveVoltage+0xaa>
    2ae2:	2a7f      	cmp	r2, #127	; 0x7f
    2ae4:	d009      	beq.n	2afa <POWER_ApplyActiveVoltage+0x32>
    2ae6:	4a40      	ldr	r2, [pc, #256]	; (2be8 <POWER_ApplyActiveVoltage+0x120>)
    2ae8:	f992 2000 	ldrsb.w	r2, [r2]
    2aec:	4413      	add	r3, r2
    2aee:	2b09      	cmp	r3, #9
    2af0:	dc49      	bgt.n	2b86 <POWER_ApplyActiveVoltage+0xbe>
    2af2:	2b01      	cmp	r3, #1
    2af4:	bfb8      	it	lt
    2af6:	2301      	movlt	r3, #1
    2af8:	b2db      	uxtb	r3, r3
    2afa:	7862      	ldrb	r2, [r4, #1]
    2afc:	f991 1000 	ldrsb.w	r1, [r1]
    2b00:	f88d 3004 	strb.w	r3, [sp, #4]
    2b04:	2a09      	cmp	r2, #9
    2b06:	d842      	bhi.n	2b8e <POWER_ApplyActiveVoltage+0xc6>
    2b08:	297f      	cmp	r1, #127	; 0x7f
    2b0a:	d009      	beq.n	2b20 <POWER_ApplyActiveVoltage+0x58>
    2b0c:	4b36      	ldr	r3, [pc, #216]	; (2be8 <POWER_ApplyActiveVoltage+0x120>)
    2b0e:	f993 3000 	ldrsb.w	r3, [r3]
    2b12:	441a      	add	r2, r3
    2b14:	2a09      	cmp	r2, #9
    2b16:	dc44      	bgt.n	2ba2 <POWER_ApplyActiveVoltage+0xda>
    2b18:	2a01      	cmp	r2, #1
    2b1a:	bfb8      	it	lt
    2b1c:	2201      	movlt	r2, #1
    2b1e:	b2d2      	uxtb	r2, r2
    2b20:	f88d 2005 	strb.w	r2, [sp, #5]
    2b24:	78a2      	ldrb	r2, [r4, #2]
    2b26:	2a09      	cmp	r2, #9
    2b28:	d83f      	bhi.n	2baa <POWER_ApplyActiveVoltage+0xe2>
    2b2a:	297f      	cmp	r1, #127	; 0x7f
    2b2c:	d009      	beq.n	2b42 <POWER_ApplyActiveVoltage+0x7a>
    2b2e:	4b2e      	ldr	r3, [pc, #184]	; (2be8 <POWER_ApplyActiveVoltage+0x120>)
    2b30:	f993 3000 	ldrsb.w	r3, [r3]
    2b34:	441a      	add	r2, r3
    2b36:	2a09      	cmp	r2, #9
    2b38:	dc41      	bgt.n	2bbe <POWER_ApplyActiveVoltage+0xf6>
    2b3a:	2a01      	cmp	r2, #1
    2b3c:	bfb8      	it	lt
    2b3e:	2201      	movlt	r2, #1
    2b40:	b2d2      	uxtb	r2, r2
    2b42:	78e3      	ldrb	r3, [r4, #3]
    2b44:	f88d 2006 	strb.w	r2, [sp, #6]
    2b48:	2b09      	cmp	r3, #9
    2b4a:	d83c      	bhi.n	2bc6 <POWER_ApplyActiveVoltage+0xfe>
    2b4c:	297f      	cmp	r1, #127	; 0x7f
    2b4e:	d009      	beq.n	2b64 <POWER_ApplyActiveVoltage+0x9c>
    2b50:	4a25      	ldr	r2, [pc, #148]	; (2be8 <POWER_ApplyActiveVoltage+0x120>)
    2b52:	f992 2000 	ldrsb.w	r2, [r2]
    2b56:	4413      	add	r3, r2
    2b58:	2b09      	cmp	r3, #9
    2b5a:	dc3e      	bgt.n	2bda <POWER_ApplyActiveVoltage+0x112>
    2b5c:	2b01      	cmp	r3, #1
    2b5e:	bfb8      	it	lt
    2b60:	2301      	movlt	r3, #1
    2b62:	b2db      	uxtb	r3, r3
    2b64:	f88d 3007 	strb.w	r3, [sp, #7]
    2b68:	a801      	add	r0, sp, #4
    2b6a:	4b20      	ldr	r3, [pc, #128]	; (2bec <POWER_ApplyActiveVoltage+0x124>)
    2b6c:	4798      	blx	r3
    2b6e:	b004      	add	sp, #16
    2b70:	bd10      	pop	{r4, pc}
    2b72:	2a7f      	cmp	r2, #127	; 0x7f
    2b74:	d0c1      	beq.n	2afa <POWER_ApplyActiveVoltage+0x32>
    2b76:	fa42 f383 	sxtab	r3, r2, r3
    2b7a:	2b1e      	cmp	r3, #30
    2b7c:	dc05      	bgt.n	2b8a <POWER_ApplyActiveVoltage+0xc2>
    2b7e:	2b0a      	cmp	r3, #10
    2b80:	bfb8      	it	lt
    2b82:	230a      	movlt	r3, #10
    2b84:	e7b8      	b.n	2af8 <POWER_ApplyActiveVoltage+0x30>
    2b86:	2309      	movs	r3, #9
    2b88:	e7b7      	b.n	2afa <POWER_ApplyActiveVoltage+0x32>
    2b8a:	231e      	movs	r3, #30
    2b8c:	e7b5      	b.n	2afa <POWER_ApplyActiveVoltage+0x32>
    2b8e:	297f      	cmp	r1, #127	; 0x7f
    2b90:	d0c6      	beq.n	2b20 <POWER_ApplyActiveVoltage+0x58>
    2b92:	fa41 f282 	sxtab	r2, r1, r2
    2b96:	2a1e      	cmp	r2, #30
    2b98:	dc05      	bgt.n	2ba6 <POWER_ApplyActiveVoltage+0xde>
    2b9a:	2a0a      	cmp	r2, #10
    2b9c:	bfb8      	it	lt
    2b9e:	220a      	movlt	r2, #10
    2ba0:	e7bd      	b.n	2b1e <POWER_ApplyActiveVoltage+0x56>
    2ba2:	2209      	movs	r2, #9
    2ba4:	e7bc      	b.n	2b20 <POWER_ApplyActiveVoltage+0x58>
    2ba6:	221e      	movs	r2, #30
    2ba8:	e7ba      	b.n	2b20 <POWER_ApplyActiveVoltage+0x58>
    2baa:	297f      	cmp	r1, #127	; 0x7f
    2bac:	d0c9      	beq.n	2b42 <POWER_ApplyActiveVoltage+0x7a>
    2bae:	fa41 f282 	sxtab	r2, r1, r2
    2bb2:	2a1e      	cmp	r2, #30
    2bb4:	dc05      	bgt.n	2bc2 <POWER_ApplyActiveVoltage+0xfa>
    2bb6:	2a0a      	cmp	r2, #10
    2bb8:	bfb8      	it	lt
    2bba:	220a      	movlt	r2, #10
    2bbc:	e7c0      	b.n	2b40 <POWER_ApplyActiveVoltage+0x78>
    2bbe:	2209      	movs	r2, #9
    2bc0:	e7bf      	b.n	2b42 <POWER_ApplyActiveVoltage+0x7a>
    2bc2:	221e      	movs	r2, #30
    2bc4:	e7bd      	b.n	2b42 <POWER_ApplyActiveVoltage+0x7a>
    2bc6:	297f      	cmp	r1, #127	; 0x7f
    2bc8:	d0cc      	beq.n	2b64 <POWER_ApplyActiveVoltage+0x9c>
    2bca:	fa41 f383 	sxtab	r3, r1, r3
    2bce:	2b1e      	cmp	r3, #30
    2bd0:	dc05      	bgt.n	2bde <POWER_ApplyActiveVoltage+0x116>
    2bd2:	2b0a      	cmp	r3, #10
    2bd4:	bfb8      	it	lt
    2bd6:	230a      	movlt	r3, #10
    2bd8:	e7c3      	b.n	2b62 <POWER_ApplyActiveVoltage+0x9a>
    2bda:	2309      	movs	r3, #9
    2bdc:	e7c2      	b.n	2b64 <POWER_ApplyActiveVoltage+0x9c>
    2bde:	231e      	movs	r3, #30
    2be0:	e7c0      	b.n	2b64 <POWER_ApplyActiveVoltage+0x9c>
    2be2:	bf00      	nop
    2be4:	04015b24 	.word	0x04015b24
    2be8:	04015b25 	.word	0x04015b25
    2bec:	03003e99 	.word	0x03003e99

00002bf0 <POWER_SetTrimDefaultActiveVoltage>:
    2bf0:	490f      	ldr	r1, [pc, #60]	; (2c30 <POWER_SetTrimDefaultActiveVoltage+0x40>)
    2bf2:	4810      	ldr	r0, [pc, #64]	; (2c34 <POWER_SetTrimDefaultActiveVoltage+0x44>)
    2bf4:	f991 2000 	ldrsb.w	r2, [r1]
    2bf8:	2a7f      	cmp	r2, #127	; 0x7f
    2bfa:	d003      	beq.n	2c04 <POWER_SetTrimDefaultActiveVoltage+0x14>
    2bfc:	f990 3000 	ldrsb.w	r3, [r0]
    2c00:	2b7f      	cmp	r3, #127	; 0x7f
    2c02:	d111      	bne.n	2c28 <POWER_SetTrimDefaultActiveVoltage+0x38>
    2c04:	4b0c      	ldr	r3, [pc, #48]	; (2c38 <POWER_SetTrimDefaultActiveVoltage+0x48>)
    2c06:	681b      	ldr	r3, [r3, #0]
    2c08:	f013 0f10 	tst.w	r3, #16
    2c0c:	f003 020f 	and.w	r2, r3, #15
    2c10:	bf18      	it	ne
    2c12:	4252      	negne	r2, r2
    2c14:	f413 7f00 	tst.w	r3, #512	; 0x200
    2c18:	f3c3 1343 	ubfx	r3, r3, #5, #4
    2c1c:	bf18      	it	ne
    2c1e:	425b      	negne	r3, r3
    2c20:	b252      	sxtb	r2, r2
    2c22:	b25b      	sxtb	r3, r3
    2c24:	700a      	strb	r2, [r1, #0]
    2c26:	7003      	strb	r3, [r0, #0]
    2c28:	4804      	ldr	r0, [pc, #16]	; (2c3c <POWER_SetTrimDefaultActiveVoltage+0x4c>)
    2c2a:	f7ff bf4d 	b.w	2ac8 <POWER_ApplyActiveVoltage>
    2c2e:	bf00      	nop
    2c30:	04015b24 	.word	0x04015b24
    2c34:	04015b25 	.word	0x04015b25
    2c38:	0009fcd4 	.word	0x0009fcd4
    2c3c:	00008768 	.word	0x00008768

00002c40 <POWER_Init>:
    2c40:	b510      	push	{r4, lr}
    2c42:	4c06      	ldr	r4, [pc, #24]	; (2c5c <POWER_Init+0x1c>)
    2c44:	7823      	ldrb	r3, [r4, #0]
    2c46:	b91b      	cbnz	r3, 2c50 <POWER_Init+0x10>
    2c48:	f7ff ffd2 	bl	2bf0 <POWER_SetTrimDefaultActiveVoltage>
    2c4c:	2301      	movs	r3, #1
    2c4e:	7023      	strb	r3, [r4, #0]
    2c50:	e8bd 4010 	ldmia.w	sp!, {r4, lr}
    2c54:	201b      	movs	r0, #27
    2c56:	f7ff ba77 	b.w	2148 <CLOCK_uDelay>
    2c5a:	bf00      	nop
    2c5c:	04015efc 	.word	0x04015efc

00002c60 <WTIMER_StartTimer>:
    2c60:	b5f0      	push	{r4, r5, r6, r7, lr}
    2c62:	4c1b      	ldr	r4, [pc, #108]	; (2cd0 <WTIMER_StartTimer+0x70>)
    2c64:	2528      	movs	r5, #40	; 0x28
    2c66:	4345      	muls	r5, r0
    2c68:	f04f 4380 	mov.w	r3, #1073741824	; 0x40000000
    2c6c:	1962      	adds	r2, r4, r5
    2c6e:	f8d3 6a20 	ldr.w	r6, [r3, #2592]	; 0xa20
    2c72:	6897      	ldr	r7, [r2, #8]
    2c74:	5965      	ldr	r5, [r4, r5]
    2c76:	433e      	orrs	r6, r7
    2c78:	f8c3 6a20 	str.w	r6, [r3, #2592]	; 0xa20
    2c7c:	f8c3 5a3c 	str.w	r5, [r3, #2620]	; 0xa3c
    2c80:	f8d3 5a20 	ldr.w	r5, [r3, #2592]	; 0xa20
    2c84:	68d6      	ldr	r6, [r2, #12]
    2c86:	ea25 0506 	bic.w	r5, r5, r6
    2c8a:	f8c3 5a20 	str.w	r5, [r3, #2592]	; 0xa20
    2c8e:	6855      	ldr	r5, [r2, #4]
    2c90:	f8d3 6a3c 	ldr.w	r6, [r3, #2620]	; 0xa3c
    2c94:	ea35 0606 	bics.w	r6, r5, r6
    2c98:	d015      	beq.n	2cc6 <WTIMER_StartTimer+0x66>
    2c9a:	6953      	ldr	r3, [r2, #20]
    2c9c:	6019      	str	r1, [r3, #0]
    2c9e:	b908      	cbnz	r0, 2ca4 <WTIMER_StartTimer+0x44>
    2ca0:	4b0c      	ldr	r3, [pc, #48]	; (2cd4 <WTIMER_StartTimer+0x74>)
    2ca2:	6018      	str	r0, [r3, #0]
    2ca4:	2128      	movs	r1, #40	; 0x28
    2ca6:	f04f 4380 	mov.w	r3, #1073741824	; 0x40000000
    2caa:	fb01 4000 	mla	r0, r1, r0, r4
    2cae:	f8d3 2a20 	ldr.w	r2, [r3, #2592]	; 0xa20
    2cb2:	68c1      	ldr	r1, [r0, #12]
    2cb4:	430a      	orrs	r2, r1
    2cb6:	f8c3 2a20 	str.w	r2, [r3, #2592]	; 0xa20
    2cba:	6842      	ldr	r2, [r0, #4]
    2cbc:	f8d3 1a3c 	ldr.w	r1, [r3, #2620]	; 0xa3c
    2cc0:	4211      	tst	r1, r2
    2cc2:	d002      	beq.n	2cca <WTIMER_StartTimer+0x6a>
    2cc4:	bdf0      	pop	{r4, r5, r6, r7, pc}
    2cc6:	bf00      	nop
    2cc8:	e7e2      	b.n	2c90 <WTIMER_StartTimer+0x30>
    2cca:	bf00      	nop
    2ccc:	e7f6      	b.n	2cbc <WTIMER_StartTimer+0x5c>
    2cce:	bf00      	nop
    2cd0:	00008774 	.word	0x00008774
    2cd4:	40000a28 	.word	0x40000a28

00002cd8 <WTIMER_ClearStatusFlags>:
    2cd8:	2328      	movs	r3, #40	; 0x28
    2cda:	4a0c      	ldr	r2, [pc, #48]	; (2d0c <WTIMER_ClearStatusFlags+0x34>)
    2cdc:	4358      	muls	r0, r3
    2cde:	1813      	adds	r3, r2, r0
    2ce0:	5811      	ldr	r1, [r2, r0]
    2ce2:	f04f 4280 	mov.w	r2, #1073741824	; 0x40000000
    2ce6:	f8c2 1a3c 	str.w	r1, [r2, #2620]	; 0xa3c
    2cea:	f893 2024 	ldrb.w	r2, [r3, #36]	; 0x24
    2cee:	f993 3024 	ldrsb.w	r3, [r3, #36]	; 0x24
    2cf2:	2b00      	cmp	r3, #0
    2cf4:	db08      	blt.n	2d08 <WTIMER_ClearStatusFlags+0x30>
    2cf6:	f002 011f 	and.w	r1, r2, #31
    2cfa:	095b      	lsrs	r3, r3, #5
    2cfc:	2201      	movs	r2, #1
    2cfe:	408a      	lsls	r2, r1
    2d00:	3360      	adds	r3, #96	; 0x60
    2d02:	4903      	ldr	r1, [pc, #12]	; (2d10 <WTIMER_ClearStatusFlags+0x38>)
    2d04:	f841 2023 	str.w	r2, [r1, r3, lsl #2]
    2d08:	4770      	bx	lr
    2d0a:	bf00      	nop
    2d0c:	00008774 	.word	0x00008774
    2d10:	e000e100 	.word	0xe000e100

00002d14 <WTIMER_StopTimer>:
    2d14:	b410      	push	{r4}
    2d16:	4c0c      	ldr	r4, [pc, #48]	; (2d48 <WTIMER_StopTimer+0x34>)
    2d18:	2228      	movs	r2, #40	; 0x28
    2d1a:	f04f 4380 	mov.w	r3, #1073741824	; 0x40000000
    2d1e:	fb02 4200 	mla	r2, r2, r0, r4
    2d22:	f8d3 1a20 	ldr.w	r1, [r3, #2592]	; 0xa20
    2d26:	68d4      	ldr	r4, [r2, #12]
    2d28:	6852      	ldr	r2, [r2, #4]
    2d2a:	ea21 0104 	bic.w	r1, r1, r4
    2d2e:	f8c3 1a20 	str.w	r1, [r3, #2592]	; 0xa20
    2d32:	f8d3 1a3c 	ldr.w	r1, [r3, #2620]	; 0xa3c
    2d36:	ea32 0101 	bics.w	r1, r2, r1
    2d3a:	d002      	beq.n	2d42 <WTIMER_StopTimer+0x2e>
    2d3c:	bc10      	pop	{r4}
    2d3e:	f7ff bfcb 	b.w	2cd8 <WTIMER_ClearStatusFlags>
    2d42:	bf00      	nop
    2d44:	e7f5      	b.n	2d32 <WTIMER_StopTimer+0x1e>
    2d46:	bf00      	nop
    2d48:	00008774 	.word	0x00008774

00002d4c <vDebugExceptionHandlersInitialise>:
    2d4c:	b508      	push	{r3, lr}
    2d4e:	f000 fcff 	bl	3750 <vDebugInit>
    2d52:	4b06      	ldr	r3, [pc, #24]	; (2d6c <vDebugExceptionHandlersInitialise+0x20>)
    2d54:	2210      	movs	r2, #16
    2d56:	601a      	str	r2, [r3, #0]
    2d58:	4a05      	ldr	r2, [pc, #20]	; (2d70 <vDebugExceptionHandlersInitialise+0x24>)
    2d5a:	2300      	movs	r3, #0
    2d5c:	7013      	strb	r3, [r2, #0]
    2d5e:	7053      	strb	r3, [r2, #1]
    2d60:	7093      	strb	r3, [r2, #2]
    2d62:	68d3      	ldr	r3, [r2, #12]
    2d64:	f443 23e0 	orr.w	r3, r3, #458752	; 0x70000
    2d68:	60d3      	str	r3, [r2, #12]
    2d6a:	bd08      	pop	{r3, pc}
    2d6c:	e000ed14 	.word	0xe000ed14
    2d70:	e000ed18 	.word	0xe000ed18

00002d74 <ExceptionUnwindStack>:
    2d74:	b580      	push	{r7, lr}
    2d76:	4604      	mov	r4, r0
    2d78:	4817      	ldr	r0, [pc, #92]	; (2dd8 <ExceptionUnwindStack+0x64>)
    2d7a:	4d18      	ldr	r5, [pc, #96]	; (2ddc <ExceptionUnwindStack+0x68>)
    2d7c:	4e18      	ldr	r6, [pc, #96]	; (2de0 <ExceptionUnwindStack+0x6c>)
    2d7e:	4f19      	ldr	r7, [pc, #100]	; (2de4 <ExceptionUnwindStack+0x70>)
    2d80:	f7fe fb88 	bl	1494 <DbgConsole_Printf>
    2d84:	42ac      	cmp	r4, r5
    2d86:	d31d      	bcc.n	2dc4 <ExceptionUnwindStack+0x50>
    2d88:	4b17      	ldr	r3, [pc, #92]	; (2de8 <ExceptionUnwindStack+0x74>)
    2d8a:	4818      	ldr	r0, [pc, #96]	; (2dec <ExceptionUnwindStack+0x78>)
    2d8c:	6819      	ldr	r1, [r3, #0]
    2d8e:	f7fe fb81 	bl	1494 <DbgConsole_Printf>
    2d92:	4b17      	ldr	r3, [pc, #92]	; (2df0 <ExceptionUnwindStack+0x7c>)
    2d94:	4817      	ldr	r0, [pc, #92]	; (2df4 <ExceptionUnwindStack+0x80>)
    2d96:	6819      	ldr	r1, [r3, #0]
    2d98:	f7fe fb7c 	bl	1494 <DbgConsole_Printf>
    2d9c:	4b16      	ldr	r3, [pc, #88]	; (2df8 <ExceptionUnwindStack+0x84>)
    2d9e:	4817      	ldr	r0, [pc, #92]	; (2dfc <ExceptionUnwindStack+0x88>)
    2da0:	6819      	ldr	r1, [r3, #0]
    2da2:	f7fe fb77 	bl	1494 <DbgConsole_Printf>
    2da6:	4b16      	ldr	r3, [pc, #88]	; (2e00 <ExceptionUnwindStack+0x8c>)
    2da8:	4816      	ldr	r0, [pc, #88]	; (2e04 <ExceptionUnwindStack+0x90>)
    2daa:	6819      	ldr	r1, [r3, #0]
    2dac:	f7fe fb72 	bl	1494 <DbgConsole_Printf>
    2db0:	4815      	ldr	r0, [pc, #84]	; (2e08 <ExceptionUnwindStack+0x94>)
    2db2:	f7fe fb6f 	bl	1494 <DbgConsole_Printf>
    2db6:	2016      	movs	r0, #22
    2db8:	f7ff fb6e 	bl	2498 <RESET_PeripheralReset>
    2dbc:	4809      	ldr	r0, [pc, #36]	; (2de4 <ExceptionUnwindStack+0x70>)
    2dbe:	f7fe fef5 	bl	1bac <WWDT_Deinit>
    2dc2:	e7fe      	b.n	2dc2 <ExceptionUnwindStack+0x4e>
    2dc4:	6822      	ldr	r2, [r4, #0]
    2dc6:	4621      	mov	r1, r4
    2dc8:	4630      	mov	r0, r6
    2dca:	f7fe fb63 	bl	1494 <DbgConsole_Printf>
    2dce:	4638      	mov	r0, r7
    2dd0:	3404      	adds	r4, #4
    2dd2:	f7fe fef3 	bl	1bbc <WWDT_Refresh>
    2dd6:	e7d5      	b.n	2d84 <ExceptionUnwindStack+0x10>
    2dd8:	000087c4 	.word	0x000087c4
    2ddc:	040156c0 	.word	0x040156c0
    2de0:	000087d5 	.word	0x000087d5
    2de4:	4000a000 	.word	0x4000a000
    2de8:	400b107c 	.word	0x400b107c
    2dec:	000087e3 	.word	0x000087e3
    2df0:	400b11c0 	.word	0x400b11c0
    2df4:	00008804 	.word	0x00008804
    2df8:	400b12c0 	.word	0x400b12c0
    2dfc:	00008825 	.word	0x00008825
    2e00:	400b0018 	.word	0x400b0018
    2e04:	00008846 	.word	0x00008846
    2e08:	00008867 	.word	0x00008867

00002e0c <HardFault_Handler>:
    2e0c:	f3ef 8008 	mrs	r0, MSP
    2e10:	f000 bb8a 	b.w	3528 <vDebugHardFaultHandler>

00002e14 <BusFault_Handler>:
    2e14:	f3ef 8008 	mrs	r0, MSP
    2e18:	f000 b922 	b.w	3060 <vDebugBusFaultHandler>

00002e1c <UsageFault_Handler>:
    2e1c:	f3ef 8008 	mrs	r0, MSP
    2e20:	f000 b9e4 	b.w	31ec <vDebugUsageFaultHandler>

00002e24 <MemManage_Handler>:
    2e24:	f3ef 8008 	mrs	r0, MSP
    2e28:	f000 ba94 	b.w	3354 <vDebugMemoryFaultHandler>

00002e2c <vPrintRegisterBit>:
    2e2c:	b110      	cbz	r0, 2e34 <vPrintRegisterBit+0x8>
    2e2e:	4802      	ldr	r0, [pc, #8]	; (2e38 <vPrintRegisterBit+0xc>)
    2e30:	f000 bcb3 	b.w	379a <vDebugNonInt>
    2e34:	4801      	ldr	r0, [pc, #4]	; (2e3c <vPrintRegisterBit+0x10>)
    2e36:	e7fb      	b.n	2e30 <vPrintRegisterBit+0x4>
    2e38:	00008886 	.word	0x00008886
    2e3c:	0000888a 	.word	0x0000888a

00002e40 <vPrintSystemHandlerAndControlStateRegisterBitFields>:
    2e40:	b510      	push	{r4, lr}
    2e42:	4604      	mov	r4, r0
    2e44:	4824      	ldr	r0, [pc, #144]	; (2ed8 <vPrintSystemHandlerAndControlStateRegisterBitFields+0x98>)
    2e46:	f000 fca8 	bl	379a <vDebugNonInt>
    2e4a:	4824      	ldr	r0, [pc, #144]	; (2edc <vPrintSystemHandlerAndControlStateRegisterBitFields+0x9c>)
    2e4c:	f000 fca5 	bl	379a <vDebugNonInt>
    2e50:	f404 3080 	and.w	r0, r4, #65536	; 0x10000
    2e54:	f7ff ffea 	bl	2e2c <vPrintRegisterBit>
    2e58:	4821      	ldr	r0, [pc, #132]	; (2ee0 <vPrintSystemHandlerAndControlStateRegisterBitFields+0xa0>)
    2e5a:	f000 fc9e 	bl	379a <vDebugNonInt>
    2e5e:	f404 3000 	and.w	r0, r4, #131072	; 0x20000
    2e62:	f7ff ffe3 	bl	2e2c <vPrintRegisterBit>
    2e66:	481f      	ldr	r0, [pc, #124]	; (2ee4 <vPrintSystemHandlerAndControlStateRegisterBitFields+0xa4>)
    2e68:	f000 fc97 	bl	379a <vDebugNonInt>
    2e6c:	f404 2080 	and.w	r0, r4, #262144	; 0x40000
    2e70:	f7ff ffdc 	bl	2e2c <vPrintRegisterBit>
    2e74:	481c      	ldr	r0, [pc, #112]	; (2ee8 <vPrintSystemHandlerAndControlStateRegisterBitFields+0xa8>)
    2e76:	f000 fc90 	bl	379a <vDebugNonInt>
    2e7a:	481c      	ldr	r0, [pc, #112]	; (2eec <vPrintSystemHandlerAndControlStateRegisterBitFields+0xac>)
    2e7c:	f000 fc8d 	bl	379a <vDebugNonInt>
    2e80:	f004 0001 	and.w	r0, r4, #1
    2e84:	f7ff ffd2 	bl	2e2c <vPrintRegisterBit>
    2e88:	4819      	ldr	r0, [pc, #100]	; (2ef0 <vPrintSystemHandlerAndControlStateRegisterBitFields+0xb0>)
    2e8a:	f000 fc86 	bl	379a <vDebugNonInt>
    2e8e:	f004 0002 	and.w	r0, r4, #2
    2e92:	f7ff ffcb 	bl	2e2c <vPrintRegisterBit>
    2e96:	4817      	ldr	r0, [pc, #92]	; (2ef4 <vPrintSystemHandlerAndControlStateRegisterBitFields+0xb4>)
    2e98:	f000 fc7f 	bl	379a <vDebugNonInt>
    2e9c:	f004 0008 	and.w	r0, r4, #8
    2ea0:	f7ff ffc4 	bl	2e2c <vPrintRegisterBit>
    2ea4:	4814      	ldr	r0, [pc, #80]	; (2ef8 <vPrintSystemHandlerAndControlStateRegisterBitFields+0xb8>)
    2ea6:	f000 fc78 	bl	379a <vDebugNonInt>
    2eaa:	4814      	ldr	r0, [pc, #80]	; (2efc <vPrintSystemHandlerAndControlStateRegisterBitFields+0xbc>)
    2eac:	f000 fc75 	bl	379a <vDebugNonInt>
    2eb0:	f404 5000 	and.w	r0, r4, #8192	; 0x2000
    2eb4:	f7ff ffba 	bl	2e2c <vPrintRegisterBit>
    2eb8:	4811      	ldr	r0, [pc, #68]	; (2f00 <vPrintSystemHandlerAndControlStateRegisterBitFields+0xc0>)
    2eba:	f000 fc6e 	bl	379a <vDebugNonInt>
    2ebe:	f404 4080 	and.w	r0, r4, #16384	; 0x4000
    2ec2:	f7ff ffb3 	bl	2e2c <vPrintRegisterBit>
    2ec6:	480f      	ldr	r0, [pc, #60]	; (2f04 <vPrintSystemHandlerAndControlStateRegisterBitFields+0xc4>)
    2ec8:	f000 fc67 	bl	379a <vDebugNonInt>
    2ecc:	f404 5080 	and.w	r0, r4, #4096	; 0x1000
    2ed0:	e8bd 4010 	ldmia.w	sp!, {r4, lr}
    2ed4:	f7ff bfaa 	b.w	2e2c <vPrintRegisterBit>
    2ed8:	0000888e 	.word	0x0000888e
    2edc:	000088c7 	.word	0x000088c7
    2ee0:	000088d5 	.word	0x000088d5
    2ee4:	000088e3 	.word	0x000088e3
    2ee8:	000088f1 	.word	0x000088f1
    2eec:	0000892a 	.word	0x0000892a
    2ef0:	00008939 	.word	0x00008939
    2ef4:	00008948 	.word	0x00008948
    2ef8:	00008957 	.word	0x00008957
    2efc:	00008990 	.word	0x00008990
    2f00:	000089a2 	.word	0x000089a2
    2f04:	000089b4 	.word	0x000089b4

00002f08 <vPrintConfigurableFaultStatusRegisterBitFields>:
    2f08:	b510      	push	{r4, lr}
    2f0a:	4604      	mov	r4, r0
    2f0c:	4840      	ldr	r0, [pc, #256]	; (3010 <vPrintConfigurableFaultStatusRegisterBitFields+0x108>)
    2f0e:	f000 fc44 	bl	379a <vDebugNonInt>
    2f12:	4840      	ldr	r0, [pc, #256]	; (3014 <vPrintConfigurableFaultStatusRegisterBitFields+0x10c>)
    2f14:	f000 fc41 	bl	379a <vDebugNonInt>
    2f18:	f004 0001 	and.w	r0, r4, #1
    2f1c:	f7ff ff86 	bl	2e2c <vPrintRegisterBit>
    2f20:	483d      	ldr	r0, [pc, #244]	; (3018 <vPrintConfigurableFaultStatusRegisterBitFields+0x110>)
    2f22:	f000 fc3a 	bl	379a <vDebugNonInt>
    2f26:	f004 0002 	and.w	r0, r4, #2
    2f2a:	f7ff ff7f 	bl	2e2c <vPrintRegisterBit>
    2f2e:	483b      	ldr	r0, [pc, #236]	; (301c <vPrintConfigurableFaultStatusRegisterBitFields+0x114>)
    2f30:	f000 fc33 	bl	379a <vDebugNonInt>
    2f34:	f004 0008 	and.w	r0, r4, #8
    2f38:	f7ff ff78 	bl	2e2c <vPrintRegisterBit>
    2f3c:	4838      	ldr	r0, [pc, #224]	; (3020 <vPrintConfigurableFaultStatusRegisterBitFields+0x118>)
    2f3e:	f000 fc2c 	bl	379a <vDebugNonInt>
    2f42:	f004 0010 	and.w	r0, r4, #16
    2f46:	f7ff ff71 	bl	2e2c <vPrintRegisterBit>
    2f4a:	4836      	ldr	r0, [pc, #216]	; (3024 <vPrintConfigurableFaultStatusRegisterBitFields+0x11c>)
    2f4c:	f000 fc25 	bl	379a <vDebugNonInt>
    2f50:	f004 0080 	and.w	r0, r4, #128	; 0x80
    2f54:	f7ff ff6a 	bl	2e2c <vPrintRegisterBit>
    2f58:	4833      	ldr	r0, [pc, #204]	; (3028 <vPrintConfigurableFaultStatusRegisterBitFields+0x120>)
    2f5a:	f000 fc1e 	bl	379a <vDebugNonInt>
    2f5e:	4833      	ldr	r0, [pc, #204]	; (302c <vPrintConfigurableFaultStatusRegisterBitFields+0x124>)
    2f60:	f000 fc1b 	bl	379a <vDebugNonInt>
    2f64:	f404 7080 	and.w	r0, r4, #256	; 0x100
    2f68:	f7ff ff60 	bl	2e2c <vPrintRegisterBit>
    2f6c:	4830      	ldr	r0, [pc, #192]	; (3030 <vPrintConfigurableFaultStatusRegisterBitFields+0x128>)
    2f6e:	f000 fc14 	bl	379a <vDebugNonInt>
    2f72:	f404 7000 	and.w	r0, r4, #512	; 0x200
    2f76:	f7ff ff59 	bl	2e2c <vPrintRegisterBit>
    2f7a:	482e      	ldr	r0, [pc, #184]	; (3034 <vPrintConfigurableFaultStatusRegisterBitFields+0x12c>)
    2f7c:	f000 fc0d 	bl	379a <vDebugNonInt>
    2f80:	f404 6080 	and.w	r0, r4, #1024	; 0x400
    2f84:	f7ff ff52 	bl	2e2c <vPrintRegisterBit>
    2f88:	482b      	ldr	r0, [pc, #172]	; (3038 <vPrintConfigurableFaultStatusRegisterBitFields+0x130>)
    2f8a:	f000 fc06 	bl	379a <vDebugNonInt>
    2f8e:	f404 6000 	and.w	r0, r4, #2048	; 0x800
    2f92:	f7ff ff4b 	bl	2e2c <vPrintRegisterBit>
    2f96:	4829      	ldr	r0, [pc, #164]	; (303c <vPrintConfigurableFaultStatusRegisterBitFields+0x134>)
    2f98:	f000 fbff 	bl	379a <vDebugNonInt>
    2f9c:	f404 5080 	and.w	r0, r4, #4096	; 0x1000
    2fa0:	f7ff ff44 	bl	2e2c <vPrintRegisterBit>
    2fa4:	4826      	ldr	r0, [pc, #152]	; (3040 <vPrintConfigurableFaultStatusRegisterBitFields+0x138>)
    2fa6:	f000 fbf8 	bl	379a <vDebugNonInt>
    2faa:	f404 4000 	and.w	r0, r4, #32768	; 0x8000
    2fae:	f7ff ff3d 	bl	2e2c <vPrintRegisterBit>
    2fb2:	4824      	ldr	r0, [pc, #144]	; (3044 <vPrintConfigurableFaultStatusRegisterBitFields+0x13c>)
    2fb4:	f000 fbf1 	bl	379a <vDebugNonInt>
    2fb8:	4823      	ldr	r0, [pc, #140]	; (3048 <vPrintConfigurableFaultStatusRegisterBitFields+0x140>)
    2fba:	f000 fbee 	bl	379a <vDebugNonInt>
    2fbe:	f404 3080 	and.w	r0, r4, #65536	; 0x10000
    2fc2:	f7ff ff33 	bl	2e2c <vPrintRegisterBit>
    2fc6:	4821      	ldr	r0, [pc, #132]	; (304c <vPrintConfigurableFaultStatusRegisterBitFields+0x144>)
    2fc8:	f000 fbe7 	bl	379a <vDebugNonInt>
    2fcc:	f404 3000 	and.w	r0, r4, #131072	; 0x20000
    2fd0:	f7ff ff2c 	bl	2e2c <vPrintRegisterBit>
    2fd4:	481e      	ldr	r0, [pc, #120]	; (3050 <vPrintConfigurableFaultStatusRegisterBitFields+0x148>)
    2fd6:	f000 fbe0 	bl	379a <vDebugNonInt>
    2fda:	f404 2080 	and.w	r0, r4, #262144	; 0x40000
    2fde:	f7ff ff25 	bl	2e2c <vPrintRegisterBit>
    2fe2:	481c      	ldr	r0, [pc, #112]	; (3054 <vPrintConfigurableFaultStatusRegisterBitFields+0x14c>)
    2fe4:	f000 fbd9 	bl	379a <vDebugNonInt>
    2fe8:	f404 2000 	and.w	r0, r4, #524288	; 0x80000
    2fec:	f7ff ff1e 	bl	2e2c <vPrintRegisterBit>
    2ff0:	4819      	ldr	r0, [pc, #100]	; (3058 <vPrintConfigurableFaultStatusRegisterBitFields+0x150>)
    2ff2:	f000 fbd2 	bl	379a <vDebugNonInt>
    2ff6:	f004 7080 	and.w	r0, r4, #16777216	; 0x1000000
    2ffa:	f7ff ff17 	bl	2e2c <vPrintRegisterBit>
    2ffe:	4817      	ldr	r0, [pc, #92]	; (305c <vPrintConfigurableFaultStatusRegisterBitFields+0x154>)
    3000:	f000 fbcb 	bl	379a <vDebugNonInt>
    3004:	f004 7000 	and.w	r0, r4, #33554432	; 0x2000000
    3008:	e8bd 4010 	ldmia.w	sp!, {r4, lr}
    300c:	f7ff bf0e 	b.w	2e2c <vPrintRegisterBit>
    3010:	000089c6 	.word	0x000089c6
    3014:	000089e8 	.word	0x000089e8
    3018:	000089f4 	.word	0x000089f4
    301c:	00008a00 	.word	0x00008a00
    3020:	00008a0d 	.word	0x00008a0d
    3024:	00008a18 	.word	0x00008a18
    3028:	00008a25 	.word	0x00008a25
    302c:	00008a40 	.word	0x00008a40
    3030:	00008a4d 	.word	0x00008a4d
    3034:	00008a4b 	.word	0x00008a4b
    3038:	00008a01 	.word	0x00008a01
    303c:	00008a0e 	.word	0x00008a0e
    3040:	00008a5a 	.word	0x00008a5a
    3044:	00008a67 	.word	0x00008a67
    3048:	00008a84 	.word	0x00008a84
    304c:	00008a92 	.word	0x00008a92
    3050:	00008a9e 	.word	0x00008a9e
    3054:	00008aa7 	.word	0x00008aa7
    3058:	00008aaf 	.word	0x00008aaf
    305c:	00008abc 	.word	0x00008abc

00003060 <vDebugBusFaultHandler>:
    3060:	e92d 4887 	stmdb	sp!, {r0, r1, r2, r7, fp, lr}
    3064:	e9d0 9802 	ldrd	r9, r8, [r0, #8]
    3068:	e9d0 ba00 	ldrd	fp, sl, [r0]
    306c:	e9d0 7604 	ldrd	r7, r6, [r0, #16]
    3070:	e9d0 5406 	ldrd	r5, r4, [r0, #24]
    3074:	4847      	ldr	r0, [pc, #284]	; (3194 <vDebugBusFaultHandler+0x134>)
    3076:	f000 fb90 	bl	379a <vDebugNonInt>
    307a:	4847      	ldr	r0, [pc, #284]	; (3198 <vDebugBusFaultHandler+0x138>)
    307c:	f000 fb8d 	bl	379a <vDebugNonInt>
    3080:	4846      	ldr	r0, [pc, #280]	; (319c <vDebugBusFaultHandler+0x13c>)
    3082:	f000 fb8a 	bl	379a <vDebugNonInt>
    3086:	2108      	movs	r1, #8
    3088:	4658      	mov	r0, fp
    308a:	f000 fb88 	bl	379e <vDebugHexNonInt>
    308e:	4844      	ldr	r0, [pc, #272]	; (31a0 <vDebugBusFaultHandler+0x140>)
    3090:	f000 fb83 	bl	379a <vDebugNonInt>
    3094:	4843      	ldr	r0, [pc, #268]	; (31a4 <vDebugBusFaultHandler+0x144>)
    3096:	f000 fb80 	bl	379a <vDebugNonInt>
    309a:	2108      	movs	r1, #8
    309c:	4650      	mov	r0, sl
    309e:	f000 fb7e 	bl	379e <vDebugHexNonInt>
    30a2:	483f      	ldr	r0, [pc, #252]	; (31a0 <vDebugBusFaultHandler+0x140>)
    30a4:	f000 fb79 	bl	379a <vDebugNonInt>
    30a8:	483f      	ldr	r0, [pc, #252]	; (31a8 <vDebugBusFaultHandler+0x148>)
    30aa:	f000 fb76 	bl	379a <vDebugNonInt>
    30ae:	2108      	movs	r1, #8
    30b0:	4648      	mov	r0, r9
    30b2:	f000 fb74 	bl	379e <vDebugHexNonInt>
    30b6:	483a      	ldr	r0, [pc, #232]	; (31a0 <vDebugBusFaultHandler+0x140>)
    30b8:	f000 fb6f 	bl	379a <vDebugNonInt>
    30bc:	483b      	ldr	r0, [pc, #236]	; (31ac <vDebugBusFaultHandler+0x14c>)
    30be:	f000 fb6c 	bl	379a <vDebugNonInt>
    30c2:	2108      	movs	r1, #8
    30c4:	4640      	mov	r0, r8
    30c6:	f000 fb6a 	bl	379e <vDebugHexNonInt>
    30ca:	4835      	ldr	r0, [pc, #212]	; (31a0 <vDebugBusFaultHandler+0x140>)
    30cc:	f000 fb65 	bl	379a <vDebugNonInt>
    30d0:	4837      	ldr	r0, [pc, #220]	; (31b0 <vDebugBusFaultHandler+0x150>)
    30d2:	f000 fb62 	bl	379a <vDebugNonInt>
    30d6:	2108      	movs	r1, #8
    30d8:	4638      	mov	r0, r7
    30da:	f000 fb60 	bl	379e <vDebugHexNonInt>
    30de:	4830      	ldr	r0, [pc, #192]	; (31a0 <vDebugBusFaultHandler+0x140>)
    30e0:	f000 fb5b 	bl	379a <vDebugNonInt>
    30e4:	4833      	ldr	r0, [pc, #204]	; (31b4 <vDebugBusFaultHandler+0x154>)
    30e6:	f000 fb58 	bl	379a <vDebugNonInt>
    30ea:	2108      	movs	r1, #8
    30ec:	4630      	mov	r0, r6
    30ee:	f000 fb56 	bl	379e <vDebugHexNonInt>
    30f2:	4831      	ldr	r0, [pc, #196]	; (31b8 <vDebugBusFaultHandler+0x158>)
    30f4:	f000 fb51 	bl	379a <vDebugNonInt>
    30f8:	4830      	ldr	r0, [pc, #192]	; (31bc <vDebugBusFaultHandler+0x15c>)
    30fa:	f000 fb4e 	bl	379a <vDebugNonInt>
    30fe:	2108      	movs	r1, #8
    3100:	4628      	mov	r0, r5
    3102:	f000 fb4c 	bl	379e <vDebugHexNonInt>
    3106:	482e      	ldr	r0, [pc, #184]	; (31c0 <vDebugBusFaultHandler+0x160>)
    3108:	f000 fb47 	bl	379a <vDebugNonInt>
    310c:	482d      	ldr	r0, [pc, #180]	; (31c4 <vDebugBusFaultHandler+0x164>)
    310e:	f000 fb44 	bl	379a <vDebugNonInt>
    3112:	2108      	movs	r1, #8
    3114:	4620      	mov	r0, r4
    3116:	f000 fb42 	bl	379e <vDebugHexNonInt>
    311a:	4821      	ldr	r0, [pc, #132]	; (31a0 <vDebugBusFaultHandler+0x140>)
    311c:	f000 fb3d 	bl	379a <vDebugNonInt>
    3120:	4b29      	ldr	r3, [pc, #164]	; (31c8 <vDebugBusFaultHandler+0x168>)
    3122:	482a      	ldr	r0, [pc, #168]	; (31cc <vDebugBusFaultHandler+0x16c>)
    3124:	681b      	ldr	r3, [r3, #0]
    3126:	9301      	str	r3, [sp, #4]
    3128:	f000 fb37 	bl	379a <vDebugNonInt>
    312c:	2108      	movs	r1, #8
    312e:	9801      	ldr	r0, [sp, #4]
    3130:	f000 fb35 	bl	379e <vDebugHexNonInt>
    3134:	4826      	ldr	r0, [pc, #152]	; (31d0 <vDebugBusFaultHandler+0x170>)
    3136:	f000 fb30 	bl	379a <vDebugNonInt>
    313a:	9801      	ldr	r0, [sp, #4]
    313c:	f7ff fe80 	bl	2e40 <vPrintSystemHandlerAndControlStateRegisterBitFields>
    3140:	4b24      	ldr	r3, [pc, #144]	; (31d4 <vDebugBusFaultHandler+0x174>)
    3142:	4825      	ldr	r0, [pc, #148]	; (31d8 <vDebugBusFaultHandler+0x178>)
    3144:	681b      	ldr	r3, [r3, #0]
    3146:	9301      	str	r3, [sp, #4]
    3148:	f000 fb27 	bl	379a <vDebugNonInt>
    314c:	2108      	movs	r1, #8
    314e:	9801      	ldr	r0, [sp, #4]
    3150:	f000 fb25 	bl	379e <vDebugHexNonInt>
    3154:	4812      	ldr	r0, [pc, #72]	; (31a0 <vDebugBusFaultHandler+0x140>)
    3156:	f000 fb20 	bl	379a <vDebugNonInt>
    315a:	4b20      	ldr	r3, [pc, #128]	; (31dc <vDebugBusFaultHandler+0x17c>)
    315c:	4820      	ldr	r0, [pc, #128]	; (31e0 <vDebugBusFaultHandler+0x180>)
    315e:	681b      	ldr	r3, [r3, #0]
    3160:	9301      	str	r3, [sp, #4]
    3162:	f000 fb1a 	bl	379a <vDebugNonInt>
    3166:	2108      	movs	r1, #8
    3168:	9801      	ldr	r0, [sp, #4]
    316a:	f000 fb18 	bl	379e <vDebugHexNonInt>
    316e:	480c      	ldr	r0, [pc, #48]	; (31a0 <vDebugBusFaultHandler+0x140>)
    3170:	f000 fb13 	bl	379a <vDebugNonInt>
    3174:	481b      	ldr	r0, [pc, #108]	; (31e4 <vDebugBusFaultHandler+0x184>)
    3176:	f000 fb10 	bl	379a <vDebugNonInt>
    317a:	9801      	ldr	r0, [sp, #4]
    317c:	f7ff fec4 	bl	2f08 <vPrintConfigurableFaultStatusRegisterBitFields>
    3180:	4b19      	ldr	r3, [pc, #100]	; (31e8 <vDebugBusFaultHandler+0x188>)
    3182:	681b      	ldr	r3, [r3, #0]
    3184:	07db      	lsls	r3, r3, #31
    3186:	d500      	bpl.n	318a <vDebugBusFaultHandler+0x12a>
    3188:	be00      	bkpt	0x0000
    318a:	f3ef 8008 	mrs	r0, MSP
    318e:	f7ff fdf1 	bl	2d74 <ExceptionUnwindStack>
    3192:	bf00      	nop
    3194:	00008ac9 	.word	0x00008ac9
    3198:	00008aeb 	.word	0x00008aeb
    319c:	00008b0f 	.word	0x00008b0f
    31a0:	00008b0c 	.word	0x00008b0c
    31a4:	00008b17 	.word	0x00008b17
    31a8:	00008b1f 	.word	0x00008b1f
    31ac:	00008b27 	.word	0x00008b27
    31b0:	00008b2f 	.word	0x00008b2f
    31b4:	00008b38 	.word	0x00008b38
    31b8:	00008b46 	.word	0x00008b46
    31bc:	00008b6a 	.word	0x00008b6a
    31c0:	00008b78 	.word	0x00008b78
    31c4:	00008b8d 	.word	0x00008b8d
    31c8:	e000ed24 	.word	0xe000ed24
    31cc:	00008b96 	.word	0x00008b96
    31d0:	00008bba 	.word	0x00008bba
    31d4:	e000ed38 	.word	0xe000ed38
    31d8:	00008bec 	.word	0x00008bec
    31dc:	e000ed28 	.word	0xe000ed28
    31e0:	00008c06 	.word	0x00008c06
    31e4:	00008c29 	.word	0x00008c29
    31e8:	e000edf0 	.word	0xe000edf0

000031ec <vDebugUsageFaultHandler>:
    31ec:	e92d 4887 	stmdb	sp!, {r0, r1, r2, r7, fp, lr}
    31f0:	e9d0 9802 	ldrd	r9, r8, [r0, #8]
    31f4:	e9d0 ba00 	ldrd	fp, sl, [r0]
    31f8:	e9d0 7604 	ldrd	r7, r6, [r0, #16]
    31fc:	e9d0 5406 	ldrd	r5, r4, [r0, #24]
    3200:	4840      	ldr	r0, [pc, #256]	; (3304 <vDebugUsageFaultHandler+0x118>)
    3202:	f000 faca 	bl	379a <vDebugNonInt>
    3206:	4840      	ldr	r0, [pc, #256]	; (3308 <vDebugUsageFaultHandler+0x11c>)
    3208:	f000 fac7 	bl	379a <vDebugNonInt>
    320c:	483f      	ldr	r0, [pc, #252]	; (330c <vDebugUsageFaultHandler+0x120>)
    320e:	f000 fac4 	bl	379a <vDebugNonInt>
    3212:	2108      	movs	r1, #8
    3214:	4658      	mov	r0, fp
    3216:	f000 fac2 	bl	379e <vDebugHexNonInt>
    321a:	483d      	ldr	r0, [pc, #244]	; (3310 <vDebugUsageFaultHandler+0x124>)
    321c:	f000 fabd 	bl	379a <vDebugNonInt>
    3220:	483c      	ldr	r0, [pc, #240]	; (3314 <vDebugUsageFaultHandler+0x128>)
    3222:	f000 faba 	bl	379a <vDebugNonInt>
    3226:	2108      	movs	r1, #8
    3228:	4650      	mov	r0, sl
    322a:	f000 fab8 	bl	379e <vDebugHexNonInt>
    322e:	4838      	ldr	r0, [pc, #224]	; (3310 <vDebugUsageFaultHandler+0x124>)
    3230:	f000 fab3 	bl	379a <vDebugNonInt>
    3234:	4838      	ldr	r0, [pc, #224]	; (3318 <vDebugUsageFaultHandler+0x12c>)
    3236:	f000 fab0 	bl	379a <vDebugNonInt>
    323a:	2108      	movs	r1, #8
    323c:	4648      	mov	r0, r9
    323e:	f000 faae 	bl	379e <vDebugHexNonInt>
    3242:	4833      	ldr	r0, [pc, #204]	; (3310 <vDebugUsageFaultHandler+0x124>)
    3244:	f000 faa9 	bl	379a <vDebugNonInt>
    3248:	4834      	ldr	r0, [pc, #208]	; (331c <vDebugUsageFaultHandler+0x130>)
    324a:	f000 faa6 	bl	379a <vDebugNonInt>
    324e:	2108      	movs	r1, #8
    3250:	4640      	mov	r0, r8
    3252:	f000 faa4 	bl	379e <vDebugHexNonInt>
    3256:	482e      	ldr	r0, [pc, #184]	; (3310 <vDebugUsageFaultHandler+0x124>)
    3258:	f000 fa9f 	bl	379a <vDebugNonInt>
    325c:	4830      	ldr	r0, [pc, #192]	; (3320 <vDebugUsageFaultHandler+0x134>)
    325e:	f000 fa9c 	bl	379a <vDebugNonInt>
    3262:	2108      	movs	r1, #8
    3264:	4638      	mov	r0, r7
    3266:	f000 fa9a 	bl	379e <vDebugHexNonInt>
    326a:	4829      	ldr	r0, [pc, #164]	; (3310 <vDebugUsageFaultHandler+0x124>)
    326c:	f000 fa95 	bl	379a <vDebugNonInt>
    3270:	482c      	ldr	r0, [pc, #176]	; (3324 <vDebugUsageFaultHandler+0x138>)
    3272:	f000 fa92 	bl	379a <vDebugNonInt>
    3276:	2108      	movs	r1, #8
    3278:	4630      	mov	r0, r6
    327a:	f000 fa90 	bl	379e <vDebugHexNonInt>
    327e:	482a      	ldr	r0, [pc, #168]	; (3328 <vDebugUsageFaultHandler+0x13c>)
    3280:	f000 fa8b 	bl	379a <vDebugNonInt>
    3284:	4829      	ldr	r0, [pc, #164]	; (332c <vDebugUsageFaultHandler+0x140>)
    3286:	f000 fa88 	bl	379a <vDebugNonInt>
    328a:	2108      	movs	r1, #8
    328c:	4628      	mov	r0, r5
    328e:	f000 fa86 	bl	379e <vDebugHexNonInt>
    3292:	4827      	ldr	r0, [pc, #156]	; (3330 <vDebugUsageFaultHandler+0x144>)
    3294:	f000 fa81 	bl	379a <vDebugNonInt>
    3298:	4826      	ldr	r0, [pc, #152]	; (3334 <vDebugUsageFaultHandler+0x148>)
    329a:	f000 fa7e 	bl	379a <vDebugNonInt>
    329e:	2108      	movs	r1, #8
    32a0:	4620      	mov	r0, r4
    32a2:	f000 fa7c 	bl	379e <vDebugHexNonInt>
    32a6:	481a      	ldr	r0, [pc, #104]	; (3310 <vDebugUsageFaultHandler+0x124>)
    32a8:	f000 fa77 	bl	379a <vDebugNonInt>
    32ac:	4b22      	ldr	r3, [pc, #136]	; (3338 <vDebugUsageFaultHandler+0x14c>)
    32ae:	4823      	ldr	r0, [pc, #140]	; (333c <vDebugUsageFaultHandler+0x150>)
    32b0:	681b      	ldr	r3, [r3, #0]
    32b2:	9301      	str	r3, [sp, #4]
    32b4:	f000 fa71 	bl	379a <vDebugNonInt>
    32b8:	2108      	movs	r1, #8
    32ba:	9801      	ldr	r0, [sp, #4]
    32bc:	f000 fa6f 	bl	379e <vDebugHexNonInt>
    32c0:	481f      	ldr	r0, [pc, #124]	; (3340 <vDebugUsageFaultHandler+0x154>)
    32c2:	f000 fa6a 	bl	379a <vDebugNonInt>
    32c6:	9801      	ldr	r0, [sp, #4]
    32c8:	f7ff fdba 	bl	2e40 <vPrintSystemHandlerAndControlStateRegisterBitFields>
    32cc:	4b1d      	ldr	r3, [pc, #116]	; (3344 <vDebugUsageFaultHandler+0x158>)
    32ce:	481e      	ldr	r0, [pc, #120]	; (3348 <vDebugUsageFaultHandler+0x15c>)
    32d0:	681b      	ldr	r3, [r3, #0]
    32d2:	9301      	str	r3, [sp, #4]
    32d4:	f000 fa61 	bl	379a <vDebugNonInt>
    32d8:	2108      	movs	r1, #8
    32da:	9801      	ldr	r0, [sp, #4]
    32dc:	f000 fa5f 	bl	379e <vDebugHexNonInt>
    32e0:	480b      	ldr	r0, [pc, #44]	; (3310 <vDebugUsageFaultHandler+0x124>)
    32e2:	f000 fa5a 	bl	379a <vDebugNonInt>
    32e6:	4819      	ldr	r0, [pc, #100]	; (334c <vDebugUsageFaultHandler+0x160>)
    32e8:	f000 fa57 	bl	379a <vDebugNonInt>
    32ec:	9801      	ldr	r0, [sp, #4]
    32ee:	f7ff fe0b 	bl	2f08 <vPrintConfigurableFaultStatusRegisterBitFields>
    32f2:	4b17      	ldr	r3, [pc, #92]	; (3350 <vDebugUsageFaultHandler+0x164>)
    32f4:	681b      	ldr	r3, [r3, #0]
    32f6:	07db      	lsls	r3, r3, #31
    32f8:	d500      	bpl.n	32fc <vDebugUsageFaultHandler+0x110>
    32fa:	be00      	bkpt	0x0000
    32fc:	f3ef 8008 	mrs	r0, MSP
    3300:	f7ff fd38 	bl	2d74 <ExceptionUnwindStack>
    3304:	00008c5a 	.word	0x00008c5a
    3308:	00008aeb 	.word	0x00008aeb
    330c:	00008b0f 	.word	0x00008b0f
    3310:	00008b0c 	.word	0x00008b0c
    3314:	00008b17 	.word	0x00008b17
    3318:	00008b1f 	.word	0x00008b1f
    331c:	00008b27 	.word	0x00008b27
    3320:	00008b2f 	.word	0x00008b2f
    3324:	00008b38 	.word	0x00008b38
    3328:	00008b46 	.word	0x00008b46
    332c:	00008b6a 	.word	0x00008b6a
    3330:	00008b78 	.word	0x00008b78
    3334:	00008b8d 	.word	0x00008b8d
    3338:	e000ed24 	.word	0xe000ed24
    333c:	00008b96 	.word	0x00008b96
    3340:	00008bba 	.word	0x00008bba
    3344:	e000ed28 	.word	0xe000ed28
    3348:	00008c06 	.word	0x00008c06
    334c:	00008c29 	.word	0x00008c29
    3350:	e000edf0 	.word	0xe000edf0

00003354 <vDebugMemoryFaultHandler>:
    3354:	e92d 4887 	stmdb	sp!, {r0, r1, r2, r7, fp, lr}
    3358:	e9d0 9802 	ldrd	r9, r8, [r0, #8]
    335c:	e9d0 ba00 	ldrd	fp, sl, [r0]
    3360:	e9d0 7604 	ldrd	r7, r6, [r0, #16]
    3364:	e9d0 5406 	ldrd	r5, r4, [r0, #24]
    3368:	4847      	ldr	r0, [pc, #284]	; (3488 <vDebugMemoryFaultHandler+0x134>)
    336a:	f000 fa16 	bl	379a <vDebugNonInt>
    336e:	4847      	ldr	r0, [pc, #284]	; (348c <vDebugMemoryFaultHandler+0x138>)
    3370:	f000 fa13 	bl	379a <vDebugNonInt>
    3374:	4846      	ldr	r0, [pc, #280]	; (3490 <vDebugMemoryFaultHandler+0x13c>)
    3376:	f000 fa10 	bl	379a <vDebugNonInt>
    337a:	2108      	movs	r1, #8
    337c:	4658      	mov	r0, fp
    337e:	f000 fa0e 	bl	379e <vDebugHexNonInt>
    3382:	4844      	ldr	r0, [pc, #272]	; (3494 <vDebugMemoryFaultHandler+0x140>)
    3384:	f000 fa09 	bl	379a <vDebugNonInt>
    3388:	4843      	ldr	r0, [pc, #268]	; (3498 <vDebugMemoryFaultHandler+0x144>)
    338a:	f000 fa06 	bl	379a <vDebugNonInt>
    338e:	2108      	movs	r1, #8
    3390:	4650      	mov	r0, sl
    3392:	f000 fa04 	bl	379e <vDebugHexNonInt>
    3396:	483f      	ldr	r0, [pc, #252]	; (3494 <vDebugMemoryFaultHandler+0x140>)
    3398:	f000 f9ff 	bl	379a <vDebugNonInt>
    339c:	483f      	ldr	r0, [pc, #252]	; (349c <vDebugMemoryFaultHandler+0x148>)
    339e:	f000 f9fc 	bl	379a <vDebugNonInt>
    33a2:	2108      	movs	r1, #8
    33a4:	4648      	mov	r0, r9
    33a6:	f000 f9fa 	bl	379e <vDebugHexNonInt>
    33aa:	483a      	ldr	r0, [pc, #232]	; (3494 <vDebugMemoryFaultHandler+0x140>)
    33ac:	f000 f9f5 	bl	379a <vDebugNonInt>
    33b0:	483b      	ldr	r0, [pc, #236]	; (34a0 <vDebugMemoryFaultHandler+0x14c>)
    33b2:	f000 f9f2 	bl	379a <vDebugNonInt>
    33b6:	2108      	movs	r1, #8
    33b8:	4640      	mov	r0, r8
    33ba:	f000 f9f0 	bl	379e <vDebugHexNonInt>
    33be:	4835      	ldr	r0, [pc, #212]	; (3494 <vDebugMemoryFaultHandler+0x140>)
    33c0:	f000 f9eb 	bl	379a <vDebugNonInt>
    33c4:	4837      	ldr	r0, [pc, #220]	; (34a4 <vDebugMemoryFaultHandler+0x150>)
    33c6:	f000 f9e8 	bl	379a <vDebugNonInt>
    33ca:	2108      	movs	r1, #8
    33cc:	4638      	mov	r0, r7
    33ce:	f000 f9e6 	bl	379e <vDebugHexNonInt>
    33d2:	4830      	ldr	r0, [pc, #192]	; (3494 <vDebugMemoryFaultHandler+0x140>)
    33d4:	f000 f9e1 	bl	379a <vDebugNonInt>
    33d8:	4833      	ldr	r0, [pc, #204]	; (34a8 <vDebugMemoryFaultHandler+0x154>)
    33da:	f000 f9de 	bl	379a <vDebugNonInt>
    33de:	2108      	movs	r1, #8
    33e0:	4630      	mov	r0, r6
    33e2:	f000 f9dc 	bl	379e <vDebugHexNonInt>
    33e6:	4831      	ldr	r0, [pc, #196]	; (34ac <vDebugMemoryFaultHandler+0x158>)
    33e8:	f000 f9d7 	bl	379a <vDebugNonInt>
    33ec:	4830      	ldr	r0, [pc, #192]	; (34b0 <vDebugMemoryFaultHandler+0x15c>)
    33ee:	f000 f9d4 	bl	379a <vDebugNonInt>
    33f2:	2108      	movs	r1, #8
    33f4:	4628      	mov	r0, r5
    33f6:	f000 f9d2 	bl	379e <vDebugHexNonInt>
    33fa:	482e      	ldr	r0, [pc, #184]	; (34b4 <vDebugMemoryFaultHandler+0x160>)
    33fc:	f000 f9cd 	bl	379a <vDebugNonInt>
    3400:	482d      	ldr	r0, [pc, #180]	; (34b8 <vDebugMemoryFaultHandler+0x164>)
    3402:	f000 f9ca 	bl	379a <vDebugNonInt>
    3406:	2108      	movs	r1, #8
    3408:	4620      	mov	r0, r4
    340a:	f000 f9c8 	bl	379e <vDebugHexNonInt>
    340e:	4821      	ldr	r0, [pc, #132]	; (3494 <vDebugMemoryFaultHandler+0x140>)
    3410:	f000 f9c3 	bl	379a <vDebugNonInt>
    3414:	4b29      	ldr	r3, [pc, #164]	; (34bc <vDebugMemoryFaultHandler+0x168>)
    3416:	482a      	ldr	r0, [pc, #168]	; (34c0 <vDebugMemoryFaultHandler+0x16c>)
    3418:	681b      	ldr	r3, [r3, #0]
    341a:	9301      	str	r3, [sp, #4]
    341c:	f000 f9bd 	bl	379a <vDebugNonInt>
    3420:	2108      	movs	r1, #8
    3422:	9801      	ldr	r0, [sp, #4]
    3424:	f000 f9bb 	bl	379e <vDebugHexNonInt>
    3428:	4826      	ldr	r0, [pc, #152]	; (34c4 <vDebugMemoryFaultHandler+0x170>)
    342a:	f000 f9b6 	bl	379a <vDebugNonInt>
    342e:	9801      	ldr	r0, [sp, #4]
    3430:	f7ff fd06 	bl	2e40 <vPrintSystemHandlerAndControlStateRegisterBitFields>
    3434:	4b24      	ldr	r3, [pc, #144]	; (34c8 <vDebugMemoryFaultHandler+0x174>)
    3436:	4825      	ldr	r0, [pc, #148]	; (34cc <vDebugMemoryFaultHandler+0x178>)
    3438:	681b      	ldr	r3, [r3, #0]
    343a:	9301      	str	r3, [sp, #4]
    343c:	f000 f9ad 	bl	379a <vDebugNonInt>
    3440:	2108      	movs	r1, #8
    3442:	9801      	ldr	r0, [sp, #4]
    3444:	f000 f9ab 	bl	379e <vDebugHexNonInt>
    3448:	4812      	ldr	r0, [pc, #72]	; (3494 <vDebugMemoryFaultHandler+0x140>)
    344a:	f000 f9a6 	bl	379a <vDebugNonInt>
    344e:	4b20      	ldr	r3, [pc, #128]	; (34d0 <vDebugMemoryFaultHandler+0x17c>)
    3450:	4820      	ldr	r0, [pc, #128]	; (34d4 <vDebugMemoryFaultHandler+0x180>)
    3452:	681b      	ldr	r3, [r3, #0]
    3454:	9301      	str	r3, [sp, #4]
    3456:	f000 f9a0 	bl	379a <vDebugNonInt>
    345a:	2108      	movs	r1, #8
    345c:	9801      	ldr	r0, [sp, #4]
    345e:	f000 f99e 	bl	379e <vDebugHexNonInt>
    3462:	480c      	ldr	r0, [pc, #48]	; (3494 <vDebugMemoryFaultHandler+0x140>)
    3464:	f000 f999 	bl	379a <vDebugNonInt>
    3468:	481b      	ldr	r0, [pc, #108]	; (34d8 <vDebugMemoryFaultHandler+0x184>)
    346a:	f000 f996 	bl	379a <vDebugNonInt>
    346e:	9801      	ldr	r0, [sp, #4]
    3470:	f7ff fd4a 	bl	2f08 <vPrintConfigurableFaultStatusRegisterBitFields>
    3474:	4b19      	ldr	r3, [pc, #100]	; (34dc <vDebugMemoryFaultHandler+0x188>)
    3476:	681b      	ldr	r3, [r3, #0]
    3478:	07db      	lsls	r3, r3, #31
    347a:	d500      	bpl.n	347e <vDebugMemoryFaultHandler+0x12a>
    347c:	be00      	bkpt	0x0000
    347e:	f3ef 8008 	mrs	r0, MSP
    3482:	f7ff fc77 	bl	2d74 <ExceptionUnwindStack>
    3486:	bf00      	nop
    3488:	00008c7e 	.word	0x00008c7e
    348c:	00008aeb 	.word	0x00008aeb
    3490:	00008b0f 	.word	0x00008b0f
    3494:	00008b0c 	.word	0x00008b0c
    3498:	00008b17 	.word	0x00008b17
    349c:	00008b1f 	.word	0x00008b1f
    34a0:	00008b27 	.word	0x00008b27
    34a4:	00008b2f 	.word	0x00008b2f
    34a8:	00008b38 	.word	0x00008b38
    34ac:	00008b46 	.word	0x00008b46
    34b0:	00008b6a 	.word	0x00008b6a
    34b4:	00008b78 	.word	0x00008b78
    34b8:	00008b8d 	.word	0x00008b8d
    34bc:	e000ed24 	.word	0xe000ed24
    34c0:	00008b96 	.word	0x00008b96
    34c4:	00008bba 	.word	0x00008bba
    34c8:	e000ed34 	.word	0xe000ed34
    34cc:	00008ca3 	.word	0x00008ca3
    34d0:	e000ed28 	.word	0xe000ed28
    34d4:	00008c06 	.word	0x00008c06
    34d8:	00008c29 	.word	0x00008c29
    34dc:	e000edf0 	.word	0xe000edf0

000034e0 <vPrintHardFaultStatusRegisterBitFields>:
    34e0:	b510      	push	{r4, lr}
    34e2:	4604      	mov	r4, r0
    34e4:	480c      	ldr	r0, [pc, #48]	; (3518 <vPrintHardFaultStatusRegisterBitFields+0x38>)
    34e6:	f000 f958 	bl	379a <vDebugNonInt>
    34ea:	480c      	ldr	r0, [pc, #48]	; (351c <vPrintHardFaultStatusRegisterBitFields+0x3c>)
    34ec:	f000 f955 	bl	379a <vDebugNonInt>
    34f0:	f004 0002 	and.w	r0, r4, #2
    34f4:	f7ff fc9a 	bl	2e2c <vPrintRegisterBit>
    34f8:	4809      	ldr	r0, [pc, #36]	; (3520 <vPrintHardFaultStatusRegisterBitFields+0x40>)
    34fa:	f000 f94e 	bl	379a <vDebugNonInt>
    34fe:	f004 4080 	and.w	r0, r4, #1073741824	; 0x40000000
    3502:	f7ff fc93 	bl	2e2c <vPrintRegisterBit>
    3506:	4807      	ldr	r0, [pc, #28]	; (3524 <vPrintHardFaultStatusRegisterBitFields+0x44>)
    3508:	f000 f947 	bl	379a <vDebugNonInt>
    350c:	f004 4000 	and.w	r0, r4, #2147483648	; 0x80000000
    3510:	e8bd 4010 	ldmia.w	sp!, {r4, lr}
    3514:	f7ff bc8a 	b.w	2e2c <vPrintRegisterBit>
    3518:	00008cc4 	.word	0x00008cc4
    351c:	00008ce0 	.word	0x00008ce0
    3520:	00008ceb 	.word	0x00008ceb
    3524:	00008cf5 	.word	0x00008cf5

00003528 <vDebugHardFaultHandler>:
    3528:	e92d 4887 	stmdb	sp!, {r0, r1, r2, r7, fp, lr}
    352c:	e9d0 9802 	ldrd	r9, r8, [r0, #8]
    3530:	e9d0 ba00 	ldrd	fp, sl, [r0]
    3534:	e9d0 7604 	ldrd	r7, r6, [r0, #16]
    3538:	e9d0 5406 	ldrd	r5, r4, [r0, #24]
    353c:	4865      	ldr	r0, [pc, #404]	; (36d4 <vDebugHardFaultHandler+0x1ac>)
    353e:	f000 f92c 	bl	379a <vDebugNonInt>
    3542:	4865      	ldr	r0, [pc, #404]	; (36d8 <vDebugHardFaultHandler+0x1b0>)
    3544:	f000 f929 	bl	379a <vDebugNonInt>
    3548:	4864      	ldr	r0, [pc, #400]	; (36dc <vDebugHardFaultHandler+0x1b4>)
    354a:	f000 f926 	bl	379a <vDebugNonInt>
    354e:	2108      	movs	r1, #8
    3550:	4658      	mov	r0, fp
    3552:	f000 f924 	bl	379e <vDebugHexNonInt>
    3556:	4862      	ldr	r0, [pc, #392]	; (36e0 <vDebugHardFaultHandler+0x1b8>)
    3558:	f000 f91f 	bl	379a <vDebugNonInt>
    355c:	4861      	ldr	r0, [pc, #388]	; (36e4 <vDebugHardFaultHandler+0x1bc>)
    355e:	f000 f91c 	bl	379a <vDebugNonInt>
    3562:	2108      	movs	r1, #8
    3564:	4650      	mov	r0, sl
    3566:	f000 f91a 	bl	379e <vDebugHexNonInt>
    356a:	485d      	ldr	r0, [pc, #372]	; (36e0 <vDebugHardFaultHandler+0x1b8>)
    356c:	f000 f915 	bl	379a <vDebugNonInt>
    3570:	485d      	ldr	r0, [pc, #372]	; (36e8 <vDebugHardFaultHandler+0x1c0>)
    3572:	f000 f912 	bl	379a <vDebugNonInt>
    3576:	2108      	movs	r1, #8
    3578:	4648      	mov	r0, r9
    357a:	f000 f910 	bl	379e <vDebugHexNonInt>
    357e:	4858      	ldr	r0, [pc, #352]	; (36e0 <vDebugHardFaultHandler+0x1b8>)
    3580:	f000 f90b 	bl	379a <vDebugNonInt>
    3584:	4859      	ldr	r0, [pc, #356]	; (36ec <vDebugHardFaultHandler+0x1c4>)
    3586:	f000 f908 	bl	379a <vDebugNonInt>
    358a:	2108      	movs	r1, #8
    358c:	4640      	mov	r0, r8
    358e:	f000 f906 	bl	379e <vDebugHexNonInt>
    3592:	4853      	ldr	r0, [pc, #332]	; (36e0 <vDebugHardFaultHandler+0x1b8>)
    3594:	f000 f901 	bl	379a <vDebugNonInt>
    3598:	4855      	ldr	r0, [pc, #340]	; (36f0 <vDebugHardFaultHandler+0x1c8>)
    359a:	f000 f8fe 	bl	379a <vDebugNonInt>
    359e:	2108      	movs	r1, #8
    35a0:	4638      	mov	r0, r7
    35a2:	f000 f8fc 	bl	379e <vDebugHexNonInt>
    35a6:	484e      	ldr	r0, [pc, #312]	; (36e0 <vDebugHardFaultHandler+0x1b8>)
    35a8:	f000 f8f7 	bl	379a <vDebugNonInt>
    35ac:	4851      	ldr	r0, [pc, #324]	; (36f4 <vDebugHardFaultHandler+0x1cc>)
    35ae:	f000 f8f4 	bl	379a <vDebugNonInt>
    35b2:	2108      	movs	r1, #8
    35b4:	4630      	mov	r0, r6
    35b6:	f000 f8f2 	bl	379e <vDebugHexNonInt>
    35ba:	484f      	ldr	r0, [pc, #316]	; (36f8 <vDebugHardFaultHandler+0x1d0>)
    35bc:	f000 f8ed 	bl	379a <vDebugNonInt>
    35c0:	484e      	ldr	r0, [pc, #312]	; (36fc <vDebugHardFaultHandler+0x1d4>)
    35c2:	f000 f8ea 	bl	379a <vDebugNonInt>
    35c6:	2108      	movs	r1, #8
    35c8:	4628      	mov	r0, r5
    35ca:	f000 f8e8 	bl	379e <vDebugHexNonInt>
    35ce:	484c      	ldr	r0, [pc, #304]	; (3700 <vDebugHardFaultHandler+0x1d8>)
    35d0:	f000 f8e3 	bl	379a <vDebugNonInt>
    35d4:	484b      	ldr	r0, [pc, #300]	; (3704 <vDebugHardFaultHandler+0x1dc>)
    35d6:	f000 f8e0 	bl	379a <vDebugNonInt>
    35da:	2108      	movs	r1, #8
    35dc:	4620      	mov	r0, r4
    35de:	f000 f8de 	bl	379e <vDebugHexNonInt>
    35e2:	483f      	ldr	r0, [pc, #252]	; (36e0 <vDebugHardFaultHandler+0x1b8>)
    35e4:	f000 f8d9 	bl	379a <vDebugNonInt>
    35e8:	4b47      	ldr	r3, [pc, #284]	; (3708 <vDebugHardFaultHandler+0x1e0>)
    35ea:	4848      	ldr	r0, [pc, #288]	; (370c <vDebugHardFaultHandler+0x1e4>)
    35ec:	681b      	ldr	r3, [r3, #0]
    35ee:	9301      	str	r3, [sp, #4]
    35f0:	f000 f8d3 	bl	379a <vDebugNonInt>
    35f4:	2108      	movs	r1, #8
    35f6:	9801      	ldr	r0, [sp, #4]
    35f8:	f000 f8d1 	bl	379e <vDebugHexNonInt>
    35fc:	4838      	ldr	r0, [pc, #224]	; (36e0 <vDebugHardFaultHandler+0x1b8>)
    35fe:	f000 f8cc 	bl	379a <vDebugNonInt>
    3602:	4843      	ldr	r0, [pc, #268]	; (3710 <vDebugHardFaultHandler+0x1e8>)
    3604:	f000 f8c9 	bl	379a <vDebugNonInt>
    3608:	9801      	ldr	r0, [sp, #4]
    360a:	f7ff fc19 	bl	2e40 <vPrintSystemHandlerAndControlStateRegisterBitFields>
    360e:	4b41      	ldr	r3, [pc, #260]	; (3714 <vDebugHardFaultHandler+0x1ec>)
    3610:	4841      	ldr	r0, [pc, #260]	; (3718 <vDebugHardFaultHandler+0x1f0>)
    3612:	681b      	ldr	r3, [r3, #0]
    3614:	9301      	str	r3, [sp, #4]
    3616:	f000 f8c0 	bl	379a <vDebugNonInt>
    361a:	2108      	movs	r1, #8
    361c:	9801      	ldr	r0, [sp, #4]
    361e:	f000 f8be 	bl	379e <vDebugHexNonInt>
    3622:	482f      	ldr	r0, [pc, #188]	; (36e0 <vDebugHardFaultHandler+0x1b8>)
    3624:	f000 f8b9 	bl	379a <vDebugNonInt>
    3628:	4b3c      	ldr	r3, [pc, #240]	; (371c <vDebugHardFaultHandler+0x1f4>)
    362a:	483d      	ldr	r0, [pc, #244]	; (3720 <vDebugHardFaultHandler+0x1f8>)
    362c:	681b      	ldr	r3, [r3, #0]
    362e:	9301      	str	r3, [sp, #4]
    3630:	f000 f8b3 	bl	379a <vDebugNonInt>
    3634:	2108      	movs	r1, #8
    3636:	9801      	ldr	r0, [sp, #4]
    3638:	f000 f8b1 	bl	379e <vDebugHexNonInt>
    363c:	4828      	ldr	r0, [pc, #160]	; (36e0 <vDebugHardFaultHandler+0x1b8>)
    363e:	f000 f8ac 	bl	379a <vDebugNonInt>
    3642:	4b38      	ldr	r3, [pc, #224]	; (3724 <vDebugHardFaultHandler+0x1fc>)
    3644:	4838      	ldr	r0, [pc, #224]	; (3728 <vDebugHardFaultHandler+0x200>)
    3646:	681b      	ldr	r3, [r3, #0]
    3648:	9301      	str	r3, [sp, #4]
    364a:	f000 f8a6 	bl	379a <vDebugNonInt>
    364e:	2108      	movs	r1, #8
    3650:	9801      	ldr	r0, [sp, #4]
    3652:	f000 f8a4 	bl	379e <vDebugHexNonInt>
    3656:	4822      	ldr	r0, [pc, #136]	; (36e0 <vDebugHardFaultHandler+0x1b8>)
    3658:	f000 f89f 	bl	379a <vDebugNonInt>
    365c:	4833      	ldr	r0, [pc, #204]	; (372c <vDebugHardFaultHandler+0x204>)
    365e:	f000 f89c 	bl	379a <vDebugNonInt>
    3662:	9801      	ldr	r0, [sp, #4]
    3664:	f7ff fc50 	bl	2f08 <vPrintConfigurableFaultStatusRegisterBitFields>
    3668:	4b31      	ldr	r3, [pc, #196]	; (3730 <vDebugHardFaultHandler+0x208>)
    366a:	4832      	ldr	r0, [pc, #200]	; (3734 <vDebugHardFaultHandler+0x20c>)
    366c:	681b      	ldr	r3, [r3, #0]
    366e:	9301      	str	r3, [sp, #4]
    3670:	f000 f893 	bl	379a <vDebugNonInt>
    3674:	2108      	movs	r1, #8
    3676:	9801      	ldr	r0, [sp, #4]
    3678:	f000 f891 	bl	379e <vDebugHexNonInt>
    367c:	4818      	ldr	r0, [pc, #96]	; (36e0 <vDebugHardFaultHandler+0x1b8>)
    367e:	f000 f88c 	bl	379a <vDebugNonInt>
    3682:	482d      	ldr	r0, [pc, #180]	; (3738 <vDebugHardFaultHandler+0x210>)
    3684:	f000 f889 	bl	379a <vDebugNonInt>
    3688:	9801      	ldr	r0, [sp, #4]
    368a:	f7ff ff29 	bl	34e0 <vPrintHardFaultStatusRegisterBitFields>
    368e:	4b2b      	ldr	r3, [pc, #172]	; (373c <vDebugHardFaultHandler+0x214>)
    3690:	482b      	ldr	r0, [pc, #172]	; (3740 <vDebugHardFaultHandler+0x218>)
    3692:	681b      	ldr	r3, [r3, #0]
    3694:	9301      	str	r3, [sp, #4]
    3696:	f000 f880 	bl	379a <vDebugNonInt>
    369a:	2108      	movs	r1, #8
    369c:	9801      	ldr	r0, [sp, #4]
    369e:	f000 f87e 	bl	379e <vDebugHexNonInt>
    36a2:	480f      	ldr	r0, [pc, #60]	; (36e0 <vDebugHardFaultHandler+0x1b8>)
    36a4:	f000 f879 	bl	379a <vDebugNonInt>
    36a8:	4b26      	ldr	r3, [pc, #152]	; (3744 <vDebugHardFaultHandler+0x21c>)
    36aa:	4827      	ldr	r0, [pc, #156]	; (3748 <vDebugHardFaultHandler+0x220>)
    36ac:	681b      	ldr	r3, [r3, #0]
    36ae:	9301      	str	r3, [sp, #4]
    36b0:	f000 f873 	bl	379a <vDebugNonInt>
    36b4:	9801      	ldr	r0, [sp, #4]
    36b6:	2108      	movs	r1, #8
    36b8:	f000 f871 	bl	379e <vDebugHexNonInt>
    36bc:	4808      	ldr	r0, [pc, #32]	; (36e0 <vDebugHardFaultHandler+0x1b8>)
    36be:	f000 f86c 	bl	379a <vDebugNonInt>
    36c2:	4b22      	ldr	r3, [pc, #136]	; (374c <vDebugHardFaultHandler+0x224>)
    36c4:	681b      	ldr	r3, [r3, #0]
    36c6:	07db      	lsls	r3, r3, #31
    36c8:	d500      	bpl.n	36cc <vDebugHardFaultHandler+0x1a4>
    36ca:	be00      	bkpt	0x0000
    36cc:	f3ef 8008 	mrs	r0, MSP
    36d0:	f7ff fb50 	bl	2d74 <ExceptionUnwindStack>
    36d4:	00008d01 	.word	0x00008d01
    36d8:	00008aeb 	.word	0x00008aeb
    36dc:	00008b0f 	.word	0x00008b0f
    36e0:	00008b0c 	.word	0x00008b0c
    36e4:	00008b17 	.word	0x00008b17
    36e8:	00008b1f 	.word	0x00008b1f
    36ec:	00008b27 	.word	0x00008b27
    36f0:	00008b2f 	.word	0x00008b2f
    36f4:	00008b38 	.word	0x00008b38
    36f8:	00008b46 	.word	0x00008b46
    36fc:	00008b6a 	.word	0x00008b6a
    3700:	00008b78 	.word	0x00008b78
    3704:	00008b8d 	.word	0x00008b8d
    3708:	e000ed24 	.word	0xe000ed24
    370c:	00008b96 	.word	0x00008b96
    3710:	00008bba 	.word	0x00008bba
    3714:	e000ed38 	.word	0xe000ed38
    3718:	00008bec 	.word	0x00008bec
    371c:	e000ed34 	.word	0xe000ed34
    3720:	00008ca3 	.word	0x00008ca3
    3724:	e000ed28 	.word	0xe000ed28
    3728:	00008c06 	.word	0x00008c06
    372c:	00008c29 	.word	0x00008c29
    3730:	e000ed2c 	.word	0xe000ed2c
    3734:	00008d24 	.word	0x00008d24
    3738:	00008d3e 	.word	0x00008d3e
    373c:	e000ed30 	.word	0xe000ed30
    3740:	00008d66 	.word	0x00008d66
    3744:	e000ed3c 	.word	0xe000ed3c
    3748:	00008d82 	.word	0x00008d82
    374c:	e000edf0 	.word	0xe000edf0

00003750 <vDebugInit>:
    3750:	4770      	bx	lr

00003752 <vDebugHex>:
    3752:	b57f      	push	{r0, r1, r2, r3, r4, r5, r6, lr}
    3754:	0089      	lsls	r1, r1, #2
    3756:	ac01      	add	r4, sp, #4
    3758:	4605      	mov	r5, r0
    375a:	1f0b      	subs	r3, r1, #4
    375c:	4620      	mov	r0, r4
    375e:	2b00      	cmp	r3, #0
    3760:	da0d      	bge.n	377e <vDebugHex+0x2c>
    3762:	2900      	cmp	r1, #0
    3764:	ea4f 0391 	mov.w	r3, r1, lsr #2
    3768:	aa04      	add	r2, sp, #16
    376a:	bfb8      	it	lt
    376c:	2300      	movlt	r3, #0
    376e:	4413      	add	r3, r2
    3770:	2200      	movs	r2, #0
    3772:	f803 2c0c 	strb.w	r2, [r3, #-12]
    3776:	f7fd fe8d 	bl	1494 <DbgConsole_Printf>
    377a:	b004      	add	sp, #16
    377c:	bd70      	pop	{r4, r5, r6, pc}
    377e:	fa25 f203 	lsr.w	r2, r5, r3
    3782:	f002 020f 	and.w	r2, r2, #15
    3786:	f102 0630 	add.w	r6, r2, #48	; 0x30
    378a:	2e39      	cmp	r6, #57	; 0x39
    378c:	bf88      	it	hi
    378e:	f102 0637 	addhi.w	r6, r2, #55	; 0x37
    3792:	f804 6b01 	strb.w	r6, [r4], #1
    3796:	3b04      	subs	r3, #4
    3798:	e7e1      	b.n	375e <vDebugHex+0xc>

0000379a <vDebugNonInt>:
    379a:	f7fd be7b 	b.w	1494 <DbgConsole_Printf>

0000379e <vDebugHexNonInt>:
    379e:	f7ff bfd8 	b.w	3752 <vDebugHex>

000037a2 <FLib_MemCpy>:
    37a2:	3901      	subs	r1, #1
    37a4:	4402      	add	r2, r0
    37a6:	4290      	cmp	r0, r2
    37a8:	d100      	bne.n	37ac <FLib_MemCpy+0xa>
    37aa:	4770      	bx	lr
    37ac:	f811 3f01 	ldrb.w	r3, [r1, #1]!
    37b0:	f800 3b01 	strb.w	r3, [r0], #1
    37b4:	e7f7      	b.n	37a6 <FLib_MemCpy+0x4>

000037b6 <FLib_MemCmp>:
    37b6:	b530      	push	{r4, r5, lr}
    37b8:	2300      	movs	r3, #0
    37ba:	3901      	subs	r1, #1
    37bc:	429a      	cmp	r2, r3
    37be:	d101      	bne.n	37c4 <FLib_MemCmp+0xe>
    37c0:	2001      	movs	r0, #1
    37c2:	bd30      	pop	{r4, r5, pc}
    37c4:	5cc4      	ldrb	r4, [r0, r3]
    37c6:	3301      	adds	r3, #1
    37c8:	5ccd      	ldrb	r5, [r1, r3]
    37ca:	42a5      	cmp	r5, r4
    37cc:	d0f6      	beq.n	37bc <FLib_MemCmp+0x6>
    37ce:	2000      	movs	r0, #0
    37d0:	e7f7      	b.n	37c2 <FLib_MemCmp+0xc>
    37d2:	Address 0x000037d2 is out of bounds.


000037d4 <AES_128_ECB_Encrypt>:
    37d4:	b570      	push	{r4, r5, r6, lr}
    37d6:	460e      	mov	r6, r1
    37d8:	4604      	mov	r4, r0
    37da:	461d      	mov	r5, r3
    37dc:	4611      	mov	r1, r2
    37de:	b11a      	cbz	r2, 37e8 <AES_128_ECB_Encrypt+0x14>
    37e0:	4805      	ldr	r0, [pc, #20]	; (37f8 <AES_128_ECB_Encrypt+0x24>)
    37e2:	2210      	movs	r2, #16
    37e4:	f7ff f924 	bl	2a30 <AES_SetKey>
    37e8:	4633      	mov	r3, r6
    37ea:	462a      	mov	r2, r5
    37ec:	4621      	mov	r1, r4
    37ee:	4802      	ldr	r0, [pc, #8]	; (37f8 <AES_128_ECB_Encrypt+0x24>)
    37f0:	e8bd 4070 	ldmia.w	sp!, {r4, r5, r6, lr}
    37f4:	f7ff b94a 	b.w	2a8c <AES_EncryptEcb>
    37f8:	40086000 	.word	0x40086000

000037fc <bACI_WriteKey>:
    37fc:	b508      	push	{r3, lr}
    37fe:	4601      	mov	r1, r0
    3800:	2210      	movs	r2, #16
    3802:	4802      	ldr	r0, [pc, #8]	; (380c <bACI_WriteKey+0x10>)
    3804:	f7ff ffcd 	bl	37a2 <FLib_MemCpy>
    3808:	2001      	movs	r0, #1
    380a:	bd08      	pop	{r3, pc}
    380c:	04015f00 	.word	0x04015f00

00003810 <vACI_OptimisedCcmStar>:
    3810:	e92d 4ff0 	stmdb	sp!, {r4, r5, r6, r7, r8, r9, sl, fp, lr}
    3814:	b08f      	sub	sp, #60	; 0x3c
    3816:	2910      	cmp	r1, #16
    3818:	9d18      	ldr	r5, [sp, #96]	; 0x60
    381a:	9001      	str	r0, [sp, #4]
    381c:	4616      	mov	r6, r2
    381e:	4698      	mov	r8, r3
    3820:	f200 8102 	bhi.w	3a28 <vACI_OptimisedCcmStar+0x218>
    3824:	f001 04fe 	and.w	r4, r1, #254	; 0xfe
    3828:	4603      	mov	r3, r0
    382a:	2800      	cmp	r0, #0
    382c:	d170      	bne.n	3910 <vACI_OptimisedCcmStar+0x100>
    382e:	2700      	movs	r7, #0
    3830:	2301      	movs	r3, #1
    3832:	f8dd a068 	ldr.w	sl, [sp, #104]	; 0x68
    3836:	4a7f      	ldr	r2, [pc, #508]	; (3a34 <vACI_OptimisedCcmStar+0x224>)
    3838:	702b      	strb	r3, [r5, #0]
    383a:	73af      	strb	r7, [r5, #14]
    383c:	46b9      	mov	r9, r7
    383e:	45b8      	cmp	r8, r7
    3840:	dc4e      	bgt.n	38e0 <vACI_OptimisedCcmStar+0xd0>
    3842:	2c00      	cmp	r4, #0
    3844:	d040      	beq.n	38c8 <vACI_OptimisedCcmStar+0xb8>
    3846:	2700      	movs	r7, #0
    3848:	ab02      	add	r3, sp, #8
    384a:	2110      	movs	r1, #16
    384c:	4a79      	ldr	r2, [pc, #484]	; (3a34 <vACI_OptimisedCcmStar+0x224>)
    384e:	81ef      	strh	r7, [r5, #14]
    3850:	4628      	mov	r0, r5
    3852:	f7ff ffbf 	bl	37d4 <AES_128_ECB_Encrypt>
    3856:	ab02      	add	r3, sp, #8
    3858:	a90a      	add	r1, sp, #40	; 0x28
    385a:	981b      	ldr	r0, [sp, #108]	; 0x6c
    385c:	f813 2b01 	ldrb.w	r2, [r3], #1
    3860:	5dc0      	ldrb	r0, [r0, r7]
    3862:	3701      	adds	r7, #1
    3864:	4042      	eors	r2, r0
    3866:	42bc      	cmp	r4, r7
    3868:	f801 2b01 	strb.w	r2, [r1], #1
    386c:	dcf5      	bgt.n	385a <vACI_OptimisedCcmStar+0x4a>
    386e:	2e00      	cmp	r6, #0
    3870:	bf14      	ite	ne
    3872:	2340      	movne	r3, #64	; 0x40
    3874:	2300      	moveq	r3, #0
    3876:	eb03 0384 	add.w	r3, r3, r4, lsl #2
    387a:	3b07      	subs	r3, #7
    387c:	702b      	strb	r3, [r5, #0]
    387e:	2300      	movs	r3, #0
    3880:	73ab      	strb	r3, [r5, #14]
    3882:	4a6c      	ldr	r2, [pc, #432]	; (3a34 <vACI_OptimisedCcmStar+0x224>)
    3884:	f885 800f 	strb.w	r8, [r5, #15]
    3888:	ab02      	add	r3, sp, #8
    388a:	2110      	movs	r1, #16
    388c:	4628      	mov	r0, r5
    388e:	f7ff ffa1 	bl	37d4 <AES_128_ECB_Encrypt>
    3892:	2e00      	cmp	r6, #0
    3894:	d062      	beq.n	395c <vACI_OptimisedCcmStar+0x14c>
    3896:	f89d 3009 	ldrb.w	r3, [sp, #9]
    389a:	4073      	eors	r3, r6
    389c:	f88d 3009 	strb.w	r3, [sp, #9]
    38a0:	2302      	movs	r3, #2
    38a2:	f8df 9194 	ldr.w	r9, [pc, #404]	; 3a38 <vACI_OptimisedCcmStar+0x228>
    38a6:	f8df a18c 	ldr.w	sl, [pc, #396]	; 3a34 <vACI_OptimisedCcmStar+0x224>
    38aa:	2700      	movs	r7, #0
    38ac:	42be      	cmp	r6, r7
    38ae:	dc57      	bgt.n	3960 <vACI_OptimisedCcmStar+0x150>
    38b0:	4f60      	ldr	r7, [pc, #384]	; (3a34 <vACI_OptimisedCcmStar+0x224>)
    38b2:	2600      	movs	r6, #0
    38b4:	45b0      	cmp	r8, r6
    38b6:	f300 8083 	bgt.w	39c0 <vACI_OptimisedCcmStar+0x1b0>
    38ba:	4622      	mov	r2, r4
    38bc:	a902      	add	r1, sp, #8
    38be:	a806      	add	r0, sp, #24
    38c0:	f7ff ff6f 	bl	37a2 <FLib_MemCpy>
    38c4:	9b01      	ldr	r3, [sp, #4]
    38c6:	bb2b      	cbnz	r3, 3914 <vACI_OptimisedCcmStar+0x104>
    38c8:	4622      	mov	r2, r4
    38ca:	a90a      	add	r1, sp, #40	; 0x28
    38cc:	a806      	add	r0, sp, #24
    38ce:	f7ff ff72 	bl	37b6 <FLib_MemCmp>
    38d2:	2800      	cmp	r0, #0
    38d4:	f000 80a5 	beq.w	3a22 <vACI_OptimisedCcmStar+0x212>
    38d8:	9a1c      	ldr	r2, [sp, #112]	; 0x70
    38da:	2301      	movs	r3, #1
    38dc:	7013      	strb	r3, [r2, #0]
    38de:	e03a      	b.n	3956 <vACI_OptimisedCcmStar+0x146>
    38e0:	f017 0b0f 	ands.w	fp, r7, #15
    38e4:	d109      	bne.n	38fa <vACI_OptimisedCcmStar+0xea>
    38e6:	f109 0901 	add.w	r9, r9, #1
    38ea:	f885 900f 	strb.w	r9, [r5, #15]
    38ee:	ab02      	add	r3, sp, #8
    38f0:	2110      	movs	r1, #16
    38f2:	4628      	mov	r0, r5
    38f4:	f7ff ff6e 	bl	37d4 <AES_128_ECB_Encrypt>
    38f8:	4a4e      	ldr	r2, [pc, #312]	; (3a34 <vACI_OptimisedCcmStar+0x224>)
    38fa:	ab0e      	add	r3, sp, #56	; 0x38
    38fc:	449b      	add	fp, r3
    38fe:	f89a 3000 	ldrb.w	r3, [sl]
    3902:	f81b 1c30 	ldrb.w	r1, [fp, #-48]
    3906:	404b      	eors	r3, r1
    3908:	f80a 3b01 	strb.w	r3, [sl], #1
    390c:	3701      	adds	r7, #1
    390e:	e796      	b.n	383e <vACI_OptimisedCcmStar+0x2e>
    3910:	2c00      	cmp	r4, #0
    3912:	d1ac      	bne.n	386e <vACI_OptimisedCcmStar+0x5e>
    3914:	2600      	movs	r6, #0
    3916:	2301      	movs	r3, #1
    3918:	f8df a118 	ldr.w	sl, [pc, #280]	; 3a34 <vACI_OptimisedCcmStar+0x224>
    391c:	702b      	strb	r3, [r5, #0]
    391e:	73ae      	strb	r6, [r5, #14]
    3920:	4637      	mov	r7, r6
    3922:	45b0      	cmp	r8, r6
    3924:	dc65      	bgt.n	39f2 <vACI_OptimisedCcmStar+0x1e2>
    3926:	2300      	movs	r3, #0
    3928:	81eb      	strh	r3, [r5, #14]
    392a:	b1a4      	cbz	r4, 3956 <vACI_OptimisedCcmStar+0x146>
    392c:	4a41      	ldr	r2, [pc, #260]	; (3a34 <vACI_OptimisedCcmStar+0x224>)
    392e:	ab02      	add	r3, sp, #8
    3930:	4628      	mov	r0, r5
    3932:	2110      	movs	r1, #16
    3934:	f7ff ff4e 	bl	37d4 <AES_128_ECB_Encrypt>
    3938:	9a1b      	ldr	r2, [sp, #108]	; 0x6c
    393a:	a806      	add	r0, sp, #24
    393c:	ab02      	add	r3, sp, #8
    393e:	4414      	add	r4, r2
    3940:	f813 1b01 	ldrb.w	r1, [r3], #1
    3944:	f810 2b01 	ldrb.w	r2, [r0], #1
    3948:	404a      	eors	r2, r1
    394a:	991b      	ldr	r1, [sp, #108]	; 0x6c
    394c:	f801 2b01 	strb.w	r2, [r1], #1
    3950:	42a1      	cmp	r1, r4
    3952:	911b      	str	r1, [sp, #108]	; 0x6c
    3954:	d1f4      	bne.n	3940 <vACI_OptimisedCcmStar+0x130>
    3956:	b00f      	add	sp, #60	; 0x3c
    3958:	e8bd 8ff0 	ldmia.w	sp!, {r4, r5, r6, r7, r8, r9, sl, fp, pc}
    395c:	4633      	mov	r3, r6
    395e:	e7a0      	b.n	38a2 <vACI_OptimisedCcmStar+0x92>
    3960:	aa0e      	add	r2, sp, #56	; 0x38
    3962:	18d1      	adds	r1, r2, r3
    3964:	9819      	ldr	r0, [sp, #100]	; 0x64
    3966:	f811 2c30 	ldrb.w	r2, [r1, #-48]
    396a:	5dc0      	ldrb	r0, [r0, r7]
    396c:	3301      	adds	r3, #1
    396e:	4042      	eors	r2, r0
    3970:	2b10      	cmp	r3, #16
    3972:	f801 2c30 	strb.w	r2, [r1, #-48]
    3976:	d002      	beq.n	397e <vACI_OptimisedCcmStar+0x16e>
    3978:	1e72      	subs	r2, r6, #1
    397a:	42ba      	cmp	r2, r7
    397c:	d11e      	bne.n	39bc <vACI_OptimisedCcmStar+0x1ac>
    397e:	f899 2000 	ldrb.w	r2, [r9]
    3982:	b1a2      	cbz	r2, 39ae <vACI_OptimisedCcmStar+0x19e>
    3984:	2b02      	cmp	r3, #2
    3986:	dc12      	bgt.n	39ae <vACI_OptimisedCcmStar+0x19e>
    3988:	9a19      	ldr	r2, [sp, #100]	; 0x64
    398a:	f1a6 030f 	sub.w	r3, r6, #15
    398e:	f003 03fe 	and.w	r3, r3, #254	; 0xfe
    3992:	4413      	add	r3, r2
    3994:	f10d 010a 	add.w	r1, sp, #10
    3998:	f103 000e 	add.w	r0, r3, #14
    399c:	780a      	ldrb	r2, [r1, #0]
    399e:	f813 cb01 	ldrb.w	ip, [r3], #1
    39a2:	ea82 020c 	eor.w	r2, r2, ip
    39a6:	4298      	cmp	r0, r3
    39a8:	f801 2b01 	strb.w	r2, [r1], #1
    39ac:	d1f6      	bne.n	399c <vACI_OptimisedCcmStar+0x18c>
    39ae:	ab02      	add	r3, sp, #8
    39b0:	4618      	mov	r0, r3
    39b2:	4652      	mov	r2, sl
    39b4:	2110      	movs	r1, #16
    39b6:	f7ff ff0d 	bl	37d4 <AES_128_ECB_Encrypt>
    39ba:	2300      	movs	r3, #0
    39bc:	3701      	adds	r7, #1
    39be:	e775      	b.n	38ac <vACI_OptimisedCcmStar+0x9c>
    39c0:	aa0e      	add	r2, sp, #56	; 0x38
    39c2:	18d1      	adds	r1, r2, r3
    39c4:	981a      	ldr	r0, [sp, #104]	; 0x68
    39c6:	f811 2c30 	ldrb.w	r2, [r1, #-48]
    39ca:	5d80      	ldrb	r0, [r0, r6]
    39cc:	3301      	adds	r3, #1
    39ce:	4042      	eors	r2, r0
    39d0:	2b10      	cmp	r3, #16
    39d2:	f801 2c30 	strb.w	r2, [r1, #-48]
    39d6:	d003      	beq.n	39e0 <vACI_OptimisedCcmStar+0x1d0>
    39d8:	f108 32ff 	add.w	r2, r8, #4294967295
    39dc:	42b2      	cmp	r2, r6
    39de:	d106      	bne.n	39ee <vACI_OptimisedCcmStar+0x1de>
    39e0:	ab02      	add	r3, sp, #8
    39e2:	4618      	mov	r0, r3
    39e4:	463a      	mov	r2, r7
    39e6:	2110      	movs	r1, #16
    39e8:	f7ff fef4 	bl	37d4 <AES_128_ECB_Encrypt>
    39ec:	2300      	movs	r3, #0
    39ee:	3601      	adds	r6, #1
    39f0:	e760      	b.n	38b4 <vACI_OptimisedCcmStar+0xa4>
    39f2:	f016 090f 	ands.w	r9, r6, #15
    39f6:	d107      	bne.n	3a08 <vACI_OptimisedCcmStar+0x1f8>
    39f8:	3701      	adds	r7, #1
    39fa:	73ef      	strb	r7, [r5, #15]
    39fc:	ab02      	add	r3, sp, #8
    39fe:	4652      	mov	r2, sl
    3a00:	2110      	movs	r1, #16
    3a02:	4628      	mov	r0, r5
    3a04:	f7ff fee6 	bl	37d4 <AES_128_ECB_Encrypt>
    3a08:	ab0e      	add	r3, sp, #56	; 0x38
    3a0a:	4499      	add	r9, r3
    3a0c:	9b1a      	ldr	r3, [sp, #104]	; 0x68
    3a0e:	f819 2c30 	ldrb.w	r2, [r9, #-48]
    3a12:	781b      	ldrb	r3, [r3, #0]
    3a14:	4053      	eors	r3, r2
    3a16:	9a1a      	ldr	r2, [sp, #104]	; 0x68
    3a18:	f802 3b01 	strb.w	r3, [r2], #1
    3a1c:	3601      	adds	r6, #1
    3a1e:	921a      	str	r2, [sp, #104]	; 0x68
    3a20:	e77f      	b.n	3922 <vACI_OptimisedCcmStar+0x112>
    3a22:	9b1c      	ldr	r3, [sp, #112]	; 0x70
    3a24:	7018      	strb	r0, [r3, #0]
    3a26:	e796      	b.n	3956 <vACI_OptimisedCcmStar+0x146>
    3a28:	9b01      	ldr	r3, [sp, #4]
    3a2a:	2410      	movs	r4, #16
    3a2c:	2b00      	cmp	r3, #0
    3a2e:	f47f af1e 	bne.w	386e <vACI_OptimisedCcmStar+0x5e>
    3a32:	e6fc      	b.n	382e <vACI_OptimisedCcmStar+0x1e>
    3a34:	04015f00 	.word	0x04015f00
    3a38:	04015efd 	.word	0x04015efd

00003a3c <CTIMER_GenericIRQHandler>:
    3a3c:	4b14      	ldr	r3, [pc, #80]	; (3a90 <CTIMER_GenericIRQHandler+0x54>)
    3a3e:	e92d 41f0 	stmdb	sp!, {r4, r5, r6, r7, r8, lr}
    3a42:	f853 3020 	ldr.w	r3, [r3, r0, lsl #2]
    3a46:	681e      	ldr	r6, [r3, #0]
    3a48:	601e      	str	r6, [r3, #0]
    3a4a:	4b12      	ldr	r3, [pc, #72]	; (3a94 <CTIMER_GenericIRQHandler+0x58>)
    3a4c:	5c1b      	ldrb	r3, [r3, r0]
    3a4e:	4604      	mov	r4, r0
    3a50:	b953      	cbnz	r3, 3a68 <CTIMER_GenericIRQHandler+0x2c>
    3a52:	4b11      	ldr	r3, [pc, #68]	; (3a98 <CTIMER_GenericIRQHandler+0x5c>)
    3a54:	f853 3020 	ldr.w	r3, [r3, r0, lsl #2]
    3a58:	681b      	ldr	r3, [r3, #0]
    3a5a:	b10b      	cbz	r3, 3a60 <CTIMER_GenericIRQHandler+0x24>
    3a5c:	4630      	mov	r0, r6
    3a5e:	4798      	blx	r3
    3a60:	f3bf 8f4f 	dsb	sy
    3a64:	e8bd 81f0 	ldmia.w	sp!, {r4, r5, r6, r7, r8, pc}
    3a68:	f8df 802c 	ldr.w	r8, [pc, #44]	; 3a98 <CTIMER_GenericIRQHandler+0x5c>
    3a6c:	2500      	movs	r5, #0
    3a6e:	2701      	movs	r7, #1
    3a70:	fa07 f305 	lsl.w	r3, r7, r5
    3a74:	4233      	tst	r3, r6
    3a76:	d006      	beq.n	3a86 <CTIMER_GenericIRQHandler+0x4a>
    3a78:	f858 3024 	ldr.w	r3, [r8, r4, lsl #2]
    3a7c:	f853 3025 	ldr.w	r3, [r3, r5, lsl #2]
    3a80:	b10b      	cbz	r3, 3a86 <CTIMER_GenericIRQHandler+0x4a>
    3a82:	4630      	mov	r0, r6
    3a84:	4798      	blx	r3
    3a86:	3501      	adds	r5, #1
    3a88:	2d06      	cmp	r5, #6
    3a8a:	d1f1      	bne.n	3a70 <CTIMER_GenericIRQHandler+0x34>
    3a8c:	e7e8      	b.n	3a60 <CTIMER_GenericIRQHandler+0x24>
    3a8e:	bf00      	nop
    3a90:	00008da4 	.word	0x00008da4
    3a94:	04015f10 	.word	0x04015f10
    3a98:	04015f14 	.word	0x04015f14

00003a9c <CTIMER0_DriverIRQHandler>:
    3a9c:	b508      	push	{r3, lr}
    3a9e:	2000      	movs	r0, #0
    3aa0:	f7ff ffcc 	bl	3a3c <CTIMER_GenericIRQHandler>
    3aa4:	f3bf 8f4f 	dsb	sy
    3aa8:	bd08      	pop	{r3, pc}

00003aaa <CTIMER1_DriverIRQHandler>:
    3aaa:	b508      	push	{r3, lr}
    3aac:	2001      	movs	r0, #1
    3aae:	f7ff ffc5 	bl	3a3c <CTIMER_GenericIRQHandler>
    3ab2:	f3bf 8f4f 	dsb	sy
    3ab6:	bd08      	pop	{r3, pc}

00003ab8 <DMA_GetInstance>:
    3ab8:	b508      	push	{r3, lr}
    3aba:	4b05      	ldr	r3, [pc, #20]	; (3ad0 <DMA_GetInstance+0x18>)
    3abc:	4298      	cmp	r0, r3
    3abe:	d005      	beq.n	3acc <DMA_GetInstance+0x14>
    3ac0:	4b04      	ldr	r3, [pc, #16]	; (3ad4 <DMA_GetInstance+0x1c>)
    3ac2:	4a05      	ldr	r2, [pc, #20]	; (3ad8 <DMA_GetInstance+0x20>)
    3ac4:	4805      	ldr	r0, [pc, #20]	; (3adc <DMA_GetInstance+0x24>)
