
../../../Binaries/GpEhSwitch_OM15082/GpEhSwitch_OM15082.axf:     file format elf32-littlearm


Disassembly of section .text:

00000180 <ResetISR>:
     180:	4804      	ldr	r0, [pc, #16]	; (194 <masterboot+0x4>)
     182:	6800      	ldr	r0, [r0, #0]
     184:	0000      	movs	r0, r0
     186:	d003      	beq.n	190 <masterboot>
     188:	4903      	ldr	r1, [pc, #12]	; (198 <masterboot+0x8>)
     18a:	6809      	ldr	r1, [r1, #0]
     18c:	468d      	mov	sp, r1
     18e:	4700      	bx	r0

00000190 <masterboot>:
     190:	4802      	ldr	r0, [pc, #8]	; (19c <masterboot+0xc>)
     192:	4700      	bx	r0
     194:	40000804 	.word	0x40000804
     198:	40000808 	.word	0x40000808
     19c:	00000233 	.word	0x00000233

000001a0 <ADC_SEQA_IRQHandler>:
     1a0:	e7fe      	b.n	1a0 <ADC_SEQA_IRQHandler>

000001a2 <NMI_Handler>:
     1a2:	e7fe      	b.n	1a2 <NMI_Handler>
     1a4:	e7fe      	b.n	1a4 <NMI_Handler+0x2>
     1a6:	e7fe      	b.n	1a6 <NMI_Handler+0x4>
     1a8:	e7fe      	b.n	1a8 <NMI_Handler+0x6>
     1aa:	e7fe      	b.n	1aa <NMI_Handler+0x8>

000001ac <SVC_Handler>:
     1ac:	e7fe      	b.n	1ac <SVC_Handler>

000001ae <DebugMon_Handler>:
     1ae:	e7fe      	b.n	1ae <DebugMon_Handler>

000001b0 <PendSV_Handler>:
     1b0:	e7fe      	b.n	1b0 <PendSV_Handler>
     1b2:	e7fe      	b.n	1b2 <PendSV_Handler+0x2>

000001b4 <MAC_154_IRQHandler>:
     1b4:	b508      	push	{r3, lr}
     1b6:	4b06      	ldr	r3, [pc, #24]	; (1d0 <MAC_154_IRQHandler+0x1c>)
     1b8:	b113      	cbz	r3, 1c0 <MAC_154_IRQHandler+0xc>
     1ba:	f004 fb43 	bl	4844 <vMMAC_IntHandlerBbc>
     1be:	bd08      	pop	{r3, pc}
     1c0:	4b04      	ldr	r3, [pc, #16]	; (1d4 <MAC_154_IRQHandler+0x20>)
     1c2:	b113      	cbz	r3, 1ca <MAC_154_IRQHandler+0x16>
     1c4:	f007 fbf0 	bl	79a8 <__ZIGBEE_MAC_IRQHandler_veneer>
     1c8:	e7f9      	b.n	1be <MAC_154_IRQHandler+0xa>
     1ca:	f7ff ffe9 	bl	1a0 <ADC_SEQA_IRQHandler>
     1ce:	bf00      	nop
     1d0:	00004845 	.word	0x00004845
     1d4:	03006b65 	.word	0x03006b65

000001d8 <MODEM_154_IRQHandler>:
     1d8:	b508      	push	{r3, lr}
     1da:	4b06      	ldr	r3, [pc, #24]	; (1f4 <MODEM_154_IRQHandler+0x1c>)
     1dc:	b113      	cbz	r3, 1e4 <MODEM_154_IRQHandler+0xc>
     1de:	f004 fb49 	bl	4874 <vMMAC_IntHandlerPhy>
     1e2:	bd08      	pop	{r3, pc}
     1e4:	4b04      	ldr	r3, [pc, #16]	; (1f8 <MODEM_154_IRQHandler+0x20>)
     1e6:	b113      	cbz	r3, 1ee <MODEM_154_IRQHandler+0x16>
     1e8:	f007 fbda 	bl	79a0 <__ZIGBEE_MODEM_IRQHandler_veneer>
     1ec:	e7f9      	b.n	1e2 <MODEM_154_IRQHandler+0xa>
     1ee:	f7ff ffd7 	bl	1a0 <ADC_SEQA_IRQHandler>
     1f2:	bf00      	nop
     1f4:	00004875 	.word	0x00004875
     1f8:	03000151 	.word	0x03000151

000001fc <data_init>:
     1fc:	440a      	add	r2, r1
     1fe:	4291      	cmp	r1, r2
     200:	d205      	bcs.n	20e <INT_STORAGE_SECTOR_SIZE+0xe>
     202:	1a40      	subs	r0, r0, r1
     204:	580b      	ldr	r3, [r1, r0]
     206:	f841 3b04 	str.w	r3, [r1], #4
     20a:	428a      	cmp	r2, r1
     20c:	d8fa      	bhi.n	204 <INT_STORAGE_SECTOR_SIZE+0x4>
     20e:	4770      	bx	lr

00000210 <bss_init>:
     210:	1842      	adds	r2, r0, r1
     212:	4290      	cmp	r0, r2
     214:	4603      	mov	r3, r0
     216:	d20b      	bcs.n	230 <bss_init+0x20>
     218:	3901      	subs	r1, #1
     21a:	f021 0103 	bic.w	r1, r1, #3
     21e:	3104      	adds	r1, #4
     220:	3301      	adds	r3, #1
     222:	429a      	cmp	r2, r3
     224:	bf2c      	ite	cs
     226:	460a      	movcs	r2, r1
     228:	2204      	movcc	r2, #4
     22a:	2100      	movs	r1, #0
     22c:	f007 baf4 	b.w	7818 <memset>
     230:	4770      	bx	lr

00000232 <ResetISR2>:
     232:	b538      	push	{r3, r4, r5, lr}
     234:	4b2f      	ldr	r3, [pc, #188]	; (2f4 <HEAP_SIZE>)
     236:	b98b      	cbnz	r3, 25c <ResetISR2+0x2a>
     238:	4c2f      	ldr	r4, [pc, #188]	; (2f8 <HEAP_SIZE+0x4>)
     23a:	4d30      	ldr	r5, [pc, #192]	; (2fc <HEAP_SIZE+0x8>)
     23c:	42ac      	cmp	r4, r5
     23e:	d34a      	bcc.n	2d6 <ResetISR2+0xa4>
     240:	4c2f      	ldr	r4, [pc, #188]	; (300 <HEAP_SIZE+0xc>)
     242:	4d30      	ldr	r5, [pc, #192]	; (304 <HEAP_SIZE+0x10>)
     244:	42ac      	cmp	r4, r5
     246:	d34d      	bcc.n	2e4 <ResetISR2+0xb2>
     248:	4b2f      	ldr	r3, [pc, #188]	; (308 <HEAP_SIZE+0x14>)
     24a:	4a30      	ldr	r2, [pc, #192]	; (30c <HEAP_SIZE+0x18>)
     24c:	601a      	str	r2, [r3, #0]
     24e:	4b30      	ldr	r3, [pc, #192]	; (310 <HEAP_SIZE+0x1c>)
     250:	b10b      	cbz	r3, 256 <ResetISR2+0x24>
     252:	f001 fc31 	bl	1ab8 <SystemInit>
     256:	f001 fbb3 	bl	19c0 <main>
     25a:	e7fe      	b.n	25a <ResetISR2+0x28>
     25c:	4b2d      	ldr	r3, [pc, #180]	; (314 <HEAP_SIZE+0x20>)
     25e:	6f1c      	ldr	r4, [r3, #112]	; 0x70
     260:	f8d3 50b0 	ldr.w	r5, [r3, #176]	; 0xb0
     264:	4b2c      	ldr	r3, [pc, #176]	; (318 <HEAP_SIZE+0x24>)
     266:	f004 047f 	and.w	r4, r4, #127	; 0x7f
     26a:	4798      	blx	r3
     26c:	2c40      	cmp	r4, #64	; 0x40
     26e:	d1e3      	bne.n	238 <ResetISR2+0x6>
     270:	4b2a      	ldr	r3, [pc, #168]	; (31c <HEAP_SIZE+0x28>)
     272:	402b      	ands	r3, r5
     274:	2b04      	cmp	r3, #4
     276:	d1df      	bne.n	238 <ResetISR2+0x6>
     278:	2802      	cmp	r0, #2
     27a:	d1dd      	bne.n	238 <ResetISR2+0x6>
     27c:	f04f 4380 	mov.w	r3, #1073741824	; 0x40000000
     280:	f8d3 3808 	ldr.w	r3, [r3, #2056]	; 0x808
     284:	b113      	cbz	r3, 28c <ResetISR2+0x5a>
     286:	4928      	ldr	r1, [pc, #160]	; (328 <HEAP_SIZE+0x34>)
     288:	6809      	ldr	r1, [r1, #0]
     28a:	468d      	mov	sp, r1
     28c:	4c24      	ldr	r4, [pc, #144]	; (320 <HEAP_SIZE+0x2c>)
     28e:	b994      	cbnz	r4, 2b6 <ResetISR2+0x84>
     290:	4c24      	ldr	r4, [pc, #144]	; (324 <HEAP_SIZE+0x30>)
     292:	b9dc      	cbnz	r4, 2cc <ResetISR2+0x9a>
     294:	4b1c      	ldr	r3, [pc, #112]	; (308 <HEAP_SIZE+0x14>)
     296:	4a1d      	ldr	r2, [pc, #116]	; (30c <HEAP_SIZE+0x18>)
     298:	601a      	str	r2, [r3, #0]
     29a:	4b1d      	ldr	r3, [pc, #116]	; (310 <HEAP_SIZE+0x1c>)
     29c:	b9c3      	cbnz	r3, 2d0 <ResetISR2+0x9e>
     29e:	f003 fcd3 	bl	3c48 <WarmMain>
     2a2:	e7fe      	b.n	2a2 <ResetISR2+0x70>
     2a4:	e9d4 0100 	ldrd	r0, r1, [r4]
     2a8:	68a2      	ldr	r2, [r4, #8]
     2aa:	340c      	adds	r4, #12
     2ac:	f7ff ffa6 	bl	1fc <data_init>
     2b0:	42ac      	cmp	r4, r5
     2b2:	d3f7      	bcc.n	2a4 <ResetISR2+0x72>
     2b4:	e7ec      	b.n	290 <ResetISR2+0x5e>
     2b6:	4d11      	ldr	r5, [pc, #68]	; (2fc <HEAP_SIZE+0x8>)
     2b8:	e7fa      	b.n	2b0 <ResetISR2+0x7e>
     2ba:	f854 0b08 	ldr.w	r0, [r4], #8
     2be:	f854 1c04 	ldr.w	r1, [r4, #-4]
     2c2:	f7ff ffa5 	bl	210 <bss_init>
     2c6:	42ac      	cmp	r4, r5
     2c8:	d3f7      	bcc.n	2ba <ResetISR2+0x88>
     2ca:	e7e3      	b.n	294 <ResetISR2+0x62>
     2cc:	4d0d      	ldr	r5, [pc, #52]	; (304 <HEAP_SIZE+0x10>)
     2ce:	e7fa      	b.n	2c6 <ResetISR2+0x94>
     2d0:	f001 fbf2 	bl	1ab8 <SystemInit>
     2d4:	e7e3      	b.n	29e <ResetISR2+0x6c>
     2d6:	e9d4 0100 	ldrd	r0, r1, [r4]
     2da:	68a2      	ldr	r2, [r4, #8]
     2dc:	340c      	adds	r4, #12
     2de:	f7ff ff8d 	bl	1fc <data_init>
     2e2:	e7ab      	b.n	23c <ResetISR2+0xa>
     2e4:	f854 0b08 	ldr.w	r0, [r4], #8
     2e8:	f854 1c04 	ldr.w	r1, [r4, #-4]
     2ec:	f7ff ff90 	bl	210 <bss_init>
     2f0:	e7a8      	b.n	244 <ResetISR2+0x12>
     2f2:	bf00      	nop
     2f4:	00003c49 	.word	0x00003c49
     2f8:	00000120 	.word	0x00000120
     2fc:	00000144 	.word	0x00000144
     300:	00000150 	.word	0x00000150
     304:	00000168 	.word	0x00000168
     308:	e000ed08 	.word	0xe000ed08
     30c:	00000000 	.word	0x00000000
     310:	00001ab9 	.word	0x00001ab9
     314:	40012000 	.word	0x40012000
     318:	03000e9d 	.word	0x03000e9d
     31c:	00020004 	.word	0x00020004
     320:	00000138 	.word	0x00000138
     324:	00000160 	.word	0x00000160
     328:	40000808 	.word	0x40000808

0000032c <APP_cbTimerShortPress>:
     32c:	4b01      	ldr	r3, [pc, #4]	; (334 <APP_cbTimerShortPress+0x8>)
     32e:	2201      	movs	r2, #1
     330:	701a      	strb	r2, [r3, #0]
     332:	4770      	bx	lr
     334:	04015af0 	.word	0x04015af0

00000338 <APP_cbTimerReceive>:
     338:	4770      	bx	lr
     33a:	Address 0x0000033a is out of bounds.


0000033c <bHandleEventSend>:
     33c:	b538      	push	{r3, r4, r5, lr}
     33e:	780b      	ldrb	r3, [r1, #0]
     340:	2b01      	cmp	r3, #1
     342:	460c      	mov	r4, r1
     344:	d022      	beq.n	38c <bHandleEventSend+0x50>
     346:	2b02      	cmp	r3, #2
     348:	d115      	bne.n	376 <bHandleEventSend+0x3a>
     34a:	7909      	ldrb	r1, [r1, #4]
     34c:	4817      	ldr	r0, [pc, #92]	; (3ac <bHandleEventSend+0x70>)
     34e:	f001 f8a1 	bl	1494 <DbgConsole_Printf>
     352:	68a1      	ldr	r1, [r4, #8]
     354:	4816      	ldr	r0, [pc, #88]	; (3b0 <bHandleEventSend+0x74>)
     356:	f001 f89d 	bl	1494 <DbgConsole_Printf>
     35a:	68a2      	ldr	r2, [r4, #8]
     35c:	4b15      	ldr	r3, [pc, #84]	; (3b4 <bHandleEventSend+0x78>)
     35e:	7925      	ldrb	r5, [r4, #4]
     360:	4815      	ldr	r0, [pc, #84]	; (3b8 <bHandleEventSend+0x7c>)
     362:	4013      	ands	r3, r2
     364:	2b00      	cmp	r3, #0
     366:	bf08      	it	eq
     368:	2505      	moveq	r5, #5
     36a:	4629      	mov	r1, r5
     36c:	f001 f892 	bl	1494 <DbgConsole_Printf>
     370:	4628      	mov	r0, r5
     372:	f000 fec1 	bl	10f8 <vHandleButtonPress>
     376:	4c11      	ldr	r4, [pc, #68]	; (3bc <bHandleEventSend+0x80>)
     378:	7820      	ldrb	r0, [r4, #0]
     37a:	f001 fa55 	bl	1828 <ZTIMER_eStop>
     37e:	7820      	ldrb	r0, [r4, #0]
     380:	f640 31b8 	movw	r1, #3000	; 0xbb8
     384:	f001 fa28 	bl	17d8 <ZTIMER_eStart>
     388:	2000      	movs	r0, #0
     38a:	bd38      	pop	{r3, r4, r5, pc}
     38c:	7909      	ldrb	r1, [r1, #4]
     38e:	480c      	ldr	r0, [pc, #48]	; (3c0 <bHandleEventSend+0x84>)
     390:	f001 f880 	bl	1494 <DbgConsole_Printf>
     394:	68a1      	ldr	r1, [r4, #8]
     396:	4806      	ldr	r0, [pc, #24]	; (3b0 <bHandleEventSend+0x74>)
     398:	f001 f87c 	bl	1494 <DbgConsole_Printf>
     39c:	7923      	ldrb	r3, [r4, #4]
     39e:	2b04      	cmp	r3, #4
     3a0:	bf96      	itet	ls
     3a2:	4a08      	ldrls	r2, [pc, #32]	; (3c4 <bHandleEventSend+0x88>)
     3a4:	2010      	movhi	r0, #16
     3a6:	5cd0      	ldrbls	r0, [r2, r3]
     3a8:	e7e3      	b.n	372 <bHandleEventSend+0x36>
     3aa:	bf00      	nop
     3ac:	000079b0 	.word	0x000079b0
     3b0:	000079c9 	.word	0x000079c9
     3b4:	00080080 	.word	0x00080080
     3b8:	000079df 	.word	0x000079df
     3bc:	04015bc2 	.word	0x04015bc2
     3c0:	000079f6 	.word	0x000079f6
     3c4:	00007a0d 	.word	0x00007a0d

000003c8 <APP_vInitResources>:
     3c8:	b510      	push	{r4, lr}
     3ca:	2103      	movs	r1, #3
     3cc:	480b      	ldr	r0, [pc, #44]	; (3fc <APP_vInitResources+0x34>)
     3ce:	f001 f98d 	bl	16ec <ZTIMER_eInit>
     3d2:	490b      	ldr	r1, [pc, #44]	; (400 <BOOT_RESUME_STACK_SIZE>)
     3d4:	480b      	ldr	r0, [pc, #44]	; (404 <BOOT_RESUME_STACK_SIZE+0x4>)
     3d6:	2301      	movs	r3, #1
     3d8:	2200      	movs	r2, #0
     3da:	f001 f9e1 	bl	17a0 <ZTIMER_eOpen>
     3de:	490a      	ldr	r1, [pc, #40]	; (408 <BOOT_RESUME_STACK_SIZE+0x8>)
     3e0:	480a      	ldr	r0, [pc, #40]	; (40c <BOOT_RESUME_STACK_SIZE+0xc>)
     3e2:	2301      	movs	r3, #1
     3e4:	2200      	movs	r2, #0
     3e6:	f001 f9db 	bl	17a0 <ZTIMER_eOpen>
     3ea:	e8bd 4010 	ldmia.w	sp!, {r4, lr}
     3ee:	4908      	ldr	r1, [pc, #32]	; (410 <BOOT_RESUME_STACK_SIZE+0x10>)
     3f0:	4808      	ldr	r0, [pc, #32]	; (414 <BOOT_RESUME_STACK_SIZE+0x14>)
     3f2:	2301      	movs	r3, #1
     3f4:	2200      	movs	r2, #0
     3f6:	f001 b9d3 	b.w	17a0 <ZTIMER_eOpen>
     3fa:	bf00      	nop
     3fc:	04015b90 	.word	0x04015b90
     400:	000011ed 	.word	0x000011ed
     404:	04015bc0 	.word	0x04015bc0
     408:	00000339 	.word	0x00000339
     40c:	04015bc1 	.word	0x04015bc1
     410:	0000032d 	.word	0x0000032d
     414:	04015bc2 	.word	0x04015bc2

00000418 <vInterruptFired>:
     418:	07c2      	lsls	r2, r0, #31
     41a:	d503      	bpl.n	424 <vInterruptFired+0xc>
     41c:	4b03      	ldr	r3, [pc, #12]	; (42c <vInterruptFired+0x14>)
     41e:	2201      	movs	r2, #1
     420:	701a      	strb	r2, [r3, #0]
     422:	4770      	bx	lr
     424:	0743      	lsls	r3, r0, #29
     426:	d5fc      	bpl.n	422 <vInterruptFired+0xa>
     428:	4b01      	ldr	r3, [pc, #4]	; (430 <vInterruptFired+0x18>)
     42a:	e7f8      	b.n	41e <vInterruptFired+0x6>
     42c:	04015bc5 	.word	0x04015bc5
     430:	04015bc4 	.word	0x04015bc4

00000434 <vSendMACFrame>:
     434:	e92d 41f0 	stmdb	sp!, {r4, r5, r6, r7, r8, lr}
     438:	b118      	cbz	r0, 442 <vSendMACFrame+0xe>
     43a:	4914      	ldr	r1, [pc, #80]	; (48c <vSendMACFrame+0x58>)
     43c:	2020      	movs	r0, #32
     43e:	f000 fe17 	bl	1070 <bAPP_NVMWriteBlock>
     442:	4c12      	ldr	r4, [pc, #72]	; (48c <vSendMACFrame+0x58>)
     444:	4e12      	ldr	r6, [pc, #72]	; (490 <vSendMACFrame+0x5c>)
     446:	7860      	ldrb	r0, [r4, #1]
     448:	f8df 804c 	ldr.w	r8, [pc, #76]	; 498 <vSendMACFrame+0x64>
     44c:	217f      	movs	r1, #127	; 0x7f
     44e:	f004 f99d 	bl	478c <vMMAC_SetChannelAndPower>
     452:	2500      	movs	r5, #0
     454:	4637      	mov	r7, r6
     456:	7861      	ldrb	r1, [r4, #1]
     458:	4640      	mov	r0, r8
     45a:	f001 f81b 	bl	1494 <DbgConsole_Printf>
     45e:	2300      	movs	r3, #0
     460:	480c      	ldr	r0, [pc, #48]	; (494 <vSendMACFrame+0x60>)
     462:	7033      	strb	r3, [r6, #0]
     464:	2102      	movs	r1, #2
     466:	f004 f97b 	bl	4760 <vMMAC_StartMacTransmit>
     46a:	783b      	ldrb	r3, [r7, #0]
     46c:	2b01      	cmp	r3, #1
     46e:	d106      	bne.n	47e <vSendMACFrame+0x4a>
     470:	7962      	ldrb	r2, [r4, #5]
     472:	3501      	adds	r5, #1
     474:	b2eb      	uxtb	r3, r5
     476:	429a      	cmp	r2, r3
     478:	d8ed      	bhi.n	456 <vSendMACFrame+0x22>
     47a:	e8bd 81f0 	ldmia.w	sp!, {r4, r5, r6, r7, r8, pc}
     47e:	f3bf 8f4f 	dsb	sy
     482:	bf30      	wfi
     484:	f3bf 8f6f 	isb	sy
     488:	e7ef      	b.n	46a <vSendMACFrame+0x36>
     48a:	bf00      	nop
     48c:	04015bcc 	.word	0x04015bcc
     490:	04015bc5 	.word	0x04015bc5
     494:	040159b4 	.word	0x040159b4
     498:	00007a12 	.word	0x00007a12

0000049c <vEnableRxAndReceive>:
     49c:	b538      	push	{r3, r4, r5, lr}
     49e:	4c11      	ldr	r4, [pc, #68]	; (4e4 <vEnableRxAndReceive+0x48>)
     4a0:	2300      	movs	r3, #0
     4a2:	7023      	strb	r3, [r4, #0]
     4a4:	f004 f936 	bl	4714 <vMMAC_RadioToOffAndWait>
     4a8:	480f      	ldr	r0, [pc, #60]	; (4e8 <vEnableRxAndReceive+0x4c>)
     4aa:	2102      	movs	r1, #2
     4ac:	f004 f992 	bl	47d4 <vMMAC_StartMacReceive>
     4b0:	f001 fa66 	bl	1980 <OSA_TimeGetMsec>
     4b4:	4605      	mov	r5, r0
     4b6:	7823      	ldrb	r3, [r4, #0]
     4b8:	b923      	cbnz	r3, 4c4 <vEnableRxAndReceive+0x28>
     4ba:	f001 fa61 	bl	1980 <OSA_TimeGetMsec>
     4be:	1b43      	subs	r3, r0, r5
     4c0:	2bf9      	cmp	r3, #249	; 0xf9
     4c2:	d9f8      	bls.n	4b6 <vEnableRxAndReceive+0x1a>
     4c4:	7823      	ldrb	r3, [r4, #0]
     4c6:	b143      	cbz	r3, 4da <vEnableRxAndReceive+0x3e>
     4c8:	4808      	ldr	r0, [pc, #32]	; (4ec <vEnableRxAndReceive+0x50>)
     4ca:	f000 ffe3 	bl	1494 <DbgConsole_Printf>
     4ce:	f000 f97f 	bl	7d0 <vHandleRxMacFrame>
     4d2:	e8bd 4038 	ldmia.w	sp!, {r3, r4, r5, lr}
     4d6:	f004 b919 	b.w	470c <vMMAC_RadioOff>
     4da:	4805      	ldr	r0, [pc, #20]	; (4f0 <vEnableRxAndReceive+0x54>)
     4dc:	f000 ffda 	bl	1494 <DbgConsole_Printf>
     4e0:	e7f7      	b.n	4d2 <vEnableRxAndReceive+0x36>
     4e2:	bf00      	nop
     4e4:	04015bc4 	.word	0x04015bc4
     4e8:	04015a50 	.word	0x04015a50
     4ec:	00007a32 	.word	0x00007a32
     4f0:	00007a55 	.word	0x00007a55

000004f4 <vAppMain>:
     4f4:	b510      	push	{r4, lr}
     4f6:	f002 fc29 	bl	2d4c <vDebugExceptionHandlersInitialise>
     4fa:	f7ff ff65 	bl	3c8 <APP_vInitResources>
     4fe:	f000 feef 	bl	12e0 <bButtonInitialize>
     502:	4604      	mov	r4, r0
     504:	2028      	movs	r0, #40	; 0x28
     506:	f006 f95b 	bl	67c0 <vRadio_Temp_Update>
     50a:	f004 f81b 	bl	4544 <vMMAC_Enable>
     50e:	f004 f9cb 	bl	48a8 <vMMAC_ConfigureRadio>
     512:	4805      	ldr	r0, [pc, #20]	; (528 <vAppMain+0x34>)
     514:	f004 f84a 	bl	45ac <vMMAC_EnableInterrupts>
     518:	b124      	cbz	r4, 524 <vAppMain+0x30>
     51a:	e8bd 4010 	ldmia.w	sp!, {r4, lr}
     51e:	2001      	movs	r0, #1
     520:	f000 b878 	b.w	614 <vClearPersistentData>
     524:	bd10      	pop	{r4, pc}
     526:	bf00      	nop
     528:	00000419 	.word	0x00000419

0000052c <APP_vSetUpHardware>:
     52c:	b538      	push	{r3, r4, r5, lr}
     52e:	4b11      	ldr	r3, [pc, #68]	; (574 <APP_vSetUpHardware+0x48>)
     530:	4a11      	ldr	r2, [pc, #68]	; (578 <APP_vSetUpHardware+0x4c>)
     532:	601a      	str	r2, [r3, #0]
     534:	f240 1209 	movw	r2, #265	; 0x109
     538:	4d10      	ldr	r5, [pc, #64]	; (57c <APP_vSetUpHardware+0x50>)
     53a:	4c11      	ldr	r4, [pc, #68]	; (580 <APP_vSetUpHardware+0x54>)
     53c:	605a      	str	r2, [r3, #4]
     53e:	f001 f89d 	bl	167c <BOARD_InitHardware>
     542:	2200      	movs	r2, #0
     544:	462b      	mov	r3, r5
     546:	4611      	mov	r1, r2
     548:	4620      	mov	r0, r4
     54a:	f000 ffc3 	bl	14d4 <GPIO_PinInit>
     54e:	2200      	movs	r2, #0
     550:	4611      	mov	r1, r2
     552:	4620      	mov	r0, r4
     554:	462b      	mov	r3, r5
     556:	f000 ffbd 	bl	14d4 <GPIO_PinInit>
     55a:	f04f 4380 	mov.w	r3, #1073741824	; 0x40000000
     55e:	2203      	movs	r2, #3
     560:	f8c3 2280 	str.w	r2, [r3, #640]	; 0x280
     564:	f001 fa58 	bl	1a18 <SystemCoreClockUpdate>
     568:	f001 f9f2 	bl	1950 <OSA_TimeInit>
     56c:	e8bd 4038 	ldmia.w	sp!, {r3, r4, r5, lr}
     570:	f000 beb6 	b.w	12e0 <bButtonInitialize>
     574:	40001000 	.word	0x40001000
     578:	e000f733 	.word	0xe000f733
     57c:	04015af1 	.word	0x04015af1
     580:	40080000 	.word	0x40080000

00000584 <main_task>:
     584:	b510      	push	{r4, lr}
     586:	4b09      	ldr	r3, [pc, #36]	; (5ac <main_task+0x28>)
     588:	781a      	ldrb	r2, [r3, #0]
     58a:	b91a      	cbnz	r2, 594 <main_task+0x10>
     58c:	2201      	movs	r2, #1
     58e:	701a      	strb	r2, [r3, #0]
     590:	f7ff ffb0 	bl	4f4 <vAppMain>
     594:	4c06      	ldr	r4, [pc, #24]	; (5b0 <main_task+0x2c>)
     596:	f001 f8bb 	bl	1710 <ZTIMER_vTask>
     59a:	f3bf 8f4f 	dsb	sy
     59e:	bf30      	wfi
     5a0:	f3bf 8f6f 	isb	sy
     5a4:	7823      	ldrb	r3, [r4, #0]
     5a6:	2b00      	cmp	r3, #0
     5a8:	d1f5      	bne.n	596 <main_task+0x12>
     5aa:	bd10      	pop	{r4, pc}
     5ac:	04015bc6 	.word	0x04015bc6
     5b0:	000082a6 	.word	0x000082a6

000005b4 <hardware_init>:
     5b4:	b510      	push	{r4, lr}
     5b6:	4c04      	ldr	r4, [pc, #16]	; (5c8 <hardware_init+0x14>)
     5b8:	7823      	ldrb	r3, [r4, #0]
     5ba:	b91b      	cbnz	r3, 5c4 <hardware_init+0x10>
     5bc:	f7ff ffb6 	bl	52c <APP_vSetUpHardware>
     5c0:	2301      	movs	r3, #1
     5c2:	7023      	strb	r3, [r4, #0]
     5c4:	bd10      	pop	{r4, pc}
     5c6:	bf00      	nop
     5c8:	04015bc3 	.word	0x04015bc3

000005cc <vSendDecommissioingCmd>:
     5cc:	2200      	movs	r2, #0
     5ce:	b510      	push	{r4, lr}
     5d0:	4610      	mov	r0, r2
     5d2:	2101      	movs	r1, #1
     5d4:	f000 fa98 	bl	b08 <GPD_ConstructMACAndNetworkHeader>
     5d8:	4b0b      	ldr	r3, [pc, #44]	; (608 <vSendDecommissioingCmd+0x3c>)
     5da:	4c0c      	ldr	r4, [pc, #48]	; (60c <vSendDecommissioingCmd+0x40>)
     5dc:	7818      	ldrb	r0, [r3, #0]
     5de:	181a      	adds	r2, r3, r0
     5e0:	21e1      	movs	r1, #225	; 0xe1
     5e2:	7711      	strb	r1, [r2, #28]
     5e4:	1c42      	adds	r2, r0, #1
     5e6:	701a      	strb	r2, [r3, #0]
     5e8:	69a2      	ldr	r2, [r4, #24]
     5ea:	2101      	movs	r1, #1
     5ec:	3a01      	subs	r2, #1
     5ee:	f000 faf7 	bl	be0 <bGPD_SecureFrame>
     5f2:	2300      	movs	r3, #0
     5f4:	4806      	ldr	r0, [pc, #24]	; (610 <vSendDecommissioingCmd+0x44>)
     5f6:	7023      	strb	r3, [r4, #0]
     5f8:	7723      	strb	r3, [r4, #28]
     5fa:	f000 ff4b 	bl	1494 <DbgConsole_Printf>
     5fe:	e8bd 4010 	ldmia.w	sp!, {r4, lr}
     602:	2001      	movs	r0, #1
     604:	f7ff bf16 	b.w	434 <vSendMACFrame>
     608:	040159b4 	.word	0x040159b4
     60c:	04015bcc 	.word	0x04015bcc
     610:	00007a73 	.word	0x00007a73

00000614 <vClearPersistentData>:
     614:	b5f0      	push	{r4, r5, r6, r7, lr}
     616:	4b14      	ldr	r3, [pc, #80]	; (668 <vClearPersistentData+0x54>)
     618:	b085      	sub	sp, #20
     61a:	466a      	mov	r2, sp
     61c:	4605      	mov	r5, r0
     61e:	f103 0710 	add.w	r7, r3, #16
     622:	4616      	mov	r6, r2
     624:	6818      	ldr	r0, [r3, #0]
     626:	6859      	ldr	r1, [r3, #4]
     628:	4614      	mov	r4, r2
     62a:	c403      	stmia	r4!, {r0, r1}
     62c:	3308      	adds	r3, #8
     62e:	42bb      	cmp	r3, r7
     630:	4622      	mov	r2, r4
     632:	d1f7      	bne.n	624 <vClearPersistentData+0x10>
     634:	480d      	ldr	r0, [pc, #52]	; (66c <vClearPersistentData+0x58>)
     636:	4c0e      	ldr	r4, [pc, #56]	; (670 <vClearPersistentData+0x5c>)
     638:	f000 ff2c 	bl	1494 <DbgConsole_Printf>
     63c:	4b0d      	ldr	r3, [pc, #52]	; (674 <vClearPersistentData+0x60>)
     63e:	4a0e      	ldr	r2, [pc, #56]	; (678 <vClearPersistentData+0x64>)
     640:	4631      	mov	r1, r6
     642:	e9c4 2300 	strd	r2, r3, [r4]
     646:	f104 0008 	add.w	r0, r4, #8
     64a:	2210      	movs	r2, #16
     64c:	f007 f84a 	bl	76e4 <memcpy>
     650:	2301      	movs	r3, #1
     652:	61a3      	str	r3, [r4, #24]
     654:	f44f 4328 	mov.w	r3, #43008	; 0xa800
     658:	83a3      	strh	r3, [r4, #28]
     65a:	b11d      	cbz	r5, 664 <vClearPersistentData+0x50>
     65c:	4621      	mov	r1, r4
     65e:	2020      	movs	r0, #32
     660:	f000 fd06 	bl	1070 <bAPP_NVMWriteBlock>
     664:	b005      	add	sp, #20
     666:	bdf0      	pop	{r4, r5, r6, r7, pc}
     668:	00007abf 	.word	0x00007abf
     66c:	00007aa5 	.word	0x00007aa5
     670:	04015bcc 	.word	0x04015bcc
     674:	04000300 	.word	0x04000300
     678:	ffff0b00 	.word	0xffff0b00

0000067c <vLoadPersistentData>:
     67c:	b510      	push	{r4, lr}
     67e:	4c09      	ldr	r4, [pc, #36]	; (6a4 <vLoadPersistentData+0x28>)
     680:	2020      	movs	r0, #32
     682:	4621      	mov	r1, r4
     684:	f000 fc8a 	bl	f9c <bAPP_ReadBlock>
     688:	b150      	cbz	r0, 6a0 <vLoadPersistentData+0x24>
     68a:	7f61      	ldrb	r1, [r4, #29]
     68c:	29a8      	cmp	r1, #168	; 0xa8
     68e:	d007      	beq.n	6a0 <vLoadPersistentData+0x24>
     690:	4805      	ldr	r0, [pc, #20]	; (6a8 <vLoadPersistentData+0x2c>)
     692:	f000 feff 	bl	1494 <DbgConsole_Printf>
     696:	e8bd 4010 	ldmia.w	sp!, {r4, lr}
     69a:	2000      	movs	r0, #0
     69c:	f7ff bfba 	b.w	614 <vClearPersistentData>
     6a0:	bd10      	pop	{r4, pc}
     6a2:	bf00      	nop
     6a4:	04015bcc 	.word	0x04015bcc
     6a8:	00007ad0 	.word	0x00007ad0

000006ac <vHandleOperationalState>:
     6ac:	b538      	push	{r3, r4, r5, lr}
     6ae:	4604      	mov	r4, r0
     6b0:	4808      	ldr	r0, [pc, #32]	; (6d4 <vHandleOperationalState+0x28>)
     6b2:	4d09      	ldr	r5, [pc, #36]	; (6d8 <vHandleOperationalState+0x2c>)
     6b4:	f000 feee 	bl	1494 <DbgConsole_Printf>
     6b8:	b12c      	cbz	r4, 6c6 <vHandleOperationalState+0x1a>
     6ba:	4620      	mov	r0, r4
     6bc:	f000 fc1a 	bl	ef4 <GPD_SendSpecificCommand>
     6c0:	2300      	movs	r3, #0
     6c2:	706b      	strb	r3, [r5, #1]
     6c4:	bd38      	pop	{r3, r4, r5, pc}
     6c6:	786b      	ldrb	r3, [r5, #1]
     6c8:	3301      	adds	r3, #1
     6ca:	706b      	strb	r3, [r5, #1]
     6cc:	e8bd 4038 	ldmia.w	sp!, {r3, r4, r5, lr}
     6d0:	f000 bc3e 	b.w	f50 <GPD_SendOperationalCommand>
     6d4:	00007afe 	.word	0x00007afe
     6d8:	04015bc7 	.word	0x04015bc7

000006dc <bEncryptDecyptKey>:
     6dc:	e92d 43f0 	stmdb	sp!, {r4, r5, r6, r7, r8, r9, lr}
     6e0:	b097      	sub	sp, #92	; 0x5c
     6e2:	2301      	movs	r3, #1
     6e4:	f88d 301b 	strb.w	r3, [sp, #27]
     6e8:	4b34      	ldr	r3, [pc, #208]	; (7bc <bEncryptDecyptKey+0xe0>)
     6ea:	aa0a      	add	r2, sp, #40	; 0x28
     6ec:	4605      	mov	r5, r0
     6ee:	460e      	mov	r6, r1
     6f0:	f103 0c10 	add.w	ip, r3, #16
     6f4:	4617      	mov	r7, r2
     6f6:	6818      	ldr	r0, [r3, #0]
     6f8:	6859      	ldr	r1, [r3, #4]
     6fa:	4614      	mov	r4, r2
     6fc:	c403      	stmia	r4!, {r0, r1}
     6fe:	3308      	adds	r3, #8
     700:	4563      	cmp	r3, ip
     702:	4622      	mov	r2, r4
     704:	d1f7      	bne.n	6f6 <bEncryptDecyptKey+0x1a>
     706:	4b2e      	ldr	r3, [pc, #184]	; (7c0 <bEncryptDecyptKey+0xe4>)
     708:	482e      	ldr	r0, [pc, #184]	; (7c4 <bEncryptDecyptKey+0xe8>)
     70a:	9308      	str	r3, [sp, #32]
     70c:	f10d 0848 	add.w	r8, sp, #72	; 0x48
     710:	f000 fec0 	bl	1494 <DbgConsole_Printf>
     714:	2210      	movs	r2, #16
     716:	2100      	movs	r1, #0
     718:	4640      	mov	r0, r8
     71a:	f007 f87d 	bl	7818 <memset>
     71e:	2204      	movs	r2, #4
     720:	a908      	add	r1, sp, #32
     722:	bb45      	cbnz	r5, 776 <bEncryptDecyptKey+0x9a>
     724:	f10d 004d 	add.w	r0, sp, #77	; 0x4d
     728:	f006 ffdc 	bl	76e4 <memcpy>
     72c:	4b26      	ldr	r3, [pc, #152]	; (7c8 <bEncryptDecyptKey+0xec>)
     72e:	699b      	ldr	r3, [r3, #24]
     730:	3b01      	subs	r3, #1
     732:	9307      	str	r3, [sp, #28]
     734:	2204      	movs	r2, #4
     736:	a907      	add	r1, sp, #28
     738:	f10d 0051 	add.w	r0, sp, #81	; 0x51
     73c:	f10d 0924 	add.w	r9, sp, #36	; 0x24
     740:	f006 ffd0 	bl	76e4 <memcpy>
     744:	2305      	movs	r3, #5
     746:	2204      	movs	r2, #4
     748:	a908      	add	r1, sp, #32
     74a:	4648      	mov	r0, r9
     74c:	f88d 3055 	strb.w	r3, [sp, #85]	; 0x55
     750:	f006 ffc8 	bl	76e4 <memcpy>
     754:	2210      	movs	r2, #16
     756:	4639      	mov	r1, r7
     758:	a80e      	add	r0, sp, #56	; 0x38
     75a:	f006 ffc3 	bl	76e4 <memcpy>
     75e:	a80e      	add	r0, sp, #56	; 0x38
     760:	f003 f84c 	bl	37fc <bACI_WriteKey>
     764:	4604      	mov	r4, r0
     766:	b998      	cbnz	r0, 790 <bEncryptDecyptKey+0xb4>
     768:	4818      	ldr	r0, [pc, #96]	; (7cc <bEncryptDecyptKey+0xf0>)
     76a:	f000 fe93 	bl	1494 <DbgConsole_Printf>
     76e:	4620      	mov	r0, r4
     770:	b017      	add	sp, #92	; 0x5c
     772:	e8bd 83f0 	ldmia.w	sp!, {r4, r5, r6, r7, r8, r9, pc}
     776:	f10d 0049 	add.w	r0, sp, #73	; 0x49
     77a:	f006 ffb3 	bl	76e4 <memcpy>
     77e:	2204      	movs	r2, #4
     780:	a908      	add	r1, sp, #32
     782:	f10d 004d 	add.w	r0, sp, #77	; 0x4d
     786:	f006 ffad 	bl	76e4 <memcpy>
     78a:	2204      	movs	r2, #4
     78c:	a908      	add	r1, sp, #32
     78e:	e7d3      	b.n	738 <bEncryptDecyptKey+0x5c>
     790:	f10d 031b 	add.w	r3, sp, #27
     794:	9304      	str	r3, [sp, #16]
     796:	2204      	movs	r2, #4
     798:	f106 0310 	add.w	r3, r6, #16
     79c:	e9cd 6302 	strd	r6, r3, [sp, #8]
     7a0:	4628      	mov	r0, r5
     7a2:	e9cd 8900 	strd	r8, r9, [sp]
     7a6:	2310      	movs	r3, #16
     7a8:	4611      	mov	r1, r2
     7aa:	f003 f831 	bl	3810 <vACI_OptimisedCcmStar>
     7ae:	f89d 001b 	ldrb.w	r0, [sp, #27]
     7b2:	3800      	subs	r0, #0
     7b4:	bf18      	it	ne
     7b6:	2001      	movne	r0, #1
     7b8:	e7da      	b.n	770 <bEncryptDecyptKey+0x94>
     7ba:	bf00      	nop
     7bc:	00007b50 	.word	0x00007b50
     7c0:	87654321 	.word	0x87654321
     7c4:	00007b1f 	.word	0x00007b1f
     7c8:	04015bcc 	.word	0x04015bcc
     7cc:	00007b36 	.word	0x00007b36

000007d0 <vHandleRxMacFrame>:
     7d0:	b57f      	push	{r0, r1, r2, r3, r4, r5, r6, lr}
     7d2:	2000      	movs	r0, #0
     7d4:	a901      	add	r1, sp, #4
     7d6:	f000 fb09 	bl	dec <bGPD_ParseMACFrame>
     7da:	2800      	cmp	r0, #0
     7dc:	d07a      	beq.n	8d4 <vHandleRxMacFrame+0x104>
     7de:	f89d 1004 	ldrb.w	r1, [sp, #4]
     7e2:	29f0      	cmp	r1, #240	; 0xf0
     7e4:	d006      	beq.n	7f4 <vHandleRxMacFrame+0x24>
     7e6:	29f3      	cmp	r1, #243	; 0xf3
     7e8:	d05b      	beq.n	8a2 <vHandleRxMacFrame+0xd2>
     7ea:	483c      	ldr	r0, [pc, #240]	; (8dc <vHandleRxMacFrame+0x10c>)
     7ec:	f000 fe52 	bl	1494 <DbgConsole_Printf>
     7f0:	b004      	add	sp, #16
     7f2:	bd70      	pop	{r4, r5, r6, pc}
     7f4:	483a      	ldr	r0, [pc, #232]	; (8e0 <vHandleRxMacFrame+0x110>)
     7f6:	f000 fe4d 	bl	1494 <DbgConsole_Printf>
     7fa:	f89d 3005 	ldrb.w	r3, [sp, #5]
     7fe:	2b00      	cmp	r3, #0
     800:	d0f6      	beq.n	7f0 <vHandleRxMacFrame+0x20>
     802:	4c38      	ldr	r4, [pc, #224]	; (8e4 <vHandleRxMacFrame+0x114>)
     804:	9902      	ldr	r1, [sp, #8]
     806:	7823      	ldrb	r3, [r4, #0]
     808:	2503      	movs	r5, #3
     80a:	f043 0304 	orr.w	r3, r3, #4
     80e:	7023      	strb	r3, [r4, #0]
     810:	7165      	strb	r5, [r4, #5]
     812:	780b      	ldrb	r3, [r1, #0]
     814:	07d8      	lsls	r0, r3, #31
     816:	d52f      	bpl.n	878 <vHandleRxMacFrame+0xa8>
     818:	2202      	movs	r2, #2
     81a:	3101      	adds	r1, #1
     81c:	18a0      	adds	r0, r4, r2
     81e:	f006 ff61 	bl	76e4 <memcpy>
     822:	8861      	ldrh	r1, [r4, #2]
     824:	4830      	ldr	r0, [pc, #192]	; (8e8 <vHandleRxMacFrame+0x118>)
     826:	f000 fe35 	bl	1494 <DbgConsole_Printf>
     82a:	9b02      	ldr	r3, [sp, #8]
     82c:	781a      	ldrb	r2, [r3, #0]
     82e:	0791      	lsls	r1, r2, #30
     830:	d532      	bpl.n	898 <vHandleRxMacFrame+0xc8>
     832:	0752      	lsls	r2, r2, #29
     834:	eb03 0105 	add.w	r1, r3, r5
     838:	d520      	bpl.n	87c <vHandleRxMacFrame+0xac>
     83a:	2000      	movs	r0, #0
     83c:	f7ff ff4e 	bl	6dc <bEncryptDecyptKey>
     840:	4606      	mov	r6, r0
     842:	4601      	mov	r1, r0
     844:	4829      	ldr	r0, [pc, #164]	; (8ec <vHandleRxMacFrame+0x11c>)
     846:	f000 fe25 	bl	1494 <DbgConsole_Printf>
     84a:	b186      	cbz	r6, 86e <vHandleRxMacFrame+0x9e>
     84c:	7823      	ldrb	r3, [r4, #0]
     84e:	9902      	ldr	r1, [sp, #8]
     850:	4827      	ldr	r0, [pc, #156]	; (8f0 <vHandleRxMacFrame+0x120>)
     852:	f043 0308 	orr.w	r3, r3, #8
     856:	7023      	strb	r3, [r4, #0]
     858:	780b      	ldrb	r3, [r1, #0]
     85a:	2210      	movs	r2, #16
     85c:	095b      	lsrs	r3, r3, #5
     85e:	4429      	add	r1, r5
     860:	71e3      	strb	r3, [r4, #7]
     862:	f006 ff3f 	bl	76e4 <memcpy>
     866:	79e1      	ldrb	r1, [r4, #7]
     868:	4822      	ldr	r0, [pc, #136]	; (8f4 <vHandleRxMacFrame+0x124>)
     86a:	f000 fe13 	bl	1494 <DbgConsole_Printf>
     86e:	491d      	ldr	r1, [pc, #116]	; (8e4 <vHandleRxMacFrame+0x114>)
     870:	2020      	movs	r0, #32
     872:	f000 fbfd 	bl	1070 <bAPP_NVMWriteBlock>
     876:	e7bb      	b.n	7f0 <vHandleRxMacFrame+0x20>
     878:	2501      	movs	r5, #1
     87a:	e7d6      	b.n	82a <vHandleRxMacFrame+0x5a>
     87c:	7822      	ldrb	r2, [r4, #0]
     87e:	481c      	ldr	r0, [pc, #112]	; (8f0 <vHandleRxMacFrame+0x120>)
     880:	f042 0208 	orr.w	r2, r2, #8
     884:	7022      	strb	r2, [r4, #0]
     886:	781b      	ldrb	r3, [r3, #0]
     888:	2210      	movs	r2, #16
     88a:	095b      	lsrs	r3, r3, #5
     88c:	71e3      	strb	r3, [r4, #7]
     88e:	f006 ff29 	bl	76e4 <memcpy>
     892:	79e1      	ldrb	r1, [r4, #7]
     894:	4818      	ldr	r0, [pc, #96]	; (8f8 <vHandleRxMacFrame+0x128>)
     896:	e7e8      	b.n	86a <vHandleRxMacFrame+0x9a>
     898:	7823      	ldrb	r3, [r4, #0]
     89a:	f043 0308 	orr.w	r3, r3, #8
     89e:	7023      	strb	r3, [r4, #0]
     8a0:	e7e5      	b.n	86e <vHandleRxMacFrame+0x9e>
     8a2:	f89d 3005 	ldrb.w	r3, [sp, #5]
     8a6:	2b00      	cmp	r3, #0
     8a8:	d0a2      	beq.n	7f0 <vHandleRxMacFrame+0x20>
     8aa:	9b02      	ldr	r3, [sp, #8]
     8ac:	4d0d      	ldr	r5, [pc, #52]	; (8e4 <vHandleRxMacFrame+0x114>)
     8ae:	781b      	ldrb	r3, [r3, #0]
     8b0:	7869      	ldrb	r1, [r5, #1]
     8b2:	4812      	ldr	r0, [pc, #72]	; (8fc <vHandleRxMacFrame+0x12c>)
     8b4:	f003 040f 	and.w	r4, r3, #15
     8b8:	4622      	mov	r2, r4
     8ba:	f000 fdeb 	bl	1494 <DbgConsole_Printf>
     8be:	782b      	ldrb	r3, [r5, #0]
     8c0:	480f      	ldr	r0, [pc, #60]	; (900 <vHandleRxMacFrame+0x130>)
     8c2:	f043 0302 	orr.w	r3, r3, #2
     8c6:	702b      	strb	r3, [r5, #0]
     8c8:	f104 010b 	add.w	r1, r4, #11
     8cc:	2303      	movs	r3, #3
     8ce:	7069      	strb	r1, [r5, #1]
     8d0:	716b      	strb	r3, [r5, #5]
     8d2:	e7ca      	b.n	86a <vHandleRxMacFrame+0x9a>
     8d4:	480b      	ldr	r0, [pc, #44]	; (904 <vHandleRxMacFrame+0x134>)
     8d6:	f000 fddd 	bl	1494 <DbgConsole_Printf>
     8da:	e789      	b.n	7f0 <vHandleRxMacFrame+0x20>
     8dc:	00007c8e 	.word	0x00007c8e
     8e0:	00007b61 	.word	0x00007b61
     8e4:	04015bcc 	.word	0x04015bcc
     8e8:	00007b8c 	.word	0x00007b8c
     8ec:	00007bb3 	.word	0x00007bb3
     8f0:	04015bd4 	.word	0x04015bd4
     8f4:	00007bcb 	.word	0x00007bcb
     8f8:	00007bed 	.word	0x00007bed
     8fc:	00007c1d 	.word	0x00007c1d
     900:	00007c71 	.word	0x00007c71
     904:	00007cbb 	.word	0x00007cbb

00000908 <vSendChannelRequestCmd>:
     908:	b5f8      	push	{r3, r4, r5, r6, r7, lr}
     90a:	4c22      	ldr	r4, [pc, #136]	; (994 <vSendChannelRequestCmd+0x8c>)
     90c:	79a6      	ldrb	r6, [r4, #6]
     90e:	f000 f94b 	bl	ba8 <GPD_ConstructMaintenaceFrame>
     912:	4a21      	ldr	r2, [pc, #132]	; (998 <vSendChannelRequestCmd+0x90>)
     914:	7811      	ldrb	r1, [r2, #0]
     916:	1c4b      	adds	r3, r1, #1
     918:	b2d8      	uxtb	r0, r3
     91a:	1853      	adds	r3, r2, r1
     91c:	27e3      	movs	r7, #227	; 0xe3
     91e:	1c75      	adds	r5, r6, #1
     920:	771f      	strb	r7, [r3, #28]
     922:	2e0e      	cmp	r6, #14
     924:	f04f 0301 	mov.w	r3, #1
     928:	b2ed      	uxtb	r5, r5
     92a:	7163      	strb	r3, [r4, #5]
     92c:	d930      	bls.n	990 <vSendChannelRequestCmd+0x88>
     92e:	f1a6 030f 	sub.w	r3, r6, #15
     932:	b2db      	uxtb	r3, r3
     934:	2b0f      	cmp	r3, #15
     936:	bf28      	it	cs
     938:	2300      	movcs	r3, #0
     93a:	2d0e      	cmp	r5, #14
     93c:	d905      	bls.n	94a <vSendChannelRequestCmd+0x42>
     93e:	f1a6 050e 	sub.w	r5, r6, #14
     942:	b2ed      	uxtb	r5, r5
     944:	2d0f      	cmp	r5, #15
     946:	bf28      	it	cs
     948:	2500      	movcs	r5, #0
     94a:	4f14      	ldr	r7, [pc, #80]	; (99c <vSendChannelRequestCmd+0x94>)
     94c:	5cfe      	ldrb	r6, [r7, r3]
     94e:	1813      	adds	r3, r2, r0
     950:	5d78      	ldrb	r0, [r7, r5]
     952:	f1a0 050b 	sub.w	r5, r0, #11
     956:	f1a6 000b 	sub.w	r0, r6, #11
     95a:	ea40 1005 	orr.w	r0, r0, r5, lsl #4
     95e:	7718      	strb	r0, [r3, #28]
     960:	79a3      	ldrb	r3, [r4, #6]
     962:	480f      	ldr	r0, [pc, #60]	; (9a0 <vSendChannelRequestCmd+0x98>)
     964:	2b0e      	cmp	r3, #14
     966:	f101 0102 	add.w	r1, r1, #2
     96a:	bf84      	itt	hi
     96c:	2300      	movhi	r3, #0
     96e:	71a3      	strbhi	r3, [r4, #6]
     970:	7011      	strb	r1, [r2, #0]
     972:	f000 fd8f 	bl	1494 <DbgConsole_Printf>
     976:	2000      	movs	r0, #0
     978:	f7ff fd5c 	bl	434 <vSendMACFrame>
     97c:	79a3      	ldrb	r3, [r4, #6]
     97e:	7066      	strb	r6, [r4, #1]
     980:	3301      	adds	r3, #1
     982:	71a3      	strb	r3, [r4, #6]
     984:	4903      	ldr	r1, [pc, #12]	; (994 <vSendChannelRequestCmd+0x8c>)
     986:	e8bd 40f8 	ldmia.w	sp!, {r3, r4, r5, r6, r7, lr}
     98a:	2020      	movs	r0, #32
     98c:	f000 bb70 	b.w	1070 <bAPP_NVMWriteBlock>
     990:	4633      	mov	r3, r6
     992:	e7d2      	b.n	93a <vSendChannelRequestCmd+0x32>
     994:	04015bcc 	.word	0x04015bcc
     998:	040159b4 	.word	0x040159b4
     99c:	00007d8d 	.word	0x00007d8d
     9a0:	00007ce0 	.word	0x00007ce0

000009a4 <vSendCommissioningCmd>:
     9a4:	b537      	push	{r0, r1, r2, r4, r5, lr}
     9a6:	4c24      	ldr	r4, [pc, #144]	; (a38 <vSendCommissioningCmd+0x94>)
     9a8:	4d24      	ldr	r5, [pc, #144]	; (a3c <vSendCommissioningCmd+0x98>)
     9aa:	2100      	movs	r1, #0
     9ac:	4608      	mov	r0, r1
     9ae:	2201      	movs	r2, #1
     9b0:	9101      	str	r1, [sp, #4]
     9b2:	f000 f8a9 	bl	b08 <GPD_ConstructMACAndNetworkHeader>
     9b6:	7820      	ldrb	r0, [r4, #0]
     9b8:	1823      	adds	r3, r4, r0
     9ba:	22e0      	movs	r2, #224	; 0xe0
     9bc:	771a      	strb	r2, [r3, #28]
     9be:	1c43      	adds	r3, r0, #1
     9c0:	fa54 f383 	uxtab	r3, r4, r3
     9c4:	2203      	movs	r2, #3
     9c6:	771a      	strb	r2, [r3, #28]
     9c8:	1c83      	adds	r3, r0, #2
     9ca:	fa54 f383 	uxtab	r3, r4, r3
     9ce:	22f3      	movs	r2, #243	; 0xf3
     9d0:	771a      	strb	r2, [r3, #28]
     9d2:	79eb      	ldrb	r3, [r5, #7]
     9d4:	1cc2      	adds	r2, r0, #3
     9d6:	fa54 f282 	uxtab	r2, r4, r2
     9da:	009b      	lsls	r3, r3, #2
     9dc:	3004      	adds	r0, #4
     9de:	f063 031c 	orn	r3, r3, #28
     9e2:	b2c0      	uxtb	r0, r0
     9e4:	7713      	strb	r3, [r2, #28]
     9e6:	7020      	strb	r0, [r4, #0]
     9e8:	301c      	adds	r0, #28
     9ea:	2210      	movs	r2, #16
     9ec:	f105 0108 	add.w	r1, r5, #8
     9f0:	4420      	add	r0, r4
     9f2:	f006 fe77 	bl	76e4 <memcpy>
     9f6:	7821      	ldrb	r1, [r4, #0]
     9f8:	311c      	adds	r1, #28
     9fa:	4421      	add	r1, r4
     9fc:	2001      	movs	r0, #1
     9fe:	f7ff fe6d 	bl	6dc <bEncryptDecyptKey>
     a02:	7820      	ldrb	r0, [r4, #0]
     a04:	69ab      	ldr	r3, [r5, #24]
     a06:	3014      	adds	r0, #20
     a08:	b2c0      	uxtb	r0, r0
     a0a:	2204      	movs	r2, #4
     a0c:	7020      	strb	r0, [r4, #0]
     a0e:	301c      	adds	r0, #28
     a10:	eb0d 0102 	add.w	r1, sp, r2
     a14:	3b01      	subs	r3, #1
     a16:	4420      	add	r0, r4
     a18:	9301      	str	r3, [sp, #4]
     a1a:	f006 fe63 	bl	76e4 <memcpy>
     a1e:	7823      	ldrb	r3, [r4, #0]
     a20:	4807      	ldr	r0, [pc, #28]	; (a40 <vSendCommissioningCmd+0x9c>)
     a22:	3304      	adds	r3, #4
     a24:	7023      	strb	r3, [r4, #0]
     a26:	2401      	movs	r4, #1
     a28:	716c      	strb	r4, [r5, #5]
     a2a:	f000 fd33 	bl	1494 <DbgConsole_Printf>
     a2e:	4620      	mov	r0, r4
     a30:	f7ff fd00 	bl	434 <vSendMACFrame>
     a34:	b003      	add	sp, #12
     a36:	bd30      	pop	{r4, r5, pc}
     a38:	040159b4 	.word	0x040159b4
     a3c:	04015bcc 	.word	0x04015bcc
     a40:	00007d13 	.word	0x00007d13

00000a44 <vSendGPDSuccessCmd>:
     a44:	2200      	movs	r2, #0
     a46:	b508      	push	{r3, lr}
     a48:	4610      	mov	r0, r2
     a4a:	2101      	movs	r1, #1
     a4c:	f000 f85c 	bl	b08 <GPD_ConstructMACAndNetworkHeader>
     a50:	4b0a      	ldr	r3, [pc, #40]	; (a7c <vSendGPDSuccessCmd+0x38>)
     a52:	7818      	ldrb	r0, [r3, #0]
     a54:	181a      	adds	r2, r3, r0
     a56:	21e2      	movs	r1, #226	; 0xe2
     a58:	7711      	strb	r1, [r2, #28]
     a5a:	1c42      	adds	r2, r0, #1
     a5c:	701a      	strb	r2, [r3, #0]
     a5e:	4a08      	ldr	r2, [pc, #32]	; (a80 <vSendGPDSuccessCmd+0x3c>)
     a60:	6992      	ldr	r2, [r2, #24]
     a62:	2101      	movs	r1, #1
     a64:	3a01      	subs	r2, #1
     a66:	f000 f8bb 	bl	be0 <bGPD_SecureFrame>
     a6a:	4806      	ldr	r0, [pc, #24]	; (a84 <vSendGPDSuccessCmd+0x40>)
     a6c:	f000 fd12 	bl	1494 <DbgConsole_Printf>
     a70:	e8bd 4008 	ldmia.w	sp!, {r3, lr}
     a74:	2001      	movs	r0, #1
     a76:	f7ff bcdd 	b.w	434 <vSendMACFrame>
     a7a:	bf00      	nop
     a7c:	040159b4 	.word	0x040159b4
     a80:	04015bcc 	.word	0x04015bcc
     a84:	00007d45 	.word	0x00007d45

00000a88 <bHandleCommissioningStateMachine>:
     a88:	b510      	push	{r4, lr}
     a8a:	4b10      	ldr	r3, [pc, #64]	; (acc <bHandleCommissioningStateMachine+0x44>)
     a8c:	4a10      	ldr	r2, [pc, #64]	; (ad0 <bHandleCommissioningStateMachine+0x48>)
     a8e:	2000      	movs	r0, #0
     a90:	7058      	strb	r0, [r3, #1]
     a92:	7813      	ldrb	r3, [r2, #0]
     a94:	0799      	lsls	r1, r3, #30
     a96:	d515      	bpl.n	ac4 <bHandleCommissioningStateMachine+0x3c>
     a98:	075c      	lsls	r4, r3, #29
     a9a:	d50f      	bpl.n	abc <bHandleCommissioningStateMachine+0x34>
     a9c:	0719      	lsls	r1, r3, #28
     a9e:	d50d      	bpl.n	abc <bHandleCommissioningStateMachine+0x34>
     aa0:	f013 0410 	ands.w	r4, r3, #16
     aa4:	d003      	beq.n	aae <bHandleCommissioningStateMachine+0x26>
     aa6:	f043 0301 	orr.w	r3, r3, #1
     aaa:	7013      	strb	r3, [r2, #0]
     aac:	bd10      	pop	{r4, pc}
     aae:	f043 0311 	orr.w	r3, r3, #17
     ab2:	7013      	strb	r3, [r2, #0]
     ab4:	f7ff ffc6 	bl	a44 <vSendGPDSuccessCmd>
     ab8:	4620      	mov	r0, r4
     aba:	e7f7      	b.n	aac <bHandleCommissioningStateMachine+0x24>
     abc:	f7ff ff72 	bl	9a4 <vSendCommissioningCmd>
     ac0:	2001      	movs	r0, #1
     ac2:	e7f3      	b.n	aac <bHandleCommissioningStateMachine+0x24>
     ac4:	f7ff ff20 	bl	908 <vSendChannelRequestCmd>
     ac8:	e7fa      	b.n	ac0 <bHandleCommissioningStateMachine+0x38>
     aca:	bf00      	nop
     acc:	04015bc7 	.word	0x04015bc7
     ad0:	04015bcc 	.word	0x04015bcc

00000ad4 <HandleGPDStateMachine>:
     ad4:	b510      	push	{r4, lr}
     ad6:	4604      	mov	r4, r0
     ad8:	4809      	ldr	r0, [pc, #36]	; (b00 <HandleGPDStateMachine+0x2c>)
     ada:	f000 fcdb 	bl	1494 <DbgConsole_Printf>
     ade:	4b09      	ldr	r3, [pc, #36]	; (b04 <HandleGPDStateMachine+0x30>)
     ae0:	781b      	ldrb	r3, [r3, #0]
     ae2:	07db      	lsls	r3, r3, #31
     ae4:	d504      	bpl.n	af0 <HandleGPDStateMachine+0x1c>
     ae6:	4620      	mov	r0, r4
     ae8:	e8bd 4010 	ldmia.w	sp!, {r4, lr}
     aec:	f7ff bdde 	b.w	6ac <vHandleOperationalState>
     af0:	f7ff ffca 	bl	a88 <bHandleCommissioningStateMachine>
     af4:	b118      	cbz	r0, afe <HandleGPDStateMachine+0x2a>
     af6:	e8bd 4010 	ldmia.w	sp!, {r4, lr}
     afa:	f7ff bccf 	b.w	49c <vEnableRxAndReceive>
     afe:	bd10      	pop	{r4, pc}
     b00:	00007d73 	.word	0x00007d73
     b04:	04015bcc 	.word	0x04015bcc

00000b08 <GPD_ConstructMACAndNetworkHeader>:
     b08:	b5f7      	push	{r0, r1, r2, r4, r5, r6, r7, lr}
     b0a:	4c21      	ldr	r4, [pc, #132]	; (b90 <GPD_ConstructMACAndNetworkHeader+0x88>)
     b0c:	4b21      	ldr	r3, [pc, #132]	; (b94 <GPD_ConstructMACAndNetworkHeader+0x8c>)
     b0e:	4d22      	ldr	r5, [pc, #136]	; (b98 <GPD_ConstructMACAndNetworkHeader+0x90>)
     b10:	9301      	str	r3, [sp, #4]
     b12:	460e      	mov	r6, r1
     b14:	4617      	mov	r7, r2
     b16:	2100      	movs	r1, #0
     b18:	229c      	movs	r2, #156	; 0x9c
     b1a:	4620      	mov	r0, r4
     b1c:	f006 fe7c 	bl	7818 <memset>
     b20:	f640 0301 	movw	r3, #2049	; 0x801
     b24:	8063      	strh	r3, [r4, #2]
     b26:	886b      	ldrh	r3, [r5, #2]
     b28:	80a3      	strh	r3, [r4, #4]
     b2a:	f64f 73ff 	movw	r3, #65535	; 0xffff
     b2e:	8123      	strh	r3, [r4, #8]
     b30:	238c      	movs	r3, #140	; 0x8c
     b32:	7723      	strb	r3, [r4, #28]
     b34:	b146      	cbz	r6, b48 <GPD_ConstructMACAndNetworkHeader+0x40>
     b36:	2318      	movs	r3, #24
     b38:	7763      	strb	r3, [r4, #29]
     b3a:	79eb      	ldrb	r3, [r5, #7]
     b3c:	2b04      	cmp	r3, #4
     b3e:	d001      	beq.n	b44 <GPD_ConstructMACAndNetworkHeader+0x3c>
     b40:	2b07      	cmp	r3, #7
     b42:	d101      	bne.n	b48 <GPD_ConstructMACAndNetworkHeader+0x40>
     b44:	2338      	movs	r3, #56	; 0x38
     b46:	7763      	strb	r3, [r4, #29]
     b48:	b11f      	cbz	r7, b52 <GPD_ConstructMACAndNetworkHeader+0x4a>
     b4a:	7f63      	ldrb	r3, [r4, #29]
     b4c:	f043 0340 	orr.w	r3, r3, #64	; 0x40
     b50:	7763      	strb	r3, [r4, #29]
     b52:	2204      	movs	r2, #4
     b54:	2302      	movs	r3, #2
     b56:	4811      	ldr	r0, [pc, #68]	; (b9c <GPD_ConstructMACAndNetworkHeader+0x94>)
     b58:	7023      	strb	r3, [r4, #0]
     b5a:	eb0d 0102 	add.w	r1, sp, r2
     b5e:	f006 fdc1 	bl	76e4 <memcpy>
     b62:	7820      	ldrb	r0, [r4, #0]
     b64:	3004      	adds	r0, #4
     b66:	b2c0      	uxtb	r0, r0
     b68:	7020      	strb	r0, [r4, #0]
     b6a:	b146      	cbz	r6, b7e <GPD_ConstructMACAndNetworkHeader+0x76>
     b6c:	301c      	adds	r0, #28
     b6e:	490c      	ldr	r1, [pc, #48]	; (ba0 <GPD_ConstructMACAndNetworkHeader+0x98>)
     b70:	2204      	movs	r2, #4
     b72:	4420      	add	r0, r4
     b74:	f006 fdb6 	bl	76e4 <memcpy>
     b78:	7823      	ldrb	r3, [r4, #0]
     b7a:	3304      	adds	r3, #4
     b7c:	7023      	strb	r3, [r4, #0]
     b7e:	69ab      	ldr	r3, [r5, #24]
     b80:	1c5a      	adds	r2, r3, #1
     b82:	61aa      	str	r2, [r5, #24]
     b84:	4a07      	ldr	r2, [pc, #28]	; (ba4 <GPD_ConstructMACAndNetworkHeader+0x9c>)
     b86:	b2db      	uxtb	r3, r3
     b88:	7063      	strb	r3, [r4, #1]
     b8a:	7013      	strb	r3, [r2, #0]
     b8c:	b003      	add	sp, #12
     b8e:	bdf0      	pop	{r4, r5, r6, r7, pc}
     b90:	040159b4 	.word	0x040159b4
     b94:	87654321 	.word	0x87654321
     b98:	04015bcc 	.word	0x04015bcc
     b9c:	040159d2 	.word	0x040159d2
     ba0:	04015be4 	.word	0x04015be4
     ba4:	04015bc7 	.word	0x04015bc7

00000ba8 <GPD_ConstructMaintenaceFrame>:
     ba8:	b510      	push	{r4, lr}
     baa:	4c0b      	ldr	r4, [pc, #44]	; (bd8 <GPD_ConstructMaintenaceFrame+0x30>)
     bac:	229c      	movs	r2, #156	; 0x9c
     bae:	4620      	mov	r0, r4
     bb0:	2100      	movs	r1, #0
     bb2:	f006 fe31 	bl	7818 <memset>
     bb6:	f640 0301 	movw	r3, #2049	; 0x801
     bba:	8063      	strh	r3, [r4, #2]
     bbc:	4b07      	ldr	r3, [pc, #28]	; (bdc <GPD_ConstructMaintenaceFrame+0x34>)
     bbe:	885b      	ldrh	r3, [r3, #2]
     bc0:	80a3      	strh	r3, [r4, #4]
     bc2:	f64f 73ff 	movw	r3, #65535	; 0xffff
     bc6:	8123      	strh	r3, [r4, #8]
     bc8:	7823      	ldrb	r3, [r4, #0]
     bca:	1c5a      	adds	r2, r3, #1
     bcc:	7022      	strb	r2, [r4, #0]
     bce:	441c      	add	r4, r3
     bd0:	230d      	movs	r3, #13
     bd2:	7723      	strb	r3, [r4, #28]
     bd4:	bd10      	pop	{r4, pc}
     bd6:	bf00      	nop
     bd8:	040159b4 	.word	0x040159b4
     bdc:	04015bcc 	.word	0x04015bcc

00000be0 <bGPD_SecureFrame>:
     be0:	e92d 4ff0 	stmdb	sp!, {r4, r5, r6, r7, r8, r9, sl, fp, lr}
     be4:	b0ad      	sub	sp, #180	; 0xb4
     be6:	f10d 0b34 	add.w	fp, sp, #52	; 0x34
     bea:	9209      	str	r2, [sp, #36]	; 0x24
     bec:	461c      	mov	r4, r3
     bee:	2210      	movs	r2, #16
     bf0:	4b74      	ldr	r3, [pc, #464]	; (dc4 <bGPD_SecureFrame+0x1e4>)
     bf2:	930c      	str	r3, [sp, #48]	; 0x30
     bf4:	4606      	mov	r6, r0
     bf6:	460d      	mov	r5, r1
     bf8:	4658      	mov	r0, fp
     bfa:	2100      	movs	r1, #0
     bfc:	f10d 087c 	add.w	r8, sp, #124	; 0x7c
     c00:	f006 fe0a 	bl	7818 <memset>
     c04:	af0b      	add	r7, sp, #44	; 0x2c
     c06:	2232      	movs	r2, #50	; 0x32
     c08:	2100      	movs	r1, #0
     c0a:	4640      	mov	r0, r8
     c0c:	f006 fe04 	bl	7818 <memset>
     c10:	2204      	movs	r2, #4
     c12:	2100      	movs	r1, #0
     c14:	4638      	mov	r0, r7
     c16:	f006 fdff 	bl	7818 <memset>
     c1a:	7823      	ldrb	r3, [r4, #0]
     c1c:	2b31      	cmp	r3, #49	; 0x31
     c1e:	d833      	bhi.n	c88 <bGPD_SecureFrame+0xa8>
     c20:	4632      	mov	r2, r6
     c22:	f104 011c 	add.w	r1, r4, #28
     c26:	4640      	mov	r0, r8
     c28:	f006 fd5c 	bl	76e4 <memcpy>
     c2c:	2d01      	cmp	r5, #1
     c2e:	d105      	bne.n	c3c <bGPD_SecureFrame+0x5c>
     c30:	2204      	movs	r2, #4
     c32:	a90c      	add	r1, sp, #48	; 0x30
     c34:	f10d 0035 	add.w	r0, sp, #53	; 0x35
     c38:	f006 fd54 	bl	76e4 <memcpy>
     c3c:	2204      	movs	r2, #4
     c3e:	a90c      	add	r1, sp, #48	; 0x30
     c40:	f10d 0039 	add.w	r0, sp, #57	; 0x39
     c44:	f006 fd4e 	bl	76e4 <memcpy>
     c48:	2204      	movs	r2, #4
     c4a:	a909      	add	r1, sp, #36	; 0x24
     c4c:	f10d 003d 	add.w	r0, sp, #61	; 0x3d
     c50:	f006 fd48 	bl	76e4 <memcpy>
     c54:	f106 0a1c 	add.w	sl, r6, #28
     c58:	2305      	movs	r3, #5
     c5a:	2d01      	cmp	r5, #1
     c5c:	7822      	ldrb	r2, [r4, #0]
     c5e:	f88d 3041 	strb.w	r3, [sp, #65]	; 0x41
     c62:	44a2      	add	sl, r4
     c64:	d112      	bne.n	c8c <bGPD_SecureFrame+0xac>
     c66:	1b92      	subs	r2, r2, r6
     c68:	4651      	mov	r1, sl
     c6a:	a815      	add	r0, sp, #84	; 0x54
     c6c:	f006 fd3a 	bl	76e4 <memcpy>
     c70:	4955      	ldr	r1, [pc, #340]	; (dc8 <bGPD_SecureFrame+0x1e8>)
     c72:	2210      	movs	r2, #16
     c74:	a811      	add	r0, sp, #68	; 0x44
     c76:	f006 fd35 	bl	76e4 <memcpy>
     c7a:	a811      	add	r0, sp, #68	; 0x44
     c7c:	f002 fdbe 	bl	37fc <bACI_WriteKey>
     c80:	b988      	cbnz	r0, ca6 <bGPD_SecureFrame+0xc6>
     c82:	4852      	ldr	r0, [pc, #328]	; (dcc <bGPD_SecureFrame+0x1ec>)
     c84:	f000 fc06 	bl	1494 <DbgConsole_Printf>
     c88:	2000      	movs	r0, #0
     c8a:	e047      	b.n	d1c <bGPD_SecureFrame+0x13c>
     c8c:	1f11      	subs	r1, r2, #4
     c8e:	b2c9      	uxtb	r1, r1
     c90:	311c      	adds	r1, #28
     c92:	2204      	movs	r2, #4
     c94:	4421      	add	r1, r4
     c96:	4638      	mov	r0, r7
     c98:	f006 fd24 	bl	76e4 <memcpy>
     c9c:	7822      	ldrb	r2, [r4, #0]
     c9e:	3a04      	subs	r2, #4
     ca0:	b2d2      	uxtb	r2, r2
     ca2:	7022      	strb	r2, [r4, #0]
     ca4:	e7df      	b.n	c66 <bGPD_SecureFrame+0x86>
     ca6:	484a      	ldr	r0, [pc, #296]	; (dd0 <bGPD_SecureFrame+0x1f0>)
     ca8:	f000 fbf4 	bl	1494 <DbgConsole_Printf>
     cac:	4a49      	ldr	r2, [pc, #292]	; (dd4 <bGPD_SecureFrame+0x1f4>)
     cae:	f8cd b01c 	str.w	fp, [sp, #28]
     cb2:	465b      	mov	r3, fp
     cb4:	f04f 0910 	mov.w	r9, #16
     cb8:	f813 1b01 	ldrb.w	r1, [r3], #1
     cbc:	9308      	str	r3, [sp, #32]
     cbe:	4610      	mov	r0, r2
     cc0:	f109 39ff 	add.w	r9, r9, #4294967295
     cc4:	f000 fbe6 	bl	1494 <DbgConsole_Printf>
     cc8:	f019 09ff 	ands.w	r9, r9, #255	; 0xff
     ccc:	4a41      	ldr	r2, [pc, #260]	; (dd4 <bGPD_SecureFrame+0x1f4>)
     cce:	9b08      	ldr	r3, [sp, #32]
     cd0:	d1f2      	bne.n	cb8 <bGPD_SecureFrame+0xd8>
     cd2:	7823      	ldrb	r3, [r4, #0]
     cd4:	f8cd b000 	str.w	fp, [sp]
     cd8:	f10d 022b 	add.w	r2, sp, #43	; 0x2b
     cdc:	f10d 0954 	add.w	r9, sp, #84	; 0x54
     ce0:	1b9b      	subs	r3, r3, r6
     ce2:	e9cd 7203 	strd	r7, r2, [sp, #12]
     ce6:	b2db      	uxtb	r3, r3
     ce8:	4632      	mov	r2, r6
     cea:	2104      	movs	r1, #4
     cec:	4628      	mov	r0, r5
     cee:	e9cd 8901 	strd	r8, r9, [sp, #4]
     cf2:	f002 fd8d 	bl	3810 <vACI_OptimisedCcmStar>
     cf6:	7822      	ldrb	r2, [r4, #0]
     cf8:	4649      	mov	r1, r9
     cfa:	1b92      	subs	r2, r2, r6
     cfc:	4650      	mov	r0, sl
     cfe:	f006 fcf1 	bl	76e4 <memcpy>
     d02:	2d01      	cmp	r5, #1
     d04:	d10d      	bne.n	d22 <bGPD_SecureFrame+0x142>
     d06:	7820      	ldrb	r0, [r4, #0]
     d08:	301c      	adds	r0, #28
     d0a:	2204      	movs	r2, #4
     d0c:	4639      	mov	r1, r7
     d0e:	4420      	add	r0, r4
     d10:	f006 fce8 	bl	76e4 <memcpy>
     d14:	7823      	ldrb	r3, [r4, #0]
     d16:	3304      	adds	r3, #4
     d18:	7023      	strb	r3, [r4, #0]
     d1a:	4628      	mov	r0, r5
     d1c:	b02d      	add	sp, #180	; 0xb4
     d1e:	e8bd 8ff0 	ldmia.w	sp!, {r4, r5, r6, r7, r8, r9, sl, fp, pc}
     d22:	f89d 102b 	ldrb.w	r1, [sp, #43]	; 0x2b
     d26:	482c      	ldr	r0, [pc, #176]	; (dd8 <bGPD_SecureFrame+0x1f8>)
     d28:	f000 fbb4 	bl	1494 <DbgConsole_Printf>
     d2c:	f89d 302b 	ldrb.w	r3, [sp, #43]	; 0x2b
     d30:	b12b      	cbz	r3, d3e <bGPD_SecureFrame+0x15e>
     d32:	f89d 002b 	ldrb.w	r0, [sp, #43]	; 0x2b
     d36:	3800      	subs	r0, #0
     d38:	bf18      	it	ne
     d3a:	2001      	movne	r0, #1
     d3c:	e7ee      	b.n	d1c <bGPD_SecureFrame+0x13c>
     d3e:	7823      	ldrb	r3, [r4, #0]
     d40:	4826      	ldr	r0, [pc, #152]	; (ddc <bGPD_SecureFrame+0x1fc>)
     d42:	4629      	mov	r1, r5
     d44:	1b9b      	subs	r3, r3, r6
     d46:	4632      	mov	r2, r6
     d48:	f000 fba4 	bl	1494 <DbgConsole_Printf>
     d4c:	4820      	ldr	r0, [pc, #128]	; (dd0 <bGPD_SecureFrame+0x1f0>)
     d4e:	4d21      	ldr	r5, [pc, #132]	; (dd4 <bGPD_SecureFrame+0x1f4>)
     d50:	f000 fba0 	bl	1494 <DbgConsole_Printf>
     d54:	2410      	movs	r4, #16
     d56:	9b07      	ldr	r3, [sp, #28]
     d58:	4628      	mov	r0, r5
     d5a:	f813 1b01 	ldrb.w	r1, [r3], #1
     d5e:	9307      	str	r3, [sp, #28]
     d60:	3c01      	subs	r4, #1
     d62:	f000 fb97 	bl	1494 <DbgConsole_Printf>
     d66:	f014 04ff 	ands.w	r4, r4, #255	; 0xff
     d6a:	d1f4      	bne.n	d56 <bGPD_SecureFrame+0x176>
     d6c:	481c      	ldr	r0, [pc, #112]	; (de0 <bGPD_SecureFrame+0x200>)
     d6e:	4d19      	ldr	r5, [pc, #100]	; (dd4 <bGPD_SecureFrame+0x1f4>)
     d70:	f000 fb90 	bl	1494 <DbgConsole_Printf>
     d74:	2432      	movs	r4, #50	; 0x32
     d76:	f818 1b01 	ldrb.w	r1, [r8], #1
     d7a:	4628      	mov	r0, r5
     d7c:	3c01      	subs	r4, #1
     d7e:	f000 fb89 	bl	1494 <DbgConsole_Printf>
     d82:	f014 04ff 	ands.w	r4, r4, #255	; 0xff
     d86:	d1f6      	bne.n	d76 <bGPD_SecureFrame+0x196>
     d88:	4816      	ldr	r0, [pc, #88]	; (de4 <bGPD_SecureFrame+0x204>)
     d8a:	4d12      	ldr	r5, [pc, #72]	; (dd4 <bGPD_SecureFrame+0x1f4>)
     d8c:	f000 fb82 	bl	1494 <DbgConsole_Printf>
     d90:	2428      	movs	r4, #40	; 0x28
     d92:	f819 1b01 	ldrb.w	r1, [r9], #1
     d96:	4628      	mov	r0, r5
     d98:	3c01      	subs	r4, #1
     d9a:	f000 fb7b 	bl	1494 <DbgConsole_Printf>
     d9e:	f014 04ff 	ands.w	r4, r4, #255	; 0xff
     da2:	d1f6      	bne.n	d92 <bGPD_SecureFrame+0x1b2>
     da4:	4810      	ldr	r0, [pc, #64]	; (de8 <bGPD_SecureFrame+0x208>)
     da6:	4d0b      	ldr	r5, [pc, #44]	; (dd4 <bGPD_SecureFrame+0x1f4>)
     da8:	f000 fb74 	bl	1494 <DbgConsole_Printf>
     dac:	2404      	movs	r4, #4
     dae:	f817 1b01 	ldrb.w	r1, [r7], #1
     db2:	4628      	mov	r0, r5
     db4:	3c01      	subs	r4, #1
     db6:	f000 fb6d 	bl	1494 <DbgConsole_Printf>
     dba:	f014 04ff 	ands.w	r4, r4, #255	; 0xff
     dbe:	d1f6      	bne.n	dae <bGPD_SecureFrame+0x1ce>
     dc0:	e7b7      	b.n	d32 <bGPD_SecureFrame+0x152>
     dc2:	bf00      	nop
     dc4:	87654321 	.word	0x87654321
     dc8:	04015bd4 	.word	0x04015bd4
     dcc:	00007b36 	.word	0x00007b36
     dd0:	00007d9c 	.word	0x00007d9c
     dd4:	00007daf 	.word	0x00007daf
     dd8:	00007db6 	.word	0x00007db6
     ddc:	00007dc6 	.word	0x00007dc6
     de0:	00007df0 	.word	0x00007df0
     de4:	00007e14 	.word	0x00007e14
     de8:	00007e33 	.word	0x00007e33

00000dec <bGPD_ParseMACFrame>:
     dec:	4a34      	ldr	r2, [pc, #208]	; (ec0 <bGPD_ParseMACFrame+0xd4>)
     dee:	e92d 41f3 	stmdb	sp!, {r0, r1, r4, r5, r6, r7, r8, lr}
     df2:	f892 30b8 	ldrb.w	r3, [r2, #184]	; 0xb8
     df6:	460d      	mov	r5, r1
     df8:	f003 010c 	and.w	r1, r3, #12
     dfc:	2400      	movs	r4, #0
     dfe:	290c      	cmp	r1, #12
     e00:	9401      	str	r4, [sp, #4]
     e02:	4616      	mov	r6, r2
     e04:	d15a      	bne.n	ebc <bGPD_ParseMACFrame+0xd0>
     e06:	f013 0840 	ands.w	r8, r3, #64	; 0x40
     e0a:	d11f      	bne.n	e4c <bGPD_ParseMACFrame+0x60>
     e0c:	061b      	lsls	r3, r3, #24
     e0e:	d53a      	bpl.n	e86 <bGPD_ParseMACFrame+0x9a>
     e10:	f892 70b9 	ldrb.w	r7, [r2, #185]	; 0xb9
     e14:	f007 0407 	and.w	r4, r7, #7
     e18:	f3c7 07c1 	ubfx	r7, r7, #3, #2
     e1c:	2f03      	cmp	r7, #3
     e1e:	d006      	beq.n	e2e <bGPD_ParseMACFrame+0x42>
     e20:	b128      	cbz	r0, e2e <bGPD_ParseMACFrame+0x42>
     e22:	4828      	ldr	r0, [pc, #160]	; (ec4 <bGPD_ParseMACFrame+0xd8>)
     e24:	4639      	mov	r1, r7
     e26:	f000 fb35 	bl	1494 <DbgConsole_Printf>
     e2a:	2400      	movs	r4, #0
     e2c:	e00e      	b.n	e4c <bGPD_ParseMACFrame+0x60>
     e2e:	2c00      	cmp	r4, #0
     e30:	d1fb      	bne.n	e2a <bGPD_ParseMACFrame+0x3e>
     e32:	2204      	movs	r2, #4
     e34:	4924      	ldr	r1, [pc, #144]	; (ec8 <bGPD_ParseMACFrame+0xdc>)
     e36:	eb0d 0002 	add.w	r0, sp, r2
     e3a:	f006 fc53 	bl	76e4 <memcpy>
     e3e:	9901      	ldr	r1, [sp, #4]
     e40:	4a22      	ldr	r2, [pc, #136]	; (ecc <bGPD_ParseMACFrame+0xe0>)
     e42:	4291      	cmp	r1, r2
     e44:	d006      	beq.n	e54 <bGPD_ParseMACFrame+0x68>
     e46:	4822      	ldr	r0, [pc, #136]	; (ed0 <bGPD_ParseMACFrame+0xe4>)
     e48:	f000 fb24 	bl	1494 <DbgConsole_Printf>
     e4c:	4620      	mov	r0, r4
     e4e:	b002      	add	sp, #8
     e50:	e8bd 81f0 	ldmia.w	sp!, {r4, r5, r6, r7, r8, pc}
     e54:	b377      	cbz	r7, eb4 <bGPD_ParseMACFrame+0xc8>
     e56:	4b1f      	ldr	r3, [pc, #124]	; (ed4 <bGPD_ParseMACFrame+0xe8>)
     e58:	f8d6 10be 	ldr.w	r1, [r6, #190]	; 0xbe
     e5c:	699a      	ldr	r2, [r3, #24]
     e5e:	60a9      	str	r1, [r5, #8]
     e60:	4291      	cmp	r1, r2
     e62:	d901      	bls.n	e68 <bGPD_ParseMACFrame+0x7c>
     e64:	481c      	ldr	r0, [pc, #112]	; (ed8 <bGPD_ParseMACFrame+0xec>)
     e66:	e7ef      	b.n	e48 <bGPD_ParseMACFrame+0x5c>
     e68:	481c      	ldr	r0, [pc, #112]	; (edc <bGPD_ParseMACFrame+0xf0>)
     e6a:	f000 fb13 	bl	1494 <DbgConsole_Printf>
     e6e:	4621      	mov	r1, r4
     e70:	4b1b      	ldr	r3, [pc, #108]	; (ee0 <bGPD_ParseMACFrame+0xf4>)
     e72:	68aa      	ldr	r2, [r5, #8]
     e74:	200a      	movs	r0, #10
     e76:	f7ff feb3 	bl	be0 <bGPD_SecureFrame>
     e7a:	4604      	mov	r4, r0
     e7c:	b9e0      	cbnz	r0, eb8 <bGPD_ParseMACFrame+0xcc>
     e7e:	4819      	ldr	r0, [pc, #100]	; (ee4 <bGPD_ParseMACFrame+0xf8>)
     e80:	f000 fb08 	bl	1494 <DbgConsole_Printf>
     e84:	e7e2      	b.n	e4c <bGPD_ParseMACFrame+0x60>
     e86:	2401      	movs	r4, #1
     e88:	4621      	mov	r1, r4
     e8a:	4817      	ldr	r0, [pc, #92]	; (ee8 <bGPD_ParseMACFrame+0xfc>)
     e8c:	f000 fb02 	bl	1494 <DbgConsole_Printf>
     e90:	1c62      	adds	r2, r4, #1
     e92:	4434      	add	r4, r6
     e94:	f894 30b8 	ldrb.w	r3, [r4, #184]	; 0xb8
     e98:	702b      	strb	r3, [r5, #0]
     e9a:	2300      	movs	r3, #0
     e9c:	606b      	str	r3, [r5, #4]
     e9e:	f896 309c 	ldrb.w	r3, [r6, #156]	; 0x9c
     ea2:	4293      	cmp	r3, r2
     ea4:	d304      	bcc.n	eb0 <bGPD_ParseMACFrame+0xc4>
     ea6:	4911      	ldr	r1, [pc, #68]	; (eec <bGPD_ParseMACFrame+0x100>)
     ea8:	1a9b      	subs	r3, r3, r2
     eaa:	4411      	add	r1, r2
     eac:	6069      	str	r1, [r5, #4]
     eae:	706b      	strb	r3, [r5, #1]
     eb0:	2401      	movs	r4, #1
     eb2:	e7cb      	b.n	e4c <bGPD_ParseMACFrame+0x60>
     eb4:	2406      	movs	r4, #6
     eb6:	e7e7      	b.n	e88 <bGPD_ParseMACFrame+0x9c>
     eb8:	240a      	movs	r4, #10
     eba:	e7e5      	b.n	e88 <bGPD_ParseMACFrame+0x9c>
     ebc:	480c      	ldr	r0, [pc, #48]	; (ef0 <bGPD_ParseMACFrame+0x104>)
     ebe:	e7df      	b.n	e80 <bGPD_ParseMACFrame+0x94>
     ec0:	040159b4 	.word	0x040159b4
     ec4:	00007e4c 	.word	0x00007e4c
     ec8:	04015a6e 	.word	0x04015a6e
     ecc:	87654321 	.word	0x87654321
     ed0:	00007e87 	.word	0x00007e87
     ed4:	04015bcc 	.word	0x04015bcc
     ed8:	00007ecf 	.word	0x00007ecf
     edc:	00007f20 	.word	0x00007f20
     ee0:	04015a50 	.word	0x04015a50
     ee4:	00007f55 	.word	0x00007f55
     ee8:	00007f79 	.word	0x00007f79
     eec:	04015a6c 	.word	0x04015a6c
     ef0:	00007faf 	.word	0x00007faf

00000ef4 <GPD_SendSpecificCommand>:
     ef4:	2101      	movs	r1, #1
     ef6:	b510      	push	{r4, lr}
     ef8:	2200      	movs	r2, #0
     efa:	4604      	mov	r4, r0
     efc:	4608      	mov	r0, r1
     efe:	f7ff fe03 	bl	b08 <GPD_ConstructMACAndNetworkHeader>
     f02:	4b10      	ldr	r3, [pc, #64]	; (f44 <GPD_SendSpecificCommand+0x50>)
     f04:	7818      	ldrb	r0, [r3, #0]
     f06:	1819      	adds	r1, r3, r0
     f08:	1c42      	adds	r2, r0, #1
     f0a:	b2d2      	uxtb	r2, r2
     f0c:	701a      	strb	r2, [r3, #0]
     f0e:	770c      	strb	r4, [r1, #28]
     f10:	f1a4 0135 	sub.w	r1, r4, #53	; 0x35
     f14:	2901      	cmp	r1, #1
     f16:	d804      	bhi.n	f22 <GPD_SendSpecificCommand+0x2e>
     f18:	1c81      	adds	r1, r0, #2
     f1a:	7019      	strb	r1, [r3, #0]
     f1c:	4413      	add	r3, r2
     f1e:	2241      	movs	r2, #65	; 0x41
     f20:	771a      	strb	r2, [r3, #28]
     f22:	4b09      	ldr	r3, [pc, #36]	; (f48 <GPD_SendSpecificCommand+0x54>)
     f24:	699a      	ldr	r2, [r3, #24]
     f26:	4b07      	ldr	r3, [pc, #28]	; (f44 <GPD_SendSpecificCommand+0x50>)
     f28:	3a01      	subs	r2, #1
     f2a:	2101      	movs	r1, #1
     f2c:	f7ff fe58 	bl	be0 <bGPD_SecureFrame>
     f30:	4621      	mov	r1, r4
     f32:	4806      	ldr	r0, [pc, #24]	; (f4c <GPD_SendSpecificCommand+0x58>)
     f34:	f000 faae 	bl	1494 <DbgConsole_Printf>
     f38:	e8bd 4010 	ldmia.w	sp!, {r4, lr}
     f3c:	2001      	movs	r0, #1
     f3e:	f7ff ba79 	b.w	434 <vSendMACFrame>
     f42:	bf00      	nop
     f44:	040159b4 	.word	0x040159b4
     f48:	04015bcc 	.word	0x04015bcc
     f4c:	00007fc5 	.word	0x00007fc5

00000f50 <GPD_SendOperationalCommand>:
     f50:	2101      	movs	r1, #1
     f52:	b508      	push	{r3, lr}
     f54:	4608      	mov	r0, r1
     f56:	2200      	movs	r2, #0
     f58:	f7ff fdd6 	bl	b08 <GPD_ConstructMACAndNetworkHeader>
     f5c:	4b0c      	ldr	r3, [pc, #48]	; (f90 <GPD_SendOperationalCommand+0x40>)
     f5e:	7818      	ldrb	r0, [r3, #0]
     f60:	1c42      	adds	r2, r0, #1
     f62:	701a      	strb	r2, [r3, #0]
     f64:	181a      	adds	r2, r3, r0
     f66:	2121      	movs	r1, #33	; 0x21
     f68:	7711      	strb	r1, [r2, #28]
     f6a:	4a0a      	ldr	r2, [pc, #40]	; (f94 <GPD_SendOperationalCommand+0x44>)
     f6c:	7811      	ldrb	r1, [r2, #0]
     f6e:	f041 0120 	orr.w	r1, r1, #32
     f72:	7011      	strb	r1, [r2, #0]
     f74:	6992      	ldr	r2, [r2, #24]
     f76:	2101      	movs	r1, #1
     f78:	3a01      	subs	r2, #1
     f7a:	f7ff fe31 	bl	be0 <bGPD_SecureFrame>
     f7e:	4806      	ldr	r0, [pc, #24]	; (f98 <GPD_SendOperationalCommand+0x48>)
     f80:	f000 fa88 	bl	1494 <DbgConsole_Printf>
     f84:	e8bd 4008 	ldmia.w	sp!, {r3, lr}
     f88:	2001      	movs	r0, #1
     f8a:	f7ff ba53 	b.w	434 <vSendMACFrame>
     f8e:	bf00      	nop
     f90:	040159b4 	.word	0x040159b4
     f94:	04015bcc 	.word	0x04015bcc
     f98:	00007ffa 	.word	0x00007ffa

00000f9c <bAPP_ReadBlock>:
     f9c:	e92d 47f0 	stmdb	sp!, {r4, r5, r6, r7, r8, r9, sl, lr}
     fa0:	f8df a064 	ldr.w	sl, [pc, #100]	; 1008 <STACK_SIZE+0x28>
     fa4:	f8df 9064 	ldr.w	r9, [pc, #100]	; 100c <STACK_SIZE+0x2c>
     fa8:	4607      	mov	r7, r0
     faa:	460e      	mov	r6, r1
     fac:	2500      	movs	r5, #0
     fae:	46d0      	mov	r8, sl
     fb0:	f8da 4000 	ldr.w	r4, [sl]
     fb4:	442c      	add	r4, r5
     fb6:	0264      	lsls	r4, r4, #9
     fb8:	f204 12ff 	addw	r2, r4, #511	; 0x1ff
     fbc:	4621      	mov	r1, r4
     fbe:	4648      	mov	r0, r9
     fc0:	f001 fce2 	bl	2988 <FLASH_BlankCheck>
     fc4:	2804      	cmp	r0, #4
     fc6:	d018      	beq.n	ffa <STACK_SIZE+0x1a>
     fc8:	4a0e      	ldr	r2, [pc, #56]	; (1004 <STACK_SIZE+0x24>)
     fca:	2300      	movs	r3, #0
     fcc:	429f      	cmp	r7, r3
     fce:	dc0f      	bgt.n	ff0 <STACK_SIZE+0x10>
     fd0:	490c      	ldr	r1, [pc, #48]	; (1004 <STACK_SIZE+0x24>)
     fd2:	2220      	movs	r2, #32
     fd4:	4630      	mov	r0, r6
     fd6:	f006 fb85 	bl	76e4 <memcpy>
     fda:	7f73      	ldrb	r3, [r6, #29]
     fdc:	2ba8      	cmp	r3, #168	; 0xa8
     fde:	d10c      	bne.n	ffa <STACK_SIZE+0x1a>
     fe0:	f8d8 3000 	ldr.w	r3, [r8]
     fe4:	442b      	add	r3, r5
     fe6:	f8c8 3000 	str.w	r3, [r8]
     fea:	2001      	movs	r0, #1
     fec:	e8bd 87f0 	ldmia.w	sp!, {r4, r5, r6, r7, r8, r9, sl, pc}
     ff0:	5d19      	ldrb	r1, [r3, r4]
     ff2:	f802 1b01 	strb.w	r1, [r2], #1
     ff6:	3301      	adds	r3, #1
     ff8:	e7e8      	b.n	fcc <bAPP_ReadBlock+0x30>
     ffa:	3501      	adds	r5, #1
     ffc:	2d0e      	cmp	r5, #14
     ffe:	d1d7      	bne.n	fb0 <bAPP_ReadBlock+0x14>
    1000:	e7f3      	b.n	fea <STACK_SIZE+0xa>
    1002:	bf00      	nop
    1004:	04015bec 	.word	0x04015bec
    1008:	04015af4 	.word	0x04015af4
    100c:	40009000 	.word	0x40009000

00001010 <bAPP_NVMWrite>:
    1010:	b570      	push	{r4, r5, r6, lr}
    1012:	f240 25ca 	movw	r5, #714	; 0x2ca
    1016:	42a8      	cmp	r0, r5
    1018:	bf94      	ite	ls
    101a:	4605      	movls	r5, r0
    101c:	f44f 752f 	movhi.w	r5, #700	; 0x2bc
    1020:	2201      	movs	r2, #1
    1022:	4812      	ldr	r0, [pc, #72]	; (106c <bAPP_NVMWrite+0x5c>)
    1024:	4629      	mov	r1, r5
    1026:	461c      	mov	r4, r3
    1028:	f001 fca7 	bl	297a <FLASH_ErasePages>
    102c:	2804      	cmp	r0, #4
    102e:	d001      	beq.n	1034 <bAPP_NVMWrite+0x24>
    1030:	2000      	movs	r0, #0
    1032:	bd70      	pop	{r4, r5, r6, pc}
    1034:	026e      	lsls	r6, r5, #9
    1036:	480d      	ldr	r0, [pc, #52]	; (106c <bAPP_NVMWrite+0x5c>)
    1038:	f206 12ff 	addw	r2, r6, #511	; 0x1ff
    103c:	4631      	mov	r1, r6
    103e:	f001 fca3 	bl	2988 <FLASH_BlankCheck>
    1042:	2804      	cmp	r0, #4
    1044:	d1f4      	bne.n	1030 <bAPP_NVMWrite+0x20>
    1046:	23a8      	movs	r3, #168	; 0xa8
    1048:	7763      	strb	r3, [r4, #29]
    104a:	4622      	mov	r2, r4
    104c:	f44f 7300 	mov.w	r3, #512	; 0x200
    1050:	4631      	mov	r1, r6
    1052:	4806      	ldr	r0, [pc, #24]	; (106c <bAPP_NVMWrite+0x5c>)
    1054:	f001 fca5 	bl	29a2 <FLASH_Program>
    1058:	2201      	movs	r2, #1
    105a:	4604      	mov	r4, r0
    105c:	1e69      	subs	r1, r5, #1
    105e:	4803      	ldr	r0, [pc, #12]	; (106c <bAPP_NVMWrite+0x5c>)
    1060:	f001 fc8b 	bl	297a <FLASH_ErasePages>
    1064:	1f23      	subs	r3, r4, #4
    1066:	4258      	negs	r0, r3
    1068:	4158      	adcs	r0, r3
    106a:	e7e2      	b.n	1032 <bAPP_NVMWrite+0x22>
    106c:	40009000 	.word	0x40009000

00001070 <bAPP_NVMWriteBlock>:
    1070:	b570      	push	{r4, r5, r6, lr}
    1072:	f5b0 7f00 	cmp.w	r0, #512	; 0x200
    1076:	4d0a      	ldr	r5, [pc, #40]	; (10a0 <bAPP_NVMWriteBlock+0x30>)
    1078:	bf28      	it	cs
    107a:	f44f 7000 	movcs.w	r0, #512	; 0x200
    107e:	4604      	mov	r4, r0
    1080:	4602      	mov	r2, r0
    1082:	4628      	mov	r0, r5
    1084:	f006 fb2e 	bl	76e4 <memcpy>
    1088:	4b06      	ldr	r3, [pc, #24]	; (10a4 <bAPP_NVMWriteBlock+0x34>)
    108a:	6819      	ldr	r1, [r3, #0]
    108c:	1c48      	adds	r0, r1, #1
    108e:	6018      	str	r0, [r3, #0]
    1090:	b2e2      	uxtb	r2, r4
    1092:	462b      	mov	r3, r5
    1094:	2100      	movs	r1, #0
    1096:	e8bd 4070 	ldmia.w	sp!, {r4, r5, r6, lr}
    109a:	f7ff bfb9 	b.w	1010 <bAPP_NVMWrite>
    109e:	bf00      	nop
    10a0:	04015bec 	.word	0x04015bec
    10a4:	04015af4 	.word	0x04015af4

000010a8 <gint_callback>:
    10a8:	b538      	push	{r3, r4, r5, lr}
    10aa:	4b0d      	ldr	r3, [pc, #52]	; (10e0 <gint_callback+0x38>)
    10ac:	4d0d      	ldr	r5, [pc, #52]	; (10e4 <gint_callback+0x3c>)
    10ae:	480e      	ldr	r0, [pc, #56]	; (10e8 <gint_callback+0x40>)
    10b0:	2200      	movs	r2, #0
    10b2:	701a      	strb	r2, [r3, #0]
    10b4:	4b0d      	ldr	r3, [pc, #52]	; (10ec <gint_callback+0x44>)
    10b6:	681c      	ldr	r4, [r3, #0]
    10b8:	402c      	ands	r4, r5
    10ba:	4621      	mov	r1, r4
    10bc:	f000 f9ea 	bl	1494 <DbgConsole_Printf>
    10c0:	42ac      	cmp	r4, r5
    10c2:	d00c      	beq.n	10de <gint_callback+0x36>
    10c4:	4c0a      	ldr	r4, [pc, #40]	; (10f0 <gint_callback+0x48>)
    10c6:	480b      	ldr	r0, [pc, #44]	; (10f4 <gint_callback+0x4c>)
    10c8:	f000 fa6e 	bl	15a8 <GINT_DisableCallback>
    10cc:	7820      	ldrb	r0, [r4, #0]
    10ce:	f000 fbab 	bl	1828 <ZTIMER_eStop>
    10d2:	7820      	ldrb	r0, [r4, #0]
    10d4:	210a      	movs	r1, #10
    10d6:	e8bd 4038 	ldmia.w	sp!, {r3, r4, r5, lr}
    10da:	f000 bb7d 	b.w	17d8 <ZTIMER_eStart>
    10de:	bd38      	pop	{r3, r4, r5, pc}
    10e0:	04015af0 	.word	0x04015af0
    10e4:	00088092 	.word	0x00088092
    10e8:	00008030 	.word	0x00008030
    10ec:	40082100 	.word	0x40082100
    10f0:	04015bc0 	.word	0x04015bc0
    10f4:	40011000 	.word	0x40011000

000010f8 <vHandleButtonPress>:
    10f8:	b510      	push	{r4, lr}
    10fa:	4604      	mov	r4, r0
    10fc:	f7ff fabe 	bl	67c <vLoadPersistentData>
    1100:	2c0f      	cmp	r4, #15
    1102:	d81a      	bhi.n	113a <vHandleButtonPress+0x42>
    1104:	e8df f004 	tbb	[pc, r4]
    1108:	3e2d1a08 	.word	0x3e2d1a08
    110c:	19194743 	.word	0x19194743
    1110:	19191919 	.word	0x19191919
    1114:	45451919 	.word	0x45451919
    1118:	4c2c      	ldr	r4, [pc, #176]	; (11cc <vHandleButtonPress+0xd4>)
    111a:	7823      	ldrb	r3, [r4, #0]
    111c:	07d8      	lsls	r0, r3, #31
    111e:	d50c      	bpl.n	113a <vHandleButtonPress+0x42>
    1120:	4621      	mov	r1, r4
    1122:	2020      	movs	r0, #32
    1124:	7723      	strb	r3, [r4, #28]
    1126:	f7ff ffa3 	bl	1070 <bAPP_NVMWriteBlock>
    112a:	7f22      	ldrb	r2, [r4, #28]
    112c:	7821      	ldrb	r1, [r4, #0]
    112e:	4828      	ldr	r0, [pc, #160]	; (11d0 <vHandleButtonPress+0xd8>)
    1130:	f000 f9b0 	bl	1494 <DbgConsole_Printf>
    1134:	4b27      	ldr	r3, [pc, #156]	; (11d4 <vHandleButtonPress+0xdc>)
    1136:	2201      	movs	r2, #1
    1138:	701a      	strb	r2, [r3, #0]
    113a:	bd10      	pop	{r4, pc}
    113c:	4c25      	ldr	r4, [pc, #148]	; (11d4 <vHandleButtonPress+0xdc>)
    113e:	7823      	ldrb	r3, [r4, #0]
    1140:	b13b      	cbz	r3, 1152 <vHandleButtonPress+0x5a>
    1142:	4b22      	ldr	r3, [pc, #136]	; (11cc <vHandleButtonPress+0xd4>)
    1144:	4824      	ldr	r0, [pc, #144]	; (11d8 <vHandleButtonPress+0xe0>)
    1146:	2202      	movs	r2, #2
    1148:	701a      	strb	r2, [r3, #0]
    114a:	f000 f9a3 	bl	1494 <DbgConsole_Printf>
    114e:	2300      	movs	r3, #0
    1150:	7023      	strb	r3, [r4, #0]
    1152:	4822      	ldr	r0, [pc, #136]	; (11dc <vHandleButtonPress+0xe4>)
    1154:	f000 f99e 	bl	1494 <DbgConsole_Printf>
    1158:	2000      	movs	r0, #0
    115a:	e8bd 4010 	ldmia.w	sp!, {r4, lr}
    115e:	f7ff bcb9 	b.w	ad4 <HandleGPDStateMachine>
    1162:	4c1c      	ldr	r4, [pc, #112]	; (11d4 <vHandleButtonPress+0xdc>)
    1164:	481e      	ldr	r0, [pc, #120]	; (11e0 <vHandleButtonPress+0xe8>)
    1166:	f000 f995 	bl	1494 <DbgConsole_Printf>
    116a:	7823      	ldrb	r3, [r4, #0]
    116c:	b143      	cbz	r3, 1180 <vHandleButtonPress+0x88>
    116e:	4b17      	ldr	r3, [pc, #92]	; (11cc <vHandleButtonPress+0xd4>)
    1170:	781b      	ldrb	r3, [r3, #0]
    1172:	07d9      	lsls	r1, r3, #31
    1174:	d5e1      	bpl.n	113a <vHandleButtonPress+0x42>
    1176:	f7ff fa29 	bl	5cc <vSendDecommissioingCmd>
    117a:	2300      	movs	r3, #0
    117c:	7023      	strb	r3, [r4, #0]
    117e:	e7dc      	b.n	113a <vHandleButtonPress+0x42>
    1180:	2020      	movs	r0, #32
    1182:	e7ea      	b.n	115a <vHandleButtonPress+0x62>
    1184:	4817      	ldr	r0, [pc, #92]	; (11e4 <vHandleButtonPress+0xec>)
    1186:	f000 f985 	bl	1494 <DbgConsole_Printf>
    118a:	2035      	movs	r0, #53	; 0x35
    118c:	e7e5      	b.n	115a <vHandleButtonPress+0x62>
    118e:	2036      	movs	r0, #54	; 0x36
    1190:	e7e3      	b.n	115a <vHandleButtonPress+0x62>
    1192:	2034      	movs	r0, #52	; 0x34
    1194:	e7e1      	b.n	115a <vHandleButtonPress+0x62>
    1196:	4c0d      	ldr	r4, [pc, #52]	; (11cc <vHandleButtonPress+0xd4>)
    1198:	4813      	ldr	r0, [pc, #76]	; (11e8 <vHandleButtonPress+0xf0>)
    119a:	7f22      	ldrb	r2, [r4, #28]
    119c:	7821      	ldrb	r1, [r4, #0]
    119e:	f000 f979 	bl	1494 <DbgConsole_Printf>
    11a2:	7823      	ldrb	r3, [r4, #0]
    11a4:	2b02      	cmp	r3, #2
    11a6:	d1c8      	bne.n	113a <vHandleButtonPress+0x42>
    11a8:	7f23      	ldrb	r3, [r4, #28]
    11aa:	07da      	lsls	r2, r3, #31
    11ac:	d5c5      	bpl.n	113a <vHandleButtonPress+0x42>
    11ae:	7023      	strb	r3, [r4, #0]
    11b0:	4621      	mov	r1, r4
    11b2:	2300      	movs	r3, #0
    11b4:	2020      	movs	r0, #32
    11b6:	7723      	strb	r3, [r4, #28]
    11b8:	f7ff ff5a 	bl	1070 <bAPP_NVMWriteBlock>
    11bc:	7f22      	ldrb	r2, [r4, #28]
    11be:	7821      	ldrb	r1, [r4, #0]
    11c0:	4803      	ldr	r0, [pc, #12]	; (11d0 <vHandleButtonPress+0xd8>)
    11c2:	e8bd 4010 	ldmia.w	sp!, {r4, lr}
    11c6:	f000 b965 	b.w	1494 <DbgConsole_Printf>
    11ca:	bf00      	nop
    11cc:	04015bcc 	.word	0x04015bcc
    11d0:	00008059 	.word	0x00008059
    11d4:	04015dec 	.word	0x04015dec
    11d8:	00008079 	.word	0x00008079
    11dc:	0000808b 	.word	0x0000808b
    11e0:	000080b0 	.word	0x000080b0
    11e4:	000080cd 	.word	0x000080cd
    11e8:	000080ea 	.word	0x000080ea

000011ec <APP_cbTimerButtonScan>:
    11ec:	4b32      	ldr	r3, [pc, #200]	; (12b8 <APP_cbTimerButtonScan+0xcc>)
    11ee:	e92d 4ff0 	stmdb	sp!, {r4, r5, r6, r7, r8, r9, sl, fp, lr}
    11f2:	681e      	ldr	r6, [r3, #0]
    11f4:	4f31      	ldr	r7, [pc, #196]	; (12bc <APP_cbTimerButtonScan+0xd0>)
    11f6:	f8df 90dc 	ldr.w	r9, [pc, #220]	; 12d4 <APP_cbTimerButtonScan+0xe8>
    11fa:	4d31      	ldr	r5, [pc, #196]	; (12c0 <APP_cbTimerButtonScan+0xd4>)
    11fc:	f8df 80d8 	ldr.w	r8, [pc, #216]	; 12d8 <APP_cbTimerButtonScan+0xec>
    1200:	f8df a0d8 	ldr.w	sl, [pc, #216]	; 12dc <APP_cbTimerButtonScan+0xf0>
    1204:	f026 467f 	bic.w	r6, r6, #4278190080	; 0xff000000
    1208:	f426 0677 	bic.w	r6, r6, #16187392	; 0xf70000
    120c:	f426 46fe 	bic.w	r6, r6, #32512	; 0x7f00
    1210:	b085      	sub	sp, #20
    1212:	f026 066d 	bic.w	r6, r6, #109	; 0x6d
    1216:	2400      	movs	r4, #0
    1218:	f04f 0bff 	mov.w	fp, #255	; 0xff
    121c:	f817 3b01 	ldrb.w	r3, [r7], #1
    1220:	f899 1000 	ldrb.w	r1, [r9]
    1224:	fa26 f303 	lsr.w	r3, r6, r3
    1228:	f003 0301 	and.w	r3, r3, #1
    122c:	ea43 0341 	orr.w	r3, r3, r1, lsl #1
    1230:	b2db      	uxtb	r3, r3
    1232:	f809 3b01 	strb.w	r3, [r9], #1
    1236:	ea03 0b0b 	and.w	fp, r3, fp
    123a:	bb3b      	cbnz	r3, 128c <APP_cbTimerButtonScan+0xa0>
    123c:	782b      	ldrb	r3, [r5, #0]
    123e:	b97b      	cbnz	r3, 1260 <APP_cbTimerButtonScan+0x74>
    1240:	2301      	movs	r3, #1
    1242:	702b      	strb	r3, [r5, #0]
    1244:	2302      	movs	r3, #2
    1246:	f88d 3004 	strb.w	r3, [sp, #4]
    124a:	f88d 4008 	strb.w	r4, [sp, #8]
    124e:	9603      	str	r6, [sp, #12]
    1250:	4621      	mov	r1, r4
    1252:	4650      	mov	r0, sl
    1254:	f000 f91e 	bl	1494 <DbgConsole_Printf>
    1258:	a901      	add	r1, sp, #4
    125a:	4640      	mov	r0, r8
    125c:	f7ff f86e 	bl	33c <bHandleEventSend>
    1260:	3401      	adds	r4, #1
    1262:	2c05      	cmp	r4, #5
    1264:	f105 0501 	add.w	r5, r5, #1
    1268:	d1d8      	bne.n	121c <APP_cbTimerButtonScan+0x30>
    126a:	f1bb 0fff 	cmp.w	fp, #255	; 0xff
    126e:	4d15      	ldr	r5, [pc, #84]	; (12c4 <APP_cbTimerButtonScan+0xd8>)
    1270:	d11c      	bne.n	12ac <APP_cbTimerButtonScan+0xc0>
    1272:	4621      	mov	r1, r4
    1274:	4814      	ldr	r0, [pc, #80]	; (12c8 <APP_cbTimerButtonScan+0xdc>)
    1276:	f000 f90d 	bl	1494 <DbgConsole_Printf>
    127a:	4814      	ldr	r0, [pc, #80]	; (12cc <APP_cbTimerButtonScan+0xe0>)
    127c:	f000 f984 	bl	1588 <GINT_EnableCallback>
    1280:	7828      	ldrb	r0, [r5, #0]
    1282:	f000 fad1 	bl	1828 <ZTIMER_eStop>
    1286:	b005      	add	sp, #20
    1288:	e8bd 8ff0 	ldmia.w	sp!, {r4, r5, r6, r7, r8, r9, sl, fp, pc}
    128c:	2bff      	cmp	r3, #255	; 0xff
    128e:	d1e7      	bne.n	1260 <APP_cbTimerButtonScan+0x74>
    1290:	782b      	ldrb	r3, [r5, #0]
    1292:	2b00      	cmp	r3, #0
    1294:	d0e4      	beq.n	1260 <APP_cbTimerButtonScan+0x74>
    1296:	2300      	movs	r3, #0
    1298:	702b      	strb	r3, [r5, #0]
    129a:	2301      	movs	r3, #1
    129c:	480c      	ldr	r0, [pc, #48]	; (12d0 <APP_cbTimerButtonScan+0xe4>)
    129e:	f88d 3004 	strb.w	r3, [sp, #4]
    12a2:	f88d 4008 	strb.w	r4, [sp, #8]
    12a6:	9603      	str	r6, [sp, #12]
    12a8:	4621      	mov	r1, r4
    12aa:	e7d3      	b.n	1254 <APP_cbTimerButtonScan+0x68>
    12ac:	7828      	ldrb	r0, [r5, #0]
    12ae:	210a      	movs	r1, #10
    12b0:	f000 fa92 	bl	17d8 <ZTIMER_eStart>
    12b4:	e7e7      	b.n	1286 <APP_cbTimerButtonScan+0x9a>
    12b6:	bf00      	nop
    12b8:	40082100 	.word	0x40082100
    12bc:	00008140 	.word	0x00008140
    12c0:	04015ded 	.word	0x04015ded
    12c4:	04015bc0 	.word	0x04015bc0
    12c8:	00008138 	.word	0x00008138
    12cc:	40011000 	.word	0x40011000
    12d0:	0000812a 	.word	0x0000812a
    12d4:	04015af8 	.word	0x04015af8
    12d8:	04015b80 	.word	0x04015b80
    12dc:	0000811c 	.word	0x0000811c

000012e0 <bButtonInitialize>:
    12e0:	e92d 41f3 	stmdb	sp!, {r0, r1, r4, r5, r6, r7, r8, lr}
    12e4:	2300      	movs	r3, #0
    12e6:	4d1b      	ldr	r5, [pc, #108]	; (1354 <bButtonInitialize+0x74>)
    12e8:	4e1b      	ldr	r6, [pc, #108]	; (1358 <bButtonInitialize+0x78>)
    12ea:	f8df 8080 	ldr.w	r8, [pc, #128]	; 136c <bButtonInitialize+0x8c>
    12ee:	f8ad 3004 	strh.w	r3, [sp, #4]
    12f2:	2405      	movs	r4, #5
    12f4:	2780      	movs	r7, #128	; 0x80
    12f6:	f815 2b01 	ldrb.w	r2, [r5], #1
    12fa:	2a15      	cmp	r2, #21
    12fc:	d806      	bhi.n	130c <bButtonInitialize+0x2c>
    12fe:	f846 7022 	str.w	r7, [r6, r2, lsl #2]
    1302:	ab01      	add	r3, sp, #4
    1304:	2100      	movs	r1, #0
    1306:	4640      	mov	r0, r8
    1308:	f000 f8e4 	bl	14d4 <GPIO_PinInit>
    130c:	3c01      	subs	r4, #1
    130e:	f014 04ff 	ands.w	r4, r4, #255	; 0xff
    1312:	d1f0      	bne.n	12f6 <bButtonInitialize+0x16>
    1314:	4d11      	ldr	r5, [pc, #68]	; (135c <bButtonInitialize+0x7c>)
    1316:	4812      	ldr	r0, [pc, #72]	; (1360 <bButtonInitialize+0x80>)
    1318:	f000 f908 	bl	152c <GINT_Init>
    131c:	4622      	mov	r2, r4
    131e:	4621      	mov	r1, r4
    1320:	4b10      	ldr	r3, [pc, #64]	; (1364 <bButtonInitialize+0x84>)
    1322:	480f      	ldr	r0, [pc, #60]	; (1360 <bButtonInitialize+0x80>)
    1324:	f000 f914 	bl	1550 <GINT_SetCtrl>
    1328:	462b      	mov	r3, r5
    132a:	4622      	mov	r2, r4
    132c:	4621      	mov	r1, r4
    132e:	480c      	ldr	r0, [pc, #48]	; (1360 <bButtonInitialize+0x80>)
    1330:	f000 f924 	bl	157c <GINT_ConfigPins>
    1334:	480a      	ldr	r0, [pc, #40]	; (1360 <bButtonInitialize+0x80>)
    1336:	f000 f927 	bl	1588 <GINT_EnableCallback>
    133a:	4620      	mov	r0, r4
    133c:	f7ff ff56 	bl	11ec <APP_cbTimerButtonScan>
    1340:	4b09      	ldr	r3, [pc, #36]	; (1368 <bButtonInitialize+0x88>)
    1342:	681b      	ldr	r3, [r3, #0]
    1344:	ea35 0303 	bics.w	r3, r5, r3
    1348:	bf14      	ite	ne
    134a:	2001      	movne	r0, #1
    134c:	2000      	moveq	r0, #0
    134e:	b002      	add	sp, #8
    1350:	e8bd 81f0 	ldmia.w	sp!, {r4, r5, r6, r7, r8, pc}
    1354:	00008140 	.word	0x00008140
    1358:	4000f000 	.word	0x4000f000
    135c:	00088092 	.word	0x00088092
    1360:	40011000 	.word	0x40011000
    1364:	000010a9 	.word	0x000010a9
    1368:	40082100 	.word	0x40082100
    136c:	40080000 	.word	0x40080000

00001370 <DbgConsole_SendDataReliable>:
    1370:	b510      	push	{r4, lr}
    1372:	460c      	mov	r4, r1
    1374:	4601      	mov	r1, r0
    1376:	b930      	cbnz	r0, 1386 <DbgConsole_SendDataReliable+0x16>
    1378:	4b0b      	ldr	r3, [pc, #44]	; (13a8 <DbgConsole_SendDataReliable+0x38>)
    137a:	4a0c      	ldr	r2, [pc, #48]	; (13ac <DbgConsole_SendDataReliable+0x3c>)
    137c:	f240 11d1 	movw	r1, #465	; 0x1d1
    1380:	480b      	ldr	r0, [pc, #44]	; (13b0 <DbgConsole_SendDataReliable+0x40>)
    1382:	f003 f8bf 	bl	4504 <__assert_func>
    1386:	b924      	cbnz	r4, 1392 <DbgConsole_SendDataReliable+0x22>
    1388:	4b0a      	ldr	r3, [pc, #40]	; (13b4 <DbgConsole_SendDataReliable+0x44>)
    138a:	4a08      	ldr	r2, [pc, #32]	; (13ac <DbgConsole_SendDataReliable+0x3c>)
    138c:	f44f 71e9 	mov.w	r1, #466	; 0x1d2
    1390:	e7f6      	b.n	1380 <DbgConsole_SendDataReliable+0x10>
    1392:	4622      	mov	r2, r4
    1394:	4808      	ldr	r0, [pc, #32]	; (13b8 <DbgConsole_SendDataReliable+0x48>)
    1396:	f002 ffa1 	bl	42dc <SerialManager_WriteBlocking>
    139a:	2800      	cmp	r0, #0
    139c:	bf0c      	ite	eq
    139e:	4620      	moveq	r0, r4
    13a0:	f04f 30ff 	movne.w	r0, #4294967295
    13a4:	bd10      	pop	{r4, pc}
    13a6:	bf00      	nop
    13a8:	00008145 	.word	0x00008145
    13ac:	000081e4 	.word	0x000081e4
    13b0:	00008150 	.word	0x00008150
    13b4:	000081b2 	.word	0x000081b2
    13b8:	04015e0c 	.word	0x04015e0c

000013bc <DbgConsole_PrintCallback>:
    13bc:	e92d 43f8 	stmdb	sp!, {r3, r4, r5, r6, r7, r8, r9, lr}
    13c0:	2500      	movs	r5, #0
    13c2:	4606      	mov	r6, r0
    13c4:	460c      	mov	r4, r1
    13c6:	4690      	mov	r8, r2
    13c8:	461f      	mov	r7, r3
    13ca:	46a9      	mov	r9, r5
    13cc:	42bd      	cmp	r5, r7
    13ce:	db01      	blt.n	13d4 <DbgConsole_PrintCallback+0x18>
    13d0:	e8bd 83f8 	ldmia.w	sp!, {r3, r4, r5, r6, r7, r8, r9, pc}
    13d4:	6821      	ldr	r1, [r4, #0]
    13d6:	1c4b      	adds	r3, r1, #1
    13d8:	2b7f      	cmp	r3, #127	; 0x7f
    13da:	d904      	bls.n	13e6 <DbgConsole_PrintCallback+0x2a>
    13dc:	4630      	mov	r0, r6
    13de:	f7ff ffc7 	bl	1370 <DbgConsole_SendDataReliable>
    13e2:	f8c4 9000 	str.w	r9, [r4]
    13e6:	6823      	ldr	r3, [r4, #0]
    13e8:	f806 8003 	strb.w	r8, [r6, r3]
    13ec:	6823      	ldr	r3, [r4, #0]
    13ee:	3301      	adds	r3, #1
    13f0:	6023      	str	r3, [r4, #0]
    13f2:	3501      	adds	r5, #1
    13f4:	e7ea      	b.n	13cc <DbgConsole_PrintCallback+0x10>
    13f6:	Address 0x000013f6 is out of bounds.


000013f8 <DbgConsole_Init>:
    13f8:	b510      	push	{r4, lr}
    13fa:	b088      	sub	sp, #32
    13fc:	e9cd 3104 	strd	r3, r1, [sp, #16]
    1400:	2301      	movs	r3, #1
    1402:	2100      	movs	r1, #0
    1404:	429a      	cmp	r2, r3
    1406:	f8ad 1018 	strh.w	r1, [sp, #24]
    140a:	f88d 001a 	strb.w	r0, [sp, #26]
    140e:	f88d 301b 	strb.w	r3, [sp, #27]
    1412:	f88d 301c 	strb.w	r3, [sp, #28]
    1416:	f88d 2008 	strb.w	r2, [sp, #8]
    141a:	d12e      	bne.n	147a <DbgConsole_Init+0x82>
    141c:	4c18      	ldr	r4, [pc, #96]	; (1480 <DbgConsole_Init+0x88>)
    141e:	ab04      	add	r3, sp, #16
    1420:	221c      	movs	r2, #28
    1422:	4620      	mov	r0, r4
    1424:	9303      	str	r3, [sp, #12]
    1426:	f006 f9f7 	bl	7818 <memset>
    142a:	4669      	mov	r1, sp
    142c:	4620      	mov	r0, r4
    142e:	6124      	str	r4, [r4, #16]
    1430:	f002 fed0 	bl	41d4 <SerialManager_Init>
    1434:	b130      	cbz	r0, 1444 <DbgConsole_Init+0x4c>
    1436:	4b13      	ldr	r3, [pc, #76]	; (1484 <DbgConsole_Init+0x8c>)
    1438:	4a13      	ldr	r2, [pc, #76]	; (1488 <DbgConsole_Init+0x90>)
    143a:	f44f 7133 	mov.w	r1, #716	; 0x2cc
    143e:	4813      	ldr	r0, [pc, #76]	; (148c <DbgConsole_Init+0x94>)
    1440:	f003 f860 	bl	4504 <__assert_func>
    1444:	6920      	ldr	r0, [r4, #16]
    1446:	f104 0114 	add.w	r1, r4, #20
    144a:	f002 feef 	bl	422c <SerialManager_OpenWriteHandle>
    144e:	b120      	cbz	r0, 145a <DbgConsole_Init+0x62>
    1450:	4b0c      	ldr	r3, [pc, #48]	; (1484 <DbgConsole_Init+0x8c>)
    1452:	4a0d      	ldr	r2, [pc, #52]	; (1488 <DbgConsole_Init+0x90>)
    1454:	f240 21d6 	movw	r1, #726	; 0x2d6
    1458:	e7f1      	b.n	143e <DbgConsole_Init+0x46>
    145a:	6920      	ldr	r0, [r4, #16]
    145c:	f104 0118 	add.w	r1, r4, #24
    1460:	f002 ff0e 	bl	4280 <SerialManager_OpenReadHandle>
    1464:	b120      	cbz	r0, 1470 <DbgConsole_Init+0x78>
    1466:	4b07      	ldr	r3, [pc, #28]	; (1484 <DbgConsole_Init+0x8c>)
    1468:	4a07      	ldr	r2, [pc, #28]	; (1488 <DbgConsole_Init+0x90>)
    146a:	f240 21e1 	movw	r1, #737	; 0x2e1
    146e:	e7e6      	b.n	143e <DbgConsole_Init+0x46>
    1470:	4b07      	ldr	r3, [pc, #28]	; (1490 <DbgConsole_Init+0x98>)
    1472:	6922      	ldr	r2, [r4, #16]
    1474:	601a      	str	r2, [r3, #0]
    1476:	b008      	add	sp, #32
    1478:	bd10      	pop	{r4, pc}
    147a:	f243 5021 	movw	r0, #13601	; 0x3521
    147e:	e7fa      	b.n	1476 <DbgConsole_Init+0x7e>
    1480:	04015df8 	.word	0x04015df8
    1484:	000081bc 	.word	0x000081bc
    1488:	00008200 	.word	0x00008200
    148c:	00008150 	.word	0x00008150
    1490:	04015df4 	.word	0x04015df4

00001494 <DbgConsole_Printf>:
    1494:	b40f      	push	{r0, r1, r2, r3}
    1496:	b500      	push	{lr}
    1498:	b0a3      	sub	sp, #140	; 0x8c
    149a:	2100      	movs	r1, #0
    149c:	227c      	movs	r2, #124	; 0x7c
    149e:	a803      	add	r0, sp, #12
    14a0:	9102      	str	r1, [sp, #8]
    14a2:	f006 f9b9 	bl	7818 <memset>
    14a6:	4b09      	ldr	r3, [pc, #36]	; (14cc <DbgConsole_Printf+0x38>)
    14a8:	6818      	ldr	r0, [r3, #0]
    14aa:	b150      	cbz	r0, 14c2 <DbgConsole_Printf+0x2e>
    14ac:	a925      	add	r1, sp, #148	; 0x94
    14ae:	4b08      	ldr	r3, [pc, #32]	; (14d0 <DbgConsole_Printf+0x3c>)
    14b0:	9824      	ldr	r0, [sp, #144]	; 0x90
    14b2:	9101      	str	r1, [sp, #4]
    14b4:	aa02      	add	r2, sp, #8
    14b6:	f002 fbcf 	bl	3c58 <StrFormatPrintf>
    14ba:	4601      	mov	r1, r0
    14bc:	a802      	add	r0, sp, #8
    14be:	f7ff ff57 	bl	1370 <DbgConsole_SendDataReliable>
    14c2:	b023      	add	sp, #140	; 0x8c
    14c4:	f85d eb04 	ldr.w	lr, [sp], #4
    14c8:	b004      	add	sp, #16
    14ca:	4770      	bx	lr
    14cc:	04015df4 	.word	0x04015df4
    14d0:	000013bd 	.word	0x000013bd

000014d4 <GPIO_PinInit>:
    14d4:	b510      	push	{r4, lr}
    14d6:	2401      	movs	r4, #1
    14d8:	fa04 f202 	lsl.w	r2, r4, r2
    14dc:	781c      	ldrb	r4, [r3, #0]
    14de:	b924      	cbnz	r4, 14ea <GPIO_PinInit+0x16>
    14e0:	f501 6110 	add.w	r1, r1, #2304	; 0x900
    14e4:	f840 2021 	str.w	r2, [r0, r1, lsl #2]
    14e8:	bd10      	pop	{r4, pc}
    14ea:	785b      	ldrb	r3, [r3, #1]
    14ec:	b933      	cbnz	r3, 14fc <GPIO_PinInit+0x28>
    14ee:	f501 630a 	add.w	r3, r1, #2208	; 0x8a0
    14f2:	f840 2023 	str.w	r2, [r0, r3, lsl #2]
    14f6:	f501 610e 	add.w	r1, r1, #2272	; 0x8e0
    14fa:	e7f3      	b.n	14e4 <GPIO_PinInit+0x10>
    14fc:	f501 6308 	add.w	r3, r1, #2176	; 0x880
    1500:	e7f7      	b.n	14f2 <GPIO_PinInit+0x1e>
    1502:	Address 0x00001502 is out of bounds.


00001504 <GINT_GetInstance>:
    1504:	b508      	push	{r3, lr}
    1506:	4b05      	ldr	r3, [pc, #20]	; (151c <GINT_GetInstance+0x18>)
    1508:	4298      	cmp	r0, r3
    150a:	d005      	beq.n	1518 <GINT_GetInstance+0x14>
    150c:	4b04      	ldr	r3, [pc, #16]	; (1520 <GINT_GetInstance+0x1c>)
    150e:	4a05      	ldr	r2, [pc, #20]	; (1524 <GINT_GetInstance+0x20>)
    1510:	4805      	ldr	r0, [pc, #20]	; (1528 <GINT_GetInstance+0x24>)
    1512:	2137      	movs	r1, #55	; 0x37
    1514:	f002 fff6 	bl	4504 <__assert_func>
    1518:	2000      	movs	r0, #0
    151a:	bd08      	pop	{r3, pc}
    151c:	40011000 	.word	0x40011000
    1520:	00008210 	.word	0x00008210
    1524:	0000827c 	.word	0x0000827c
    1528:	00008233 	.word	0x00008233

0000152c <GINT_Init>:
    152c:	b508      	push	{r3, lr}
    152e:	f7ff ffe9 	bl	1504 <GINT_GetInstance>
    1532:	4b06      	ldr	r3, [pc, #24]	; (154c <GINT_Init+0x20>)
    1534:	2200      	movs	r2, #0
    1536:	f843 2020 	str.w	r2, [r3, r0, lsl #2]
    153a:	2013      	movs	r0, #19
    153c:	f000 fee6 	bl	230c <CLOCK_EnableClock>
    1540:	e8bd 4008 	ldmia.w	sp!, {r3, lr}
    1544:	2013      	movs	r0, #19
    1546:	f000 bfa7 	b.w	2498 <RESET_PeripheralReset>
    154a:	bf00      	nop
    154c:	04015e14 	.word	0x04015e14

00001550 <GINT_SetCtrl>:
    1550:	b5f8      	push	{r3, r4, r5, r6, r7, lr}
    1552:	460c      	mov	r4, r1
    1554:	4615      	mov	r5, r2
    1556:	461f      	mov	r7, r3
    1558:	4606      	mov	r6, r0
    155a:	0064      	lsls	r4, r4, #1
    155c:	f7ff ffd2 	bl	1504 <GINT_GetInstance>
    1560:	00ad      	lsls	r5, r5, #2
    1562:	4b05      	ldr	r3, [pc, #20]	; (1578 <GINT_SetCtrl+0x28>)
    1564:	f004 0402 	and.w	r4, r4, #2
    1568:	f005 0504 	and.w	r5, r5, #4
    156c:	432c      	orrs	r4, r5
    156e:	6034      	str	r4, [r6, #0]
    1570:	f843 7020 	str.w	r7, [r3, r0, lsl #2]
    1574:	bdf8      	pop	{r3, r4, r5, r6, r7, pc}
    1576:	bf00      	nop
    1578:	04015e14 	.word	0x04015e14

0000157c <GINT_ConfigPins>:
    157c:	eb00 0181 	add.w	r1, r0, r1, lsl #2
    1580:	620a      	str	r2, [r1, #32]
    1582:	640b      	str	r3, [r1, #64]	; 0x40
    1584:	4770      	bx	lr
    1586:	Address 0x00001586 is out of bounds.


00001588 <GINT_EnableCallback>:
    1588:	b510      	push	{r4, lr}
    158a:	4604      	mov	r4, r0
    158c:	f7ff ffba 	bl	1504 <GINT_GetInstance>
    1590:	6823      	ldr	r3, [r4, #0]
    1592:	f043 0301 	orr.w	r3, r3, #1
    1596:	6023      	str	r3, [r4, #0]
    1598:	4b02      	ldr	r3, [pc, #8]	; (15a4 <GINT_EnableCallback+0x1c>)
    159a:	2204      	movs	r2, #4
    159c:	f8c3 2180 	str.w	r2, [r3, #384]	; 0x180
    15a0:	601a      	str	r2, [r3, #0]
    15a2:	bd10      	pop	{r4, pc}
    15a4:	e000e100 	.word	0xe000e100

000015a8 <GINT_DisableCallback>:
    15a8:	b510      	push	{r4, lr}
    15aa:	4604      	mov	r4, r0
    15ac:	f7ff ffaa 	bl	1504 <GINT_GetInstance>
    15b0:	4a07      	ldr	r2, [pc, #28]	; (15d0 <GINT_DisableCallback+0x28>)
    15b2:	2104      	movs	r1, #4
    15b4:	f8c2 1080 	str.w	r1, [r2, #128]	; 0x80
    15b8:	f3bf 8f4f 	dsb	sy
    15bc:	f3bf 8f6f 	isb	sy
    15c0:	6823      	ldr	r3, [r4, #0]
    15c2:	f043 0301 	orr.w	r3, r3, #1
    15c6:	6023      	str	r3, [r4, #0]
    15c8:	f8c2 1180 	str.w	r1, [r2, #384]	; 0x180
    15cc:	bd10      	pop	{r4, pc}
    15ce:	bf00      	nop
    15d0:	e000e100 	.word	0xe000e100

000015d4 <GINT0_DriverIRQHandler>:
    15d4:	4a06      	ldr	r2, [pc, #24]	; (15f0 <GINT0_DriverIRQHandler+0x1c>)
    15d6:	b508      	push	{r3, lr}
    15d8:	6813      	ldr	r3, [r2, #0]
    15da:	f043 0301 	orr.w	r3, r3, #1
    15de:	6013      	str	r3, [r2, #0]
    15e0:	4b04      	ldr	r3, [pc, #16]	; (15f4 <GINT0_DriverIRQHandler+0x20>)
    15e2:	681b      	ldr	r3, [r3, #0]
    15e4:	b103      	cbz	r3, 15e8 <GINT0_DriverIRQHandler+0x14>
    15e6:	4798      	blx	r3
    15e8:	f3bf 8f4f 	dsb	sy
    15ec:	bd08      	pop	{r3, pc}
    15ee:	bf00      	nop
    15f0:	40011000 	.word	0x40011000
    15f4:	04015e14 	.word	0x04015e14

000015f8 <BOARD_InitClocks>:
    15f8:	b510      	push	{r4, lr}
    15fa:	f000 fd9d 	bl	2138 <CLOCK_EnableAPBBridge>
    15fe:	481b      	ldr	r0, [pc, #108]	; (166c <BOARD_InitClocks+0x74>)
    1600:	4c1b      	ldr	r4, [pc, #108]	; (1670 <BOARD_InitClocks+0x78>)
    1602:	f000 fe83 	bl	230c <CLOCK_EnableClock>
    1606:	481b      	ldr	r0, [pc, #108]	; (1674 <BOARD_InitClocks+0x7c>)
    1608:	f000 fe80 	bl	230c <CLOCK_EnableClock>
    160c:	481a      	ldr	r0, [pc, #104]	; (1678 <BOARD_InitClocks+0x80>)
    160e:	f000 fe7d 	bl	230c <CLOCK_EnableClock>
    1612:	200d      	movs	r0, #13
    1614:	f000 fe7a 	bl	230c <CLOCK_EnableClock>
    1618:	200b      	movs	r0, #11
    161a:	f000 fe77 	bl	230c <CLOCK_EnableClock>
    161e:	200e      	movs	r0, #14
    1620:	f000 fe74 	bl	230c <CLOCK_EnableClock>
    1624:	201b      	movs	r0, #27
    1626:	f000 fe71 	bl	230c <CLOCK_EnableClock>
    162a:	f8d4 30b8 	ldr.w	r3, [r4, #184]	; 0xb8
    162e:	f443 0380 	orr.w	r3, r3, #4194304	; 0x400000
    1632:	f8c4 30b8 	str.w	r3, [r4, #184]	; 0xb8
    1636:	f241 00ac 	movw	r0, #4268	; 0x10ac
    163a:	f000 fadb 	bl	1bf4 <CLOCK_AttachClk>
    163e:	f44f 708c 	mov.w	r0, #280	; 0x118
    1642:	f000 fe63 	bl	230c <CLOCK_EnableClock>
    1646:	f240 100d 	movw	r0, #269	; 0x10d
    164a:	f000 fe5f 	bl	230c <CLOCK_EnableClock>
    164e:	f241 00ad 	movw	r0, #4269	; 0x10ad
    1652:	f000 facf 	bl	1bf4 <CLOCK_AttachClk>
    1656:	f241 00a9 	movw	r0, #4265	; 0x10a9
    165a:	f000 facb 	bl	1bf4 <CLOCK_AttachClk>
    165e:	f8d4 30b8 	ldr.w	r3, [r4, #184]	; 0xb8
    1662:	f443 0380 	orr.w	r3, r3, #4194304	; 0x400000
    1666:	f8c4 30b8 	str.w	r3, [r4, #184]	; 0xb8
    166a:	bd10      	pop	{r4, pc}
    166c:	00010008 	.word	0x00010008
    1670:	40012000 	.word	0x40012000
    1674:	00010004 	.word	0x00010004
    1678:	00010005 	.word	0x00010005

0000167c <BOARD_InitHardware>:
    167c:	b508      	push	{r3, lr}
    167e:	f04f 4380 	mov.w	r3, #1073741824	; 0x40000000
    1682:	4a0d      	ldr	r2, [pc, #52]	; (16b8 <BOARD_InitHardware+0x3c>)
    1684:	f8c3 2ff0 	str.w	r2, [r3, #4080]	; 0xff0
    1688:	f001 fada 	bl	2c40 <POWER_Init>
    168c:	480b      	ldr	r0, [pc, #44]	; (16bc <BOARD_InitHardware+0x40>)
    168e:	f000 ff03 	bl	2498 <RESET_PeripheralReset>
    1692:	200e      	movs	r0, #14
    1694:	f000 ff00 	bl	2498 <RESET_PeripheralReset>
    1698:	4809      	ldr	r0, [pc, #36]	; (16c0 <BOARD_InitHardware+0x44>)
    169a:	f000 fefd 	bl	2498 <RESET_PeripheralReset>
    169e:	4a09      	ldr	r2, [pc, #36]	; (16c4 <BOARD_InitHardware+0x48>)
    16a0:	6813      	ldr	r3, [r2, #0]
    16a2:	f043 0308 	orr.w	r3, r3, #8
    16a6:	6013      	str	r3, [r2, #0]
    16a8:	f7ff ffa6 	bl	15f8 <BOARD_InitClocks>
    16ac:	f000 f9a0 	bl	19f0 <BOARD_InitDebugConsole>
    16b0:	e8bd 4008 	ldmia.w	sp!, {r3, lr}
    16b4:	f000 b808 	b.w	16c8 <BOARD_InitPins>
    16b8:	87654320 	.word	0x87654320
    16bc:	0001000b 	.word	0x0001000b
    16c0:	0001000d 	.word	0x0001000d
    16c4:	40012000 	.word	0x40012000

000016c8 <BOARD_InitPins>:
    16c8:	4b05      	ldr	r3, [pc, #20]	; (16e0 <BOARD_InitPins+0x18>)
    16ca:	2292      	movs	r2, #146	; 0x92
    16cc:	621a      	str	r2, [r3, #32]
    16ce:	625a      	str	r2, [r3, #36]	; 0x24
    16d0:	631a      	str	r2, [r3, #48]	; 0x30
    16d2:	635a      	str	r2, [r3, #52]	; 0x34
    16d4:	f240 1285 	movw	r2, #389	; 0x185
    16d8:	629a      	str	r2, [r3, #40]	; 0x28
    16da:	62da      	str	r2, [r3, #44]	; 0x2c
    16dc:	4770      	bx	lr
    16de:	bf00      	nop
    16e0:	4000f000 	.word	0x4000f000

000016e4 <BOARD_GetClock32MCapacitanceCharacteristics>:
    16e4:	4800      	ldr	r0, [pc, #0]	; (16e8 <BOARD_GetClock32MCapacitanceCharacteristics+0x4>)
    16e6:	4770      	bx	lr
    16e8:	00008290 	.word	0x00008290

000016ec <ZTIMER_eInit>:
    16ec:	b510      	push	{r4, lr}
    16ee:	b158      	cbz	r0, 1708 <ZTIMER_eInit+0x1c>
    16f0:	b151      	cbz	r1, 1708 <ZTIMER_eInit+0x1c>
    16f2:	4a06      	ldr	r2, [pc, #24]	; (170c <ZTIMER_eInit+0x20>)
    16f4:	2400      	movs	r4, #0
    16f6:	7111      	strb	r1, [r2, #4]
    16f8:	6090      	str	r0, [r2, #8]
    16fa:	6014      	str	r4, [r2, #0]
    16fc:	010a      	lsls	r2, r1, #4
    16fe:	4621      	mov	r1, r4
    1700:	f006 f88a 	bl	7818 <memset>
    1704:	4620      	mov	r0, r4
    1706:	bd10      	pop	{r4, pc}
    1708:	2001      	movs	r0, #1
    170a:	e7fc      	b.n	1706 <ZTIMER_eInit+0x1a>
    170c:	04015e18 	.word	0x04015e18

00001710 <ZTIMER_vTask>:
    1710:	e92d 41f3 	stmdb	sp!, {r0, r1, r4, r5, r6, r7, r8, lr}
    1714:	4c21      	ldr	r4, [pc, #132]	; (179c <ZTIMER_vTask+0x8c>)
    1716:	6823      	ldr	r3, [r4, #0]
    1718:	9300      	str	r3, [sp, #0]
    171a:	f000 f931 	bl	1980 <OSA_TimeGetMsec>
    171e:	9001      	str	r0, [sp, #4]
    1720:	9a01      	ldr	r2, [sp, #4]
    1722:	9b00      	ldr	r3, [sp, #0]
    1724:	429a      	cmp	r2, r3
    1726:	d30b      	bcc.n	1740 <ZTIMER_vTask+0x30>
    1728:	9b01      	ldr	r3, [sp, #4]
    172a:	9a00      	ldr	r2, [sp, #0]
    172c:	1a9b      	subs	r3, r3, r2
    172e:	6023      	str	r3, [r4, #0]
    1730:	6823      	ldr	r3, [r4, #0]
    1732:	2b00      	cmp	r3, #0
    1734:	d12f      	bne.n	1796 <ZTIMER_vTask+0x86>
    1736:	9b01      	ldr	r3, [sp, #4]
    1738:	6023      	str	r3, [r4, #0]
    173a:	b002      	add	sp, #8
    173c:	e8bd 81f0 	ldmia.w	sp!, {r4, r5, r6, r7, r8, pc}
    1740:	9b00      	ldr	r3, [sp, #0]
    1742:	43db      	mvns	r3, r3
    1744:	6023      	str	r3, [r4, #0]
    1746:	9a01      	ldr	r2, [sp, #4]
    1748:	6823      	ldr	r3, [r4, #0]
    174a:	4413      	add	r3, r2
    174c:	e7ef      	b.n	172e <ZTIMER_vTask+0x1e>
    174e:	68a2      	ldr	r2, [r4, #8]
    1750:	eb02 1506 	add.w	r5, r2, r6, lsl #4
    1754:	0131      	lsls	r1, r6, #4
    1756:	786b      	ldrb	r3, [r5, #1]
    1758:	2b02      	cmp	r3, #2
    175a:	d106      	bne.n	176a <ZTIMER_vTask+0x5a>
    175c:	686b      	ldr	r3, [r5, #4]
    175e:	6820      	ldr	r0, [r4, #0]
    1760:	4283      	cmp	r3, r0
    1762:	d907      	bls.n	1774 <ZTIMER_vTask+0x64>
    1764:	6822      	ldr	r2, [r4, #0]
    1766:	1a9b      	subs	r3, r3, r2
    1768:	606b      	str	r3, [r5, #4]
    176a:	3601      	adds	r6, #1
    176c:	7923      	ldrb	r3, [r4, #4]
    176e:	429e      	cmp	r6, r3
    1770:	dbed      	blt.n	174e <ZTIMER_vTask+0x3e>
    1772:	e7e0      	b.n	1736 <ZTIMER_vTask+0x26>
    1774:	f3ef 8810 	mrs	r8, PRIMASK
    1778:	b672      	cpsid	i
    177a:	706f      	strb	r7, [r5, #1]
    177c:	5c53      	ldrb	r3, [r2, r1]
    177e:	07db      	lsls	r3, r3, #31
    1780:	d501      	bpl.n	1786 <ZTIMER_vTask+0x76>
    1782:	f002 fed2 	bl	452a <PWRM_eFinishActivity>
    1786:	f388 8810 	msr	PRIMASK, r8
    178a:	68eb      	ldr	r3, [r5, #12]
    178c:	2b00      	cmp	r3, #0
    178e:	d0ec      	beq.n	176a <ZTIMER_vTask+0x5a>
    1790:	68a8      	ldr	r0, [r5, #8]
    1792:	4798      	blx	r3
    1794:	e7e9      	b.n	176a <ZTIMER_vTask+0x5a>
    1796:	2600      	movs	r6, #0
    1798:	2703      	movs	r7, #3
    179a:	e7e7      	b.n	176c <ZTIMER_vTask+0x5c>
    179c:	04015e18 	.word	0x04015e18

000017a0 <ZTIMER_eOpen>:
    17a0:	b5f0      	push	{r4, r5, r6, r7, lr}
    17a2:	4607      	mov	r7, r0
    17a4:	480b      	ldr	r0, [pc, #44]	; (17d4 <ZTIMER_eOpen+0x34>)
    17a6:	f890 c004 	ldrb.w	ip, [r0, #4]
    17aa:	6886      	ldr	r6, [r0, #8]
    17ac:	2500      	movs	r5, #0
    17ae:	45ac      	cmp	ip, r5
    17b0:	dc01      	bgt.n	17b6 <ZTIMER_eOpen+0x16>
    17b2:	2001      	movs	r0, #1
    17b4:	e00a      	b.n	17cc <ZTIMER_eOpen+0x2c>
    17b6:	4634      	mov	r4, r6
    17b8:	7870      	ldrb	r0, [r6, #1]
    17ba:	3610      	adds	r6, #16
    17bc:	b938      	cbnz	r0, 17ce <ZTIMER_eOpen+0x2e>
    17be:	7023      	strb	r3, [r4, #0]
    17c0:	2301      	movs	r3, #1
    17c2:	e9c4 2102 	strd	r2, r1, [r4, #8]
    17c6:	6060      	str	r0, [r4, #4]
    17c8:	7063      	strb	r3, [r4, #1]
    17ca:	703d      	strb	r5, [r7, #0]
    17cc:	bdf0      	pop	{r4, r5, r6, r7, pc}
    17ce:	3501      	adds	r5, #1
    17d0:	e7ed      	b.n	17ae <ZTIMER_eOpen+0xe>
    17d2:	bf00      	nop
    17d4:	04015e18 	.word	0x04015e18

000017d8 <ZTIMER_eStart>:
    17d8:	b5f8      	push	{r3, r4, r5, r6, r7, lr}
    17da:	4c12      	ldr	r4, [pc, #72]	; (1824 <ZTIMER_eStart+0x4c>)
    17dc:	7923      	ldrb	r3, [r4, #4]
    17de:	4283      	cmp	r3, r0
    17e0:	460d      	mov	r5, r1
    17e2:	d31c      	bcc.n	181e <ZTIMER_eStart+0x46>
    17e4:	68a2      	ldr	r2, [r4, #8]
    17e6:	0106      	lsls	r6, r0, #4
    17e8:	eb02 1000 	add.w	r0, r2, r0, lsl #4
    17ec:	7843      	ldrb	r3, [r0, #1]
    17ee:	b1b3      	cbz	r3, 181e <ZTIMER_eStart+0x46>
    17f0:	b1a9      	cbz	r1, 181e <ZTIMER_eStart+0x46>
    17f2:	f3ef 8710 	mrs	r7, PRIMASK
    17f6:	b672      	cpsid	i
    17f8:	68a2      	ldr	r2, [r4, #8]
    17fa:	1993      	adds	r3, r2, r6
    17fc:	5d92      	ldrb	r2, [r2, r6]
    17fe:	07d2      	lsls	r2, r2, #31
    1800:	d504      	bpl.n	180c <ZTIMER_eStart+0x34>
    1802:	785b      	ldrb	r3, [r3, #1]
    1804:	2b02      	cmp	r3, #2
    1806:	d001      	beq.n	180c <ZTIMER_eStart+0x34>
    1808:	f002 fe8a 	bl	4520 <PWRM_eStartActivity>
    180c:	68a3      	ldr	r3, [r4, #8]
    180e:	4433      	add	r3, r6
    1810:	2202      	movs	r2, #2
    1812:	605d      	str	r5, [r3, #4]
    1814:	705a      	strb	r2, [r3, #1]
    1816:	f387 8810 	msr	PRIMASK, r7
    181a:	2000      	movs	r0, #0
    181c:	bdf8      	pop	{r3, r4, r5, r6, r7, pc}
    181e:	2001      	movs	r0, #1
    1820:	e7fc      	b.n	181c <ZTIMER_eStart+0x44>
    1822:	bf00      	nop
    1824:	04015e18 	.word	0x04015e18

00001828 <ZTIMER_eStop>:
    1828:	b570      	push	{r4, r5, r6, lr}
    182a:	4c10      	ldr	r4, [pc, #64]	; (186c <ZTIMER_eStop+0x44>)
    182c:	7923      	ldrb	r3, [r4, #4]
    182e:	4283      	cmp	r3, r0
    1830:	d31a      	bcc.n	1868 <ZTIMER_eStop+0x40>
    1832:	68a3      	ldr	r3, [r4, #8]
    1834:	0105      	lsls	r5, r0, #4
    1836:	eb03 1000 	add.w	r0, r3, r0, lsl #4
    183a:	7843      	ldrb	r3, [r0, #1]
    183c:	b1a3      	cbz	r3, 1868 <ZTIMER_eStop+0x40>
    183e:	f3ef 8610 	mrs	r6, PRIMASK
    1842:	b672      	cpsid	i
    1844:	68a3      	ldr	r3, [r4, #8]
    1846:	195a      	adds	r2, r3, r5
    1848:	5d5b      	ldrb	r3, [r3, r5]
    184a:	07db      	lsls	r3, r3, #31
    184c:	d504      	bpl.n	1858 <ZTIMER_eStop+0x30>
    184e:	7853      	ldrb	r3, [r2, #1]
    1850:	2b02      	cmp	r3, #2
    1852:	d101      	bne.n	1858 <ZTIMER_eStop+0x30>
    1854:	f002 fe69 	bl	452a <PWRM_eFinishActivity>
    1858:	68a3      	ldr	r3, [r4, #8]
    185a:	442b      	add	r3, r5
    185c:	2201      	movs	r2, #1
    185e:	705a      	strb	r2, [r3, #1]
    1860:	f386 8810 	msr	PRIMASK, r6
    1864:	2000      	movs	r0, #0
    1866:	bd70      	pop	{r4, r5, r6, pc}
    1868:	2001      	movs	r0, #1
    186a:	e7fc      	b.n	1866 <ZTIMER_eStop+0x3e>
    186c:	04015e18 	.word	0x04015e18

00001870 <OSA_EnableIRQGlobal>:
    1870:	4a03      	ldr	r2, [pc, #12]	; (1880 <OSA_EnableIRQGlobal+0x10>)
    1872:	6813      	ldr	r3, [r2, #0]
    1874:	b11b      	cbz	r3, 187e <OSA_EnableIRQGlobal+0xe>
    1876:	3b01      	subs	r3, #1
    1878:	6013      	str	r3, [r2, #0]
    187a:	b903      	cbnz	r3, 187e <OSA_EnableIRQGlobal+0xe>
    187c:	b662      	cpsie	i
    187e:	4770      	bx	lr
    1880:	04015e24 	.word	0x04015e24

00001884 <OSA_DisableIRQGlobal>:
    1884:	b672      	cpsid	i
    1886:	4a02      	ldr	r2, [pc, #8]	; (1890 <OSA_DisableIRQGlobal+0xc>)
    1888:	6813      	ldr	r3, [r2, #0]
    188a:	3301      	adds	r3, #1
    188c:	6013      	str	r3, [r2, #0]
    188e:	4770      	bx	lr
    1890:	04015e24 	.word	0x04015e24

00001894 <task_init>:
    1894:	4b0c      	ldr	r3, [pc, #48]	; (18c8 <task_init+0x34>)
    1896:	2200      	movs	r2, #0
    1898:	f8c3 2084 	str.w	r2, [r3, #132]	; 0x84
    189c:	f103 0278 	add.w	r2, r3, #120	; 0x78
    18a0:	671a      	str	r2, [r3, #112]	; 0x70
    18a2:	f103 0264 	add.w	r2, r3, #100	; 0x64
    18a6:	65da      	str	r2, [r3, #92]	; 0x5c
    18a8:	f103 0250 	add.w	r2, r3, #80	; 0x50
    18ac:	649a      	str	r2, [r3, #72]	; 0x48
    18ae:	f103 023c 	add.w	r2, r3, #60	; 0x3c
    18b2:	635a      	str	r2, [r3, #52]	; 0x34
    18b4:	f103 0228 	add.w	r2, r3, #40	; 0x28
    18b8:	621a      	str	r2, [r3, #32]
    18ba:	f103 0214 	add.w	r2, r3, #20
    18be:	60da      	str	r2, [r3, #12]
    18c0:	4a02      	ldr	r2, [pc, #8]	; (18cc <task_init+0x38>)
    18c2:	6013      	str	r3, [r2, #0]
    18c4:	4770      	bx	lr
    18c6:	bf00      	nop
    18c8:	04015e34 	.word	0x04015e34
    18cc:	04015e30 	.word	0x04015e30

000018d0 <OSA_TaskCreate>:
    18d0:	4a1d      	ldr	r2, [pc, #116]	; (1948 <OSA_TaskCreate+0x78>)
    18d2:	4603      	mov	r3, r0
    18d4:	6810      	ldr	r0, [r2, #0]
    18d6:	b530      	push	{r4, r5, lr}
    18d8:	b188      	cbz	r0, 18fe <OSA_TaskCreate+0x2e>
    18da:	68c4      	ldr	r4, [r0, #12]
    18dc:	6014      	str	r4, [r2, #0]
    18de:	681a      	ldr	r2, [r3, #0]
    18e0:	6002      	str	r2, [r0, #0]
    18e2:	2201      	movs	r2, #1
    18e4:	7102      	strb	r2, [r0, #4]
    18e6:	889c      	ldrh	r4, [r3, #4]
    18e8:	6081      	str	r1, [r0, #8]
    18ea:	4918      	ldr	r1, [pc, #96]	; (194c <OSA_TaskCreate+0x7c>)
    18ec:	80c4      	strh	r4, [r0, #6]
    18ee:	2300      	movs	r3, #0
    18f0:	e9c0 3303 	strd	r3, r3, [r0, #12]
    18f4:	680b      	ldr	r3, [r1, #0]
    18f6:	b91b      	cbnz	r3, 1900 <OSA_TaskCreate+0x30>
    18f8:	e9c0 0003 	strd	r0, r0, [r0, #12]
    18fc:	6008      	str	r0, [r1, #0]
    18fe:	bd30      	pop	{r4, r5, pc}
    1900:	88dd      	ldrh	r5, [r3, #6]
    1902:	691a      	ldr	r2, [r3, #16]
    1904:	42a5      	cmp	r5, r4
    1906:	d306      	bcc.n	1916 <OSA_TaskCreate+0x46>
    1908:	e9c0 3203 	strd	r3, r2, [r0, #12]
    190c:	691a      	ldr	r2, [r3, #16]
    190e:	6008      	str	r0, [r1, #0]
    1910:	60d0      	str	r0, [r2, #12]
    1912:	6118      	str	r0, [r3, #16]
    1914:	e7f3      	b.n	18fe <OSA_TaskCreate+0x2e>
    1916:	88d1      	ldrh	r1, [r2, #6]
    1918:	42a1      	cmp	r1, r4
    191a:	d805      	bhi.n	1928 <OSA_TaskCreate+0x58>
    191c:	e9c0 3203 	strd	r3, r2, [r0, #12]
    1920:	691a      	ldr	r2, [r3, #16]
    1922:	60d0      	str	r0, [r2, #12]
    1924:	6118      	str	r0, [r3, #16]
    1926:	e7ea      	b.n	18fe <OSA_TaskCreate+0x2e>
    1928:	68da      	ldr	r2, [r3, #12]
    192a:	4293      	cmp	r3, r2
    192c:	d0e7      	beq.n	18fe <OSA_TaskCreate+0x2e>
    192e:	88d1      	ldrh	r1, [r2, #6]
    1930:	42a1      	cmp	r1, r4
    1932:	d306      	bcc.n	1942 <OSA_TaskCreate+0x72>
    1934:	6913      	ldr	r3, [r2, #16]
    1936:	6103      	str	r3, [r0, #16]
    1938:	6913      	ldr	r3, [r2, #16]
    193a:	60c2      	str	r2, [r0, #12]
    193c:	60d8      	str	r0, [r3, #12]
    193e:	6110      	str	r0, [r2, #16]
    1940:	e7dd      	b.n	18fe <OSA_TaskCreate+0x2e>
    1942:	68d2      	ldr	r2, [r2, #12]
    1944:	e7f1      	b.n	192a <OSA_TaskCreate+0x5a>
    1946:	bf00      	nop
    1948:	04015e30 	.word	0x04015e30
    194c:	04015ec0 	.word	0x04015ec0

00001950 <OSA_TimeInit>:
    1950:	4b09      	ldr	r3, [pc, #36]	; (1978 <OSA_TimeInit+0x28>)
    1952:	681a      	ldr	r2, [r3, #0]
    1954:	f022 0201 	bic.w	r2, r2, #1
    1958:	601a      	str	r2, [r3, #0]
    195a:	4a08      	ldr	r2, [pc, #32]	; (197c <OSA_TimeInit+0x2c>)
    195c:	f44f 717a 	mov.w	r1, #1000	; 0x3e8
    1960:	6812      	ldr	r2, [r2, #0]
    1962:	fbb2 f2f1 	udiv	r2, r2, r1
    1966:	3a01      	subs	r2, #1
    1968:	605a      	str	r2, [r3, #4]
    196a:	2200      	movs	r2, #0
    196c:	609a      	str	r2, [r3, #8]
    196e:	681a      	ldr	r2, [r3, #0]
    1970:	f042 0207 	orr.w	r2, r2, #7
    1974:	601a      	str	r2, [r3, #0]
    1976:	4770      	bx	lr
    1978:	e000e010 	.word	0xe000e010
    197c:	04015b20 	.word	0x04015b20

00001980 <OSA_TimeGetMsec>:
    1980:	4b01      	ldr	r3, [pc, #4]	; (1988 <OSA_TimeGetMsec+0x8>)
    1982:	6818      	ldr	r0, [r3, #0]
    1984:	4770      	bx	lr
    1986:	bf00      	nop
    1988:	04015e28 	.word	0x04015e28

0000198c <OSA_InterruptEnable>:
    198c:	f7ff bf70 	b.w	1870 <OSA_EnableIRQGlobal>

00001990 <OSA_InterruptDisable>:
    1990:	f7ff bf78 	b.w	1884 <OSA_DisableIRQGlobal>

00001994 <OSA_Start>:
    1994:	b508      	push	{r3, lr}
    1996:	4d08      	ldr	r5, [pc, #32]	; (19b8 <OSA_Start+0x24>)
    1998:	4c08      	ldr	r4, [pc, #32]	; (19bc <OSA_Start+0x28>)
    199a:	682a      	ldr	r2, [r5, #0]
    199c:	6022      	str	r2, [r4, #0]
    199e:	6823      	ldr	r3, [r4, #0]
    19a0:	791a      	ldrb	r2, [r3, #4]
    19a2:	b132      	cbz	r2, 19b2 <OSA_Start+0x1e>
    19a4:	681a      	ldr	r2, [r3, #0]
    19a6:	b10a      	cbz	r2, 19ac <OSA_Start+0x18>
    19a8:	6898      	ldr	r0, [r3, #8]
    19aa:	4790      	blx	r2
    19ac:	682b      	ldr	r3, [r5, #0]
    19ae:	6023      	str	r3, [r4, #0]
    19b0:	e7f5      	b.n	199e <OSA_Start+0xa>
    19b2:	68db      	ldr	r3, [r3, #12]
    19b4:	e7fb      	b.n	19ae <OSA_Start+0x1a>
    19b6:	bf00      	nop
    19b8:	04015ec0 	.word	0x04015ec0
    19bc:	04015e2c 	.word	0x04015e2c

000019c0 <main>:
    19c0:	b508      	push	{r3, lr}
    19c2:	f7ff ff67 	bl	1894 <task_init>
    19c6:	f7fe fdf5 	bl	5b4 <hardware_init>
    19ca:	f7ff ffc1 	bl	1950 <OSA_TimeInit>
    19ce:	2100      	movs	r1, #0
    19d0:	4802      	ldr	r0, [pc, #8]	; (19dc <main+0x1c>)
    19d2:	f7ff ff7d 	bl	18d0 <OSA_TaskCreate>
    19d6:	f7ff ffdd 	bl	1994 <OSA_Start>
    19da:	bf00      	nop
    19dc:	04015b00 	.word	0x04015b00

000019e0 <SysTick_Handler>:
    19e0:	4a02      	ldr	r2, [pc, #8]	; (19ec <SysTick_Handler+0xc>)
    19e2:	6813      	ldr	r3, [r2, #0]
    19e4:	3301      	adds	r3, #1
    19e6:	6013      	str	r3, [r2, #0]
    19e8:	4770      	bx	lr
    19ea:	bf00      	nop
    19ec:	04015e28 	.word	0x04015e28

000019f0 <BOARD_InitDebugConsole>:
    19f0:	b510      	push	{r4, lr}
    19f2:	4808      	ldr	r0, [pc, #32]	; (1a14 <BOARD_InitDebugConsole+0x24>)
    19f4:	f000 faca 	bl	1f8c <CLOCK_GetFreq>
    19f8:	2201      	movs	r2, #1
    19fa:	4603      	mov	r3, r0
    19fc:	f44f 31e1 	mov.w	r1, #115200	; 0x1c200
    1a00:	2000      	movs	r0, #0
    1a02:	f7ff fcf9 	bl	13f8 <DbgConsole_Init>
    1a06:	4604      	mov	r4, r0
    1a08:	f44f 70fa 	mov.w	r0, #500	; 0x1f4
    1a0c:	f000 fb9c 	bl	2148 <CLOCK_uDelay>
    1a10:	4620      	mov	r0, r4
    1a12:	bd10      	pop	{r4, pc}
    1a14:	00010008 	.word	0x00010008

00001a18 <SystemCoreClockUpdate>:
    1a18:	f04f 4380 	mov.w	r3, #1073741824	; 0x40000000
    1a1c:	f8d3 2280 	ldr.w	r2, [r3, #640]	; 0x280
    1a20:	f002 0207 	and.w	r2, r2, #7
    1a24:	2a06      	cmp	r2, #6
    1a26:	d838      	bhi.n	1a9a <SystemCoreClockUpdate+0x82>
    1a28:	e8df f002 	tbb	[pc, r2]
    1a2c:	29041810 	.word	0x29041810
    1a30:	372f      	.short	0x372f
    1a32:	35          	.byte	0x35
    1a33:	00          	.byte	0x00
    1a34:	4b1a      	ldr	r3, [pc, #104]	; (1aa0 <SystemCoreClockUpdate+0x88>)
    1a36:	f04f 4280 	mov.w	r2, #1073741824	; 0x40000000
    1a3a:	f8d2 2380 	ldr.w	r2, [r2, #896]	; 0x380
    1a3e:	b2d2      	uxtb	r2, r2
    1a40:	3201      	adds	r2, #1
    1a42:	fbb3 f3f2 	udiv	r3, r3, r2
    1a46:	4a17      	ldr	r2, [pc, #92]	; (1aa4 <SystemCoreClockUpdate+0x8c>)
    1a48:	6013      	str	r3, [r2, #0]
    1a4a:	4770      	bx	lr
    1a4c:	4b16      	ldr	r3, [pc, #88]	; (1aa8 <SystemCoreClockUpdate+0x90>)
    1a4e:	4a17      	ldr	r2, [pc, #92]	; (1aac <SystemCoreClockUpdate+0x94>)
    1a50:	6c1b      	ldr	r3, [r3, #64]	; 0x40
    1a52:	f413 1380 	ands.w	r3, r3, #1048576	; 0x100000
    1a56:	bf18      	it	ne
    1a58:	4613      	movne	r3, r2
    1a5a:	e7ec      	b.n	1a36 <SystemCoreClockUpdate+0x1e>
    1a5c:	f8d3 3284 	ldr.w	r3, [r3, #644]	; 0x284
    1a60:	f013 0f02 	tst.w	r3, #2
    1a64:	4b10      	ldr	r3, [pc, #64]	; (1aa8 <SystemCoreClockUpdate+0x90>)
    1a66:	f8d3 30b8 	ldr.w	r3, [r3, #184]	; 0xb8
    1a6a:	d005      	beq.n	1a78 <SystemCoreClockUpdate+0x60>
    1a6c:	f013 6380 	ands.w	r3, r3, #67108864	; 0x4000000
    1a70:	bf18      	it	ne
    1a72:	f44f 4300 	movne.w	r3, #32768	; 0x8000
    1a76:	e7de      	b.n	1a36 <SystemCoreClockUpdate+0x1e>
    1a78:	f013 7300 	ands.w	r3, r3, #33554432	; 0x2000000
    1a7c:	e7f8      	b.n	1a70 <SystemCoreClockUpdate+0x58>
    1a7e:	4b0a      	ldr	r3, [pc, #40]	; (1aa8 <SystemCoreClockUpdate+0x90>)
    1a80:	4a07      	ldr	r2, [pc, #28]	; (1aa0 <SystemCoreClockUpdate+0x88>)
    1a82:	6c1b      	ldr	r3, [r3, #64]	; 0x40
    1a84:	f413 1300 	ands.w	r3, r3, #2097152	; 0x200000
    1a88:	e7e5      	b.n	1a56 <SystemCoreClockUpdate+0x3e>
    1a8a:	4b07      	ldr	r3, [pc, #28]	; (1aa8 <SystemCoreClockUpdate+0x90>)
    1a8c:	4a08      	ldr	r2, [pc, #32]	; (1ab0 <SystemCoreClockUpdate+0x98>)
    1a8e:	6c1b      	ldr	r3, [r3, #64]	; 0x40
    1a90:	f413 0380 	ands.w	r3, r3, #4194304	; 0x400000
    1a94:	e7df      	b.n	1a56 <SystemCoreClockUpdate+0x3e>
    1a96:	4b07      	ldr	r3, [pc, #28]	; (1ab4 <SystemCoreClockUpdate+0x9c>)
    1a98:	e7cd      	b.n	1a36 <SystemCoreClockUpdate+0x1e>
    1a9a:	2300      	movs	r3, #0
    1a9c:	e7cb      	b.n	1a36 <SystemCoreClockUpdate+0x1e>
    1a9e:	bf00      	nop
    1aa0:	01e84800 	.word	0x01e84800
    1aa4:	04015b20 	.word	0x04015b20
    1aa8:	40012000 	.word	0x40012000
    1aac:	00b71b00 	.word	0x00b71b00
    1ab0:	02dc6c00 	.word	0x02dc6c00
    1ab4:	000f4240 	.word	0x000f4240

00001ab8 <SystemInit>:
    1ab8:	b508      	push	{r3, lr}
    1aba:	f7ff ffad 	bl	1a18 <SystemCoreClockUpdate>
    1abe:	4a0c      	ldr	r2, [pc, #48]	; (1af0 <SystemInit+0x38>)
    1ac0:	68d3      	ldr	r3, [r2, #12]
    1ac2:	f423 63e0 	bic.w	r3, r3, #1792	; 0x700
    1ac6:	041b      	lsls	r3, r3, #16
    1ac8:	0c1b      	lsrs	r3, r3, #16
    1aca:	f043 63bf 	orr.w	r3, r3, #100139008	; 0x5f80000
    1ace:	f443 3301 	orr.w	r3, r3, #132096	; 0x20400
    1ad2:	60d3      	str	r3, [r2, #12]
    1ad4:	4b07      	ldr	r3, [pc, #28]	; (1af4 <SystemInit+0x3c>)
    1ad6:	681b      	ldr	r3, [r3, #0]
    1ad8:	07da      	lsls	r2, r3, #31
    1ada:	d507      	bpl.n	1aec <SystemInit+0x34>
    1adc:	4906      	ldr	r1, [pc, #24]	; (1af8 <SystemInit+0x40>)
    1ade:	6c4a      	ldr	r2, [r1, #68]	; 0x44
    1ae0:	f3c3 0346 	ubfx	r3, r3, #1, #7
    1ae4:	f022 027f 	bic.w	r2, r2, #127	; 0x7f
    1ae8:	4313      	orrs	r3, r2
    1aea:	644b      	str	r3, [r1, #68]	; 0x44
    1aec:	bd08      	pop	{r3, pc}
    1aee:	bf00      	nop
    1af0:	e000ed00 	.word	0xe000ed00
    1af4:	0009fcd0 	.word	0x0009fcd0
    1af8:	40012000 	.word	0x40012000

00001afc <DMIC0_IRQHandler>:
    1afc:	b508      	push	{r3, lr}
    1afe:	f7fe fb4f 	bl	1a0 <ADC_SEQA_IRQHandler>
    1b02:	bd08      	pop	{r3, pc}

00001b04 <CIC_IRB_IRQHandler>:
    1b04:	b508      	push	{r3, lr}
    1b06:	f7fe fb4b 	bl	1a0 <ADC_SEQA_IRQHandler>
    1b0a:	bd08      	pop	{r3, pc}

00001b0c <HWVAD0_IRQHandler>:
    1b0c:	b508      	push	{r3, lr}
    1b0e:	f7fe fb47 	bl	1a0 <ADC_SEQA_IRQHandler>
    1b12:	bd08      	pop	{r3, pc}

00001b14 <PINT0_IRQHandler>:
    1b14:	b508      	push	{r3, lr}
    1b16:	f7fe fb43 	bl	1a0 <ADC_SEQA_IRQHandler>
    1b1a:	bd08      	pop	{r3, pc}

00001b1c <PINT1_IRQHandler>:
    1b1c:	b508      	push	{r3, lr}
    1b1e:	f7fe fb3f 	bl	1a0 <ADC_SEQA_IRQHandler>
    1b22:	bd08      	pop	{r3, pc}

00001b24 <PINT2_IRQHandler>:
    1b24:	b508      	push	{r3, lr}
    1b26:	f7fe fb3b 	bl	1a0 <ADC_SEQA_IRQHandler>
    1b2a:	bd08      	pop	{r3, pc}

00001b2c <PINT3_IRQHandler>:
    1b2c:	b508      	push	{r3, lr}
    1b2e:	f7fe fb37 	bl	1a0 <ADC_SEQA_IRQHandler>
    1b32:	bd08      	pop	{r3, pc}

00001b34 <GINT0_IRQHandler>:
    1b34:	b508      	push	{r3, lr}
    1b36:	f7ff fd4d 	bl	15d4 <GINT0_DriverIRQHandler>
    1b3a:	bd08      	pop	{r3, pc}

00001b3c <CTIMER0_IRQHandler>:
    1b3c:	b508      	push	{r3, lr}
    1b3e:	f001 ffad 	bl	3a9c <CTIMER0_DriverIRQHandler>
    1b42:	bd08      	pop	{r3, pc}

00001b44 <CTIMER1_IRQHandler>:
    1b44:	b508      	push	{r3, lr}
    1b46:	f001 ffb0 	bl	3aaa <CTIMER1_DriverIRQHandler>
    1b4a:	bd08      	pop	{r3, pc}

00001b4c <FLEXCOMM0_IRQHandler>:
    1b4c:	b508      	push	{r3, lr}
    1b4e:	f000 fe19 	bl	2784 <FLEXCOMM0_DriverIRQHandler>
    1b52:	bd08      	pop	{r3, pc}

00001b54 <FLEXCOMM1_IRQHandler>:
    1b54:	b508      	push	{r3, lr}
    1b56:	f000 fe33 	bl	27c0 <FLEXCOMM1_DriverIRQHandler>
    1b5a:	bd08      	pop	{r3, pc}

00001b5c <FLEXCOMM2_IRQHandler>:
    1b5c:	b508      	push	{r3, lr}
    1b5e:	f000 fe4d 	bl	27fc <FLEXCOMM2_DriverIRQHandler>
    1b62:	bd08      	pop	{r3, pc}

00001b64 <FLEXCOMM3_IRQHandler>:
    1b64:	b508      	push	{r3, lr}
    1b66:	f000 fe67 	bl	2838 <FLEXCOMM3_DriverIRQHandler>
    1b6a:	bd08      	pop	{r3, pc}

00001b6c <FLEXCOMM4_IRQHandler>:
    1b6c:	b508      	push	{r3, lr}
    1b6e:	f000 fe7f 	bl	2870 <FLEXCOMM4_DriverIRQHandler>
    1b72:	bd08      	pop	{r3, pc}

00001b74 <FLEXCOMM5_IRQHandler>:
    1b74:	b508      	push	{r3, lr}
    1b76:	f000 fe99 	bl	28ac <FLEXCOMM5_DriverIRQHandler>
    1b7a:	bd08      	pop	{r3, pc}

00001b7c <FLEXCOMM6_IRQHandler>:
    1b7c:	b508      	push	{r3, lr}
    1b7e:	f000 feb3 	bl	28e8 <FLEXCOMM6_DriverIRQHandler>
    1b82:	bd08      	pop	{r3, pc}

00001b84 <WWDT_GetInstance>:
    1b84:	b508      	push	{r3, lr}
    1b86:	4b05      	ldr	r3, [pc, #20]	; (1b9c <WWDT_GetInstance+0x18>)
    1b88:	4298      	cmp	r0, r3
    1b8a:	d005      	beq.n	1b98 <WWDT_GetInstance+0x14>
    1b8c:	4b04      	ldr	r3, [pc, #16]	; (1ba0 <WWDT_GetInstance+0x1c>)
    1b8e:	4a05      	ldr	r2, [pc, #20]	; (1ba4 <WWDT_GetInstance+0x20>)
    1b90:	4805      	ldr	r0, [pc, #20]	; (1ba8 <WWDT_GetInstance+0x24>)
    1b92:	2141      	movs	r1, #65	; 0x41
    1b94:	f002 fcb6 	bl	4504 <__assert_func>
    1b98:	2000      	movs	r0, #0
    1b9a:	bd08      	pop	{r3, pc}
    1b9c:	4000a000 	.word	0x4000a000
    1ba0:	000082a7 	.word	0x000082a7
    1ba4:	0000830a 	.word	0x0000830a
    1ba8:	000082c1 	.word	0x000082c1

00001bac <WWDT_Deinit>:
    1bac:	b508      	push	{r3, lr}
    1bae:	f7ff ffe9 	bl	1b84 <WWDT_GetInstance>
    1bb2:	e8bd 4008 	ldmia.w	sp!, {r3, lr}
    1bb6:	2016      	movs	r0, #22
    1bb8:	f000 ba6c 	b.w	2094 <CLOCK_DisableClock>

00001bbc <WWDT_Refresh>:
    1bbc:	f3ef 8310 	mrs	r3, PRIMASK
    1bc0:	b672      	cpsid	i
    1bc2:	22aa      	movs	r2, #170	; 0xaa
    1bc4:	6082      	str	r2, [r0, #8]
    1bc6:	2255      	movs	r2, #85	; 0x55
    1bc8:	6082      	str	r2, [r0, #8]
    1bca:	f383 8810 	msr	PRIMASK, r3
    1bce:	4770      	bx	lr

00001bd0 <CLOCK_u8OscCapConvert>:
    1bd0:	283f      	cmp	r0, #63	; 0x3f
    1bd2:	d804      	bhi.n	1bde <CLOCK_u8OscCapConvert+0xe>
    1bd4:	4281      	cmp	r1, r0
    1bd6:	d808      	bhi.n	1bea <CLOCK_u8OscCapConvert+0x1a>
    1bd8:	1a40      	subs	r0, r0, r1
    1bda:	b2c0      	uxtb	r0, r0
    1bdc:	4770      	bx	lr
    1bde:	f1c1 037f 	rsb	r3, r1, #127	; 0x7f
    1be2:	4283      	cmp	r3, r0
    1be4:	d303      	bcc.n	1bee <CLOCK_u8OscCapConvert+0x1e>
    1be6:	4408      	add	r0, r1
    1be8:	e7f7      	b.n	1bda <CLOCK_u8OscCapConvert+0xa>
    1bea:	2000      	movs	r0, #0
    1bec:	e7f5      	b.n	1bda <CLOCK_u8OscCapConvert+0xa>
    1bee:	207f      	movs	r0, #127	; 0x7f
    1bf0:	e7f3      	b.n	1bda <CLOCK_u8OscCapConvert+0xa>
    1bf2:	Address 0x00001bf2 is out of bounds.


00001bf4 <CLOCK_AttachClk>:
    1bf4:	f242 03bd 	movw	r3, #8381	; 0x20bd
    1bf8:	4298      	cmp	r0, r3
    1bfa:	d822      	bhi.n	1c42 <CLOCK_AttachClk+0x4e>
    1bfc:	f242 03a0 	movw	r3, #8352	; 0x20a0
    1c00:	4298      	cmp	r0, r3
    1c02:	d80e      	bhi.n	1c22 <CLOCK_AttachClk+0x2e>
    1c04:	f241 03a9 	movw	r3, #4265	; 0x10a9
    1c08:	4298      	cmp	r0, r3
    1c0a:	d012      	beq.n	1c32 <CLOCK_AttachClk+0x3e>
    1c0c:	f3c0 030b 	ubfx	r3, r0, #0, #12
    1c10:	2bb1      	cmp	r3, #177	; 0xb1
    1c12:	d843      	bhi.n	1c9c <CLOCK_AttachClk+0xa8>
    1c14:	2ba7      	cmp	r3, #167	; 0xa7
    1c16:	d81b      	bhi.n	1c50 <CLOCK_AttachClk+0x5c>
    1c18:	2ba2      	cmp	r3, #162	; 0xa2
    1c1a:	d047      	beq.n	1cac <CLOCK_AttachClk+0xb8>
    1c1c:	2800      	cmp	r0, #0
    1c1e:	d13f      	bne.n	1ca0 <CLOCK_AttachClk+0xac>
    1c20:	4770      	bx	lr
    1c22:	f5a0 5202 	sub.w	r2, r0, #8320	; 0x2080
    1c26:	3a21      	subs	r2, #33	; 0x21
    1c28:	2301      	movs	r3, #1
    1c2a:	4093      	lsls	r3, r2
    1c2c:	4a30      	ldr	r2, [pc, #192]	; (1cf0 <CLOCK_AttachClk+0xfc>)
    1c2e:	4213      	tst	r3, r2
    1c30:	d0ec      	beq.n	1c0c <CLOCK_AttachClk+0x18>
    1c32:	4a30      	ldr	r2, [pc, #192]	; (1cf4 <CLOCK_AttachClk+0x100>)
    1c34:	f8d2 30ac 	ldr.w	r3, [r2, #172]	; 0xac
    1c38:	f043 5380 	orr.w	r3, r3, #268435456	; 0x10000000
    1c3c:	f8c2 30ac 	str.w	r3, [r2, #172]	; 0xac
    1c40:	e7e4      	b.n	1c0c <CLOCK_AttachClk+0x18>
    1c42:	f243 03a0 	movw	r3, #12448	; 0x30a0
    1c46:	4298      	cmp	r0, r3
    1c48:	d0f3      	beq.n	1c32 <CLOCK_AttachClk+0x3e>
    1c4a:	f244 03a2 	movw	r3, #16546	; 0x40a2
    1c4e:	e7db      	b.n	1c08 <CLOCK_AttachClk+0x14>
    1c50:	3ba8      	subs	r3, #168	; 0xa8
    1c52:	2b09      	cmp	r3, #9
    1c54:	d824      	bhi.n	1ca0 <CLOCK_AttachClk+0xac>
    1c56:	e8df f003 	tbb	[pc, r3]
    1c5a:	2527      	.short	0x2527
    1c5c:	23232323 	.word	0x23232323
    1c60:	2b230523 	.word	0x2b230523
    1c64:	23de      	movs	r3, #222	; 0xde
    1c66:	009a      	lsls	r2, r3, #2
    1c68:	f102 4280 	add.w	r2, r2, #1073741824	; 0x40000000
    1c6c:	6811      	ldr	r1, [r2, #0]
    1c6e:	f041 4180 	orr.w	r1, r1, #1073741824	; 0x40000000
    1c72:	6011      	str	r1, [r2, #0]
    1c74:	b150      	cbz	r0, 1c8c <CLOCK_AttachClk+0x98>
    1c76:	b2c2      	uxtb	r2, r0
    1c78:	f3c0 3003 	ubfx	r0, r0, #12, #4
    1c7c:	3801      	subs	r0, #1
    1c7e:	2abd      	cmp	r2, #189	; 0xbd
    1c80:	b2c0      	uxtb	r0, r0
    1c82:	d119      	bne.n	1cb8 <CLOCK_AttachClk+0xc4>
    1c84:	4a1b      	ldr	r2, [pc, #108]	; (1cf4 <CLOCK_AttachClk+0x100>)
    1c86:	6210      	str	r0, [r2, #32]
    1c88:	2b00      	cmp	r3, #0
    1c8a:	d0c9      	beq.n	1c20 <CLOCK_AttachClk+0x2c>
    1c8c:	009b      	lsls	r3, r3, #2
    1c8e:	f103 4380 	add.w	r3, r3, #1073741824	; 0x40000000
    1c92:	681a      	ldr	r2, [r3, #0]
    1c94:	f022 4280 	bic.w	r2, r2, #1073741824	; 0x40000000
    1c98:	601a      	str	r2, [r3, #0]
    1c9a:	4770      	bx	lr
    1c9c:	2bbb      	cmp	r3, #187	; 0xbb
    1c9e:	d009      	beq.n	1cb4 <CLOCK_AttachClk+0xc0>
    1ca0:	2300      	movs	r3, #0
    1ca2:	e7e8      	b.n	1c76 <CLOCK_AttachClk+0x82>
    1ca4:	23e5      	movs	r3, #229	; 0xe5
    1ca6:	e7de      	b.n	1c66 <CLOCK_AttachClk+0x72>
    1ca8:	23e4      	movs	r3, #228	; 0xe4
    1caa:	e7dc      	b.n	1c66 <CLOCK_AttachClk+0x72>
    1cac:	23e1      	movs	r3, #225	; 0xe1
    1cae:	e7da      	b.n	1c66 <CLOCK_AttachClk+0x72>
    1cb0:	23db      	movs	r3, #219	; 0xdb
    1cb2:	e7d8      	b.n	1c66 <CLOCK_AttachClk+0x72>
    1cb4:	23ea      	movs	r3, #234	; 0xea
    1cb6:	e7d6      	b.n	1c66 <CLOCK_AttachClk+0x72>
    1cb8:	2aa1      	cmp	r2, #161	; 0xa1
    1cba:	d112      	bne.n	1ce2 <CLOCK_AttachClk+0xee>
    1cbc:	4a0e      	ldr	r2, [pc, #56]	; (1cf8 <CLOCK_AttachClk+0x104>)
    1cbe:	2801      	cmp	r0, #1
    1cc0:	6811      	ldr	r1, [r2, #0]
    1cc2:	d806      	bhi.n	1cd2 <CLOCK_AttachClk+0xde>
    1cc4:	f021 0101 	bic.w	r1, r1, #1
    1cc8:	6011      	str	r1, [r2, #0]
    1cca:	6811      	ldr	r1, [r2, #0]
    1ccc:	4308      	orrs	r0, r1
    1cce:	6010      	str	r0, [r2, #0]
    1cd0:	e7da      	b.n	1c88 <CLOCK_AttachClk+0x94>
    1cd2:	f021 0102 	bic.w	r1, r1, #2
    1cd6:	6011      	str	r1, [r2, #0]
    1cd8:	6811      	ldr	r1, [r2, #0]
    1cda:	3802      	subs	r0, #2
    1cdc:	ea41 0040 	orr.w	r0, r1, r0, lsl #1
    1ce0:	e7f5      	b.n	1cce <CLOCK_AttachClk+0xda>
    1ce2:	2ab3      	cmp	r2, #179	; 0xb3
    1ce4:	d0d0      	beq.n	1c88 <CLOCK_AttachClk+0x94>
    1ce6:	0092      	lsls	r2, r2, #2
    1ce8:	f102 4280 	add.w	r2, r2, #1073741824	; 0x40000000
    1cec:	e7ef      	b.n	1cce <CLOCK_AttachClk+0xda>
    1cee:	bf00      	nop
    1cf0:	10000081 	.word	0x10000081
    1cf4:	40020000 	.word	0x40020000
    1cf8:	40000284 	.word	0x40000284

00001cfc <CLOCK_GetXtal32kFreq>:
    1cfc:	4b04      	ldr	r3, [pc, #16]	; (1d10 <CLOCK_GetXtal32kFreq+0x14>)
    1cfe:	f8d3 00b8 	ldr.w	r0, [r3, #184]	; 0xb8
    1d02:	f010 6080 	ands.w	r0, r0, #67108864	; 0x4000000
    1d06:	bf18      	it	ne
    1d08:	f44f 4000 	movne.w	r0, #32768	; 0x8000
    1d0c:	4770      	bx	lr
    1d0e:	bf00      	nop
    1d10:	40012000 	.word	0x40012000

00001d14 <CLOCK_GetFro32kFreq>:
    1d14:	4b04      	ldr	r3, [pc, #16]	; (1d28 <CLOCK_GetFro32kFreq+0x14>)
    1d16:	f8d3 00b8 	ldr.w	r0, [r3, #184]	; 0xb8
    1d1a:	f010 7000 	ands.w	r0, r0, #33554432	; 0x2000000
    1d1e:	bf18      	it	ne
    1d20:	f44f 4000 	movne.w	r0, #32768	; 0x8000
    1d24:	4770      	bx	lr
    1d26:	bf00      	nop
    1d28:	40012000 	.word	0x40012000

00001d2c <CLOCK_GetOsc32kFreq>:
    1d2c:	f04f 4380 	mov.w	r3, #1073741824	; 0x40000000
    1d30:	f8d3 3284 	ldr.w	r3, [r3, #644]	; 0x284
    1d34:	079b      	lsls	r3, r3, #30
    1d36:	d501      	bpl.n	1d3c <CLOCK_GetOsc32kFreq+0x10>
    1d38:	f7ff bfe0 	b.w	1cfc <CLOCK_GetXtal32kFreq>
    1d3c:	f7ff bfea 	b.w	1d14 <CLOCK_GetFro32kFreq>

00001d40 <CLOCK_GetFro12MFreq>:
    1d40:	4b03      	ldr	r3, [pc, #12]	; (1d50 <CLOCK_GetFro12MFreq+0x10>)
    1d42:	6c18      	ldr	r0, [r3, #64]	; 0x40
    1d44:	4b03      	ldr	r3, [pc, #12]	; (1d54 <CLOCK_GetFro12MFreq+0x14>)
    1d46:	f410 1080 	ands.w	r0, r0, #1048576	; 0x100000
    1d4a:	bf18      	it	ne
    1d4c:	4618      	movne	r0, r3
    1d4e:	4770      	bx	lr
    1d50:	40012000 	.word	0x40012000
    1d54:	00b71b00 	.word	0x00b71b00

00001d58 <CLOCK_GetFro32MFreq>:
    1d58:	4b03      	ldr	r3, [pc, #12]	; (1d68 <CLOCK_GetFro32MFreq+0x10>)
    1d5a:	6c18      	ldr	r0, [r3, #64]	; 0x40
    1d5c:	4b03      	ldr	r3, [pc, #12]	; (1d6c <CLOCK_GetFro32MFreq+0x14>)
    1d5e:	f410 1000 	ands.w	r0, r0, #2097152	; 0x200000
    1d62:	bf18      	it	ne
    1d64:	4618      	movne	r0, r3
    1d66:	4770      	bx	lr
    1d68:	40012000 	.word	0x40012000
    1d6c:	01e84800 	.word	0x01e84800

00001d70 <CLOCK_GetOsc32MFreq>:
    1d70:	f04f 4380 	mov.w	r3, #1073741824	; 0x40000000
    1d74:	f8d3 3284 	ldr.w	r3, [r3, #644]	; 0x284
    1d78:	07db      	lsls	r3, r3, #31
    1d7a:	d401      	bmi.n	1d80 <CLOCK_GetOsc32MFreq+0x10>
    1d7c:	f7ff bfec 	b.w	1d58 <CLOCK_GetFro32MFreq>
    1d80:	4800      	ldr	r0, [pc, #0]	; (1d84 <CLOCK_GetOsc32MFreq+0x14>)
    1d82:	4770      	bx	lr
    1d84:	01e84800 	.word	0x01e84800

00001d88 <CLOCK_GetWdtOscFreq>:
    1d88:	f04f 4380 	mov.w	r3, #1073741824	; 0x40000000
    1d8c:	f8d3 32c4 	ldr.w	r3, [r3, #708]	; 0x2c4
    1d90:	f003 0303 	and.w	r3, r3, #3
    1d94:	2b02      	cmp	r3, #2
    1d96:	d007      	beq.n	1da8 <CLOCK_GetWdtOscFreq+0x20>
    1d98:	2b03      	cmp	r3, #3
    1d9a:	d007      	beq.n	1dac <CLOCK_GetWdtOscFreq+0x24>
    1d9c:	2b01      	cmp	r3, #1
    1d9e:	d001      	beq.n	1da4 <CLOCK_GetWdtOscFreq+0x1c>
    1da0:	f7ff bfe6 	b.w	1d70 <CLOCK_GetOsc32MFreq>
    1da4:	f7ff bfc2 	b.w	1d2c <CLOCK_GetOsc32kFreq>
    1da8:	4801      	ldr	r0, [pc, #4]	; (1db0 <CLOCK_GetWdtOscFreq+0x28>)
    1daa:	4770      	bx	lr
    1dac:	2000      	movs	r0, #0
    1dae:	4770      	bx	lr
    1db0:	000f4240 	.word	0x000f4240

00001db4 <CLOCK_GetFro48MFreq>:
    1db4:	4b03      	ldr	r3, [pc, #12]	; (1dc4 <CLOCK_GetFro48MFreq+0x10>)
    1db6:	6c18      	ldr	r0, [r3, #64]	; 0x40
    1db8:	4b03      	ldr	r3, [pc, #12]	; (1dc8 <CLOCK_GetFro48MFreq+0x14>)
    1dba:	f410 0080 	ands.w	r0, r0, #4194304	; 0x400000
    1dbe:	bf18      	it	ne
    1dc0:	4618      	movne	r0, r3
    1dc2:	4770      	bx	lr
    1dc4:	40012000 	.word	0x40012000
    1dc8:	02dc6c00 	.word	0x02dc6c00

00001dcc <CLOCK_GetPWMClockFreq>:
    1dcc:	f04f 4380 	mov.w	r3, #1073741824	; 0x40000000
    1dd0:	f8d3 32c0 	ldr.w	r3, [r3, #704]	; 0x2c0
    1dd4:	f013 0303 	ands.w	r3, r3, #3
    1dd8:	d003      	beq.n	1de2 <CLOCK_GetPWMClockFreq+0x16>
    1dda:	2b01      	cmp	r3, #1
    1ddc:	d003      	beq.n	1de6 <CLOCK_GetPWMClockFreq+0x1a>
    1dde:	2000      	movs	r0, #0
    1de0:	4770      	bx	lr
    1de2:	f7ff bfc5 	b.w	1d70 <CLOCK_GetOsc32MFreq>
    1de6:	f7ff bfe5 	b.w	1db4 <CLOCK_GetFro48MFreq>
    1dea:	Address 0x00001dea is out of bounds.


00001dec <CLOCK_GetMainClockRate>:
    1dec:	f04f 4380 	mov.w	r3, #1073741824	; 0x40000000
    1df0:	f8d3 3280 	ldr.w	r3, [r3, #640]	; 0x280
    1df4:	f003 0307 	and.w	r3, r3, #7
    1df8:	2b06      	cmp	r3, #6
    1dfa:	d811      	bhi.n	1e20 <CLOCK_GetMainClockRate+0x34>
    1dfc:	e8df f003 	tbb	[pc, r3]
    1e00:	0a040806 	.word	0x0a040806
    1e04:	100c      	.short	0x100c
    1e06:	0e          	.byte	0x0e
    1e07:	00          	.byte	0x00
    1e08:	4806      	ldr	r0, [pc, #24]	; (1e24 <CLOCK_GetMainClockRate+0x38>)
    1e0a:	4770      	bx	lr
    1e0c:	f7ff bf98 	b.w	1d40 <CLOCK_GetFro12MFreq>
    1e10:	f7ff bf8c 	b.w	1d2c <CLOCK_GetOsc32kFreq>
    1e14:	f7ff bfa0 	b.w	1d58 <CLOCK_GetFro32MFreq>
    1e18:	f7ff bfcc 	b.w	1db4 <CLOCK_GetFro48MFreq>
    1e1c:	4802      	ldr	r0, [pc, #8]	; (1e28 <CLOCK_GetMainClockRate+0x3c>)
    1e1e:	4770      	bx	lr
    1e20:	2000      	movs	r0, #0
    1e22:	4770      	bx	lr
    1e24:	01e84800 	.word	0x01e84800
    1e28:	000f4240 	.word	0x000f4240

00001e2c <CLOCK_GetCoreSysClkFreq>:
    1e2c:	b508      	push	{r3, lr}
    1e2e:	f7ff ffdd 	bl	1dec <CLOCK_GetMainClockRate>
    1e32:	f04f 4380 	mov.w	r3, #1073741824	; 0x40000000
    1e36:	f8d3 3380 	ldr.w	r3, [r3, #896]	; 0x380
    1e3a:	b2db      	uxtb	r3, r3
    1e3c:	3301      	adds	r3, #1
    1e3e:	fbb0 f0f3 	udiv	r0, r0, r3
    1e42:	bd08      	pop	{r3, pc}

00001e44 <CLOCK_GetFRGInputClock>:
    1e44:	f04f 4380 	mov.w	r3, #1073741824	; 0x40000000
    1e48:	f8d3 32e8 	ldr.w	r3, [r3, #744]	; 0x2e8
    1e4c:	f003 0303 	and.w	r3, r3, #3
    1e50:	2b01      	cmp	r3, #1
    1e52:	d004      	beq.n	1e5e <CLOCK_GetFRGInputClock+0x1a>
    1e54:	2b02      	cmp	r3, #2
    1e56:	d004      	beq.n	1e62 <CLOCK_GetFRGInputClock+0x1e>
    1e58:	b92b      	cbnz	r3, 1e66 <CLOCK_GetFRGInputClock+0x22>
    1e5a:	f7ff bfc7 	b.w	1dec <CLOCK_GetMainClockRate>
    1e5e:	f7ff bf87 	b.w	1d70 <CLOCK_GetOsc32MFreq>
    1e62:	f7ff bfa7 	b.w	1db4 <CLOCK_GetFro48MFreq>
    1e66:	2000      	movs	r0, #0
    1e68:	4770      	bx	lr

00001e6a <CLOCK_GetFRGClock>:
    1e6a:	b510      	push	{r4, lr}
    1e6c:	f04f 4480 	mov.w	r4, #1073741824	; 0x40000000
    1e70:	f8d4 33a0 	ldr.w	r3, [r4, #928]	; 0x3a0
    1e74:	b2db      	uxtb	r3, r3
    1e76:	2bff      	cmp	r3, #255	; 0xff
    1e78:	d10e      	bne.n	1e98 <CLOCK_GetFRGClock+0x2e>
    1e7a:	f7ff ffe3 	bl	1e44 <CLOCK_GetFRGInputClock>
    1e7e:	f8d4 23a0 	ldr.w	r2, [r4, #928]	; 0x3a0
    1e82:	4601      	mov	r1, r0
    1e84:	f3c2 2207 	ubfx	r2, r2, #8, #8
    1e88:	f502 7280 	add.w	r2, r2, #256	; 0x100
    1e8c:	2300      	movs	r3, #0
    1e8e:	0200      	lsls	r0, r0, #8
    1e90:	0e09      	lsrs	r1, r1, #24
    1e92:	f005 faad 	bl	73f0 <__aeabi_uldivmod>
    1e96:	bd10      	pop	{r4, pc}
    1e98:	2000      	movs	r0, #0
    1e9a:	e7fc      	b.n	1e96 <CLOCK_GetFRGClock+0x2c>

00001e9c <CLOCK_GetFro64MFreq>:
    1e9c:	4b03      	ldr	r3, [pc, #12]	; (1eac <CLOCK_GetFro64MFreq+0x10>)
    1e9e:	6c18      	ldr	r0, [r3, #64]	; 0x40
    1ea0:	4b03      	ldr	r3, [pc, #12]	; (1eb0 <CLOCK_GetFro64MFreq+0x14>)
    1ea2:	f410 0000 	ands.w	r0, r0, #8388608	; 0x800000
    1ea6:	bf18      	it	ne
    1ea8:	4618      	movne	r0, r3
    1eaa:	4770      	bx	lr
    1eac:	40012000 	.word	0x40012000
    1eb0:	03d09000 	.word	0x03d09000

00001eb4 <CLOCK_GetClkOutFreq>:
    1eb4:	f04f 4280 	mov.w	r2, #1073741824	; 0x40000000
    1eb8:	b508      	push	{r3, lr}
    1eba:	f8d2 3288 	ldr.w	r3, [r2, #648]	; 0x288
    1ebe:	f003 0307 	and.w	r3, r3, #7
    1ec2:	3b01      	subs	r3, #1
    1ec4:	4611      	mov	r1, r2
    1ec6:	2b06      	cmp	r3, #6
    1ec8:	d80e      	bhi.n	1ee8 <CLOCK_GetClkOutFreq+0x34>
    1eca:	e8df f003 	tbb	[pc, r3]
    1ece:	1310      	.short	0x1310
    1ed0:	0419161e 	.word	0x0419161e
    1ed4:	1c          	.byte	0x1c
    1ed5:	00          	.byte	0x00
    1ed6:	480e      	ldr	r0, [pc, #56]	; (1f10 <CLOCK_GetClkOutFreq+0x5c>)
    1ed8:	f8d1 3384 	ldr.w	r3, [r1, #900]	; 0x384
    1edc:	f003 030f 	and.w	r3, r3, #15
    1ee0:	3301      	adds	r3, #1
    1ee2:	fbb0 f0f3 	udiv	r0, r0, r3
    1ee6:	bd08      	pop	{r3, pc}
    1ee8:	f7ff ff80 	bl	1dec <CLOCK_GetMainClockRate>
    1eec:	e7f4      	b.n	1ed8 <CLOCK_GetClkOutFreq+0x24>
    1eee:	f7ff ff05 	bl	1cfc <CLOCK_GetXtal32kFreq>
    1ef2:	e7f1      	b.n	1ed8 <CLOCK_GetClkOutFreq+0x24>
    1ef4:	f7ff ff0e 	bl	1d14 <CLOCK_GetFro32kFreq>
    1ef8:	e7ee      	b.n	1ed8 <CLOCK_GetClkOutFreq+0x24>
    1efa:	f7ff ffcf 	bl	1e9c <CLOCK_GetFro64MFreq>
    1efe:	e7eb      	b.n	1ed8 <CLOCK_GetClkOutFreq+0x24>
    1f00:	f7ff ff58 	bl	1db4 <CLOCK_GetFro48MFreq>
    1f04:	e7e8      	b.n	1ed8 <CLOCK_GetClkOutFreq+0x24>
    1f06:	2000      	movs	r0, #0
    1f08:	e7e6      	b.n	1ed8 <CLOCK_GetClkOutFreq+0x24>
    1f0a:	4802      	ldr	r0, [pc, #8]	; (1f14 <CLOCK_GetClkOutFreq+0x60>)
    1f0c:	e7e4      	b.n	1ed8 <CLOCK_GetClkOutFreq+0x24>
    1f0e:	bf00      	nop
    1f10:	000f4240 	.word	0x000f4240
    1f14:	01e84800 	.word	0x01e84800

00001f18 <CLOCK_GetSpifiOscFreq>:
    1f18:	b508      	push	{r3, lr}
    1f1a:	f04f 4380 	mov.w	r3, #1073741824	; 0x40000000
    1f1e:	4619      	mov	r1, r3
    1f20:	f8d3 22a0 	ldr.w	r2, [r3, #672]	; 0x2a0
    1f24:	f002 0207 	and.w	r2, r2, #7
    1f28:	2a03      	cmp	r2, #3
    1f2a:	d803      	bhi.n	1f34 <CLOCK_GetSpifiOscFreq+0x1c>
    1f2c:	e8df f002 	tbb	[pc, r2]
    1f30:	110e140b 	.word	0x110e140b
    1f34:	2000      	movs	r0, #0
    1f36:	f8d1 3390 	ldr.w	r3, [r1, #912]	; 0x390
    1f3a:	f003 0303 	and.w	r3, r3, #3
    1f3e:	3301      	adds	r3, #1
    1f40:	fbb0 f0f3 	udiv	r0, r0, r3
    1f44:	bd08      	pop	{r3, pc}
    1f46:	f7ff ff51 	bl	1dec <CLOCK_GetMainClockRate>
    1f4a:	e7f4      	b.n	1f36 <CLOCK_GetSpifiOscFreq+0x1e>
    1f4c:	f7ff ffa6 	bl	1e9c <CLOCK_GetFro64MFreq>
    1f50:	e7f1      	b.n	1f36 <CLOCK_GetSpifiOscFreq+0x1e>
    1f52:	f7ff ff2f 	bl	1db4 <CLOCK_GetFro48MFreq>
    1f56:	e7ee      	b.n	1f36 <CLOCK_GetSpifiOscFreq+0x1e>
    1f58:	4800      	ldr	r0, [pc, #0]	; (1f5c <CLOCK_GetSpifiOscFreq+0x44>)
    1f5a:	e7ec      	b.n	1f36 <CLOCK_GetSpifiOscFreq+0x1e>
    1f5c:	01e84800 	.word	0x01e84800

00001f60 <CLOCK_GetApbCLkFreq>:
    1f60:	4b08      	ldr	r3, [pc, #32]	; (1f84 <CLOCK_GetApbCLkFreq+0x24>)
    1f62:	6a1b      	ldr	r3, [r3, #32]
    1f64:	f003 0303 	and.w	r3, r3, #3
    1f68:	2b02      	cmp	r3, #2
    1f6a:	d005      	beq.n	1f78 <CLOCK_GetApbCLkFreq+0x18>
    1f6c:	2b03      	cmp	r3, #3
    1f6e:	d005      	beq.n	1f7c <CLOCK_GetApbCLkFreq+0x1c>
    1f70:	2b01      	cmp	r3, #1
    1f72:	d005      	beq.n	1f80 <CLOCK_GetApbCLkFreq+0x20>
    1f74:	f7ff bf3a 	b.w	1dec <CLOCK_GetMainClockRate>
    1f78:	f7ff beee 	b.w	1d58 <CLOCK_GetFro32MFreq>
    1f7c:	f7ff bf1a 	b.w	1db4 <CLOCK_GetFro48MFreq>
    1f80:	4801      	ldr	r0, [pc, #4]	; (1f88 <CLOCK_GetApbCLkFreq+0x28>)
    1f82:	4770      	bx	lr
    1f84:	40020000 	.word	0x40020000
    1f88:	01e84800 	.word	0x01e84800

00001f8c <CLOCK_GetFreq>:
    1f8c:	b508      	push	{r3, lr}
    1f8e:	4b3e      	ldr	r3, [pc, #248]	; (2088 <CLOCK_GetFreq+0xfc>)
    1f90:	4298      	cmp	r0, r3
    1f92:	d80a      	bhi.n	1faa <CLOCK_GetFreq+0x1e>
    1f94:	f5b0 3f80 	cmp.w	r0, #65536	; 0x10000
    1f98:	d209      	bcs.n	1fae <CLOCK_GetFreq+0x22>
    1f9a:	f5b0 7f89 	cmp.w	r0, #274	; 0x112
    1f9e:	d06d      	beq.n	207c <CLOCK_GetFreq+0xf0>
    1fa0:	d82c      	bhi.n	1ffc <CLOCK_GetFreq+0x70>
    1fa2:	280a      	cmp	r0, #10
    1fa4:	d05b      	beq.n	205e <CLOCK_GetFreq+0xd2>
    1fa6:	2816      	cmp	r0, #22
    1fa8:	d05d      	beq.n	2066 <CLOCK_GetFreq+0xda>
    1faa:	2000      	movs	r0, #0
    1fac:	e025      	b.n	1ffa <CLOCK_GetFreq+0x6e>
    1fae:	f5a0 3080 	sub.w	r0, r0, #65536	; 0x10000
    1fb2:	280e      	cmp	r0, #14
    1fb4:	d8f9      	bhi.n	1faa <CLOCK_GetFreq+0x1e>
    1fb6:	a301      	add	r3, pc, #4	; (adr r3, 1fbc <CLOCK_GetFreq+0x30>)
    1fb8:	f853 f020 	ldr.w	pc, [r3, r0, lsl #2]
    1fbc:	0000200f 	.word	0x0000200f
    1fc0:	00002017 	.word	0x00002017
    1fc4:	00002017 	.word	0x00002017
    1fc8:	0000201f 	.word	0x0000201f
    1fcc:	00002085 	.word	0x00002085
    1fd0:	00002027 	.word	0x00002027
    1fd4:	00001ff9 	.word	0x00001ff9
    1fd8:	0000202f 	.word	0x0000202f
    1fdc:	00002037 	.word	0x00002037
    1fe0:	0000203f 	.word	0x0000203f
    1fe4:	00002047 	.word	0x00002047
    1fe8:	00001fab 	.word	0x00001fab
    1fec:	00002067 	.word	0x00002067
    1ff0:	0000204f 	.word	0x0000204f
    1ff4:	00002057 	.word	0x00002057
    1ff8:	4824      	ldr	r0, [pc, #144]	; (208c <CLOCK_GetFreq+0x100>)
    1ffa:	bd08      	pop	{r3, pc}
    1ffc:	f46f 7300 	mvn.w	r3, #512	; 0x200
    2000:	4418      	add	r0, r3
    2002:	2801      	cmp	r0, #1
    2004:	d8d1      	bhi.n	1faa <CLOCK_GetFreq+0x1e>
    2006:	e8bd 4008 	ldmia.w	sp!, {r3, lr}
    200a:	f7ff bfa9 	b.w	1f60 <CLOCK_GetApbCLkFreq>
    200e:	e8bd 4008 	ldmia.w	sp!, {r3, lr}
    2012:	f7ff beeb 	b.w	1dec <CLOCK_GetMainClockRate>
    2016:	e8bd 4008 	ldmia.w	sp!, {r3, lr}
    201a:	f7ff bf07 	b.w	1e2c <CLOCK_GetCoreSysClkFreq>
    201e:	e8bd 4008 	ldmia.w	sp!, {r3, lr}
    2022:	f7ff be6b 	b.w	1cfc <CLOCK_GetXtal32kFreq>
    2026:	e8bd 4008 	ldmia.w	sp!, {r3, lr}
    202a:	f7ff be73 	b.w	1d14 <CLOCK_GetFro32kFreq>
    202e:	e8bd 4008 	ldmia.w	sp!, {r3, lr}
    2032:	f7ff be85 	b.w	1d40 <CLOCK_GetFro12MFreq>
    2036:	e8bd 4008 	ldmia.w	sp!, {r3, lr}
    203a:	f7ff be8d 	b.w	1d58 <CLOCK_GetFro32MFreq>
    203e:	e8bd 4008 	ldmia.w	sp!, {r3, lr}
    2042:	f7ff beb7 	b.w	1db4 <CLOCK_GetFro48MFreq>
    2046:	e8bd 4008 	ldmia.w	sp!, {r3, lr}
    204a:	f7ff bf27 	b.w	1e9c <CLOCK_GetFro64MFreq>
    204e:	e8bd 4008 	ldmia.w	sp!, {r3, lr}
    2052:	f7ff bf0a 	b.w	1e6a <CLOCK_GetFRGClock>
    2056:	e8bd 4008 	ldmia.w	sp!, {r3, lr}
    205a:	f7ff bf2b 	b.w	1eb4 <CLOCK_GetClkOutFreq>
    205e:	e8bd 4008 	ldmia.w	sp!, {r3, lr}
    2062:	f7ff bf59 	b.w	1f18 <CLOCK_GetSpifiOscFreq>
    2066:	f7ff fe8f 	bl	1d88 <CLOCK_GetWdtOscFreq>
    206a:	f04f 4380 	mov.w	r3, #1073741824	; 0x40000000
    206e:	f8d3 336c 	ldr.w	r3, [r3, #876]	; 0x36c
    2072:	b2db      	uxtb	r3, r3
    2074:	3301      	adds	r3, #1
    2076:	fbb0 f0f3 	udiv	r0, r0, r3
    207a:	e7be      	b.n	1ffa <CLOCK_GetFreq+0x6e>
    207c:	e8bd 4008 	ldmia.w	sp!, {r3, lr}
    2080:	f7ff bea4 	b.w	1dcc <CLOCK_GetPWMClockFreq>
    2084:	4802      	ldr	r0, [pc, #8]	; (2090 <CLOCK_GetFreq+0x104>)
    2086:	e7b8      	b.n	1ffa <CLOCK_GetFreq+0x6e>
    2088:	0001000e 	.word	0x0001000e
    208c:	000f4240 	.word	0x000f4240
    2090:	01e84800 	.word	0x01e84800

00002094 <CLOCK_DisableClock>:
    2094:	f5b0 7f00 	cmp.w	r0, #512	; 0x200
    2098:	ea4f 2310 	mov.w	r3, r0, lsr #8
    209c:	d30c      	bcc.n	20b8 <CLOCK_DisableClock+0x24>
    209e:	2b02      	cmp	r3, #2
    20a0:	d014      	beq.n	20cc <CLOCK_DisableClock+0x38>
    20a2:	f5a0 3080 	sub.w	r0, r0, #65536	; 0x10000
    20a6:	3803      	subs	r0, #3
    20a8:	2807      	cmp	r0, #7
    20aa:	d831      	bhi.n	2110 <CLOCK_DisableClock+0x7c>
    20ac:	e8df f000 	tbb	[pc, r0]
    20b0:	3015231d 	.word	0x3015231d
    20b4:	3b36312b 	.word	0x3b36312b
    20b8:	2201      	movs	r2, #1
    20ba:	b2c0      	uxtb	r0, r0
    20bc:	fa02 f000 	lsl.w	r0, r2, r0
    20c0:	3390      	adds	r3, #144	; 0x90
    20c2:	f04f 4280 	mov.w	r2, #1073741824	; 0x40000000
    20c6:	f842 0023 	str.w	r0, [r2, r3, lsl #2]
    20ca:	4770      	bx	lr
    20cc:	2301      	movs	r3, #1
    20ce:	b2c0      	uxtb	r0, r0
    20d0:	fa03 f000 	lsl.w	r0, r3, r0
    20d4:	4b16      	ldr	r3, [pc, #88]	; (2130 <CLOCK_DisableClock+0x9c>)
    20d6:	6198      	str	r0, [r3, #24]
    20d8:	4770      	bx	lr
    20da:	4a16      	ldr	r2, [pc, #88]	; (2134 <CLOCK_DisableClock+0xa0>)
    20dc:	f8d2 30b8 	ldr.w	r3, [r2, #184]	; 0xb8
    20e0:	f023 7300 	bic.w	r3, r3, #33554432	; 0x2000000
    20e4:	f8c2 30b8 	str.w	r3, [r2, #184]	; 0xb8
    20e8:	4770      	bx	lr
    20ea:	4a12      	ldr	r2, [pc, #72]	; (2134 <CLOCK_DisableClock+0xa0>)
    20ec:	f8d2 30b8 	ldr.w	r3, [r2, #184]	; 0xb8
    20f0:	f023 6380 	bic.w	r3, r3, #67108864	; 0x4000000
    20f4:	e7f6      	b.n	20e4 <CLOCK_DisableClock+0x50>
    20f6:	4a0e      	ldr	r2, [pc, #56]	; (2130 <CLOCK_DisableClock+0x9c>)
    20f8:	f8d2 30ac 	ldr.w	r3, [r2, #172]	; 0xac
    20fc:	f423 0380 	bic.w	r3, r3, #4194304	; 0x400000
    2100:	f8c2 30ac 	str.w	r3, [r2, #172]	; 0xac
    2104:	4770      	bx	lr
    2106:	4a0b      	ldr	r2, [pc, #44]	; (2134 <CLOCK_DisableClock+0xa0>)
    2108:	6c13      	ldr	r3, [r2, #64]	; 0x40
    210a:	f423 1380 	bic.w	r3, r3, #1048576	; 0x100000
    210e:	6413      	str	r3, [r2, #64]	; 0x40
    2110:	4770      	bx	lr
    2112:	4a08      	ldr	r2, [pc, #32]	; (2134 <CLOCK_DisableClock+0xa0>)
    2114:	6c13      	ldr	r3, [r2, #64]	; 0x40
    2116:	f423 1300 	bic.w	r3, r3, #2097152	; 0x200000
    211a:	e7f8      	b.n	210e <CLOCK_DisableClock+0x7a>
    211c:	4a05      	ldr	r2, [pc, #20]	; (2134 <CLOCK_DisableClock+0xa0>)
    211e:	6c13      	ldr	r3, [r2, #64]	; 0x40
    2120:	f423 0380 	bic.w	r3, r3, #4194304	; 0x400000
    2124:	e7f3      	b.n	210e <CLOCK_DisableClock+0x7a>
    2126:	4a03      	ldr	r2, [pc, #12]	; (2134 <CLOCK_DisableClock+0xa0>)
    2128:	6c13      	ldr	r3, [r2, #64]	; 0x40
    212a:	f423 0300 	bic.w	r3, r3, #8388608	; 0x800000
    212e:	e7ee      	b.n	210e <CLOCK_DisableClock+0x7a>
    2130:	40020000 	.word	0x40020000
    2134:	40012000 	.word	0x40012000

00002138 <CLOCK_EnableAPBBridge>:
    2138:	f04f 4280 	mov.w	r2, #1073741824	; 0x40000000
    213c:	6cd3      	ldr	r3, [r2, #76]	; 0x4c
    213e:	f043 0301 	orr.w	r3, r3, #1
    2142:	64d3      	str	r3, [r2, #76]	; 0x4c
    2144:	4770      	bx	lr
    2146:	Address 0x00002146 is out of bounds.


00002148 <CLOCK_uDelay>:
    2148:	b5f8      	push	{r3, r4, r5, r6, r7, lr}
    214a:	4914      	ldr	r1, [pc, #80]	; (219c <CLOCK_uDelay+0x54>)
    214c:	4c14      	ldr	r4, [pc, #80]	; (21a0 <CLOCK_uDelay+0x58>)
    214e:	68e5      	ldr	r5, [r4, #12]
    2150:	680e      	ldr	r6, [r1, #0]
    2152:	68e3      	ldr	r3, [r4, #12]
    2154:	f043 7380 	orr.w	r3, r3, #16777216	; 0x1000000
    2158:	60e3      	str	r3, [r4, #12]
    215a:	680b      	ldr	r3, [r1, #0]
    215c:	f043 0301 	orr.w	r3, r3, #1
    2160:	600b      	str	r3, [r1, #0]
    2162:	4607      	mov	r7, r0
    2164:	f7ff fe62 	bl	1e2c <CLOCK_GetCoreSysClkFreq>
    2168:	684a      	ldr	r2, [r1, #4]
    216a:	4b0e      	ldr	r3, [pc, #56]	; (21a4 <CLOCK_uDelay+0x5c>)
    216c:	fbb0 f3f3 	udiv	r3, r0, r3
    2170:	f005 7580 	and.w	r5, r5, #16777216	; 0x1000000
    2174:	f006 0601 	and.w	r6, r6, #1
    2178:	fb07 2003 	mla	r0, r7, r3, r2
    217c:	684b      	ldr	r3, [r1, #4]
    217e:	1ac3      	subs	r3, r0, r3
    2180:	2b00      	cmp	r3, #0
    2182:	dcfb      	bgt.n	217c <CLOCK_uDelay+0x34>
    2184:	b91e      	cbnz	r6, 218e <CLOCK_uDelay+0x46>
    2186:	680b      	ldr	r3, [r1, #0]
    2188:	f023 0301 	bic.w	r3, r3, #1
    218c:	600b      	str	r3, [r1, #0]
    218e:	b91d      	cbnz	r5, 2198 <CLOCK_uDelay+0x50>
    2190:	68e3      	ldr	r3, [r4, #12]
    2192:	f023 7380 	bic.w	r3, r3, #16777216	; 0x1000000
    2196:	60e3      	str	r3, [r4, #12]
    2198:	bdf8      	pop	{r3, r4, r5, r6, r7, pc}
    219a:	bf00      	nop
    219c:	e0001000 	.word	0xe0001000
    21a0:	e000edf0 	.word	0xe000edf0
    21a4:	000f4240 	.word	0x000f4240

000021a8 <CLOCK_SetXtal32M_LDO>:
    21a8:	4a0a      	ldr	r2, [pc, #40]	; (21d4 <CLOCK_SetXtal32M_LDO+0x2c>)
    21aa:	f8d2 30a8 	ldr.w	r3, [r2, #168]	; 0xa8
    21ae:	f240 31fa 	movw	r1, #1018	; 0x3fa
    21b2:	4019      	ands	r1, r3
    21b4:	f5b1 7fd5 	cmp.w	r1, #426	; 0x1aa
    21b8:	d00a      	beq.n	21d0 <CLOCK_SetXtal32M_LDO+0x28>
    21ba:	f423 737e 	bic.w	r3, r3, #1016	; 0x3f8
    21be:	f023 0302 	bic.w	r3, r3, #2
    21c2:	f443 73d5 	orr.w	r3, r3, #426	; 0x1aa
    21c6:	f8c2 30a8 	str.w	r3, [r2, #168]	; 0xa8
    21ca:	2014      	movs	r0, #20
    21cc:	f7ff bfbc 	b.w	2148 <CLOCK_uDelay>
    21d0:	4770      	bx	lr
    21d2:	bf00      	nop
    21d4:	40020000 	.word	0x40020000

000021d8 <CLOCK_Xtal32M_Trim>:
    21d8:	e92d 41f0 	stmdb	sp!, {r4, r5, r6, r7, r8, lr}
    21dc:	4605      	mov	r5, r0
    21de:	460f      	mov	r7, r1
    21e0:	f7ff ffe2 	bl	21a8 <CLOCK_SetXtal32M_LDO>
    21e4:	4b33      	ldr	r3, [pc, #204]	; (22b4 <CLOCK_Xtal32M_Trim+0xdc>)
    21e6:	681c      	ldr	r4, [r3, #0]
    21e8:	f248 0301 	movw	r3, #32769	; 0x8001
    21ec:	43a3      	bics	r3, r4
    21ee:	d157      	bne.n	22a0 <CLOCK_Xtal32M_Trim+0xc8>
    21f0:	4b31      	ldr	r3, [pc, #196]	; (22b8 <CLOCK_Xtal32M_Trim+0xe0>)
    21f2:	681a      	ldr	r2, [r3, #0]
    21f4:	4b31      	ldr	r3, [pc, #196]	; (22bc <CLOCK_Xtal32M_Trim+0xe4>)
    21f6:	429a      	cmp	r2, r3
    21f8:	d952      	bls.n	22a0 <CLOCK_Xtal32M_Trim+0xc8>
    21fa:	f3c4 0246 	ubfx	r2, r4, #1, #7
    21fe:	f3c4 2006 	ubfx	r0, r4, #8, #7
    2202:	f3c4 4106 	ubfx	r1, r4, #16, #7
    2206:	f3c4 7380 	ubfx	r3, r4, #30, #1
    220a:	f3c4 54c6 	ubfx	r4, r4, #23, #7
    220e:	eba0 0c02 	sub.w	ip, r0, r2
    2212:	1a64      	subs	r4, r4, r1
    2214:	ebac 008c 	sub.w	r0, ip, ip, lsl #2
    2218:	eba4 0684 	sub.w	r6, r4, r4, lsl #2
    221c:	4402      	add	r2, r0
    221e:	440e      	add	r6, r1
    2220:	f8d7 8000 	ldr.w	r8, [r7]
    2224:	68b9      	ldr	r1, [r7, #8]
    2226:	ebc1 0048 	rsb	r0, r1, r8, lsl #1
    222a:	380f      	subs	r0, #15
    222c:	2127      	movs	r1, #39	; 0x27
    222e:	f1c3 0301 	rsb	r3, r3, #1
    2232:	fb01 0303 	mla	r3, r1, r3, r0
    2236:	6878      	ldr	r0, [r7, #4]
    2238:	f44f 77c8 	mov.w	r7, #400	; 0x190
    223c:	ebc0 0048 	rsb	r0, r0, r8, lsl #1
    2240:	437a      	muls	r2, r7
    2242:	f1a0 0815 	sub.w	r8, r0, #21
    2246:	2005      	movs	r0, #5
    2248:	fb95 f5f0 	sdiv	r5, r5, r0
    224c:	18e8      	adds	r0, r5, r3
    224e:	fb0c 2000 	mla	r0, ip, r0, r2
    2252:	210d      	movs	r1, #13
    2254:	30c8      	adds	r0, #200	; 0xc8
    2256:	fb90 f0f7 	sdiv	r0, r0, r7
    225a:	f7ff fcb9 	bl	1bd0 <CLOCK_u8OscCapConvert>
    225e:	437e      	muls	r6, r7
    2260:	4602      	mov	r2, r0
    2262:	eb05 0008 	add.w	r0, r5, r8
    2266:	fb04 6000 	mla	r0, r4, r0, r6
    226a:	210d      	movs	r1, #13
    226c:	30c8      	adds	r0, #200	; 0xc8
    226e:	fb90 f0f7 	sdiv	r0, r0, r7
    2272:	f7ff fcad 	bl	1bd0 <CLOCK_u8OscCapConvert>
    2276:	4912      	ldr	r1, [pc, #72]	; (22c0 <CLOCK_Xtal32M_Trim+0xe8>)
    2278:	0112      	lsls	r2, r2, #4
    227a:	02c3      	lsls	r3, r0, #11
    227c:	f402 62fe 	and.w	r2, r2, #2032	; 0x7f0
    2280:	f403 337e 	and.w	r3, r3, #260096	; 0x3f800
    2284:	f8d1 40ac 	ldr.w	r4, [r1, #172]	; 0xac
    2288:	4313      	orrs	r3, r2
    228a:	4a0e      	ldr	r2, [pc, #56]	; (22c4 <CLOCK_Xtal32M_Trim+0xec>)
    228c:	4022      	ands	r2, r4
    228e:	4313      	orrs	r3, r2
    2290:	f043 63b8 	orr.w	r3, r3, #96468992	; 0x5c00000
    2294:	f043 0301 	orr.w	r3, r3, #1
    2298:	f8c1 30ac 	str.w	r3, [r1, #172]	; 0xac
    229c:	e8bd 81f0 	ldmia.w	sp!, {r4, r5, r6, r7, r8, pc}
    22a0:	f06f 060e 	mvn.w	r6, #14
    22a4:	2413      	movs	r4, #19
    22a6:	f06f 020d 	mvn.w	r2, #13
    22aa:	f04f 0c14 	mov.w	ip, #20
    22ae:	2300      	movs	r3, #0
    22b0:	e7b6      	b.n	2220 <CLOCK_Xtal32M_Trim+0x48>
    22b2:	bf00      	nop
    22b4:	0009fcf0 	.word	0x0009fcf0
    22b8:	0009fc68 	.word	0x0009fc68
    22bc:	0133f0d2 	.word	0x0133f0d2
    22c0:	40020000 	.word	0x40020000
    22c4:	f87c000e 	.word	0xf87c000e

000022c8 <CLOCK_XtalBasicTrim>:
    22c8:	b508      	push	{r3, lr}
    22ca:	f7ff fa0b 	bl	16e4 <BOARD_GetClock32MCapacitanceCharacteristics>
    22ce:	4601      	mov	r1, r0
    22d0:	b930      	cbnz	r0, 22e0 <CLOCK_XtalBasicTrim+0x18>
    22d2:	4b06      	ldr	r3, [pc, #24]	; (22ec <CLOCK_XtalBasicTrim+0x24>)
    22d4:	4a06      	ldr	r2, [pc, #24]	; (22f0 <CLOCK_XtalBasicTrim+0x28>)
    22d6:	4807      	ldr	r0, [pc, #28]	; (22f4 <CLOCK_XtalBasicTrim+0x2c>)
    22d8:	f240 31de 	movw	r1, #990	; 0x3de
    22dc:	f002 f912 	bl	4504 <__assert_func>
    22e0:	e8bd 4008 	ldmia.w	sp!, {r3, lr}
    22e4:	2000      	movs	r0, #0
    22e6:	f7ff bf77 	b.w	21d8 <CLOCK_Xtal32M_Trim>
    22ea:	bf00      	nop
    22ec:	0000831b 	.word	0x0000831b
    22f0:	00008381 	.word	0x00008381
    22f4:	00008337 	.word	0x00008337

000022f8 <CLOCK_Xtal32M_WaitUntilStable>:
    22f8:	4a03      	ldr	r2, [pc, #12]	; (2308 <CLOCK_Xtal32M_WaitUntilStable+0x10>)
    22fa:	f8d2 30b4 	ldr.w	r3, [r2, #180]	; 0xb4
    22fe:	07db      	lsls	r3, r3, #31
    2300:	d5fb      	bpl.n	22fa <CLOCK_Xtal32M_WaitUntilStable+0x2>
    2302:	f7ff bf21 	b.w	2148 <CLOCK_uDelay>
    2306:	bf00      	nop
    2308:	40020000 	.word	0x40020000

0000230c <CLOCK_EnableClock>:
    230c:	f5b0 7f00 	cmp.w	r0, #512	; 0x200
    2310:	b508      	push	{r3, lr}
    2312:	ea4f 2310 	mov.w	r3, r0, lsr #8
    2316:	d30c      	bcc.n	2332 <CLOCK_EnableClock+0x26>
    2318:	2b02      	cmp	r3, #2
    231a:	d014      	beq.n	2346 <CLOCK_EnableClock+0x3a>
    231c:	f5a0 3080 	sub.w	r0, r0, #65536	; 0x10000
    2320:	3803      	subs	r0, #3
    2322:	2807      	cmp	r0, #7
    2324:	d80e      	bhi.n	2344 <CLOCK_EnableClock+0x38>
    2326:	e8df f000 	tbb	[pc, r0]
    232a:	2818      	.short	0x2818
    232c:	4e480d3a 	.word	0x4e480d3a
    2330:	5853      	.short	0x5853
    2332:	2201      	movs	r2, #1
    2334:	b2c0      	uxtb	r0, r0
    2336:	fa02 f000 	lsl.w	r0, r2, r0
    233a:	3388      	adds	r3, #136	; 0x88
    233c:	f04f 4280 	mov.w	r2, #1073741824	; 0x40000000
    2340:	f842 0023 	str.w	r0, [r2, r3, lsl #2]
    2344:	bd08      	pop	{r3, pc}
    2346:	f04f 4280 	mov.w	r2, #1073741824	; 0x40000000
    234a:	2301      	movs	r3, #1
    234c:	b2c0      	uxtb	r0, r0
    234e:	64d3      	str	r3, [r2, #76]	; 0x4c
    2350:	fa03 f000 	lsl.w	r0, r3, r0
    2354:	4b23      	ldr	r3, [pc, #140]	; (23e4 <CLOCK_EnableClock+0xd8>)
    2356:	6158      	str	r0, [r3, #20]
    2358:	e7f4      	b.n	2344 <CLOCK_EnableClock+0x38>
    235a:	4a23      	ldr	r2, [pc, #140]	; (23e8 <CLOCK_EnableClock+0xdc>)
    235c:	f8d2 30b8 	ldr.w	r3, [r2, #184]	; 0xb8
    2360:	f043 6380 	orr.w	r3, r3, #67108864	; 0x4000000
    2364:	f8c2 30b8 	str.w	r3, [r2, #184]	; 0xb8
    2368:	f04f 4280 	mov.w	r2, #1073741824	; 0x40000000
    236c:	f8d2 3284 	ldr.w	r3, [r2, #644]	; 0x284
    2370:	f043 0302 	orr.w	r3, r3, #2
    2374:	f8c2 3284 	str.w	r3, [r2, #644]	; 0x284
    2378:	e7e4      	b.n	2344 <CLOCK_EnableClock+0x38>
    237a:	4b1a      	ldr	r3, [pc, #104]	; (23e4 <CLOCK_EnableClock+0xd8>)
    237c:	f8d3 20ac 	ldr.w	r2, [r3, #172]	; 0xac
    2380:	0252      	lsls	r2, r2, #9
    2382:	d4df      	bmi.n	2344 <CLOCK_EnableClock+0x38>
    2384:	f8d3 20ac 	ldr.w	r2, [r3, #172]	; 0xac
    2388:	f042 6200 	orr.w	r2, r2, #134217728	; 0x8000000
    238c:	f8c3 20ac 	str.w	r2, [r3, #172]	; 0xac
    2390:	f7ff ff9a 	bl	22c8 <CLOCK_XtalBasicTrim>
    2394:	e8bd 4008 	ldmia.w	sp!, {r3, lr}
    2398:	20c8      	movs	r0, #200	; 0xc8
    239a:	f7ff bfad 	b.w	22f8 <CLOCK_Xtal32M_WaitUntilStable>
    239e:	4a12      	ldr	r2, [pc, #72]	; (23e8 <CLOCK_EnableClock+0xdc>)
    23a0:	f8d2 30b8 	ldr.w	r3, [r2, #184]	; 0xb8
    23a4:	f043 7300 	orr.w	r3, r3, #33554432	; 0x2000000
    23a8:	f8c2 30b8 	str.w	r3, [r2, #184]	; 0xb8
    23ac:	f04f 4280 	mov.w	r2, #1073741824	; 0x40000000
    23b0:	f8d2 3284 	ldr.w	r3, [r2, #644]	; 0x284
    23b4:	f023 0302 	bic.w	r3, r3, #2
    23b8:	e7dc      	b.n	2374 <CLOCK_EnableClock+0x68>
    23ba:	4a0b      	ldr	r2, [pc, #44]	; (23e8 <CLOCK_EnableClock+0xdc>)
    23bc:	6c13      	ldr	r3, [r2, #64]	; 0x40
    23be:	f443 1380 	orr.w	r3, r3, #1048576	; 0x100000
    23c2:	6413      	str	r3, [r2, #64]	; 0x40
    23c4:	e7be      	b.n	2344 <CLOCK_EnableClock+0x38>
    23c6:	4a08      	ldr	r2, [pc, #32]	; (23e8 <CLOCK_EnableClock+0xdc>)
    23c8:	6c13      	ldr	r3, [r2, #64]	; 0x40
    23ca:	f443 1300 	orr.w	r3, r3, #2097152	; 0x200000
    23ce:	e7f8      	b.n	23c2 <CLOCK_EnableClock+0xb6>
    23d0:	4a05      	ldr	r2, [pc, #20]	; (23e8 <CLOCK_EnableClock+0xdc>)
    23d2:	6c13      	ldr	r3, [r2, #64]	; 0x40
    23d4:	f443 0380 	orr.w	r3, r3, #4194304	; 0x400000
    23d8:	e7f3      	b.n	23c2 <CLOCK_EnableClock+0xb6>
    23da:	4a03      	ldr	r2, [pc, #12]	; (23e8 <CLOCK_EnableClock+0xdc>)
    23dc:	6c13      	ldr	r3, [r2, #64]	; 0x40
    23de:	f443 0300 	orr.w	r3, r3, #8388608	; 0x800000
    23e2:	e7ee      	b.n	23c2 <CLOCK_EnableClock+0xb6>
    23e4:	40020000 	.word	0x40020000
    23e8:	40012000 	.word	0x40012000

000023ec <RESET_SetPeripheralReset>:
    23ec:	b281      	uxth	r1, r0
    23ee:	2201      	movs	r2, #1
    23f0:	408a      	lsls	r2, r1
    23f2:	f64f 71e0 	movw	r1, #65504	; 0xffe0
    23f6:	4208      	tst	r0, r1
    23f8:	b508      	push	{r3, lr}
    23fa:	ea4f 4310 	mov.w	r3, r0, lsr #16
    23fe:	d005      	beq.n	240c <RESET_SetPeripheralReset+0x20>
    2400:	4b0b      	ldr	r3, [pc, #44]	; (2430 <RESET_SetPeripheralReset+0x44>)
    2402:	4a0c      	ldr	r2, [pc, #48]	; (2434 <RESET_SetPeripheralReset+0x48>)
    2404:	480c      	ldr	r0, [pc, #48]	; (2438 <RESET_SetPeripheralReset+0x4c>)
    2406:	2135      	movs	r1, #53	; 0x35
    2408:	f002 f87c 	bl	4504 <__assert_func>
    240c:	2b01      	cmp	r3, #1
    240e:	d905      	bls.n	241c <RESET_SetPeripheralReset+0x30>
    2410:	4b0a      	ldr	r3, [pc, #40]	; (243c <RESET_SetPeripheralReset+0x50>)
    2412:	605a      	str	r2, [r3, #4]
    2414:	6819      	ldr	r1, [r3, #0]
    2416:	4211      	tst	r1, r2
    2418:	d0fc      	beq.n	2414 <RESET_SetPeripheralReset+0x28>
    241a:	bd08      	pop	{r3, pc}
    241c:	009b      	lsls	r3, r3, #2
    241e:	f103 4380 	add.w	r3, r3, #1073741824	; 0x40000000
    2422:	f8c3 2120 	str.w	r2, [r3, #288]	; 0x120
    2426:	f8d3 1100 	ldr.w	r1, [r3, #256]	; 0x100
    242a:	4211      	tst	r1, r2
    242c:	d0fb      	beq.n	2426 <RESET_SetPeripheralReset+0x3a>
    242e:	e7f4      	b.n	241a <RESET_SetPeripheralReset+0x2e>
    2430:	00008395 	.word	0x00008395
    2434:	000083ec 	.word	0x000083ec
    2438:	000083a2 	.word	0x000083a2
    243c:	40020000 	.word	0x40020000

00002440 <RESET_ClearPeripheralReset>:
    2440:	b281      	uxth	r1, r0
    2442:	2201      	movs	r2, #1
    2444:	408a      	lsls	r2, r1
    2446:	f64f 71e0 	movw	r1, #65504	; 0xffe0
    244a:	4208      	tst	r0, r1
    244c:	b508      	push	{r3, lr}
    244e:	ea4f 4310 	mov.w	r3, r0, lsr #16
    2452:	d005      	beq.n	2460 <RESET_ClearPeripheralReset+0x20>
    2454:	4b0c      	ldr	r3, [pc, #48]	; (2488 <RESET_ClearPeripheralReset+0x48>)
    2456:	4a0d      	ldr	r2, [pc, #52]	; (248c <RESET_ClearPeripheralReset+0x4c>)
    2458:	480d      	ldr	r0, [pc, #52]	; (2490 <RESET_ClearPeripheralReset+0x50>)
    245a:	215e      	movs	r1, #94	; 0x5e
    245c:	f002 f852 	bl	4504 <__assert_func>
    2460:	2b01      	cmp	r3, #1
    2462:	d906      	bls.n	2472 <RESET_ClearPeripheralReset+0x32>
    2464:	4b0b      	ldr	r3, [pc, #44]	; (2494 <RESET_ClearPeripheralReset+0x54>)
    2466:	609a      	str	r2, [r3, #8]
    2468:	6819      	ldr	r1, [r3, #0]
    246a:	ea32 0101 	bics.w	r1, r2, r1
    246e:	d0fb      	beq.n	2468 <RESET_ClearPeripheralReset+0x28>
    2470:	bd08      	pop	{r3, pc}
    2472:	009b      	lsls	r3, r3, #2
    2474:	f103 4380 	add.w	r3, r3, #1073741824	; 0x40000000
    2478:	f8c3 2140 	str.w	r2, [r3, #320]	; 0x140
    247c:	f8d3 1100 	ldr.w	r1, [r3, #256]	; 0x100
    2480:	ea32 0101 	bics.w	r1, r2, r1
    2484:	d0fa      	beq.n	247c <RESET_ClearPeripheralReset+0x3c>
    2486:	e7f3      	b.n	2470 <RESET_ClearPeripheralReset+0x30>
    2488:	00008395 	.word	0x00008395
    248c:	00008405 	.word	0x00008405
    2490:	000083a2 	.word	0x000083a2
    2494:	40020000 	.word	0x40020000

00002498 <RESET_PeripheralReset>:
    2498:	b510      	push	{r4, lr}
    249a:	4604      	mov	r4, r0
    249c:	f7ff ffa6 	bl	23ec <RESET_SetPeripheralReset>
    24a0:	4620      	mov	r0, r4
    24a2:	e8bd 4010 	ldmia.w	sp!, {r4, lr}
    24a6:	f7ff bfcb 	b.w	2440 <RESET_ClearPeripheralReset>
    24aa:	Address 0x000024aa is out of bounds.


000024ac <USART_GetDefaultConfig>:
    24ac:	b510      	push	{r4, lr}
    24ae:	4604      	mov	r4, r0
    24b0:	b930      	cbnz	r0, 24c0 <USART_GetDefaultConfig+0x14>
    24b2:	4b0b      	ldr	r3, [pc, #44]	; (24e0 <USART_GetDefaultConfig+0x34>)
    24b4:	4a0b      	ldr	r2, [pc, #44]	; (24e4 <USART_GetDefaultConfig+0x38>)
    24b6:	480c      	ldr	r0, [pc, #48]	; (24e8 <USART_GetDefaultConfig+0x3c>)
    24b8:	f44f 7189 	mov.w	r1, #274	; 0x112
    24bc:	f002 f822 	bl	4504 <__assert_func>
    24c0:	2210      	movs	r2, #16
    24c2:	2100      	movs	r1, #0
    24c4:	f005 f9a8 	bl	7818 <memset>
    24c8:	f44f 3380 	mov.w	r3, #65536	; 0x10000
    24cc:	f44f 32e1 	mov.w	r2, #115200	; 0x1c200
    24d0:	e9c4 2300 	strd	r2, r3, [r4]
    24d4:	2300      	movs	r3, #0
    24d6:	60a3      	str	r3, [r4, #8]
    24d8:	81a3      	strh	r3, [r4, #12]
    24da:	73a3      	strb	r3, [r4, #14]
    24dc:	bd10      	pop	{r4, pc}
    24de:	bf00      	nop
    24e0:	00008470 	.word	0x00008470
    24e4:	00008529 	.word	0x00008529
    24e8:	00008426 	.word	0x00008426

000024ec <USART_SetBaudRate>:
    24ec:	e92d 43f8 	stmdb	sp!, {r3, r4, r5, r6, r7, r8, r9, lr}
    24f0:	b108      	cbz	r0, 24f6 <USART_SetBaudRate+0xa>
    24f2:	b101      	cbz	r1, 24f6 <USART_SetBaudRate+0xa>
    24f4:	b932      	cbnz	r2, 2504 <USART_SetBaudRate+0x18>
    24f6:	4b23      	ldr	r3, [pc, #140]	; (2584 <USART_SetBaudRate+0x98>)
    24f8:	4a23      	ldr	r2, [pc, #140]	; (2588 <USART_SetBaudRate+0x9c>)
    24fa:	4824      	ldr	r0, [pc, #144]	; (258c <USART_SetBaudRate+0xa0>)
    24fc:	f44f 719e 	mov.w	r1, #316	; 0x13c
    2500:	f002 f800 	bl	4504 <__assert_func>
    2504:	6803      	ldr	r3, [r0, #0]
    2506:	051b      	lsls	r3, r3, #20
    2508:	d50a      	bpl.n	2520 <USART_SetBaudRate+0x34>
    250a:	6803      	ldr	r3, [r0, #0]
    250c:	f413 4380 	ands.w	r3, r3, #16384	; 0x4000
    2510:	d003      	beq.n	251a <USART_SetBaudRate+0x2e>
    2512:	fbb2 f2f1 	udiv	r2, r2, r1
    2516:	3a01      	subs	r2, #1
    2518:	6202      	str	r2, [r0, #32]
    251a:	2000      	movs	r0, #0
    251c:	e8bd 83f8 	ldmia.w	sp!, {r3, r4, r5, r6, r7, r8, r9, pc}
    2520:	270a      	movs	r7, #10
    2522:	f04f 36ff 	mov.w	r6, #4294967295
    2526:	f04f 0c0f 	mov.w	ip, #15
    252a:	fb07 f902 	mul.w	r9, r7, r2
    252e:	ea4f 1e01 	mov.w	lr, r1, lsl #4
    2532:	46b0      	mov	r8, r6
    2534:	4665      	mov	r5, ip
    2536:	fbb9 f4fe 	udiv	r4, r9, lr
    253a:	3c05      	subs	r4, #5
    253c:	f5b4 2f20 	cmp.w	r4, #655360	; 0xa0000
    2540:	f105 0301 	add.w	r3, r5, #1
    2544:	d20e      	bcs.n	2564 <USART_SetBaudRate+0x78>
    2546:	fbb4 f4f7 	udiv	r4, r4, r7
    254a:	fb04 3303 	mla	r3, r4, r3, r3
    254e:	fbb2 f3f3 	udiv	r3, r2, r3
    2552:	4299      	cmp	r1, r3
    2554:	bf34      	ite	cc
    2556:	1a5b      	subcc	r3, r3, r1
    2558:	1acb      	subcs	r3, r1, r3
    255a:	4543      	cmp	r3, r8
    255c:	bf3e      	ittt	cc
    255e:	4626      	movcc	r6, r4
    2560:	46ac      	movcc	ip, r5
    2562:	4698      	movcc	r8, r3
    2564:	3d01      	subs	r5, #1
    2566:	2d07      	cmp	r5, #7
    2568:	ebae 0e01 	sub.w	lr, lr, r1
    256c:	d1e3      	bne.n	2536 <USART_SetBaudRate+0x4a>
    256e:	f5b6 3f80 	cmp.w	r6, #65536	; 0x10000
    2572:	d203      	bcs.n	257c <USART_SetBaudRate+0x90>
    2574:	f8c0 c028 	str.w	ip, [r0, #40]	; 0x28
    2578:	6206      	str	r6, [r0, #32]
    257a:	e7ce      	b.n	251a <USART_SetBaudRate+0x2e>
    257c:	f241 6051 	movw	r0, #5713	; 0x1651
    2580:	e7cc      	b.n	251c <USART_SetBaudRate+0x30>
    2582:	bf00      	nop
    2584:	0000847f 	.word	0x0000847f
    2588:	00008540 	.word	0x00008540
    258c:	00008426 	.word	0x00008426

00002590 <USART_Init>:
    2590:	b570      	push	{r4, r5, r6, lr}
    2592:	460d      	mov	r5, r1
    2594:	4616      	mov	r6, r2
    2596:	4604      	mov	r4, r0
    2598:	b108      	cbz	r0, 259e <USART_Init+0xe>
    259a:	b101      	cbz	r1, 259e <USART_Init+0xe>
    259c:	b92a      	cbnz	r2, 25aa <USART_Init+0x1a>
    259e:	4b3c      	ldr	r3, [pc, #240]	; (2690 <USART_Init+0x100>)
    25a0:	4a3c      	ldr	r2, [pc, #240]	; (2694 <USART_Init+0x104>)
    25a2:	483d      	ldr	r0, [pc, #244]	; (2698 <USART_Init+0x108>)
    25a4:	21b7      	movs	r1, #183	; 0xb7
    25a6:	f001 ffad 	bl	4504 <__assert_func>
    25aa:	2101      	movs	r1, #1
    25ac:	f000 f8b4 	bl	2718 <FLEXCOMM_Init>
    25b0:	2800      	cmp	r0, #0
    25b2:	d167      	bne.n	2684 <USART_Init+0xf4>
    25b4:	7a6b      	ldrb	r3, [r5, #9]
    25b6:	b1d3      	cbz	r3, 25ee <USART_Init+0x5e>
    25b8:	f8d4 3e00 	ldr.w	r3, [r4, #3584]	; 0xe00
    25bc:	f043 1301 	orr.w	r3, r3, #65537	; 0x10001
    25c0:	f8c4 3e00 	str.w	r3, [r4, #3584]	; 0xe00
    25c4:	f8d4 3e08 	ldr.w	r3, [r4, #3592]	; 0xe08
    25c8:	f423 6370 	bic.w	r3, r3, #3840	; 0xf00
    25cc:	f8c4 3e08 	str.w	r3, [r4, #3592]	; 0xe08
    25d0:	7aeb      	ldrb	r3, [r5, #11]
    25d2:	f8d4 2e08 	ldr.w	r2, [r4, #3592]	; 0xe08
    25d6:	021b      	lsls	r3, r3, #8
    25d8:	f403 6370 	and.w	r3, r3, #3840	; 0xf00
    25dc:	4313      	orrs	r3, r2
    25de:	f8c4 3e08 	str.w	r3, [r4, #3592]	; 0xe08
    25e2:	f8d4 3e08 	ldr.w	r3, [r4, #3592]	; 0xe08
    25e6:	f043 0301 	orr.w	r3, r3, #1
    25ea:	f8c4 3e08 	str.w	r3, [r4, #3592]	; 0xe08
    25ee:	7a2b      	ldrb	r3, [r5, #8]
    25f0:	b1d3      	cbz	r3, 2628 <USART_Init+0x98>
    25f2:	f8d4 3e00 	ldr.w	r3, [r4, #3584]	; 0xe00
    25f6:	f043 1302 	orr.w	r3, r3, #131074	; 0x20002
    25fa:	f8c4 3e00 	str.w	r3, [r4, #3584]	; 0xe00
    25fe:	f8d4 3e08 	ldr.w	r3, [r4, #3592]	; 0xe08
    2602:	f423 2370 	bic.w	r3, r3, #983040	; 0xf0000
    2606:	f8c4 3e08 	str.w	r3, [r4, #3592]	; 0xe08
    260a:	7b2b      	ldrb	r3, [r5, #12]
    260c:	f8d4 2e08 	ldr.w	r2, [r4, #3592]	; 0xe08
    2610:	041b      	lsls	r3, r3, #16
    2612:	f403 2370 	and.w	r3, r3, #983040	; 0xf0000
    2616:	4313      	orrs	r3, r2
    2618:	f8c4 3e08 	str.w	r3, [r4, #3592]	; 0xe08
    261c:	f8d4 3e08 	ldr.w	r3, [r4, #3592]	; 0xe08
    2620:	f043 0302 	orr.w	r3, r3, #2
    2624:	f8c4 3e08 	str.w	r3, [r4, #3592]	; 0xe08
    2628:	7b6a      	ldrb	r2, [r5, #13]
    262a:	79e9      	ldrb	r1, [r5, #7]
    262c:	0293      	lsls	r3, r2, #10
    262e:	f403 6300 	and.w	r3, r3, #2048	; 0x800
    2632:	ea43 33c1 	orr.w	r3, r3, r1, lsl #15
    2636:	7929      	ldrb	r1, [r5, #4]
    2638:	0109      	lsls	r1, r1, #4
    263a:	f001 0130 	and.w	r1, r1, #48	; 0x30
    263e:	430b      	orrs	r3, r1
    2640:	7969      	ldrb	r1, [r5, #5]
    2642:	0189      	lsls	r1, r1, #6
    2644:	f001 0140 	and.w	r1, r1, #64	; 0x40
    2648:	430b      	orrs	r3, r1
    264a:	79a9      	ldrb	r1, [r5, #6]
    264c:	0089      	lsls	r1, r1, #2
    264e:	f001 010c 	and.w	r1, r1, #12
    2652:	0392      	lsls	r2, r2, #14
    2654:	430b      	orrs	r3, r1
    2656:	f402 4280 	and.w	r2, r2, #16384	; 0x4000
    265a:	4313      	orrs	r3, r2
    265c:	7baa      	ldrb	r2, [r5, #14]
    265e:	6829      	ldr	r1, [r5, #0]
    2660:	0312      	lsls	r2, r2, #12
    2662:	f402 5280 	and.w	r2, r2, #4096	; 0x1000
    2666:	4313      	orrs	r3, r2
    2668:	f043 0301 	orr.w	r3, r3, #1
    266c:	6023      	str	r3, [r4, #0]
    266e:	4632      	mov	r2, r6
    2670:	4620      	mov	r0, r4
    2672:	f7ff ff3b 	bl	24ec <USART_SetBaudRate>
    2676:	b928      	cbnz	r0, 2684 <USART_Init+0xf4>
    2678:	7aab      	ldrb	r3, [r5, #10]
    267a:	b123      	cbz	r3, 2686 <USART_Init+0xf6>
    267c:	6863      	ldr	r3, [r4, #4]
    267e:	f443 7380 	orr.w	r3, r3, #256	; 0x100
    2682:	6063      	str	r3, [r4, #4]
    2684:	bd70      	pop	{r4, r5, r6, pc}
    2686:	6863      	ldr	r3, [r4, #4]
    2688:	f423 7380 	bic.w	r3, r3, #256	; 0x100
    268c:	e7f9      	b.n	2682 <USART_Init+0xf2>
    268e:	bf00      	nop
    2690:	000084be 	.word	0x000084be
    2694:	0000851e 	.word	0x0000851e
    2698:	00008426 	.word	0x00008426

0000269c <USART_WriteBlocking>:
    269c:	b508      	push	{r3, lr}
    269e:	b100      	cbz	r0, 26a2 <USART_WriteBlocking+0x6>
    26a0:	b931      	cbnz	r1, 26b0 <USART_WriteBlocking+0x14>
    26a2:	4b0d      	ldr	r3, [pc, #52]	; (26d8 <USART_WriteBlocking+0x3c>)
    26a4:	4a0d      	ldr	r2, [pc, #52]	; (26dc <USART_WriteBlocking+0x40>)
    26a6:	480e      	ldr	r0, [pc, #56]	; (26e0 <USART_WriteBlocking+0x44>)
    26a8:	f44f 71be 	mov.w	r1, #380	; 0x17c
    26ac:	f001 ff2a 	bl	4504 <__assert_func>
    26b0:	f8d0 3e00 	ldr.w	r3, [r0, #3584]	; 0xe00
    26b4:	07db      	lsls	r3, r3, #31
    26b6:	d505      	bpl.n	26c4 <USART_WriteBlocking+0x28>
    26b8:	440a      	add	r2, r1
    26ba:	4291      	cmp	r1, r2
    26bc:	d103      	bne.n	26c6 <USART_WriteBlocking+0x2a>
    26be:	6883      	ldr	r3, [r0, #8]
    26c0:	071b      	lsls	r3, r3, #28
    26c2:	d5fc      	bpl.n	26be <USART_WriteBlocking+0x22>
    26c4:	bd08      	pop	{r3, pc}
    26c6:	f8d0 3e04 	ldr.w	r3, [r0, #3588]	; 0xe04
    26ca:	069b      	lsls	r3, r3, #26
    26cc:	d5fb      	bpl.n	26c6 <USART_WriteBlocking+0x2a>
    26ce:	f811 3b01 	ldrb.w	r3, [r1], #1
    26d2:	f8c0 3e20 	str.w	r3, [r0, #3616]	; 0xe20
    26d6:	e7f0      	b.n	26ba <USART_WriteBlocking+0x1e>
    26d8:	000084fa 	.word	0x000084fa
    26dc:	00008552 	.word	0x00008552
    26e0:	00008426 	.word	0x00008426

000026e4 <FLEXCOMM_GetInstance>:
    26e4:	4a08      	ldr	r2, [pc, #32]	; (2708 <FLEXCOMM_GetInstance+0x24>)
    26e6:	b508      	push	{r3, lr}
    26e8:	4603      	mov	r3, r0
    26ea:	2000      	movs	r0, #0
    26ec:	f852 1b04 	ldr.w	r1, [r2], #4
    26f0:	428b      	cmp	r3, r1
    26f2:	d008      	beq.n	2706 <FLEXCOMM_GetInstance+0x22>
    26f4:	3001      	adds	r0, #1
    26f6:	2807      	cmp	r0, #7
    26f8:	d1f8      	bne.n	26ec <FLEXCOMM_GetInstance+0x8>
    26fa:	4b04      	ldr	r3, [pc, #16]	; (270c <FLEXCOMM_GetInstance+0x28>)
    26fc:	4a04      	ldr	r2, [pc, #16]	; (2710 <FLEXCOMM_GetInstance+0x2c>)
    26fe:	4805      	ldr	r0, [pc, #20]	; (2714 <FLEXCOMM_GetInstance+0x30>)
    2700:	215f      	movs	r1, #95	; 0x5f
    2702:	f001 feff 	bl	4504 <__assert_func>
    2706:	bd08      	pop	{r3, pc}
    2708:	00008730 	.word	0x00008730
    270c:	00008420 	.word	0x00008420
    2710:	0000865b 	.word	0x0000865b
    2714:	00008566 	.word	0x00008566

00002718 <FLEXCOMM_Init>:
    2718:	b538      	push	{r3, r4, r5, lr}
    271a:	4605      	mov	r5, r0
    271c:	460c      	mov	r4, r1
    271e:	f7ff ffe1 	bl	26e4 <FLEXCOMM_GetInstance>
    2722:	2800      	cmp	r0, #0
    2724:	db26      	blt.n	2774 <FLEXCOMM_Init+0x5c>
    2726:	4b16      	ldr	r3, [pc, #88]	; (2780 <FLEXCOMM_Init+0x68>)
    2728:	f853 0020 	ldr.w	r0, [r3, r0, lsl #2]
    272c:	f7ff fdee 	bl	230c <CLOCK_EnableClock>
    2730:	b15c      	cbz	r4, 274a <FLEXCOMM_Init+0x32>
    2732:	2c04      	cmp	r4, #4
    2734:	d817      	bhi.n	2766 <FLEXCOMM_Init+0x4e>
    2736:	f8d5 2ff8 	ldr.w	r2, [r5, #4088]	; 0xff8
    273a:	1ce1      	adds	r1, r4, #3
    273c:	2301      	movs	r3, #1
    273e:	408b      	lsls	r3, r1
    2740:	4213      	tst	r3, r2
    2742:	bf14      	ite	ne
    2744:	2301      	movne	r3, #1
    2746:	2300      	moveq	r3, #0
    2748:	b1b3      	cbz	r3, 2778 <FLEXCOMM_Init+0x60>
    274a:	f8d5 3ff8 	ldr.w	r3, [r5, #4088]	; 0xff8
    274e:	071b      	lsls	r3, r3, #28
    2750:	d505      	bpl.n	275e <FLEXCOMM_Init+0x46>
    2752:	f8d5 3ff8 	ldr.w	r3, [r5, #4088]	; 0xff8
    2756:	f003 0307 	and.w	r3, r3, #7
    275a:	42a3      	cmp	r3, r4
    275c:	d10e      	bne.n	277c <FLEXCOMM_Init+0x64>
    275e:	f8c5 4ff8 	str.w	r4, [r5, #4088]	; 0xff8
    2762:	2000      	movs	r0, #0
    2764:	bd38      	pop	{r3, r4, r5, pc}
    2766:	2c05      	cmp	r4, #5
    2768:	d106      	bne.n	2778 <FLEXCOMM_Init+0x60>
    276a:	f8d5 3ff8 	ldr.w	r3, [r5, #4088]	; 0xff8
    276e:	f3c3 13c0 	ubfx	r3, r3, #7, #1
    2772:	e7e9      	b.n	2748 <FLEXCOMM_Init+0x30>
    2774:	2004      	movs	r0, #4
    2776:	e7f5      	b.n	2764 <FLEXCOMM_Init+0x4c>
    2778:	2003      	movs	r0, #3
    277a:	e7f3      	b.n	2764 <FLEXCOMM_Init+0x4c>
    277c:	2001      	movs	r0, #1
    277e:	e7f1      	b.n	2764 <FLEXCOMM_Init+0x4c>
    2780:	0000874c 	.word	0x0000874c

00002784 <FLEXCOMM0_DriverIRQHandler>:
    2784:	b508      	push	{r3, lr}
    2786:	4b08      	ldr	r3, [pc, #32]	; (27a8 <FLEXCOMM0_DriverIRQHandler+0x24>)
    2788:	681b      	ldr	r3, [r3, #0]
    278a:	b92b      	cbnz	r3, 2798 <FLEXCOMM0_DriverIRQHandler+0x14>
    278c:	4b07      	ldr	r3, [pc, #28]	; (27ac <FLEXCOMM0_DriverIRQHandler+0x28>)
    278e:	4a08      	ldr	r2, [pc, #32]	; (27b0 <FLEXCOMM0_DriverIRQHandler+0x2c>)
    2790:	4808      	ldr	r0, [pc, #32]	; (27b4 <FLEXCOMM0_DriverIRQHandler+0x30>)
    2792:	21af      	movs	r1, #175	; 0xaf
    2794:	f001 feb6 	bl	4504 <__assert_func>
    2798:	4a07      	ldr	r2, [pc, #28]	; (27b8 <FLEXCOMM0_DriverIRQHandler+0x34>)
    279a:	4808      	ldr	r0, [pc, #32]	; (27bc <FLEXCOMM0_DriverIRQHandler+0x38>)
    279c:	6811      	ldr	r1, [r2, #0]
    279e:	4798      	blx	r3
    27a0:	f3bf 8f4f 	dsb	sy
    27a4:	bd08      	pop	{r3, pc}
    27a6:	bf00      	nop
    27a8:	04015ee0 	.word	0x04015ee0
    27ac:	000085b3 	.word	0x000085b3
    27b0:	00008670 	.word	0x00008670
    27b4:	00008566 	.word	0x00008566
    27b8:	04015ec4 	.word	0x04015ec4
    27bc:	4008b000 	.word	0x4008b000

000027c0 <FLEXCOMM1_DriverIRQHandler>:
    27c0:	b508      	push	{r3, lr}
    27c2:	4b08      	ldr	r3, [pc, #32]	; (27e4 <FLEXCOMM1_DriverIRQHandler+0x24>)
    27c4:	685b      	ldr	r3, [r3, #4]
    27c6:	b92b      	cbnz	r3, 27d4 <FLEXCOMM1_DriverIRQHandler+0x14>
    27c8:	4b07      	ldr	r3, [pc, #28]	; (27e8 <FLEXCOMM1_DriverIRQHandler+0x28>)
    27ca:	4a08      	ldr	r2, [pc, #32]	; (27ec <FLEXCOMM1_DriverIRQHandler+0x2c>)
    27cc:	4808      	ldr	r0, [pc, #32]	; (27f0 <FLEXCOMM1_DriverIRQHandler+0x30>)
    27ce:	21bc      	movs	r1, #188	; 0xbc
    27d0:	f001 fe98 	bl	4504 <__assert_func>
    27d4:	4a07      	ldr	r2, [pc, #28]	; (27f4 <FLEXCOMM1_DriverIRQHandler+0x34>)
    27d6:	4808      	ldr	r0, [pc, #32]	; (27f8 <FLEXCOMM1_DriverIRQHandler+0x38>)
    27d8:	6851      	ldr	r1, [r2, #4]
    27da:	4798      	blx	r3
    27dc:	f3bf 8f4f 	dsb	sy
    27e0:	bd08      	pop	{r3, pc}
    27e2:	bf00      	nop
    27e4:	04015ee0 	.word	0x04015ee0
    27e8:	000085cb 	.word	0x000085cb
    27ec:	0000868b 	.word	0x0000868b
    27f0:	00008566 	.word	0x00008566
    27f4:	04015ec4 	.word	0x04015ec4
    27f8:	4008c000 	.word	0x4008c000

000027fc <FLEXCOMM2_DriverIRQHandler>:
    27fc:	b508      	push	{r3, lr}
    27fe:	4b08      	ldr	r3, [pc, #32]	; (2820 <FLEXCOMM2_DriverIRQHandler+0x24>)
    2800:	689b      	ldr	r3, [r3, #8]
    2802:	b92b      	cbnz	r3, 2810 <FLEXCOMM2_DriverIRQHandler+0x14>
    2804:	4b07      	ldr	r3, [pc, #28]	; (2824 <FLEXCOMM2_DriverIRQHandler+0x28>)
    2806:	4a08      	ldr	r2, [pc, #32]	; (2828 <FLEXCOMM2_DriverIRQHandler+0x2c>)
    2808:	4808      	ldr	r0, [pc, #32]	; (282c <FLEXCOMM2_DriverIRQHandler+0x30>)
    280a:	21c9      	movs	r1, #201	; 0xc9
    280c:	f001 fe7a 	bl	4504 <__assert_func>
    2810:	4a07      	ldr	r2, [pc, #28]	; (2830 <FLEXCOMM2_DriverIRQHandler+0x34>)
    2812:	4808      	ldr	r0, [pc, #32]	; (2834 <FLEXCOMM2_DriverIRQHandler+0x38>)
    2814:	6891      	ldr	r1, [r2, #8]
    2816:	4798      	blx	r3
    2818:	f3bf 8f4f 	dsb	sy
    281c:	bd08      	pop	{r3, pc}
    281e:	bf00      	nop
    2820:	04015ee0 	.word	0x04015ee0
    2824:	000085e3 	.word	0x000085e3
    2828:	000086a6 	.word	0x000086a6
    282c:	00008566 	.word	0x00008566
    2830:	04015ec4 	.word	0x04015ec4
    2834:	40003000 	.word	0x40003000

00002838 <FLEXCOMM3_DriverIRQHandler>:
    2838:	b508      	push	{r3, lr}
    283a:	4b08      	ldr	r3, [pc, #32]	; (285c <FLEXCOMM3_DriverIRQHandler+0x24>)
    283c:	68db      	ldr	r3, [r3, #12]
    283e:	b92b      	cbnz	r3, 284c <FLEXCOMM3_DriverIRQHandler+0x14>
    2840:	4b07      	ldr	r3, [pc, #28]	; (2860 <FLEXCOMM3_DriverIRQHandler+0x28>)
    2842:	4a08      	ldr	r2, [pc, #32]	; (2864 <FLEXCOMM3_DriverIRQHandler+0x2c>)
    2844:	4808      	ldr	r0, [pc, #32]	; (2868 <FLEXCOMM3_DriverIRQHandler+0x30>)
    2846:	21d6      	movs	r1, #214	; 0xd6
    2848:	f001 fe5c 	bl	4504 <__assert_func>
    284c:	4a07      	ldr	r2, [pc, #28]	; (286c <FLEXCOMM3_DriverIRQHandler+0x34>)
    284e:	f04f 2040 	mov.w	r0, #1073758208	; 0x40004000
    2852:	68d1      	ldr	r1, [r2, #12]
    2854:	4798      	blx	r3
    2856:	f3bf 8f4f 	dsb	sy
    285a:	bd08      	pop	{r3, pc}
    285c:	04015ee0 	.word	0x04015ee0
    2860:	000085fb 	.word	0x000085fb
    2864:	000086c1 	.word	0x000086c1
    2868:	00008566 	.word	0x00008566
    286c:	04015ec4 	.word	0x04015ec4

00002870 <FLEXCOMM4_DriverIRQHandler>:
    2870:	b508      	push	{r3, lr}
    2872:	4b08      	ldr	r3, [pc, #32]	; (2894 <FLEXCOMM4_DriverIRQHandler+0x24>)
    2874:	691b      	ldr	r3, [r3, #16]
    2876:	b92b      	cbnz	r3, 2884 <FLEXCOMM4_DriverIRQHandler+0x14>
    2878:	4b07      	ldr	r3, [pc, #28]	; (2898 <FLEXCOMM4_DriverIRQHandler+0x28>)
    287a:	4a08      	ldr	r2, [pc, #32]	; (289c <FLEXCOMM4_DriverIRQHandler+0x2c>)
    287c:	4808      	ldr	r0, [pc, #32]	; (28a0 <FLEXCOMM4_DriverIRQHandler+0x30>)
    287e:	21e3      	movs	r1, #227	; 0xe3
    2880:	f001 fe40 	bl	4504 <__assert_func>
    2884:	4a07      	ldr	r2, [pc, #28]	; (28a4 <FLEXCOMM4_DriverIRQHandler+0x34>)
    2886:	4808      	ldr	r0, [pc, #32]	; (28a8 <FLEXCOMM4_DriverIRQHandler+0x38>)
    2888:	6911      	ldr	r1, [r2, #16]
    288a:	4798      	blx	r3
    288c:	f3bf 8f4f 	dsb	sy
    2890:	bd08      	pop	{r3, pc}
    2892:	bf00      	nop
    2894:	04015ee0 	.word	0x04015ee0
    2898:	00008613 	.word	0x00008613
    289c:	000086dc 	.word	0x000086dc
    28a0:	00008566 	.word	0x00008566
    28a4:	04015ec4 	.word	0x04015ec4
    28a8:	4008d000 	.word	0x4008d000

000028ac <FLEXCOMM5_DriverIRQHandler>:
    28ac:	b508      	push	{r3, lr}
    28ae:	4b08      	ldr	r3, [pc, #32]	; (28d0 <FLEXCOMM5_DriverIRQHandler+0x24>)
    28b0:	695b      	ldr	r3, [r3, #20]
    28b2:	b92b      	cbnz	r3, 28c0 <FLEXCOMM5_DriverIRQHandler+0x14>
    28b4:	4b07      	ldr	r3, [pc, #28]	; (28d4 <FLEXCOMM5_DriverIRQHandler+0x28>)
    28b6:	4a08      	ldr	r2, [pc, #32]	; (28d8 <FLEXCOMM5_DriverIRQHandler+0x2c>)
    28b8:	4808      	ldr	r0, [pc, #32]	; (28dc <FLEXCOMM5_DriverIRQHandler+0x30>)
    28ba:	21f1      	movs	r1, #241	; 0xf1
    28bc:	f001 fe22 	bl	4504 <__assert_func>
    28c0:	4a07      	ldr	r2, [pc, #28]	; (28e0 <FLEXCOMM5_DriverIRQHandler+0x34>)
    28c2:	4808      	ldr	r0, [pc, #32]	; (28e4 <FLEXCOMM5_DriverIRQHandler+0x38>)
    28c4:	6951      	ldr	r1, [r2, #20]
    28c6:	4798      	blx	r3
    28c8:	f3bf 8f4f 	dsb	sy
    28cc:	bd08      	pop	{r3, pc}
    28ce:	bf00      	nop
    28d0:	04015ee0 	.word	0x04015ee0
    28d4:	0000862b 	.word	0x0000862b
    28d8:	000086f7 	.word	0x000086f7
    28dc:	00008566 	.word	0x00008566
    28e0:	04015ec4 	.word	0x04015ec4
    28e4:	4008e000 	.word	0x4008e000

000028e8 <FLEXCOMM6_DriverIRQHandler>:
    28e8:	b508      	push	{r3, lr}
    28ea:	4b08      	ldr	r3, [pc, #32]	; (290c <FLEXCOMM6_DriverIRQHandler+0x24>)
    28ec:	699b      	ldr	r3, [r3, #24]
    28ee:	b92b      	cbnz	r3, 28fc <FLEXCOMM6_DriverIRQHandler+0x14>
    28f0:	4b07      	ldr	r3, [pc, #28]	; (2910 <FLEXCOMM6_DriverIRQHandler+0x28>)
    28f2:	4a08      	ldr	r2, [pc, #32]	; (2914 <FLEXCOMM6_DriverIRQHandler+0x2c>)
    28f4:	4808      	ldr	r0, [pc, #32]	; (2918 <FLEXCOMM6_DriverIRQHandler+0x30>)
    28f6:	21fe      	movs	r1, #254	; 0xfe
    28f8:	f001 fe04 	bl	4504 <__assert_func>
    28fc:	4a07      	ldr	r2, [pc, #28]	; (291c <FLEXCOMM6_DriverIRQHandler+0x34>)
    28fe:	4808      	ldr	r0, [pc, #32]	; (2920 <FLEXCOMM6_DriverIRQHandler+0x38>)
    2900:	6991      	ldr	r1, [r2, #24]
    2902:	4798      	blx	r3
    2904:	f3bf 8f4f 	dsb	sy
    2908:	bd08      	pop	{r3, pc}
    290a:	bf00      	nop
    290c:	04015ee0 	.word	0x04015ee0
    2910:	00008643 	.word	0x00008643
    2914:	00008712 	.word	0x00008712
    2918:	00008566 	.word	0x00008566
    291c:	04015ec4 	.word	0x04015ec4
    2920:	40005000 	.word	0x40005000

00002924 <FLASH_Wait>:
    2924:	f8d0 3fe0 	ldr.w	r3, [r0, #4064]	; 0xfe0
    2928:	075b      	lsls	r3, r3, #29
    292a:	d5fb      	bpl.n	2924 <FLASH_Wait>
    292c:	f8d0 0fe0 	ldr.w	r0, [r0, #4064]	; 0xfe0
    2930:	f020 0008 	bic.w	r0, r0, #8
    2934:	4770      	bx	lr

00002936 <FLASH_Erase>:
    2936:	b5f8      	push	{r3, r4, r5, r6, r7, lr}
    2938:	1a52      	subs	r2, r2, r1
    293a:	4604      	mov	r4, r0
    293c:	250f      	movs	r5, #15
    293e:	2000      	movs	r0, #0
    2940:	f24c 76ff 	movw	r6, #51199	; 0xc7ff
    2944:	27aa      	movs	r7, #170	; 0xaa
    2946:	b902      	cbnz	r2, 294a <FLASH_Erase+0x14>
    2948:	bdf8      	pop	{r3, r4, r5, r6, r7, pc}
    294a:	f5b2 4f48 	cmp.w	r2, #51200	; 0xc800
    294e:	bf94      	ite	ls
    2950:	188b      	addls	r3, r1, r2
    2952:	198b      	addhi	r3, r1, r6
    2954:	f04f 00bb 	mov.w	r0, #187	; 0xbb
    2958:	f8c4 5fe8 	str.w	r5, [r4, #4072]	; 0xfe8
    295c:	701f      	strb	r7, [r3, #0]
    295e:	7008      	strb	r0, [r1, #0]
    2960:	f103 0101 	add.w	r1, r3, #1
    2964:	f04f 0304 	mov.w	r3, #4
    2968:	6023      	str	r3, [r4, #0]
    296a:	4620      	mov	r0, r4
    296c:	bf8c      	ite	hi
    296e:	f5a2 4248 	subhi.w	r2, r2, #51200	; 0xc800
    2972:	2200      	movls	r2, #0
    2974:	f7ff ffd6 	bl	2924 <FLASH_Wait>
    2978:	e7e5      	b.n	2946 <FLASH_Erase+0x10>

0000297a <FLASH_ErasePages>:
    297a:	0252      	lsls	r2, r2, #9
    297c:	3a01      	subs	r2, #1
    297e:	eb02 2241 	add.w	r2, r2, r1, lsl #9
    2982:	0249      	lsls	r1, r1, #9
    2984:	f7ff bfd7 	b.w	2936 <FLASH_Erase>

00002988 <FLASH_BlankCheck>:
    2988:	b410      	push	{r4}
    298a:	240f      	movs	r4, #15
    298c:	f8c0 4fe8 	str.w	r4, [r0, #4072]	; 0xfe8
    2990:	24aa      	movs	r4, #170	; 0xaa
    2992:	7014      	strb	r4, [r2, #0]
    2994:	22bb      	movs	r2, #187	; 0xbb
    2996:	700a      	strb	r2, [r1, #0]
    2998:	2205      	movs	r2, #5
    299a:	bc10      	pop	{r4}
    299c:	6002      	str	r2, [r0, #0]
    299e:	f7ff bfc1 	b.w	2924 <FLASH_Wait>

000029a2 <FLASH_Program>:
    29a2:	b570      	push	{r4, r5, r6, lr}
    29a4:	4604      	mov	r4, r0
    29a6:	4608      	mov	r0, r1
    29a8:	18c6      	adds	r6, r0, r3
    29aa:	4611      	mov	r1, r2
    29ac:	461a      	mov	r2, r3
    29ae:	230f      	movs	r3, #15
    29b0:	f8c4 3fe8 	str.w	r3, [r4, #4072]	; 0xfe8
    29b4:	2302      	movs	r3, #2
    29b6:	60e3      	str	r3, [r4, #12]
    29b8:	f004 fe94 	bl	76e4 <memcpy>
    29bc:	4275      	negs	r5, r6
    29be:	2300      	movs	r3, #0
    29c0:	f3c5 0508 	ubfx	r5, r5, #0, #9
    29c4:	461a      	mov	r2, r3
    29c6:	429d      	cmp	r5, r3
    29c8:	d104      	bne.n	29d4 <FLASH_Program+0x32>
    29ca:	4620      	mov	r0, r4
    29cc:	f7ff ffaa 	bl	2924 <FLASH_Wait>
    29d0:	60e2      	str	r2, [r4, #12]
    29d2:	bd70      	pop	{r4, r5, r6, pc}
    29d4:	54f2      	strb	r2, [r6, r3]
    29d6:	3301      	adds	r3, #1
    29d8:	e7f5      	b.n	29c6 <FLASH_Program+0x24>

000029da <swap_bytes>:
    29da:	ba00      	rev	r0, r0
    29dc:	4770      	bx	lr

000029de <aes_one_block>:
    29de:	b530      	push	{r4, r5, lr}
    29e0:	2300      	movs	r3, #0
    29e2:	2b04      	cmp	r3, #4
    29e4:	d103      	bne.n	29ee <aes_one_block+0x10>
    29e6:	2300      	movs	r3, #0
    29e8:	2b04      	cmp	r3, #4
    29ea:	d10b      	bne.n	2a04 <aes_one_block+0x26>
    29ec:	bd30      	pop	{r4, r5, pc}
    29ee:	6884      	ldr	r4, [r0, #8]
    29f0:	07a4      	lsls	r4, r4, #30
    29f2:	bf41      	itttt	mi
    29f4:	f103 0410 	addmi.w	r4, r3, #16
    29f8:	f852 5023 	ldrmi.w	r5, [r2, r3, lsl #2]
    29fc:	f840 5024 	strmi.w	r5, [r0, r4, lsl #2]
    2a00:	3301      	addmi	r3, #1
    2a02:	e7ee      	b.n	29e2 <aes_one_block+0x4>
    2a04:	6882      	ldr	r2, [r0, #8]
    2a06:	0752      	lsls	r2, r2, #29
    2a08:	bf41      	itttt	mi
    2a0a:	f103 0218 	addmi.w	r2, r3, #24
    2a0e:	f850 2022 	ldrmi.w	r2, [r0, r2, lsl #2]
    2a12:	f841 2023 	strmi.w	r2, [r1, r3, lsl #2]
    2a16:	3301      	addmi	r3, #1
    2a18:	e7e6      	b.n	29e8 <aes_one_block+0xa>

00002a1a <aes_set_forward>:
    2a1a:	6883      	ldr	r3, [r0, #8]
    2a1c:	06da      	lsls	r2, r3, #27
    2a1e:	d506      	bpl.n	2a2e <aes_set_forward+0x14>
    2a20:	2310      	movs	r3, #16
    2a22:	6043      	str	r3, [r0, #4]
    2a24:	6883      	ldr	r3, [r0, #8]
    2a26:	07db      	lsls	r3, r3, #31
    2a28:	d5fc      	bpl.n	2a24 <aes_set_forward+0xa>
    2a2a:	2300      	movs	r3, #0
    2a2c:	6043      	str	r3, [r0, #4]
    2a2e:	4770      	bx	lr

00002a30 <AES_SetKey>:
    2a30:	2a18      	cmp	r2, #24
    2a32:	b538      	push	{r3, r4, r5, lr}
    2a34:	4603      	mov	r3, r0
    2a36:	d00d      	beq.n	2a54 <AES_SetKey+0x24>
    2a38:	2a20      	cmp	r2, #32
    2a3a:	d021      	beq.n	2a80 <AES_SetKey+0x50>
    2a3c:	2a10      	cmp	r2, #16
    2a3e:	d022      	beq.n	2a86 <AES_SetKey+0x56>
    2a40:	f44f 7200 	mov.w	r2, #512	; 0x200
    2a44:	6042      	str	r2, [r0, #4]
    2a46:	689a      	ldr	r2, [r3, #8]
    2a48:	07d2      	lsls	r2, r2, #31
    2a4a:	d5fc      	bpl.n	2a46 <AES_SetKey+0x16>
    2a4c:	2200      	movs	r2, #0
    2a4e:	605a      	str	r2, [r3, #4]
    2a50:	2004      	movs	r0, #4
    2a52:	bd38      	pop	{r3, r4, r5, pc}
    2a54:	2406      	movs	r4, #6
    2a56:	2001      	movs	r0, #1
    2a58:	681a      	ldr	r2, [r3, #0]
    2a5a:	f422 7240 	bic.w	r2, r2, #768	; 0x300
    2a5e:	ea42 2200 	orr.w	r2, r2, r0, lsl #8
    2a62:	601a      	str	r2, [r3, #0]
    2a64:	2200      	movs	r2, #0
    2a66:	f851 0022 	ldr.w	r0, [r1, r2, lsl #2]
    2a6a:	f7ff ffb6 	bl	29da <swap_bytes>
    2a6e:	f102 0508 	add.w	r5, r2, #8
    2a72:	3201      	adds	r2, #1
    2a74:	42a2      	cmp	r2, r4
    2a76:	f843 0025 	str.w	r0, [r3, r5, lsl #2]
    2a7a:	d1f4      	bne.n	2a66 <AES_SetKey+0x36>
    2a7c:	2000      	movs	r0, #0
    2a7e:	e7e8      	b.n	2a52 <AES_SetKey+0x22>
    2a80:	2408      	movs	r4, #8
    2a82:	2002      	movs	r0, #2
    2a84:	e7e8      	b.n	2a58 <AES_SetKey+0x28>
    2a86:	2404      	movs	r4, #4
    2a88:	2000      	movs	r0, #0
    2a8a:	e7e5      	b.n	2a58 <AES_SetKey+0x28>

00002a8c <AES_EncryptEcb>:
    2a8c:	b5f8      	push	{r3, r4, r5, r6, r7, lr}
    2a8e:	4616      	mov	r6, r2
    2a90:	071a      	lsls	r2, r3, #28
    2a92:	4605      	mov	r5, r0
    2a94:	461c      	mov	r4, r3
    2a96:	d001      	beq.n	2a9c <AES_EncryptEcb+0x10>
    2a98:	2004      	movs	r0, #4
    2a9a:	bdf8      	pop	{r3, r4, r5, r6, r7, pc}
    2a9c:	2351      	movs	r3, #81	; 0x51
    2a9e:	7003      	strb	r3, [r0, #0]
    2aa0:	2301      	movs	r3, #1
    2aa2:	8043      	strh	r3, [r0, #2]
    2aa4:	6883      	ldr	r3, [r0, #8]
    2aa6:	069b      	lsls	r3, r3, #26
    2aa8:	d5f6      	bpl.n	2a98 <AES_EncryptEcb+0xc>
    2aaa:	f7ff ffb6 	bl	2a1a <aes_set_forward>
    2aae:	4426      	add	r6, r4
    2ab0:	190f      	adds	r7, r1, r4
    2ab2:	1b3a      	subs	r2, r7, r4
    2ab4:	1b31      	subs	r1, r6, r4
    2ab6:	b90c      	cbnz	r4, 2abc <AES_EncryptEcb+0x30>
    2ab8:	4620      	mov	r0, r4
    2aba:	e7ee      	b.n	2a9a <AES_EncryptEcb+0xe>
    2abc:	4628      	mov	r0, r5
    2abe:	f7ff ff8e 	bl	29de <aes_one_block>
    2ac2:	3c10      	subs	r4, #16
    2ac4:	e7f5      	b.n	2ab2 <AES_EncryptEcb+0x26>
    2ac6:	Address 0x00002ac6 is out of bounds.


00002ac8 <POWER_ApplyActiveVoltage>:
    2ac8:	b51f      	push	{r0, r1, r2, r3, r4, lr}
    2aca:	4604      	mov	r4, r0
    2acc:	4601      	mov	r1, r0
    2ace:	2209      	movs	r2, #9
    2ad0:	a801      	add	r0, sp, #4
    2ad2:	f004 fe07 	bl	76e4 <memcpy>
    2ad6:	7823      	ldrb	r3, [r4, #0]
    2ad8:	4942      	ldr	r1, [pc, #264]	; (2be4 <POWER_ApplyActiveVoltage+0x11c>)
    2ada:	2b09      	cmp	r3, #9
    2adc:	f991 2000 	ldrsb.w	r2, [r1]
    2ae0:	d847      	bhi.n	2b72 <POWER_ApplyActiveVoltage+0xaa>
    2ae2:	2a7f      	cmp	r2, #127	; 0x7f
    2ae4:	d009      	beq.n	2afa <POWER_ApplyActiveVoltage+0x32>
    2ae6:	4a40      	ldr	r2, [pc, #256]	; (2be8 <POWER_ApplyActiveVoltage+0x120>)
    2ae8:	f992 2000 	ldrsb.w	r2, [r2]
    2aec:	4413      	add	r3, r2
    2aee:	2b09      	cmp	r3, #9
    2af0:	dc49      	bgt.n	2b86 <POWER_ApplyActiveVoltage+0xbe>
    2af2:	2b01      	cmp	r3, #1
    2af4:	bfb8      	it	lt
    2af6:	2301      	movlt	r3, #1
    2af8:	b2db      	uxtb	r3, r3
    2afa:	7862      	ldrb	r2, [r4, #1]
    2afc:	f991 1000 	ldrsb.w	r1, [r1]
    2b00:	f88d 3004 	strb.w	r3, [sp, #4]
    2b04:	2a09      	cmp	r2, #9
    2b06:	d842      	bhi.n	2b8e <POWER_ApplyActiveVoltage+0xc6>
    2b08:	297f      	cmp	r1, #127	; 0x7f
    2b0a:	d009      	beq.n	2b20 <POWER_ApplyActiveVoltage+0x58>
    2b0c:	4b36      	ldr	r3, [pc, #216]	; (2be8 <POWER_ApplyActiveVoltage+0x120>)
    2b0e:	f993 3000 	ldrsb.w	r3, [r3]
    2b12:	441a      	add	r2, r3
    2b14:	2a09      	cmp	r2, #9
    2b16:	dc44      	bgt.n	2ba2 <POWER_ApplyActiveVoltage+0xda>
    2b18:	2a01      	cmp	r2, #1
    2b1a:	bfb8      	it	lt
    2b1c:	2201      	movlt	r2, #1
    2b1e:	b2d2      	uxtb	r2, r2
    2b20:	f88d 2005 	strb.w	r2, [sp, #5]
    2b24:	78a2      	ldrb	r2, [r4, #2]
    2b26:	2a09      	cmp	r2, #9
    2b28:	d83f      	bhi.n	2baa <POWER_ApplyActiveVoltage+0xe2>
    2b2a:	297f      	cmp	r1, #127	; 0x7f
    2b2c:	d009      	beq.n	2b42 <POWER_ApplyActiveVoltage+0x7a>
    2b2e:	4b2e      	ldr	r3, [pc, #184]	; (2be8 <POWER_ApplyActiveVoltage+0x120>)
    2b30:	f993 3000 	ldrsb.w	r3, [r3]
    2b34:	441a      	add	r2, r3
    2b36:	2a09      	cmp	r2, #9
    2b38:	dc41      	bgt.n	2bbe <POWER_ApplyActiveVoltage+0xf6>
    2b3a:	2a01      	cmp	r2, #1
    2b3c:	bfb8      	it	lt
    2b3e:	2201      	movlt	r2, #1
    2b40:	b2d2      	uxtb	r2, r2
    2b42:	78e3      	ldrb	r3, [r4, #3]
    2b44:	f88d 2006 	strb.w	r2, [sp, #6]
    2b48:	2b09      	cmp	r3, #9
    2b4a:	d83c      	bhi.n	2bc6 <POWER_ApplyActiveVoltage+0xfe>
    2b4c:	297f      	cmp	r1, #127	; 0x7f
    2b4e:	d009      	beq.n	2b64 <POWER_ApplyActiveVoltage+0x9c>
    2b50:	4a25      	ldr	r2, [pc, #148]	; (2be8 <POWER_ApplyActiveVoltage+0x120>)
    2b52:	f992 2000 	ldrsb.w	r2, [r2]
    2b56:	4413      	add	r3, r2
    2b58:	2b09      	cmp	r3, #9
    2b5a:	dc3e      	bgt.n	2bda <POWER_ApplyActiveVoltage+0x112>
    2b5c:	2b01      	cmp	r3, #1
    2b5e:	bfb8      	it	lt
    2b60:	2301      	movlt	r3, #1
    2b62:	b2db      	uxtb	r3, r3
    2b64:	f88d 3007 	strb.w	r3, [sp, #7]
    2b68:	a801      	add	r0, sp, #4
    2b6a:	4b20      	ldr	r3, [pc, #128]	; (2bec <POWER_ApplyActiveVoltage+0x124>)
    2b6c:	4798      	blx	r3
    2b6e:	b004      	add	sp, #16
    2b70:	bd10      	pop	{r4, pc}
    2b72:	2a7f      	cmp	r2, #127	; 0x7f
    2b74:	d0c1      	beq.n	2afa <POWER_ApplyActiveVoltage+0x32>
    2b76:	fa42 f383 	sxtab	r3, r2, r3
    2b7a:	2b1e      	cmp	r3, #30
    2b7c:	dc05      	bgt.n	2b8a <POWER_ApplyActiveVoltage+0xc2>
    2b7e:	2b0a      	cmp	r3, #10
    2b80:	bfb8      	it	lt
    2b82:	230a      	movlt	r3, #10
    2b84:	e7b8      	b.n	2af8 <POWER_ApplyActiveVoltage+0x30>
    2b86:	2309      	movs	r3, #9
    2b88:	e7b7      	b.n	2afa <POWER_ApplyActiveVoltage+0x32>
    2b8a:	231e      	movs	r3, #30
    2b8c:	e7b5      	b.n	2afa <POWER_ApplyActiveVoltage+0x32>
    2b8e:	297f      	cmp	r1, #127	; 0x7f
    2b90:	d0c6      	beq.n	2b20 <POWER_ApplyActiveVoltage+0x58>
    2b92:	fa41 f282 	sxtab	r2, r1, r2
    2b96:	2a1e      	cmp	r2, #30
    2b98:	dc05      	bgt.n	2ba6 <POWER_ApplyActiveVoltage+0xde>
    2b9a:	2a0a      	cmp	r2, #10
    2b9c:	bfb8      	it	lt
    2b9e:	220a      	movlt	r2, #10
    2ba0:	e7bd      	b.n	2b1e <POWER_ApplyActiveVoltage+0x56>
    2ba2:	2209      	movs	r2, #9
    2ba4:	e7bc      	b.n	2b20 <POWER_ApplyActiveVoltage+0x58>
    2ba6:	221e      	movs	r2, #30
    2ba8:	e7ba      	b.n	2b20 <POWER_ApplyActiveVoltage+0x58>
    2baa:	297f      	cmp	r1, #127	; 0x7f
    2bac:	d0c9      	beq.n	2b42 <POWER_ApplyActiveVoltage+0x7a>
    2bae:	fa41 f282 	sxtab	r2, r1, r2
    2bb2:	2a1e      	cmp	r2, #30
    2bb4:	dc05      	bgt.n	2bc2 <POWER_ApplyActiveVoltage+0xfa>
    2bb6:	2a0a      	cmp	r2, #10
    2bb8:	bfb8      	it	lt
    2bba:	220a      	movlt	r2, #10
    2bbc:	e7c0      	b.n	2b40 <POWER_ApplyActiveVoltage+0x78>
    2bbe:	2209      	movs	r2, #9
    2bc0:	e7bf      	b.n	2b42 <POWER_ApplyActiveVoltage+0x7a>
    2bc2:	221e      	movs	r2, #30
    2bc4:	e7bd      	b.n	2b42 <POWER_ApplyActiveVoltage+0x7a>
    2bc6:	297f      	cmp	r1, #127	; 0x7f
    2bc8:	d0cc      	beq.n	2b64 <POWER_ApplyActiveVoltage+0x9c>
    2bca:	fa41 f383 	sxtab	r3, r1, r3
    2bce:	2b1e      	cmp	r3, #30
    2bd0:	dc05      	bgt.n	2bde <POWER_ApplyActiveVoltage+0x116>
    2bd2:	2b0a      	cmp	r3, #10
    2bd4:	bfb8      	it	lt
    2bd6:	230a      	movlt	r3, #10
    2bd8:	e7c3      	b.n	2b62 <POWER_ApplyActiveVoltage+0x9a>
    2bda:	2309      	movs	r3, #9
    2bdc:	e7c2      	b.n	2b64 <POWER_ApplyActiveVoltage+0x9c>
    2bde:	231e      	movs	r3, #30
    2be0:	e7c0      	b.n	2b64 <POWER_ApplyActiveVoltage+0x9c>
    2be2:	bf00      	nop
    2be4:	04015b24 	.word	0x04015b24
    2be8:	04015b25 	.word	0x04015b25
    2bec:	03003e99 	.word	0x03003e99

00002bf0 <POWER_SetTrimDefaultActiveVoltage>:
    2bf0:	490f      	ldr	r1, [pc, #60]	; (2c30 <POWER_SetTrimDefaultActiveVoltage+0x40>)
    2bf2:	4810      	ldr	r0, [pc, #64]	; (2c34 <POWER_SetTrimDefaultActiveVoltage+0x44>)
    2bf4:	f991 2000 	ldrsb.w	r2, [r1]
    2bf8:	2a7f      	cmp	r2, #127	; 0x7f
    2bfa:	d003      	beq.n	2c04 <POWER_SetTrimDefaultActiveVoltage+0x14>
    2bfc:	f990 3000 	ldrsb.w	r3, [r0]
    2c00:	2b7f      	cmp	r3, #127	; 0x7f
    2c02:	d111      	bne.n	2c28 <POWER_SetTrimDefaultActiveVoltage+0x38>
    2c04:	4b0c      	ldr	r3, [pc, #48]	; (2c38 <POWER_SetTrimDefaultActiveVoltage+0x48>)
    2c06:	681b      	ldr	r3, [r3, #0]
    2c08:	f013 0f10 	tst.w	r3, #16
    2c0c:	f003 020f 	and.w	r2, r3, #15
    2c10:	bf18      	it	ne
    2c12:	4252      	negne	r2, r2
    2c14:	f413 7f00 	tst.w	r3, #512	; 0x200
    2c18:	f3c3 1343 	ubfx	r3, r3, #5, #4
    2c1c:	bf18      	it	ne
    2c1e:	425b      	negne	r3, r3
    2c20:	b252      	sxtb	r2, r2
    2c22:	b25b      	sxtb	r3, r3
    2c24:	700a      	strb	r2, [r1, #0]
    2c26:	7003      	strb	r3, [r0, #0]
    2c28:	4804      	ldr	r0, [pc, #16]	; (2c3c <POWER_SetTrimDefaultActiveVoltage+0x4c>)
    2c2a:	f7ff bf4d 	b.w	2ac8 <POWER_ApplyActiveVoltage>
    2c2e:	bf00      	nop
    2c30:	04015b24 	.word	0x04015b24
    2c34:	04015b25 	.word	0x04015b25
    2c38:	0009fcd4 	.word	0x0009fcd4
    2c3c:	00008768 	.word	0x00008768

00002c40 <POWER_Init>:
    2c40:	b510      	push	{r4, lr}
    2c42:	4c06      	ldr	r4, [pc, #24]	; (2c5c <POWER_Init+0x1c>)
    2c44:	7823      	ldrb	r3, [r4, #0]
    2c46:	b91b      	cbnz	r3, 2c50 <POWER_Init+0x10>
    2c48:	f7ff ffd2 	bl	2bf0 <POWER_SetTrimDefaultActiveVoltage>
    2c4c:	2301      	movs	r3, #1
    2c4e:	7023      	strb	r3, [r4, #0]
    2c50:	e8bd 4010 	ldmia.w	sp!, {r4, lr}
    2c54:	201b      	movs	r0, #27
    2c56:	f7ff ba77 	b.w	2148 <CLOCK_uDelay>
    2c5a:	bf00      	nop
    2c5c:	04015efc 	.word	0x04015efc

00002c60 <WTIMER_StartTimer>:
    2c60:	b5f0      	push	{r4, r5, r6, r7, lr}
    2c62:	4c1b      	ldr	r4, [pc, #108]	; (2cd0 <WTIMER_StartTimer+0x70>)
    2c64:	2528      	movs	r5, #40	; 0x28
    2c66:	4345      	muls	r5, r0
    2c68:	f04f 4380 	mov.w	r3, #1073741824	; 0x40000000
    2c6c:	1962      	adds	r2, r4, r5
    2c6e:	f8d3 6a20 	ldr.w	r6, [r3, #2592]	; 0xa20
    2c72:	6897      	ldr	r7, [r2, #8]
    2c74:	5965      	ldr	r5, [r4, r5]
    2c76:	433e      	orrs	r6, r7
    2c78:	f8c3 6a20 	str.w	r6, [r3, #2592]	; 0xa20
    2c7c:	f8c3 5a3c 	str.w	r5, [r3, #2620]	; 0xa3c
    2c80:	f8d3 5a20 	ldr.w	r5, [r3, #2592]	; 0xa20
    2c84:	68d6      	ldr	r6, [r2, #12]
    2c86:	ea25 0506 	bic.w	r5, r5, r6
    2c8a:	f8c3 5a20 	str.w	r5, [r3, #2592]	; 0xa20
    2c8e:	6855      	ldr	r5, [r2, #4]
    2c90:	f8d3 6a3c 	ldr.w	r6, [r3, #2620]	; 0xa3c
    2c94:	ea35 0606 	bics.w	r6, r5, r6
    2c98:	d015      	beq.n	2cc6 <WTIMER_StartTimer+0x66>
    2c9a:	6953      	ldr	r3, [r2, #20]
    2c9c:	6019      	str	r1, [r3, #0]
    2c9e:	b908      	cbnz	r0, 2ca4 <WTIMER_StartTimer+0x44>
    2ca0:	4b0c      	ldr	r3, [pc, #48]	; (2cd4 <WTIMER_StartTimer+0x74>)
    2ca2:	6018      	str	r0, [r3, #0]
    2ca4:	2128      	movs	r1, #40	; 0x28
    2ca6:	f04f 4380 	mov.w	r3, #1073741824	; 0x40000000
    2caa:	fb01 4000 	mla	r0, r1, r0, r4
    2cae:	f8d3 2a20 	ldr.w	r2, [r3, #2592]	; 0xa20
    2cb2:	68c1      	ldr	r1, [r0, #12]
    2cb4:	430a      	orrs	r2, r1
    2cb6:	f8c3 2a20 	str.w	r2, [r3, #2592]	; 0xa20
    2cba:	6842      	ldr	r2, [r0, #4]
    2cbc:	f8d3 1a3c 	ldr.w	r1, [r3, #2620]	; 0xa3c
    2cc0:	4211      	tst	r1, r2
    2cc2:	d002      	beq.n	2cca <WTIMER_StartTimer+0x6a>
    2cc4:	bdf0      	pop	{r4, r5, r6, r7, pc}
    2cc6:	bf00      	nop
    2cc8:	e7e2      	b.n	2c90 <WTIMER_StartTimer+0x30>
    2cca:	bf00      	nop
    2ccc:	e7f6      	b.n	2cbc <WTIMER_StartTimer+0x5c>
    2cce:	bf00      	nop
    2cd0:	00008774 	.word	0x00008774
    2cd4:	40000a28 	.word	0x40000a28

00002cd8 <WTIMER_ClearStatusFlags>:
    2cd8:	2328      	movs	r3, #40	; 0x28
    2cda:	4a0c      	ldr	r2, [pc, #48]	; (2d0c <WTIMER_ClearStatusFlags+0x34>)
    2cdc:	4358      	muls	r0, r3
    2cde:	1813      	adds	r3, r2, r0
    2ce0:	5811      	ldr	r1, [r2, r0]
    2ce2:	f04f 4280 	mov.w	r2, #1073741824	; 0x40000000
    2ce6:	f8c2 1a3c 	str.w	r1, [r2, #2620]	; 0xa3c
    2cea:	f893 2024 	ldrb.w	r2, [r3, #36]	; 0x24
    2cee:	f993 3024 	ldrsb.w	r3, [r3, #36]	; 0x24
    2cf2:	2b00      	cmp	r3, #0
    2cf4:	db08      	blt.n	2d08 <WTIMER_ClearStatusFlags+0x30>
    2cf6:	f002 011f 	and.w	r1, r2, #31
    2cfa:	095b      	lsrs	r3, r3, #5
    2cfc:	2201      	movs	r2, #1
    2cfe:	408a      	lsls	r2, r1
    2d00:	3360      	adds	r3, #96	; 0x60
    2d02:	4903      	ldr	r1, [pc, #12]	; (2d10 <WTIMER_ClearStatusFlags+0x38>)
    2d04:	f841 2023 	str.w	r2, [r1, r3, lsl #2]
    2d08:	4770      	bx	lr
    2d0a:	bf00      	nop
    2d0c:	00008774 	.word	0x00008774
    2d10:	e000e100 	.word	0xe000e100

00002d14 <WTIMER_StopTimer>:
    2d14:	b410      	push	{r4}
    2d16:	4c0c      	ldr	r4, [pc, #48]	; (2d48 <WTIMER_StopTimer+0x34>)
    2d18:	2228      	movs	r2, #40	; 0x28
    2d1a:	f04f 4380 	mov.w	r3, #1073741824	; 0x40000000
    2d1e:	fb02 4200 	mla	r2, r2, r0, r4
    2d22:	f8d3 1a20 	ldr.w	r1, [r3, #2592]	; 0xa20
    2d26:	68d4      	ldr	r4, [r2, #12]
    2d28:	6852      	ldr	r2, [r2, #4]
    2d2a:	ea21 0104 	bic.w	r1, r1, r4
    2d2e:	f8c3 1a20 	str.w	r1, [r3, #2592]	; 0xa20
    2d32:	f8d3 1a3c 	ldr.w	r1, [r3, #2620]	; 0xa3c
    2d36:	ea32 0101 	bics.w	r1, r2, r1
    2d3a:	d002      	beq.n	2d42 <WTIMER_StopTimer+0x2e>
    2d3c:	bc10      	pop	{r4}
    2d3e:	f7ff bfcb 	b.w	2cd8 <WTIMER_ClearStatusFlags>
    2d42:	bf00      	nop
    2d44:	e7f5      	b.n	2d32 <WTIMER_StopTimer+0x1e>
    2d46:	bf00      	nop
    2d48:	00008774 	.word	0x00008774

00002d4c <vDebugExceptionHandlersInitialise>:
    2d4c:	b508      	push	{r3, lr}
    2d4e:	f000 fcff 	bl	3750 <vDebugInit>
    2d52:	4b06      	ldr	r3, [pc, #24]	; (2d6c <vDebugExceptionHandlersInitialise+0x20>)
    2d54:	2210      	movs	r2, #16
    2d56:	601a      	str	r2, [r3, #0]
    2d58:	4a05      	ldr	r2, [pc, #20]	; (2d70 <vDebugExceptionHandlersInitialise+0x24>)
    2d5a:	2300      	movs	r3, #0
    2d5c:	7013      	strb	r3, [r2, #0]
    2d5e:	7053      	strb	r3, [r2, #1]
    2d60:	7093      	strb	r3, [r2, #2]
    2d62:	68d3      	ldr	r3, [r2, #12]
    2d64:	f443 23e0 	orr.w	r3, r3, #458752	; 0x70000
    2d68:	60d3      	str	r3, [r2, #12]
    2d6a:	bd08      	pop	{r3, pc}
    2d6c:	e000ed14 	.word	0xe000ed14
    2d70:	e000ed18 	.word	0xe000ed18

00002d74 <ExceptionUnwindStack>:
    2d74:	b580      	push	{r7, lr}
    2d76:	4604      	mov	r4, r0
    2d78:	4817      	ldr	r0, [pc, #92]	; (2dd8 <ExceptionUnwindStack+0x64>)
    2d7a:	4d18      	ldr	r5, [pc, #96]	; (2ddc <ExceptionUnwindStack+0x68>)
    2d7c:	4e18      	ldr	r6, [pc, #96]	; (2de0 <ExceptionUnwindStack+0x6c>)
    2d7e:	4f19      	ldr	r7, [pc, #100]	; (2de4 <ExceptionUnwindStack+0x70>)
    2d80:	f7fe fb88 	bl	1494 <DbgConsole_Printf>
    2d84:	42ac      	cmp	r4, r5
    2d86:	d31d      	bcc.n	2dc4 <ExceptionUnwindStack+0x50>
    2d88:	4b17      	ldr	r3, [pc, #92]	; (2de8 <ExceptionUnwindStack+0x74>)
    2d8a:	4818      	ldr	r0, [pc, #96]	; (2dec <ExceptionUnwindStack+0x78>)
    2d8c:	6819      	ldr	r1, [r3, #0]
    2d8e:	f7fe fb81 	bl	1494 <DbgConsole_Printf>
    2d92:	4b17      	ldr	r3, [pc, #92]	; (2df0 <ExceptionUnwindStack+0x7c>)
    2d94:	4817      	ldr	r0, [pc, #92]	; (2df4 <ExceptionUnwindStack+0x80>)
    2d96:	6819      	ldr	r1, [r3, #0]
    2d98:	f7fe fb7c 	bl	1494 <DbgConsole_Printf>
    2d9c:	4b16      	ldr	r3, [pc, #88]	; (2df8 <ExceptionUnwindStack+0x84>)
    2d9e:	4817      	ldr	r0, [pc, #92]	; (2dfc <ExceptionUnwindStack+0x88>)
    2da0:	6819      	ldr	r1, [r3, #0]
    2da2:	f7fe fb77 	bl	1494 <DbgConsole_Printf>
    2da6:	4b16      	ldr	r3, [pc, #88]	; (2e00 <ExceptionUnwindStack+0x8c>)
    2da8:	4816      	ldr	r0, [pc, #88]	; (2e04 <ExceptionUnwindStack+0x90>)
    2daa:	6819      	ldr	r1, [r3, #0]
    2dac:	f7fe fb72 	bl	1494 <DbgConsole_Printf>
    2db0:	4815      	ldr	r0, [pc, #84]	; (2e08 <ExceptionUnwindStack+0x94>)
    2db2:	f7fe fb6f 	bl	1494 <DbgConsole_Printf>
    2db6:	2016      	movs	r0, #22
    2db8:	f7ff fb6e 	bl	2498 <RESET_PeripheralReset>
    2dbc:	4809      	ldr	r0, [pc, #36]	; (2de4 <ExceptionUnwindStack+0x70>)
    2dbe:	f7fe fef5 	bl	1bac <WWDT_Deinit>
    2dc2:	e7fe      	b.n	2dc2 <ExceptionUnwindStack+0x4e>
    2dc4:	6822      	ldr	r2, [r4, #0]
    2dc6:	4621      	mov	r1, r4
    2dc8:	4630      	mov	r0, r6
    2dca:	f7fe fb63 	bl	1494 <DbgConsole_Printf>
    2dce:	4638      	mov	r0, r7
    2dd0:	3404      	adds	r4, #4
    2dd2:	f7fe fef3 	bl	1bbc <WWDT_Refresh>
    2dd6:	e7d5      	b.n	2d84 <ExceptionUnwindStack+0x10>
    2dd8:	000087c4 	.word	0x000087c4
    2ddc:	040156c0 	.word	0x040156c0
    2de0:	000087d5 	.word	0x000087d5
    2de4:	4000a000 	.word	0x4000a000
    2de8:	400b107c 	.word	0x400b107c
    2dec:	000087e3 	.word	0x000087e3
    2df0:	400b11c0 	.word	0x400b11c0
    2df4:	00008804 	.word	0x00008804
    2df8:	400b12c0 	.word	0x400b12c0
    2dfc:	00008825 	.word	0x00008825
    2e00:	400b0018 	.word	0x400b0018
    2e04:	00008846 	.word	0x00008846
    2e08:	00008867 	.word	0x00008867

00002e0c <HardFault_Handler>:
    2e0c:	f3ef 8008 	mrs	r0, MSP
    2e10:	f000 bb8a 	b.w	3528 <vDebugHardFaultHandler>

00002e14 <BusFault_Handler>:
    2e14:	f3ef 8008 	mrs	r0, MSP
    2e18:	f000 b922 	b.w	3060 <vDebugBusFaultHandler>

00002e1c <UsageFault_Handler>:
    2e1c:	f3ef 8008 	mrs	r0, MSP
    2e20:	f000 b9e4 	b.w	31ec <vDebugUsageFaultHandler>

00002e24 <MemManage_Handler>:
    2e24:	f3ef 8008 	mrs	r0, MSP
    2e28:	f000 ba94 	b.w	3354 <vDebugMemoryFaultHandler>

00002e2c <vPrintRegisterBit>:
    2e2c:	b110      	cbz	r0, 2e34 <vPrintRegisterBit+0x8>
    2e2e:	4802      	ldr	r0, [pc, #8]	; (2e38 <vPrintRegisterBit+0xc>)
    2e30:	f000 bcb3 	b.w	379a <vDebugNonInt>
    2e34:	4801      	ldr	r0, [pc, #4]	; (2e3c <vPrintRegisterBit+0x10>)
    2e36:	e7fb      	b.n	2e30 <vPrintRegisterBit+0x4>
    2e38:	00008886 	.word	0x00008886
    2e3c:	0000888a 	.word	0x0000888a

00002e40 <vPrintSystemHandlerAndControlStateRegisterBitFields>:
    2e40:	b510      	push	{r4, lr}
    2e42:	4604      	mov	r4, r0
    2e44:	4824      	ldr	r0, [pc, #144]	; (2ed8 <vPrintSystemHandlerAndControlStateRegisterBitFields+0x98>)
    2e46:	f000 fca8 	bl	379a <vDebugNonInt>
    2e4a:	4824      	ldr	r0, [pc, #144]	; (2edc <vPrintSystemHandlerAndControlStateRegisterBitFields+0x9c>)
    2e4c:	f000 fca5 	bl	379a <vDebugNonInt>
    2e50:	f404 3080 	and.w	r0, r4, #65536	; 0x10000
    2e54:	f7ff ffea 	bl	2e2c <vPrintRegisterBit>
    2e58:	4821      	ldr	r0, [pc, #132]	; (2ee0 <vPrintSystemHandlerAndControlStateRegisterBitFields+0xa0>)
    2e5a:	f000 fc9e 	bl	379a <vDebugNonInt>
    2e5e:	f404 3000 	and.w	r0, r4, #131072	; 0x20000
    2e62:	f7ff ffe3 	bl	2e2c <vPrintRegisterBit>
    2e66:	481f      	ldr	r0, [pc, #124]	; (2ee4 <vPrintSystemHandlerAndControlStateRegisterBitFields+0xa4>)
    2e68:	f000 fc97 	bl	379a <vDebugNonInt>
    2e6c:	f404 2080 	and.w	r0, r4, #262144	; 0x40000
    2e70:	f7ff ffdc 	bl	2e2c <vPrintRegisterBit>
    2e74:	481c      	ldr	r0, [pc, #112]	; (2ee8 <vPrintSystemHandlerAndControlStateRegisterBitFields+0xa8>)
    2e76:	f000 fc90 	bl	379a <vDebugNonInt>
    2e7a:	481c      	ldr	r0, [pc, #112]	; (2eec <vPrintSystemHandlerAndControlStateRegisterBitFields+0xac>)
    2e7c:	f000 fc8d 	bl	379a <vDebugNonInt>
    2e80:	f004 0001 	and.w	r0, r4, #1
    2e84:	f7ff ffd2 	bl	2e2c <vPrintRegisterBit>
    2e88:	4819      	ldr	r0, [pc, #100]	; (2ef0 <vPrintSystemHandlerAndControlStateRegisterBitFields+0xb0>)
    2e8a:	f000 fc86 	bl	379a <vDebugNonInt>
    2e8e:	f004 0002 	and.w	r0, r4, #2
    2e92:	f7ff ffcb 	bl	2e2c <vPrintRegisterBit>
    2e96:	4817      	ldr	r0, [pc, #92]	; (2ef4 <vPrintSystemHandlerAndControlStateRegisterBitFields+0xb4>)
    2e98:	f000 fc7f 	bl	379a <vDebugNonInt>
    2e9c:	f004 0008 	and.w	r0, r4, #8
    2ea0:	f7ff ffc4 	bl	2e2c <vPrintRegisterBit>
    2ea4:	4814      	ldr	r0, [pc, #80]	; (2ef8 <vPrintSystemHandlerAndControlStateRegisterBitFields+0xb8>)
    2ea6:	f000 fc78 	bl	379a <vDebugNonInt>
    2eaa:	4814      	ldr	r0, [pc, #80]	; (2efc <vPrintSystemHandlerAndControlStateRegisterBitFields+0xbc>)
    2eac:	f000 fc75 	bl	379a <vDebugNonInt>
    2eb0:	f404 5000 	and.w	r0, r4, #8192	; 0x2000
    2eb4:	f7ff ffba 	bl	2e2c <vPrintRegisterBit>
    2eb8:	4811      	ldr	r0, [pc, #68]	; (2f00 <vPrintSystemHandlerAndControlStateRegisterBitFields+0xc0>)
    2eba:	f000 fc6e 	bl	379a <vDebugNonInt>
    2ebe:	f404 4080 	and.w	r0, r4, #16384	; 0x4000
    2ec2:	f7ff ffb3 	bl	2e2c <vPrintRegisterBit>
    2ec6:	480f      	ldr	r0, [pc, #60]	; (2f04 <vPrintSystemHandlerAndControlStateRegisterBitFields+0xc4>)
    2ec8:	f000 fc67 	bl	379a <vDebugNonInt>
    2ecc:	f404 5080 	and.w	r0, r4, #4096	; 0x1000
    2ed0:	e8bd 4010 	ldmia.w	sp!, {r4, lr}
    2ed4:	f7ff bfaa 	b.w	2e2c <vPrintRegisterBit>
    2ed8:	0000888e 	.word	0x0000888e
    2edc:	000088c7 	.word	0x000088c7
    2ee0:	000088d5 	.word	0x000088d5
    2ee4:	000088e3 	.word	0x000088e3
    2ee8:	000088f1 	.word	0x000088f1
    2eec:	0000892a 	.word	0x0000892a
    2ef0:	00008939 	.word	0x00008939
    2ef4:	00008948 	.word	0x00008948
    2ef8:	00008957 	.word	0x00008957
    2efc:	00008990 	.word	0x00008990
    2f00:	000089a2 	.word	0x000089a2
    2f04:	000089b4 	.word	0x000089b4

00002f08 <vPrintConfigurableFaultStatusRegisterBitFields>:
    2f08:	b510      	push	{r4, lr}
    2f0a:	4604      	mov	r4, r0
    2f0c:	4840      	ldr	r0, [pc, #256]	; (3010 <vPrintConfigurableFaultStatusRegisterBitFields+0x108>)
    2f0e:	f000 fc44 	bl	379a <vDebugNonInt>
    2f12:	4840      	ldr	r0, [pc, #256]	; (3014 <vPrintConfigurableFaultStatusRegisterBitFields+0x10c>)
    2f14:	f000 fc41 	bl	379a <vDebugNonInt>
    2f18:	f004 0001 	and.w	r0, r4, #1
    2f1c:	f7ff ff86 	bl	2e2c <vPrintRegisterBit>
    2f20:	483d      	ldr	r0, [pc, #244]	; (3018 <vPrintConfigurableFaultStatusRegisterBitFields+0x110>)
    2f22:	f000 fc3a 	bl	379a <vDebugNonInt>
    2f26:	f004 0002 	and.w	r0, r4, #2
    2f2a:	f7ff ff7f 	bl	2e2c <vPrintRegisterBit>
    2f2e:	483b      	ldr	r0, [pc, #236]	; (301c <vPrintConfigurableFaultStatusRegisterBitFields+0x114>)
    2f30:	f000 fc33 	bl	379a <vDebugNonInt>
    2f34:	f004 0008 	and.w	r0, r4, #8
    2f38:	f7ff ff78 	bl	2e2c <vPrintRegisterBit>
    2f3c:	4838      	ldr	r0, [pc, #224]	; (3020 <vPrintConfigurableFaultStatusRegisterBitFields+0x118>)
    2f3e:	f000 fc2c 	bl	379a <vDebugNonInt>
    2f42:	f004 0010 	and.w	r0, r4, #16
    2f46:	f7ff ff71 	bl	2e2c <vPrintRegisterBit>
    2f4a:	4836      	ldr	r0, [pc, #216]	; (3024 <vPrintConfigurableFaultStatusRegisterBitFields+0x11c>)
    2f4c:	f000 fc25 	bl	379a <vDebugNonInt>
    2f50:	f004 0080 	and.w	r0, r4, #128	; 0x80
    2f54:	f7ff ff6a 	bl	2e2c <vPrintRegisterBit>
    2f58:	4833      	ldr	r0, [pc, #204]	; (3028 <vPrintConfigurableFaultStatusRegisterBitFields+0x120>)
    2f5a:	f000 fc1e 	bl	379a <vDebugNonInt>
    2f5e:	4833      	ldr	r0, [pc, #204]	; (302c <vPrintConfigurableFaultStatusRegisterBitFields+0x124>)
    2f60:	f000 fc1b 	bl	379a <vDebugNonInt>
    2f64:	f404 7080 	and.w	r0, r4, #256	; 0x100
    2f68:	f7ff ff60 	bl	2e2c <vPrintRegisterBit>
    2f6c:	4830      	ldr	r0, [pc, #192]	; (3030 <vPrintConfigurableFaultStatusRegisterBitFields+0x128>)
    2f6e:	f000 fc14 	bl	379a <vDebugNonInt>
    2f72:	f404 7000 	and.w	r0, r4, #512	; 0x200
    2f76:	f7ff ff59 	bl	2e2c <vPrintRegisterBit>
    2f7a:	482e      	ldr	r0, [pc, #184]	; (3034 <vPrintConfigurableFaultStatusRegisterBitFields+0x12c>)
    2f7c:	f000 fc0d 	bl	379a <vDebugNonInt>
    2f80:	f404 6080 	and.w	r0, r4, #1024	; 0x400
    2f84:	f7ff ff52 	bl	2e2c <vPrintRegisterBit>
    2f88:	482b      	ldr	r0, [pc, #172]	; (3038 <vPrintConfigurableFaultStatusRegisterBitFields+0x130>)
    2f8a:	f000 fc06 	bl	379a <vDebugNonInt>
    2f8e:	f404 6000 	and.w	r0, r4, #2048	; 0x800
    2f92:	f7ff ff4b 	bl	2e2c <vPrintRegisterBit>
    2f96:	4829      	ldr	r0, [pc, #164]	; (303c <vPrintConfigurableFaultStatusRegisterBitFields+0x134>)
    2f98:	f000 fbff 	bl	379a <vDebugNonInt>
    2f9c:	f404 5080 	and.w	r0, r4, #4096	; 0x1000
    2fa0:	f7ff ff44 	bl	2e2c <vPrintRegisterBit>
    2fa4:	4826      	ldr	r0, [pc, #152]	; (3040 <vPrintConfigurableFaultStatusRegisterBitFields+0x138>)
    2fa6:	f000 fbf8 	bl	379a <vDebugNonInt>
    2faa:	f404 4000 	and.w	r0, r4, #32768	; 0x8000
    2fae:	f7ff ff3d 	bl	2e2c <vPrintRegisterBit>
    2fb2:	4824      	ldr	r0, [pc, #144]	; (3044 <vPrintConfigurableFaultStatusRegisterBitFields+0x13c>)
    2fb4:	f000 fbf1 	bl	379a <vDebugNonInt>
    2fb8:	4823      	ldr	r0, [pc, #140]	; (3048 <vPrintConfigurableFaultStatusRegisterBitFields+0x140>)
    2fba:	f000 fbee 	bl	379a <vDebugNonInt>
    2fbe:	f404 3080 	and.w	r0, r4, #65536	; 0x10000
    2fc2:	f7ff ff33 	bl	2e2c <vPrintRegisterBit>
    2fc6:	4821      	ldr	r0, [pc, #132]	; (304c <vPrintConfigurableFaultStatusRegisterBitFields+0x144>)
    2fc8:	f000 fbe7 	bl	379a <vDebugNonInt>
    2fcc:	f404 3000 	and.w	r0, r4, #131072	; 0x20000
    2fd0:	f7ff ff2c 	bl	2e2c <vPrintRegisterBit>
    2fd4:	481e      	ldr	r0, [pc, #120]	; (3050 <vPrintConfigurableFaultStatusRegisterBitFields+0x148>)
    2fd6:	f000 fbe0 	bl	379a <vDebugNonInt>
    2fda:	f404 2080 	and.w	r0, r4, #262144	; 0x40000
    2fde:	f7ff ff25 	bl	2e2c <vPrintRegisterBit>
    2fe2:	481c      	ldr	r0, [pc, #112]	; (3054 <vPrintConfigurableFaultStatusRegisterBitFields+0x14c>)
    2fe4:	f000 fbd9 	bl	379a <vDebugNonInt>
    2fe8:	f404 2000 	and.w	r0, r4, #524288	; 0x80000
    2fec:	f7ff ff1e 	bl	2e2c <vPrintRegisterBit>
    2ff0:	4819      	ldr	r0, [pc, #100]	; (3058 <vPrintConfigurableFaultStatusRegisterBitFields+0x150>)
    2ff2:	f000 fbd2 	bl	379a <vDebugNonInt>
    2ff6:	f004 7080 	and.w	r0, r4, #16777216	; 0x1000000
    2ffa:	f7ff ff17 	bl	2e2c <vPrintRegisterBit>
    2ffe:	4817      	ldr	r0, [pc, #92]	; (305c <vPrintConfigurableFaultStatusRegisterBitFields+0x154>)
    3000:	f000 fbcb 	bl	379a <vDebugNonInt>
    3004:	f004 7000 	and.w	r0, r4, #33554432	; 0x2000000
    3008:	e8bd 4010 	ldmia.w	sp!, {r4, lr}
    300c:	f7ff bf0e 	b.w	2e2c <vPrintRegisterBit>
    3010:	000089c6 	.word	0x000089c6
    3014:	000089e8 	.word	0x000089e8
    3018:	000089f4 	.word	0x000089f4
    301c:	00008a00 	.word	0x00008a00
    3020:	00008a0d 	.word	0x00008a0d
    3024:	00008a18 	.word	0x00008a18
    3028:	00008a25 	.word	0x00008a25
    302c:	00008a40 	.word	0x00008a40
    3030:	00008a4d 	.word	0x00008a4d
    3034:	00008a4b 	.word	0x00008a4b
    3038:	00008a01 	.word	0x00008a01
    303c:	00008a0e 	.word	0x00008a0e
    3040:	00008a5a 	.word	0x00008a5a
    3044:	00008a67 	.word	0x00008a67
    3048:	00008a84 	.word	0x00008a84
    304c:	00008a92 	.word	0x00008a92
    3050:	00008a9e 	.word	0x00008a9e
    3054:	00008aa7 	.word	0x00008aa7
    3058:	00008aaf 	.word	0x00008aaf
    305c:	00008abc 	.word	0x00008abc

00003060 <vDebugBusFaultHandler>:
    3060:	e92d 4887 	stmdb	sp!, {r0, r1, r2, r7, fp, lr}
    3064:	e9d0 9802 	ldrd	r9, r8, [r0, #8]
    3068:	e9d0 ba00 	ldrd	fp, sl, [r0]
    306c:	e9d0 7604 	ldrd	r7, r6, [r0, #16]
    3070:	e9d0 5406 	ldrd	r5, r4, [r0, #24]
    3074:	4847      	ldr	r0, [pc, #284]	; (3194 <vDebugBusFaultHandler+0x134>)
    3076:	f000 fb90 	bl	379a <vDebugNonInt>
    307a:	4847      	ldr	r0, [pc, #284]	; (3198 <vDebugBusFaultHandler+0x138>)
    307c:	f000 fb8d 	bl	379a <vDebugNonInt>
    3080:	4846      	ldr	r0, [pc, #280]	; (319c <vDebugBusFaultHandler+0x13c>)
    3082:	f000 fb8a 	bl	379a <vDebugNonInt>
    3086:	2108      	movs	r1, #8
    3088:	4658      	mov	r0, fp
    308a:	f000 fb88 	bl	379e <vDebugHexNonInt>
    308e:	4844      	ldr	r0, [pc, #272]	; (31a0 <vDebugBusFaultHandler+0x140>)
    3090:	f000 fb83 	bl	379a <vDebugNonInt>
    3094:	4843      	ldr	r0, [pc, #268]	; (31a4 <vDebugBusFaultHandler+0x144>)
    3096:	f000 fb80 	bl	379a <vDebugNonInt>
    309a:	2108      	movs	r1, #8
    309c:	4650      	mov	r0, sl
    309e:	f000 fb7e 	bl	379e <vDebugHexNonInt>
    30a2:	483f      	ldr	r0, [pc, #252]	; (31a0 <vDebugBusFaultHandler+0x140>)
    30a4:	f000 fb79 	bl	379a <vDebugNonInt>
    30a8:	483f      	ldr	r0, [pc, #252]	; (31a8 <vDebugBusFaultHandler+0x148>)
    30aa:	f000 fb76 	bl	379a <vDebugNonInt>
    30ae:	2108      	movs	r1, #8
    30b0:	4648      	mov	r0, r9
    30b2:	f000 fb74 	bl	379e <vDebugHexNonInt>
    30b6:	483a      	ldr	r0, [pc, #232]	; (31a0 <vDebugBusFaultHandler+0x140>)
    30b8:	f000 fb6f 	bl	379a <vDebugNonInt>
    30bc:	483b      	ldr	r0, [pc, #236]	; (31ac <vDebugBusFaultHandler+0x14c>)
    30be:	f000 fb6c 	bl	379a <vDebugNonInt>
    30c2:	2108      	movs	r1, #8
    30c4:	4640      	mov	r0, r8
    30c6:	f000 fb6a 	bl	379e <vDebugHexNonInt>
    30ca:	4835      	ldr	r0, [pc, #212]	; (31a0 <vDebugBusFaultHandler+0x140>)
    30cc:	f000 fb65 	bl	379a <vDebugNonInt>
    30d0:	4837      	ldr	r0, [pc, #220]	; (31b0 <vDebugBusFaultHandler+0x150>)
    30d2:	f000 fb62 	bl	379a <vDebugNonInt>
    30d6:	2108      	movs	r1, #8
    30d8:	4638      	mov	r0, r7
    30da:	f000 fb60 	bl	379e <vDebugHexNonInt>
    30de:	4830      	ldr	r0, [pc, #192]	; (31a0 <vDebugBusFaultHandler+0x140>)
    30e0:	f000 fb5b 	bl	379a <vDebugNonInt>
    30e4:	4833      	ldr	r0, [pc, #204]	; (31b4 <vDebugBusFaultHandler+0x154>)
    30e6:	f000 fb58 	bl	379a <vDebugNonInt>
    30ea:	2108      	movs	r1, #8
    30ec:	4630      	mov	r0, r6
    30ee:	f000 fb56 	bl	379e <vDebugHexNonInt>
    30f2:	4831      	ldr	r0, [pc, #196]	; (31b8 <vDebugBusFaultHandler+0x158>)
    30f4:	f000 fb51 	bl	379a <vDebugNonInt>
    30f8:	4830      	ldr	r0, [pc, #192]	; (31bc <vDebugBusFaultHandler+0x15c>)
    30fa:	f000 fb4e 	bl	379a <vDebugNonInt>
    30fe:	2108      	movs	r1, #8
    3100:	4628      	mov	r0, r5
    3102:	f000 fb4c 	bl	379e <vDebugHexNonInt>
    3106:	482e      	ldr	r0, [pc, #184]	; (31c0 <vDebugBusFaultHandler+0x160>)
    3108:	f000 fb47 	bl	379a <vDebugNonInt>
    310c:	482d      	ldr	r0, [pc, #180]	; (31c4 <vDebugBusFaultHandler+0x164>)
    310e:	f000 fb44 	bl	379a <vDebugNonInt>
    3112:	2108      	movs	r1, #8
    3114:	4620      	mov	r0, r4
    3116:	f000 fb42 	bl	379e <vDebugHexNonInt>
    311a:	4821      	ldr	r0, [pc, #132]	; (31a0 <vDebugBusFaultHandler+0x140>)
    311c:	f000 fb3d 	bl	379a <vDebugNonInt>
    3120:	4b29      	ldr	r3, [pc, #164]	; (31c8 <vDebugBusFaultHandler+0x168>)
    3122:	482a      	ldr	r0, [pc, #168]	; (31cc <vDebugBusFaultHandler+0x16c>)
    3124:	681b      	ldr	r3, [r3, #0]
    3126:	9301      	str	r3, [sp, #4]
    3128:	f000 fb37 	bl	379a <vDebugNonInt>
    312c:	2108      	movs	r1, #8
    312e:	9801      	ldr	r0, [sp, #4]
    3130:	f000 fb35 	bl	379e <vDebugHexNonInt>
    3134:	4826      	ldr	r0, [pc, #152]	; (31d0 <vDebugBusFaultHandler+0x170>)
    3136:	f000 fb30 	bl	379a <vDebugNonInt>
    313a:	9801      	ldr	r0, [sp, #4]
    313c:	f7ff fe80 	bl	2e40 <vPrintSystemHandlerAndControlStateRegisterBitFields>
    3140:	4b24      	ldr	r3, [pc, #144]	; (31d4 <vDebugBusFaultHandler+0x174>)
    3142:	4825      	ldr	r0, [pc, #148]	; (31d8 <vDebugBusFaultHandler+0x178>)
    3144:	681b      	ldr	r3, [r3, #0]
    3146:	9301      	str	r3, [sp, #4]
    3148:	f000 fb27 	bl	379a <vDebugNonInt>
    314c:	2108      	movs	r1, #8
    314e:	9801      	ldr	r0, [sp, #4]
    3150:	f000 fb25 	bl	379e <vDebugHexNonInt>
    3154:	4812      	ldr	r0, [pc, #72]	; (31a0 <vDebugBusFaultHandler+0x140>)
    3156:	f000 fb20 	bl	379a <vDebugNonInt>
    315a:	4b20      	ldr	r3, [pc, #128]	; (31dc <vDebugBusFaultHandler+0x17c>)
    315c:	4820      	ldr	r0, [pc, #128]	; (31e0 <vDebugBusFaultHandler+0x180>)
    315e:	681b      	ldr	r3, [r3, #0]
    3160:	9301      	str	r3, [sp, #4]
    3162:	f000 fb1a 	bl	379a <vDebugNonInt>
    3166:	2108      	movs	r1, #8
    3168:	9801      	ldr	r0, [sp, #4]
    316a:	f000 fb18 	bl	379e <vDebugHexNonInt>
    316e:	480c      	ldr	r0, [pc, #48]	; (31a0 <vDebugBusFaultHandler+0x140>)
    3170:	f000 fb13 	bl	379a <vDebugNonInt>
    3174:	481b      	ldr	r0, [pc, #108]	; (31e4 <vDebugBusFaultHandler+0x184>)
    3176:	f000 fb10 	bl	379a <vDebugNonInt>
    317a:	9801      	ldr	r0, [sp, #4]
    317c:	f7ff fec4 	bl	2f08 <vPrintConfigurableFaultStatusRegisterBitFields>
    3180:	4b19      	ldr	r3, [pc, #100]	; (31e8 <vDebugBusFaultHandler+0x188>)
    3182:	681b      	ldr	r3, [r3, #0]
    3184:	07db      	lsls	r3, r3, #31
    3186:	d500      	bpl.n	318a <vDebugBusFaultHandler+0x12a>
    3188:	be00      	bkpt	0x0000
    318a:	f3ef 8008 	mrs	r0, MSP
    318e:	f7ff fdf1 	bl	2d74 <ExceptionUnwindStack>
    3192:	bf00      	nop
    3194:	00008ac9 	.word	0x00008ac9
    3198:	00008aeb 	.word	0x00008aeb
    319c:	00008b0f 	.word	0x00008b0f
    31a0:	00008b0c 	.word	0x00008b0c
    31a4:	00008b17 	.word	0x00008b17
    31a8:	00008b1f 	.word	0x00008b1f
    31ac:	00008b27 	.word	0x00008b27
    31b0:	00008b2f 	.word	0x00008b2f
    31b4:	00008b38 	.word	0x00008b38
    31b8:	00008b46 	.word	0x00008b46
    31bc:	00008b6a 	.word	0x00008b6a
    31c0:	00008b78 	.word	0x00008b78
    31c4:	00008b8d 	.word	0x00008b8d
    31c8:	e000ed24 	.word	0xe000ed24
    31cc:	00008b96 	.word	0x00008b96
    31d0:	00008bba 	.word	0x00008bba
    31d4:	e000ed38 	.word	0xe000ed38
    31d8:	00008bec 	.word	0x00008bec
    31dc:	e000ed28 	.word	0xe000ed28
    31e0:	00008c06 	.word	0x00008c06
    31e4:	00008c29 	.word	0x00008c29
    31e8:	e000edf0 	.word	0xe000edf0

000031ec <vDebugUsageFaultHandler>:
    31ec:	e92d 4887 	stmdb	sp!, {r0, r1, r2, r7, fp, lr}
    31f0:	e9d0 9802 	ldrd	r9, r8, [r0, #8]
    31f4:	e9d0 ba00 	ldrd	fp, sl, [r0]
    31f8:	e9d0 7604 	ldrd	r7, r6, [r0, #16]
    31fc:	e9d0 5406 	ldrd	r5, r4, [r0, #24]
    3200:	4840      	ldr	r0, [pc, #256]	; (3304 <vDebugUsageFaultHandler+0x118>)
    3202:	f000 faca 	bl	379a <vDebugNonInt>
    3206:	4840      	ldr	r0, [pc, #256]	; (3308 <vDebugUsageFaultHandler+0x11c>)
    3208:	f000 fac7 	bl	379a <vDebugNonInt>
    320c:	483f      	ldr	r0, [pc, #252]	; (330c <vDebugUsageFaultHandler+0x120>)
    320e:	f000 fac4 	bl	379a <vDebugNonInt>
    3212:	2108      	movs	r1, #8
    3214:	4658      	mov	r0, fp
    3216:	f000 fac2 	bl	379e <vDebugHexNonInt>
    321a:	483d      	ldr	r0, [pc, #244]	; (3310 <vDebugUsageFaultHandler+0x124>)
    321c:	f000 fabd 	bl	379a <vDebugNonInt>
    3220:	483c      	ldr	r0, [pc, #240]	; (3314 <vDebugUsageFaultHandler+0x128>)
    3222:	f000 faba 	bl	379a <vDebugNonInt>
    3226:	2108      	movs	r1, #8
    3228:	4650      	mov	r0, sl
    322a:	f000 fab8 	bl	379e <vDebugHexNonInt>
    322e:	4838      	ldr	r0, [pc, #224]	; (3310 <vDebugUsageFaultHandler+0x124>)
    3230:	f000 fab3 	bl	379a <vDebugNonInt>
    3234:	4838      	ldr	r0, [pc, #224]	; (3318 <vDebugUsageFaultHandler+0x12c>)
    3236:	f000 fab0 	bl	379a <vDebugNonInt>
    323a:	2108      	movs	r1, #8
    323c:	4648      	mov	r0, r9
    323e:	f000 faae 	bl	379e <vDebugHexNonInt>
    3242:	4833      	ldr	r0, [pc, #204]	; (3310 <vDebugUsageFaultHandler+0x124>)
    3244:	f000 faa9 	bl	379a <vDebugNonInt>
    3248:	4834      	ldr	r0, [pc, #208]	; (331c <vDebugUsageFaultHandler+0x130>)
    324a:	f000 faa6 	bl	379a <vDebugNonInt>
    324e:	2108      	movs	r1, #8
    3250:	4640      	mov	r0, r8
    3252:	f000 faa4 	bl	379e <vDebugHexNonInt>
    3256:	482e      	ldr	r0, [pc, #184]	; (3310 <vDebugUsageFaultHandler+0x124>)
    3258:	f000 fa9f 	bl	379a <vDebugNonInt>
    325c:	4830      	ldr	r0, [pc, #192]	; (3320 <vDebugUsageFaultHandler+0x134>)
    325e:	f000 fa9c 	bl	379a <vDebugNonInt>
    3262:	2108      	movs	r1, #8
    3264:	4638      	mov	r0, r7
    3266:	f000 fa9a 	bl	379e <vDebugHexNonInt>
    326a:	4829      	ldr	r0, [pc, #164]	; (3310 <vDebugUsageFaultHandler+0x124>)
    326c:	f000 fa95 	bl	379a <vDebugNonInt>
    3270:	482c      	ldr	r0, [pc, #176]	; (3324 <vDebugUsageFaultHandler+0x138>)
    3272:	f000 fa92 	bl	379a <vDebugNonInt>
    3276:	2108      	movs	r1, #8
    3278:	4630      	mov	r0, r6
    327a:	f000 fa90 	bl	379e <vDebugHexNonInt>
    327e:	482a      	ldr	r0, [pc, #168]	; (3328 <vDebugUsageFaultHandler+0x13c>)
    3280:	f000 fa8b 	bl	379a <vDebugNonInt>
    3284:	4829      	ldr	r0, [pc, #164]	; (332c <vDebugUsageFaultHandler+0x140>)
    3286:	f000 fa88 	bl	379a <vDebugNonInt>
    328a:	2108      	movs	r1, #8
    328c:	4628      	mov	r0, r5
    328e:	f000 fa86 	bl	379e <vDebugHexNonInt>
    3292:	4827      	ldr	r0, [pc, #156]	; (3330 <vDebugUsageFaultHandler+0x144>)
    3294:	f000 fa81 	bl	379a <vDebugNonInt>
    3298:	4826      	ldr	r0, [pc, #152]	; (3334 <vDebugUsageFaultHandler+0x148>)
    329a:	f000 fa7e 	bl	379a <vDebugNonInt>
    329e:	2108      	movs	r1, #8
    32a0:	4620      	mov	r0, r4
    32a2:	f000 fa7c 	bl	379e <vDebugHexNonInt>
    32a6:	481a      	ldr	r0, [pc, #104]	; (3310 <vDebugUsageFaultHandler+0x124>)
    32a8:	f000 fa77 	bl	379a <vDebugNonInt>
    32ac:	4b22      	ldr	r3, [pc, #136]	; (3338 <vDebugUsageFaultHandler+0x14c>)
    32ae:	4823      	ldr	r0, [pc, #140]	; (333c <vDebugUsageFaultHandler+0x150>)
    32b0:	681b      	ldr	r3, [r3, #0]
    32b2:	9301      	str	r3, [sp, #4]
    32b4:	f000 fa71 	bl	379a <vDebugNonInt>
    32b8:	2108      	movs	r1, #8
    32ba:	9801      	ldr	r0, [sp, #4]
    32bc:	f000 fa6f 	bl	379e <vDebugHexNonInt>
    32c0:	481f      	ldr	r0, [pc, #124]	; (3340 <vDebugUsageFaultHandler+0x154>)
    32c2:	f000 fa6a 	bl	379a <vDebugNonInt>
    32c6:	9801      	ldr	r0, [sp, #4]
    32c8:	f7ff fdba 	bl	2e40 <vPrintSystemHandlerAndControlStateRegisterBitFields>
    32cc:	4b1d      	ldr	r3, [pc, #116]	; (3344 <vDebugUsageFaultHandler+0x158>)
    32ce:	481e      	ldr	r0, [pc, #120]	; (3348 <vDebugUsageFaultHandler+0x15c>)
    32d0:	681b      	ldr	r3, [r3, #0]
    32d2:	9301      	str	r3, [sp, #4]
    32d4:	f000 fa61 	bl	379a <vDebugNonInt>
    32d8:	2108      	movs	r1, #8
    32da:	9801      	ldr	r0, [sp, #4]
    32dc:	f000 fa5f 	bl	379e <vDebugHexNonInt>
    32e0:	480b      	ldr	r0, [pc, #44]	; (3310 <vDebugUsageFaultHandler+0x124>)
    32e2:	f000 fa5a 	bl	379a <vDebugNonInt>
    32e6:	4819      	ldr	r0, [pc, #100]	; (334c <vDebugUsageFaultHandler+0x160>)
    32e8:	f000 fa57 	bl	379a <vDebugNonInt>
    32ec:	9801      	ldr	r0, [sp, #4]
    32ee:	f7ff fe0b 	bl	2f08 <vPrintConfigurableFaultStatusRegisterBitFields>
    32f2:	4b17      	ldr	r3, [pc, #92]	; (3350 <vDebugUsageFaultHandler+0x164>)
    32f4:	681b      	ldr	r3, [r3, #0]
    32f6:	07db      	lsls	r3, r3, #31
    32f8:	d500      	bpl.n	32fc <vDebugUsageFaultHandler+0x110>
    32fa:	be00      	bkpt	0x0000
    32fc:	f3ef 8008 	mrs	r0, MSP
    3300:	f7ff fd38 	bl	2d74 <ExceptionUnwindStack>
    3304:	00008c5a 	.word	0x00008c5a
    3308:	00008aeb 	.word	0x00008aeb
    330c:	00008b0f 	.word	0x00008b0f
    3310:	00008b0c 	.word	0x00008b0c
    3314:	00008b17 	.word	0x00008b17
    3318:	00008b1f 	.word	0x00008b1f
    331c:	00008b27 	.word	0x00008b27
    3320:	00008b2f 	.word	0x00008b2f
    3324:	00008b38 	.word	0x00008b38
    3328:	00008b46 	.word	0x00008b46
    332c:	00008b6a 	.word	0x00008b6a
    3330:	00008b78 	.word	0x00008b78
    3334:	00008b8d 	.word	0x00008b8d
    3338:	e000ed24 	.word	0xe000ed24
    333c:	00008b96 	.word	0x00008b96
    3340:	00008bba 	.word	0x00008bba
    3344:	e000ed28 	.word	0xe000ed28
    3348:	00008c06 	.word	0x00008c06
    334c:	00008c29 	.word	0x00008c29
    3350:	e000edf0 	.word	0xe000edf0

00003354 <vDebugMemoryFaultHandler>:
    3354:	e92d 4887 	stmdb	sp!, {r0, r1, r2, r7, fp, lr}
    3358:	e9d0 9802 	ldrd	r9, r8, [r0, #8]
    335c:	e9d0 ba00 	ldrd	fp, sl, [r0]
    3360:	e9d0 7604 	ldrd	r7, r6, [r0, #16]
    3364:	e9d0 5406 	ldrd	r5, r4, [r0, #24]
    3368:	4847      	ldr	r0, [pc, #284]	; (3488 <vDebugMemoryFaultHandler+0x134>)
    336a:	f000 fa16 	bl	379a <vDebugNonInt>
    336e:	4847      	ldr	r0, [pc, #284]	; (348c <vDebugMemoryFaultHandler+0x138>)
    3370:	f000 fa13 	bl	379a <vDebugNonInt>
    3374:	4846      	ldr	r0, [pc, #280]	; (3490 <vDebugMemoryFaultHandler+0x13c>)
    3376:	f000 fa10 	bl	379a <vDebugNonInt>
    337a:	2108      	movs	r1, #8
    337c:	4658      	mov	r0, fp
    337e:	f000 fa0e 	bl	379e <vDebugHexNonInt>
    3382:	4844      	ldr	r0, [pc, #272]	; (3494 <vDebugMemoryFaultHandler+0x140>)
    3384:	f000 fa09 	bl	379a <vDebugNonInt>
    3388:	4843      	ldr	r0, [pc, #268]	; (3498 <vDebugMemoryFaultHandler+0x144>)
    338a:	f000 fa06 	bl	379a <vDebugNonInt>
    338e:	2108      	movs	r1, #8
    3390:	4650      	mov	r0, sl
    3392:	f000 fa04 	bl	379e <vDebugHexNonInt>
    3396:	483f      	ldr	r0, [pc, #252]	; (3494 <vDebugMemoryFaultHandler+0x140>)
    3398:	f000 f9ff 	bl	379a <vDebugNonInt>
    339c:	483f      	ldr	r0, [pc, #252]	; (349c <vDebugMemoryFaultHandler+0x148>)
    339e:	f000 f9fc 	bl	379a <vDebugNonInt>
    33a2:	2108      	movs	r1, #8
    33a4:	4648      	mov	r0, r9
    33a6:	f000 f9fa 	bl	379e <vDebugHexNonInt>
    33aa:	483a      	ldr	r0, [pc, #232]	; (3494 <vDebugMemoryFaultHandler+0x140>)
    33ac:	f000 f9f5 	bl	379a <vDebugNonInt>
    33b0:	483b      	ldr	r0, [pc, #236]	; (34a0 <vDebugMemoryFaultHandler+0x14c>)
    33b2:	f000 f9f2 	bl	379a <vDebugNonInt>
    33b6:	2108      	movs	r1, #8
    33b8:	4640      	mov	r0, r8
    33ba:	f000 f9f0 	bl	379e <vDebugHexNonInt>
    33be:	4835      	ldr	r0, [pc, #212]	; (3494 <vDebugMemoryFaultHandler+0x140>)
    33c0:	f000 f9eb 	bl	379a <vDebugNonInt>
    33c4:	4837      	ldr	r0, [pc, #220]	; (34a4 <vDebugMemoryFaultHandler+0x150>)
    33c6:	f000 f9e8 	bl	379a <vDebugNonInt>
    33ca:	2108      	movs	r1, #8
    33cc:	4638      	mov	r0, r7
    33ce:	f000 f9e6 	bl	379e <vDebugHexNonInt>
    33d2:	4830      	ldr	r0, [pc, #192]	; (3494 <vDebugMemoryFaultHandler+0x140>)
    33d4:	f000 f9e1 	bl	379a <vDebugNonInt>
    33d8:	4833      	ldr	r0, [pc, #204]	; (34a8 <vDebugMemoryFaultHandler+0x154>)
    33da:	f000 f9de 	bl	379a <vDebugNonInt>
    33de:	2108      	movs	r1, #8
    33e0:	4630      	mov	r0, r6
    33e2:	f000 f9dc 	bl	379e <vDebugHexNonInt>
    33e6:	4831      	ldr	r0, [pc, #196]	; (34ac <vDebugMemoryFaultHandler+0x158>)
    33e8:	f000 f9d7 	bl	379a <vDebugNonInt>
    33ec:	4830      	ldr	r0, [pc, #192]	; (34b0 <vDebugMemoryFaultHandler+0x15c>)
    33ee:	f000 f9d4 	bl	379a <vDebugNonInt>
    33f2:	2108      	movs	r1, #8
    33f4:	4628      	mov	r0, r5
    33f6:	f000 f9d2 	bl	379e <vDebugHexNonInt>
    33fa:	482e      	ldr	r0, [pc, #184]	; (34b4 <vDebugMemoryFaultHandler+0x160>)
    33fc:	f000 f9cd 	bl	379a <vDebugNonInt>
    3400:	482d      	ldr	r0, [pc, #180]	; (34b8 <vDebugMemoryFaultHandler+0x164>)
    3402:	f000 f9ca 	bl	379a <vDebugNonInt>
    3406:	2108      	movs	r1, #8
    3408:	4620      	mov	r0, r4
    340a:	f000 f9c8 	bl	379e <vDebugHexNonInt>
    340e:	4821      	ldr	r0, [pc, #132]	; (3494 <vDebugMemoryFaultHandler+0x140>)
    3410:	f000 f9c3 	bl	379a <vDebugNonInt>
    3414:	4b29      	ldr	r3, [pc, #164]	; (34bc <vDebugMemoryFaultHandler+0x168>)
    3416:	482a      	ldr	r0, [pc, #168]	; (34c0 <vDebugMemoryFaultHandler+0x16c>)
    3418:	681b      	ldr	r3, [r3, #0]
    341a:	9301      	str	r3, [sp, #4]
    341c:	f000 f9bd 	bl	379a <vDebugNonInt>
    3420:	2108      	movs	r1, #8
    3422:	9801      	ldr	r0, [sp, #4]
    3424:	f000 f9bb 	bl	379e <vDebugHexNonInt>
    3428:	4826      	ldr	r0, [pc, #152]	; (34c4 <vDebugMemoryFaultHandler+0x170>)
    342a:	f000 f9b6 	bl	379a <vDebugNonInt>
    342e:	9801      	ldr	r0, [sp, #4]
    3430:	f7ff fd06 	bl	2e40 <vPrintSystemHandlerAndControlStateRegisterBitFields>
    3434:	4b24      	ldr	r3, [pc, #144]	; (34c8 <vDebugMemoryFaultHandler+0x174>)
    3436:	4825      	ldr	r0, [pc, #148]	; (34cc <vDebugMemoryFaultHandler+0x178>)
    3438:	681b      	ldr	r3, [r3, #0]
    343a:	9301      	str	r3, [sp, #4]
    343c:	f000 f9ad 	bl	379a <vDebugNonInt>
    3440:	2108      	movs	r1, #8
    3442:	9801      	ldr	r0, [sp, #4]
    3444:	f000 f9ab 	bl	379e <vDebugHexNonInt>
    3448:	4812      	ldr	r0, [pc, #72]	; (3494 <vDebugMemoryFaultHandler+0x140>)
    344a:	f000 f9a6 	bl	379a <vDebugNonInt>
    344e:	4b20      	ldr	r3, [pc, #128]	; (34d0 <vDebugMemoryFaultHandler+0x17c>)
    3450:	4820      	ldr	r0, [pc, #128]	; (34d4 <vDebugMemoryFaultHandler+0x180>)
    3452:	681b      	ldr	r3, [r3, #0]
    3454:	9301      	str	r3, [sp, #4]
    3456:	f000 f9a0 	bl	379a <vDebugNonInt>
    345a:	2108      	movs	r1, #8
    345c:	9801      	ldr	r0, [sp, #4]
    345e:	f000 f99e 	bl	379e <vDebugHexNonInt>
    3462:	480c      	ldr	r0, [pc, #48]	; (3494 <vDebugMemoryFaultHandler+0x140>)
    3464:	f000 f999 	bl	379a <vDebugNonInt>
    3468:	481b      	ldr	r0, [pc, #108]	; (34d8 <vDebugMemoryFaultHandler+0x184>)
    346a:	f000 f996 	bl	379a <vDebugNonInt>
    346e:	9801      	ldr	r0, [sp, #4]
    3470:	f7ff fd4a 	bl	2f08 <vPrintConfigurableFaultStatusRegisterBitFields>
    3474:	4b19      	ldr	r3, [pc, #100]	; (34dc <vDebugMemoryFaultHandler+0x188>)
    3476:	681b      	ldr	r3, [r3, #0]
    3478:	07db      	lsls	r3, r3, #31
    347a:	d500      	bpl.n	347e <vDebugMemoryFaultHandler+0x12a>
    347c:	be00      	bkpt	0x0000
    347e:	f3ef 8008 	mrs	r0, MSP
    3482:	f7ff fc77 	bl	2d74 <ExceptionUnwindStack>
    3486:	bf00      	nop
    3488:	00008c7e 	.word	0x00008c7e
    348c:	00008aeb 	.word	0x00008aeb
    3490:	00008b0f 	.word	0x00008b0f
    3494:	00008b0c 	.word	0x00008b0c
    3498:	00008b17 	.word	0x00008b17
    349c:	00008b1f 	.word	0x00008b1f
    34a0:	00008b27 	.word	0x00008b27
    34a4:	00008b2f 	.word	0x00008b2f
    34a8:	00008b38 	.word	0x00008b38
    34ac:	00008b46 	.word	0x00008b46
    34b0:	00008b6a 	.word	0x00008b6a
    34b4:	00008b78 	.word	0x00008b78
    34b8:	00008b8d 	.word	0x00008b8d
    34bc:	e000ed24 	.word	0xe000ed24
    34c0:	00008b96 	.word	0x00008b96
    34c4:	00008bba 	.word	0x00008bba
    34c8:	e000ed34 	.word	0xe000ed34
    34cc:	00008ca3 	.word	0x00008ca3
    34d0:	e000ed28 	.word	0xe000ed28
    34d4:	00008c06 	.word	0x00008c06
    34d8:	00008c29 	.word	0x00008c29
    34dc:	e000edf0 	.word	0xe000edf0

000034e0 <vPrintHardFaultStatusRegisterBitFields>:
    34e0:	b510      	push	{r4, lr}
    34e2:	4604      	mov	r4, r0
    34e4:	480c      	ldr	r0, [pc, #48]	; (3518 <vPrintHardFaultStatusRegisterBitFields+0x38>)
    34e6:	f000 f958 	bl	379a <vDebugNonInt>
    34ea:	480c      	ldr	r0, [pc, #48]	; (351c <vPrintHardFaultStatusRegisterBitFields+0x3c>)
    34ec:	f000 f955 	bl	379a <vDebugNonInt>
    34f0:	f004 0002 	and.w	r0, r4, #2
    34f4:	f7ff fc9a 	bl	2e2c <vPrintRegisterBit>
    34f8:	4809      	ldr	r0, [pc, #36]	; (3520 <vPrintHardFaultStatusRegisterBitFields+0x40>)
    34fa:	f000 f94e 	bl	379a <vDebugNonInt>
    34fe:	f004 4080 	and.w	r0, r4, #1073741824	; 0x40000000
    3502:	f7ff fc93 	bl	2e2c <vPrintRegisterBit>
    3506:	4807      	ldr	r0, [pc, #28]	; (3524 <vPrintHardFaultStatusRegisterBitFields+0x44>)
    3508:	f000 f947 	bl	379a <vDebugNonInt>
    350c:	f004 4000 	and.w	r0, r4, #2147483648	; 0x80000000
    3510:	e8bd 4010 	ldmia.w	sp!, {r4, lr}
    3514:	f7ff bc8a 	b.w	2e2c <vPrintRegisterBit>
    3518:	00008cc4 	.word	0x00008cc4
    351c:	00008ce0 	.word	0x00008ce0
    3520:	00008ceb 	.word	0x00008ceb
    3524:	00008cf5 	.word	0x00008cf5

00003528 <vDebugHardFaultHandler>:
    3528:	e92d 4887 	stmdb	sp!, {r0, r1, r2, r7, fp, lr}
    352c:	e9d0 9802 	ldrd	r9, r8, [r0, #8]
    3530:	e9d0 ba00 	ldrd	fp, sl, [r0]
    3534:	e9d0 7604 	ldrd	r7, r6, [r0, #16]
    3538:	e9d0 5406 	ldrd	r5, r4, [r0, #24]
    353c:	4865      	ldr	r0, [pc, #404]	; (36d4 <vDebugHardFaultHandler+0x1ac>)
    353e:	f000 f92c 	bl	379a <vDebugNonInt>
    3542:	4865      	ldr	r0, [pc, #404]	; (36d8 <vDebugHardFaultHandler+0x1b0>)
    3544:	f000 f929 	bl	379a <vDebugNonInt>
    3548:	4864      	ldr	r0, [pc, #400]	; (36dc <vDebugHardFaultHandler+0x1b4>)
    354a:	f000 f926 	bl	379a <vDebugNonInt>
    354e:	2108      	movs	r1, #8
    3550:	4658      	mov	r0, fp
    3552:	f000 f924 	bl	379e <vDebugHexNonInt>
    3556:	4862      	ldr	r0, [pc, #392]	; (36e0 <vDebugHardFaultHandler+0x1b8>)
    3558:	f000 f91f 	bl	379a <vDebugNonInt>
    355c:	4861      	ldr	r0, [pc, #388]	; (36e4 <vDebugHardFaultHandler+0x1bc>)
    355e:	f000 f91c 	bl	379a <vDebugNonInt>
    3562:	2108      	movs	r1, #8
    3564:	4650      	mov	r0, sl
    3566:	f000 f91a 	bl	379e <vDebugHexNonInt>
    356a:	485d      	ldr	r0, [pc, #372]	; (36e0 <vDebugHardFaultHandler+0x1b8>)
    356c:	f000 f915 	bl	379a <vDebugNonInt>
    3570:	485d      	ldr	r0, [pc, #372]	; (36e8 <vDebugHardFaultHandler+0x1c0>)
    3572:	f000 f912 	bl	379a <vDebugNonInt>
    3576:	2108      	movs	r1, #8
    3578:	4648      	mov	r0, r9
    357a:	f000 f910 	bl	379e <vDebugHexNonInt>
    357e:	4858      	ldr	r0, [pc, #352]	; (36e0 <vDebugHardFaultHandler+0x1b8>)
    3580:	f000 f90b 	bl	379a <vDebugNonInt>
    3584:	4859      	ldr	r0, [pc, #356]	; (36ec <vDebugHardFaultHandler+0x1c4>)
    3586:	f000 f908 	bl	379a <vDebugNonInt>
    358a:	2108      	movs	r1, #8
    358c:	4640      	mov	r0, r8
    358e:	f000 f906 	bl	379e <vDebugHexNonInt>
    3592:	4853      	ldr	r0, [pc, #332]	; (36e0 <vDebugHardFaultHandler+0x1b8>)
    3594:	f000 f901 	bl	379a <vDebugNonInt>
    3598:	4855      	ldr	r0, [pc, #340]	; (36f0 <vDebugHardFaultHandler+0x1c8>)
    359a:	f000 f8fe 	bl	379a <vDebugNonInt>
    359e:	2108      	movs	r1, #8
    35a0:	4638      	mov	r0, r7
    35a2:	f000 f8fc 	bl	379e <vDebugHexNonInt>
    35a6:	484e      	ldr	r0, [pc, #312]	; (36e0 <vDebugHardFaultHandler+0x1b8>)
    35a8:	f000 f8f7 	bl	379a <vDebugNonInt>
    35ac:	4851      	ldr	r0, [pc, #324]	; (36f4 <vDebugHardFaultHandler+0x1cc>)
    35ae:	f000 f8f4 	bl	379a <vDebugNonInt>
    35b2:	2108      	movs	r1, #8
    35b4:	4630      	mov	r0, r6
    35b6:	f000 f8f2 	bl	379e <vDebugHexNonInt>
    35ba:	484f      	ldr	r0, [pc, #316]	; (36f8 <vDebugHardFaultHandler+0x1d0>)
    35bc:	f000 f8ed 	bl	379a <vDebugNonInt>
    35c0:	484e      	ldr	r0, [pc, #312]	; (36fc <vDebugHardFaultHandler+0x1d4>)
    35c2:	f000 f8ea 	bl	379a <vDebugNonInt>
    35c6:	2108      	movs	r1, #8
    35c8:	4628      	mov	r0, r5
    35ca:	f000 f8e8 	bl	379e <vDebugHexNonInt>
    35ce:	484c      	ldr	r0, [pc, #304]	; (3700 <vDebugHardFaultHandler+0x1d8>)
    35d0:	f000 f8e3 	bl	379a <vDebugNonInt>
    35d4:	484b      	ldr	r0, [pc, #300]	; (3704 <vDebugHardFaultHandler+0x1dc>)
    35d6:	f000 f8e0 	bl	379a <vDebugNonInt>
    35da:	2108      	movs	r1, #8
    35dc:	4620      	mov	r0, r4
    35de:	f000 f8de 	bl	379e <vDebugHexNonInt>
    35e2:	483f      	ldr	r0, [pc, #252]	; (36e0 <vDebugHardFaultHandler+0x1b8>)
    35e4:	f000 f8d9 	bl	379a <vDebugNonInt>
    35e8:	4b47      	ldr	r3, [pc, #284]	; (3708 <vDebugHardFaultHandler+0x1e0>)
    35ea:	4848      	ldr	r0, [pc, #288]	; (370c <vDebugHardFaultHandler+0x1e4>)
    35ec:	681b      	ldr	r3, [r3, #0]
    35ee:	9301      	str	r3, [sp, #4]
    35f0:	f000 f8d3 	bl	379a <vDebugNonInt>
    35f4:	2108      	movs	r1, #8
    35f6:	9801      	ldr	r0, [sp, #4]
    35f8:	f000 f8d1 	bl	379e <vDebugHexNonInt>
    35fc:	4838      	ldr	r0, [pc, #224]	; (36e0 <vDebugHardFaultHandler+0x1b8>)
    35fe:	f000 f8cc 	bl	379a <vDebugNonInt>
    3602:	4843      	ldr	r0, [pc, #268]	; (3710 <vDebugHardFaultHandler+0x1e8>)
    3604:	f000 f8c9 	bl	379a <vDebugNonInt>
    3608:	9801      	ldr	r0, [sp, #4]
    360a:	f7ff fc19 	bl	2e40 <vPrintSystemHandlerAndControlStateRegisterBitFields>
    360e:	4b41      	ldr	r3, [pc, #260]	; (3714 <vDebugHardFaultHandler+0x1ec>)
    3610:	4841      	ldr	r0, [pc, #260]	; (3718 <vDebugHardFaultHandler+0x1f0>)
    3612:	681b      	ldr	r3, [r3, #0]
    3614:	9301      	str	r3, [sp, #4]
    3616:	f000 f8c0 	bl	379a <vDebugNonInt>
    361a:	2108      	movs	r1, #8
    361c:	9801      	ldr	r0, [sp, #4]
    361e:	f000 f8be 	bl	379e <vDebugHexNonInt>
    3622:	482f      	ldr	r0, [pc, #188]	; (36e0 <vDebugHardFaultHandler+0x1b8>)
    3624:	f000 f8b9 	bl	379a <vDebugNonInt>
    3628:	4b3c      	ldr	r3, [pc, #240]	; (371c <vDebugHardFaultHandler+0x1f4>)
    362a:	483d      	ldr	r0, [pc, #244]	; (3720 <vDebugHardFaultHandler+0x1f8>)
    362c:	681b      	ldr	r3, [r3, #0]
    362e:	9301      	str	r3, [sp, #4]
    3630:	f000 f8b3 	bl	379a <vDebugNonInt>
    3634:	2108      	movs	r1, #8
    3636:	9801      	ldr	r0, [sp, #4]
    3638:	f000 f8b1 	bl	379e <vDebugHexNonInt>
    363c:	4828      	ldr	r0, [pc, #160]	; (36e0 <vDebugHardFaultHandler+0x1b8>)
    363e:	f000 f8ac 	bl	379a <vDebugNonInt>
    3642:	4b38      	ldr	r3, [pc, #224]	; (3724 <vDebugHardFaultHandler+0x1fc>)
    3644:	4838      	ldr	r0, [pc, #224]	; (3728 <vDebugHardFaultHandler+0x200>)
    3646:	681b      	ldr	r3, [r3, #0]
    3648:	9301      	str	r3, [sp, #4]
    364a:	f000 f8a6 	bl	379a <vDebugNonInt>
    364e:	2108      	movs	r1, #8
    3650:	9801      	ldr	r0, [sp, #4]
    3652:	f000 f8a4 	bl	379e <vDebugHexNonInt>
    3656:	4822      	ldr	r0, [pc, #136]	; (36e0 <vDebugHardFaultHandler+0x1b8>)
    3658:	f000 f89f 	bl	379a <vDebugNonInt>
    365c:	4833      	ldr	r0, [pc, #204]	; (372c <vDebugHardFaultHandler+0x204>)
    365e:	f000 f89c 	bl	379a <vDebugNonInt>
    3662:	9801      	ldr	r0, [sp, #4]
    3664:	f7ff fc50 	bl	2f08 <vPrintConfigurableFaultStatusRegisterBitFields>
    3668:	4b31      	ldr	r3, [pc, #196]	; (3730 <vDebugHardFaultHandler+0x208>)
    366a:	4832      	ldr	r0, [pc, #200]	; (3734 <vDebugHardFaultHandler+0x20c>)
    366c:	681b      	ldr	r3, [r3, #0]
    366e:	9301      	str	r3, [sp, #4]
    3670:	f000 f893 	bl	379a <vDebugNonInt>
    3674:	2108      	movs	r1, #8
    3676:	9801      	ldr	r0, [sp, #4]
    3678:	f000 f891 	bl	379e <vDebugHexNonInt>
    367c:	4818      	ldr	r0, [pc, #96]	; (36e0 <vDebugHardFaultHandler+0x1b8>)
    367e:	f000 f88c 	bl	379a <vDebugNonInt>
    3682:	482d      	ldr	r0, [pc, #180]	; (3738 <vDebugHardFaultHandler+0x210>)
    3684:	f000 f889 	bl	379a <vDebugNonInt>
    3688:	9801      	ldr	r0, [sp, #4]
    368a:	f7ff ff29 	bl	34e0 <vPrintHardFaultStatusRegisterBitFields>
    368e:	4b2b      	ldr	r3, [pc, #172]	; (373c <vDebugHardFaultHandler+0x214>)
    3690:	482b      	ldr	r0, [pc, #172]	; (3740 <vDebugHardFaultHandler+0x218>)
    3692:	681b      	ldr	r3, [r3, #0]
    3694:	9301      	str	r3, [sp, #4]
    3696:	f000 f880 	bl	379a <vDebugNonInt>
    369a:	2108      	movs	r1, #8
    369c:	9801      	ldr	r0, [sp, #4]
    369e:	f000 f87e 	bl	379e <vDebugHexNonInt>
    36a2:	480f      	ldr	r0, [pc, #60]	; (36e0 <vDebugHardFaultHandler+0x1b8>)
    36a4:	f000 f879 	bl	379a <vDebugNonInt>
    36a8:	4b26      	ldr	r3, [pc, #152]	; (3744 <vDebugHardFaultHandler+0x21c>)
    36aa:	4827      	ldr	r0, [pc, #156]	; (3748 <vDebugHardFaultHandler+0x220>)
    36ac:	681b      	ldr	r3, [r3, #0]
    36ae:	9301      	str	r3, [sp, #4]
    36b0:	f000 f873 	bl	379a <vDebugNonInt>
    36b4:	9801      	ldr	r0, [sp, #4]
    36b6:	2108      	movs	r1, #8
    36b8:	f000 f871 	bl	379e <vDebugHexNonInt>
    36bc:	4808      	ldr	r0, [pc, #32]	; (36e0 <vDebugHardFaultHandler+0x1b8>)
    36be:	f000 f86c 	bl	379a <vDebugNonInt>
    36c2:	4b22      	ldr	r3, [pc, #136]	; (374c <vDebugHardFaultHandler+0x224>)
    36c4:	681b      	ldr	r3, [r3, #0]
    36c6:	07db      	lsls	r3, r3, #31
    36c8:	d500      	bpl.n	36cc <vDebugHardFaultHandler+0x1a4>
    36ca:	be00      	bkpt	0x0000
    36cc:	f3ef 8008 	mrs	r0, MSP
    36d0:	f7ff fb50 	bl	2d74 <ExceptionUnwindStack>
    36d4:	00008d01 	.word	0x00008d01
    36d8:	00008aeb 	.word	0x00008aeb
    36dc:	00008b0f 	.word	0x00008b0f
    36e0:	00008b0c 	.word	0x00008b0c
    36e4:	00008b17 	.word	0x00008b17
    36e8:	00008b1f 	.word	0x00008b1f
    36ec:	00008b27 	.word	0x00008b27
    36f0:	00008b2f 	.word	0x00008b2f
    36f4:	00008b38 	.word	0x00008b38
    36f8:	00008b46 	.word	0x00008b46
    36fc:	00008b6a 	.word	0x00008b6a
    3700:	00008b78 	.word	0x00008b78
    3704:	00008b8d 	.word	0x00008b8d
    3708:	e000ed24 	.word	0xe000ed24
    370c:	00008b96 	.word	0x00008b96
    3710:	00008bba 	.word	0x00008bba
    3714:	e000ed38 	.word	0xe000ed38
    3718:	00008bec 	.word	0x00008bec
    371c:	e000ed34 	.word	0xe000ed34
    3720:	00008ca3 	.word	0x00008ca3
    3724:	e000ed28 	.word	0xe000ed28
    3728:	00008c06 	.word	0x00008c06
    372c:	00008c29 	.word	0x00008c29
    3730:	e000ed2c 	.word	0xe000ed2c
    3734:	00008d24 	.word	0x00008d24
    3738:	00008d3e 	.word	0x00008d3e
    373c:	e000ed30 	.word	0xe000ed30
    3740:	00008d66 	.word	0x00008d66
    3744:	e000ed3c 	.word	0xe000ed3c
    3748:	00008d82 	.word	0x00008d82
    374c:	e000edf0 	.word	0xe000edf0

00003750 <vDebugInit>:
    3750:	4770      	bx	lr

00003752 <vDebugHex>:
    3752:	b57f      	push	{r0, r1, r2, r3, r4, r5, r6, lr}
    3754:	0089      	lsls	r1, r1, #2
    3756:	ac01      	add	r4, sp, #4
    3758:	4605      	mov	r5, r0
    375a:	1f0b      	subs	r3, r1, #4
    375c:	4620      	mov	r0, r4
    375e:	2b00      	cmp	r3, #0
    3760:	da0d      	bge.n	377e <vDebugHex+0x2c>
    3762:	2900      	cmp	r1, #0
    3764:	ea4f 0391 	mov.w	r3, r1, lsr #2
    3768:	aa04      	add	r2, sp, #16
    376a:	bfb8      	it	lt
    376c:	2300      	movlt	r3, #0
    376e:	4413      	add	r3, r2
    3770:	2200      	movs	r2, #0
    3772:	f803 2c0c 	strb.w	r2, [r3, #-12]
    3776:	f7fd fe8d 	bl	1494 <DbgConsole_Printf>
    377a:	b004      	add	sp, #16
    377c:	bd70      	pop	{r4, r5, r6, pc}
    377e:	fa25 f203 	lsr.w	r2, r5, r3
    3782:	f002 020f 	and.w	r2, r2, #15
    3786:	f102 0630 	add.w	r6, r2, #48	; 0x30
    378a:	2e39      	cmp	r6, #57	; 0x39
    378c:	bf88      	it	hi
    378e:	f102 0637 	addhi.w	r6, r2, #55	; 0x37
    3792:	f804 6b01 	strb.w	r6, [r4], #1
    3796:	3b04      	subs	r3, #4
    3798:	e7e1      	b.n	375e <vDebugHex+0xc>

0000379a <vDebugNonInt>:
    379a:	f7fd be7b 	b.w	1494 <DbgConsole_Printf>

0000379e <vDebugHexNonInt>:
    379e:	f7ff bfd8 	b.w	3752 <vDebugHex>

000037a2 <FLib_MemCpy>:
    37a2:	3901      	subs	r1, #1
    37a4:	4402      	add	r2, r0
    37a6:	4290      	cmp	r0, r2
    37a8:	d100      	bne.n	37ac <FLib_MemCpy+0xa>
    37aa:	4770      	bx	lr
    37ac:	f811 3f01 	ldrb.w	r3, [r1, #1]!
    37b0:	f800 3b01 	strb.w	r3, [r0], #1
    37b4:	e7f7      	b.n	37a6 <FLib_MemCpy+0x4>

000037b6 <FLib_MemCmp>:
    37b6:	b530      	push	{r4, r5, lr}
    37b8:	2300      	movs	r3, #0
    37ba:	3901      	subs	r1, #1
    37bc:	429a      	cmp	r2, r3
    37be:	d101      	bne.n	37c4 <FLib_MemCmp+0xe>
    37c0:	2001      	movs	r0, #1
    37c2:	bd30      	pop	{r4, r5, pc}
    37c4:	5cc4      	ldrb	r4, [r0, r3]
    37c6:	3301      	adds	r3, #1
    37c8:	5ccd      	ldrb	r5, [r1, r3]
    37ca:	42a5      	cmp	r5, r4
    37cc:	d0f6      	beq.n	37bc <FLib_MemCmp+0x6>
    37ce:	2000      	movs	r0, #0
    37d0:	e7f7      	b.n	37c2 <FLib_MemCmp+0xc>
    37d2:	Address 0x000037d2 is out of bounds.


000037d4 <AES_128_ECB_Encrypt>:
    37d4:	b570      	push	{r4, r5, r6, lr}
    37d6:	460e      	mov	r6, r1
    37d8:	4604      	mov	r4, r0
    37da:	461d      	mov	r5, r3
    37dc:	4611      	mov	r1, r2
    37de:	b11a      	cbz	r2, 37e8 <AES_128_ECB_Encrypt+0x14>
    37e0:	4805      	ldr	r0, [pc, #20]	; (37f8 <AES_128_ECB_Encrypt+0x24>)
    37e2:	2210      	movs	r2, #16
    37e4:	f7ff f924 	bl	2a30 <AES_SetKey>
    37e8:	4633      	mov	r3, r6
    37ea:	462a      	mov	r2, r5
    37ec:	4621      	mov	r1, r4
    37ee:	4802      	ldr	r0, [pc, #8]	; (37f8 <AES_128_ECB_Encrypt+0x24>)
    37f0:	e8bd 4070 	ldmia.w	sp!, {r4, r5, r6, lr}
    37f4:	f7ff b94a 	b.w	2a8c <AES_EncryptEcb>
    37f8:	40086000 	.word	0x40086000

000037fc <bACI_WriteKey>:
    37fc:	b508      	push	{r3, lr}
    37fe:	4601      	mov	r1, r0
    3800:	2210      	movs	r2, #16
    3802:	4802      	ldr	r0, [pc, #8]	; (380c <bACI_WriteKey+0x10>)
    3804:	f7ff ffcd 	bl	37a2 <FLib_MemCpy>
    3808:	2001      	movs	r0, #1
    380a:	bd08      	pop	{r3, pc}
    380c:	04015f00 	.word	0x04015f00

00003810 <vACI_OptimisedCcmStar>:
    3810:	e92d 4ff0 	stmdb	sp!, {r4, r5, r6, r7, r8, r9, sl, fp, lr}
    3814:	b08f      	sub	sp, #60	; 0x3c
    3816:	2910      	cmp	r1, #16
    3818:	9d18      	ldr	r5, [sp, #96]	; 0x60
    381a:	9001      	str	r0, [sp, #4]
    381c:	4616      	mov	r6, r2
    381e:	4698      	mov	r8, r3
    3820:	f200 8102 	bhi.w	3a28 <vACI_OptimisedCcmStar+0x218>
    3824:	f001 04fe 	and.w	r4, r1, #254	; 0xfe
    3828:	4603      	mov	r3, r0
    382a:	2800      	cmp	r0, #0
    382c:	d170      	bne.n	3910 <vACI_OptimisedCcmStar+0x100>
    382e:	2700      	movs	r7, #0
    3830:	2301      	movs	r3, #1
    3832:	f8dd a068 	ldr.w	sl, [sp, #104]	; 0x68
    3836:	4a7f      	ldr	r2, [pc, #508]	; (3a34 <vACI_OptimisedCcmStar+0x224>)
    3838:	702b      	strb	r3, [r5, #0]
    383a:	73af      	strb	r7, [r5, #14]
    383c:	46b9      	mov	r9, r7
    383e:	45b8      	cmp	r8, r7
    3840:	dc4e      	bgt.n	38e0 <vACI_OptimisedCcmStar+0xd0>
    3842:	2c00      	cmp	r4, #0
    3844:	d040      	beq.n	38c8 <vACI_OptimisedCcmStar+0xb8>
    3846:	2700      	movs	r7, #0
    3848:	ab02      	add	r3, sp, #8
    384a:	2110      	movs	r1, #16
    384c:	4a79      	ldr	r2, [pc, #484]	; (3a34 <vACI_OptimisedCcmStar+0x224>)
    384e:	81ef      	strh	r7, [r5, #14]
    3850:	4628      	mov	r0, r5
    3852:	f7ff ffbf 	bl	37d4 <AES_128_ECB_Encrypt>
    3856:	ab02      	add	r3, sp, #8
    3858:	a90a      	add	r1, sp, #40	; 0x28
    385a:	981b      	ldr	r0, [sp, #108]	; 0x6c
    385c:	f813 2b01 	ldrb.w	r2, [r3], #1
    3860:	5dc0      	ldrb	r0, [r0, r7]
    3862:	3701      	adds	r7, #1
    3864:	4042      	eors	r2, r0
    3866:	42bc      	cmp	r4, r7
    3868:	f801 2b01 	strb.w	r2, [r1], #1
    386c:	dcf5      	bgt.n	385a <vACI_OptimisedCcmStar+0x4a>
    386e:	2e00      	cmp	r6, #0
    3870:	bf14      	ite	ne
    3872:	2340      	movne	r3, #64	; 0x40
    3874:	2300      	moveq	r3, #0
    3876:	eb03 0384 	add.w	r3, r3, r4, lsl #2
    387a:	3b07      	subs	r3, #7
    387c:	702b      	strb	r3, [r5, #0]
    387e:	2300      	movs	r3, #0
    3880:	73ab      	strb	r3, [r5, #14]
    3882:	4a6c      	ldr	r2, [pc, #432]	; (3a34 <vACI_OptimisedCcmStar+0x224>)
    3884:	f885 800f 	strb.w	r8, [r5, #15]
    3888:	ab02      	add	r3, sp, #8
    388a:	2110      	movs	r1, #16
    388c:	4628      	mov	r0, r5
    388e:	f7ff ffa1 	bl	37d4 <AES_128_ECB_Encrypt>
    3892:	2e00      	cmp	r6, #0
    3894:	d062      	beq.n	395c <vACI_OptimisedCcmStar+0x14c>
    3896:	f89d 3009 	ldrb.w	r3, [sp, #9]
    389a:	4073      	eors	r3, r6
    389c:	f88d 3009 	strb.w	r3, [sp, #9]
    38a0:	2302      	movs	r3, #2
    38a2:	f8df 9194 	ldr.w	r9, [pc, #404]	; 3a38 <vACI_OptimisedCcmStar+0x228>
    38a6:	f8df a18c 	ldr.w	sl, [pc, #396]	; 3a34 <vACI_OptimisedCcmStar+0x224>
    38aa:	2700      	movs	r7, #0
    38ac:	42be      	cmp	r6, r7
    38ae:	dc57      	bgt.n	3960 <vACI_OptimisedCcmStar+0x150>
    38b0:	4f60      	ldr	r7, [pc, #384]	; (3a34 <vACI_OptimisedCcmStar+0x224>)
    38b2:	2600      	movs	r6, #0
    38b4:	45b0      	cmp	r8, r6
    38b6:	f300 8083 	bgt.w	39c0 <vACI_OptimisedCcmStar+0x1b0>
    38ba:	4622      	mov	r2, r4
    38bc:	a902      	add	r1, sp, #8
    38be:	a806      	add	r0, sp, #24
    38c0:	f7ff ff6f 	bl	37a2 <FLib_MemCpy>
    38c4:	9b01      	ldr	r3, [sp, #4]
    38c6:	bb2b      	cbnz	r3, 3914 <vACI_OptimisedCcmStar+0x104>
    38c8:	4622      	mov	r2, r4
    38ca:	a90a      	add	r1, sp, #40	; 0x28
    38cc:	a806      	add	r0, sp, #24
    38ce:	f7ff ff72 	bl	37b6 <FLib_MemCmp>
    38d2:	2800      	cmp	r0, #0
    38d4:	f000 80a5 	beq.w	3a22 <vACI_OptimisedCcmStar+0x212>
    38d8:	9a1c      	ldr	r2, [sp, #112]	; 0x70
    38da:	2301      	movs	r3, #1
    38dc:	7013      	strb	r3, [r2, #0]
    38de:	e03a      	b.n	3956 <vACI_OptimisedCcmStar+0x146>
    38e0:	f017 0b0f 	ands.w	fp, r7, #15
    38e4:	d109      	bne.n	38fa <vACI_OptimisedCcmStar+0xea>
    38e6:	f109 0901 	add.w	r9, r9, #1
    38ea:	f885 900f 	strb.w	r9, [r5, #15]
    38ee:	ab02      	add	r3, sp, #8
    38f0:	2110      	movs	r1, #16
    38f2:	4628      	mov	r0, r5
    38f4:	f7ff ff6e 	bl	37d4 <AES_128_ECB_Encrypt>
    38f8:	4a4e      	ldr	r2, [pc, #312]	; (3a34 <vACI_OptimisedCcmStar+0x224>)
    38fa:	ab0e      	add	r3, sp, #56	; 0x38
    38fc:	449b      	add	fp, r3
    38fe:	f89a 3000 	ldrb.w	r3, [sl]
    3902:	f81b 1c30 	ldrb.w	r1, [fp, #-48]
    3906:	404b      	eors	r3, r1
    3908:	f80a 3b01 	strb.w	r3, [sl], #1
    390c:	3701      	adds	r7, #1
    390e:	e796      	b.n	383e <vACI_OptimisedCcmStar+0x2e>
    3910:	2c00      	cmp	r4, #0
    3912:	d1ac      	bne.n	386e <vACI_OptimisedCcmStar+0x5e>
    3914:	2600      	movs	r6, #0
    3916:	2301      	movs	r3, #1
    3918:	f8df a118 	ldr.w	sl, [pc, #280]	; 3a34 <vACI_OptimisedCcmStar+0x224>
    391c:	702b      	strb	r3, [r5, #0]
    391e:	73ae      	strb	r6, [r5, #14]
    3920:	4637      	mov	r7, r6
    3922:	45b0      	cmp	r8, r6
    3924:	dc65      	bgt.n	39f2 <vACI_OptimisedCcmStar+0x1e2>
    3926:	2300      	movs	r3, #0
    3928:	81eb      	strh	r3, [r5, #14]
    392a:	b1a4      	cbz	r4, 3956 <vACI_OptimisedCcmStar+0x146>
    392c:	4a41      	ldr	r2, [pc, #260]	; (3a34 <vACI_OptimisedCcmStar+0x224>)
    392e:	ab02      	add	r3, sp, #8
    3930:	4628      	mov	r0, r5
    3932:	2110      	movs	r1, #16
    3934:	f7ff ff4e 	bl	37d4 <AES_128_ECB_Encrypt>
    3938:	9a1b      	ldr	r2, [sp, #108]	; 0x6c
    393a:	a806      	add	r0, sp, #24
    393c:	ab02      	add	r3, sp, #8
    393e:	4414      	add	r4, r2
    3940:	f813 1b01 	ldrb.w	r1, [r3], #1
    3944:	f810 2b01 	ldrb.w	r2, [r0], #1
    3948:	404a      	eors	r2, r1
    394a:	991b      	ldr	r1, [sp, #108]	; 0x6c
    394c:	f801 2b01 	strb.w	r2, [r1], #1
    3950:	42a1      	cmp	r1, r4
    3952:	911b      	str	r1, [sp, #108]	; 0x6c
    3954:	d1f4      	bne.n	3940 <vACI_OptimisedCcmStar+0x130>
    3956:	b00f      	add	sp, #60	; 0x3c
    3958:	e8bd 8ff0 	ldmia.w	sp!, {r4, r5, r6, r7, r8, r9, sl, fp, pc}
    395c:	4633      	mov	r3, r6
    395e:	e7a0      	b.n	38a2 <vACI_OptimisedCcmStar+0x92>
    3960:	aa0e      	add	r2, sp, #56	; 0x38
    3962:	18d1      	adds	r1, r2, r3
    3964:	9819      	ldr	r0, [sp, #100]	; 0x64
    3966:	f811 2c30 	ldrb.w	r2, [r1, #-48]
    396a:	5dc0      	ldrb	r0, [r0, r7]
    396c:	3301      	adds	r3, #1
    396e:	4042      	eors	r2, r0
    3970:	2b10      	cmp	r3, #16
    3972:	f801 2c30 	strb.w	r2, [r1, #-48]
    3976:	d002      	beq.n	397e <vACI_OptimisedCcmStar+0x16e>
    3978:	1e72      	subs	r2, r6, #1
    397a:	42ba      	cmp	r2, r7
    397c:	d11e      	bne.n	39bc <vACI_OptimisedCcmStar+0x1ac>
    397e:	f899 2000 	ldrb.w	r2, [r9]
    3982:	b1a2      	cbz	r2, 39ae <vACI_OptimisedCcmStar+0x19e>
    3984:	2b02      	cmp	r3, #2
    3986:	dc12      	bgt.n	39ae <vACI_OptimisedCcmStar+0x19e>
    3988:	9a19      	ldr	r2, [sp, #100]	; 0x64
    398a:	f1a6 030f 	sub.w	r3, r6, #15
    398e:	f003 03fe 	and.w	r3, r3, #254	; 0xfe
    3992:	4413      	add	r3, r2
    3994:	f10d 010a 	add.w	r1, sp, #10
    3998:	f103 000e 	add.w	r0, r3, #14
    399c:	780a      	ldrb	r2, [r1, #0]
    399e:	f813 cb01 	ldrb.w	ip, [r3], #1
    39a2:	ea82 020c 	eor.w	r2, r2, ip
    39a6:	4298      	cmp	r0, r3
    39a8:	f801 2b01 	strb.w	r2, [r1], #1
    39ac:	d1f6      	bne.n	399c <vACI_OptimisedCcmStar+0x18c>
    39ae:	ab02      	add	r3, sp, #8
    39b0:	4618      	mov	r0, r3
    39b2:	4652      	mov	r2, sl
    39b4:	2110      	movs	r1, #16
    39b6:	f7ff ff0d 	bl	37d4 <AES_128_ECB_Encrypt>
    39ba:	2300      	movs	r3, #0
    39bc:	3701      	adds	r7, #1
    39be:	e775      	b.n	38ac <vACI_OptimisedCcmStar+0x9c>
    39c0:	aa0e      	add	r2, sp, #56	; 0x38
    39c2:	18d1      	adds	r1, r2, r3
    39c4:	981a      	ldr	r0, [sp, #104]	; 0x68
    39c6:	f811 2c30 	ldrb.w	r2, [r1, #-48]
    39ca:	5d80      	ldrb	r0, [r0, r6]
    39cc:	3301      	adds	r3, #1
    39ce:	4042      	eors	r2, r0
    39d0:	2b10      	cmp	r3, #16
    39d2:	f801 2c30 	strb.w	r2, [r1, #-48]
    39d6:	d003      	beq.n	39e0 <vACI_OptimisedCcmStar+0x1d0>
    39d8:	f108 32ff 	add.w	r2, r8, #4294967295
    39dc:	42b2      	cmp	r2, r6
    39de:	d106      	bne.n	39ee <vACI_OptimisedCcmStar+0x1de>
    39e0:	ab02      	add	r3, sp, #8
    39e2:	4618      	mov	r0, r3
    39e4:	463a      	mov	r2, r7
    39e6:	2110      	movs	r1, #16
    39e8:	f7ff fef4 	bl	37d4 <AES_128_ECB_Encrypt>
    39ec:	2300      	movs	r3, #0
    39ee:	3601      	adds	r6, #1
    39f0:	e760      	b.n	38b4 <vACI_OptimisedCcmStar+0xa4>
    39f2:	f016 090f 	ands.w	r9, r6, #15
    39f6:	d107      	bne.n	3a08 <vACI_OptimisedCcmStar+0x1f8>
    39f8:	3701      	adds	r7, #1
    39fa:	73ef      	strb	r7, [r5, #15]
    39fc:	ab02      	add	r3, sp, #8
    39fe:	4652      	mov	r2, sl
    3a00:	2110      	movs	r1, #16
    3a02:	4628      	mov	r0, r5
    3a04:	f7ff fee6 	bl	37d4 <AES_128_ECB_Encrypt>
    3a08:	ab0e      	add	r3, sp, #56	; 0x38
    3a0a:	4499      	add	r9, r3
    3a0c:	9b1a      	ldr	r3, [sp, #104]	; 0x68
    3a0e:	f819 2c30 	ldrb.w	r2, [r9, #-48]
    3a12:	781b      	ldrb	r3, [r3, #0]
    3a14:	4053      	eors	r3, r2
    3a16:	9a1a      	ldr	r2, [sp, #104]	; 0x68
    3a18:	f802 3b01 	strb.w	r3, [r2], #1
    3a1c:	3601      	adds	r6, #1
    3a1e:	921a      	str	r2, [sp, #104]	; 0x68
    3a20:	e77f      	b.n	3922 <vACI_OptimisedCcmStar+0x112>
    3a22:	9b1c      	ldr	r3, [sp, #112]	; 0x70
    3a24:	7018      	strb	r0, [r3, #0]
    3a26:	e796      	b.n	3956 <vACI_OptimisedCcmStar+0x146>
    3a28:	9b01      	ldr	r3, [sp, #4]
    3a2a:	2410      	movs	r4, #16
    3a2c:	2b00      	cmp	r3, #0
    3a2e:	f47f af1e 	bne.w	386e <vACI_OptimisedCcmStar+0x5e>
    3a32:	e6fc      	b.n	382e <vACI_OptimisedCcmStar+0x1e>
    3a34:	04015f00 	.word	0x04015f00
    3a38:	04015efd 	.word	0x04015efd

00003a3c <CTIMER_GenericIRQHandler>:
    3a3c:	4b14      	ldr	r3, [pc, #80]	; (3a90 <CTIMER_GenericIRQHandler+0x54>)
    3a3e:	e92d 41f0 	stmdb	sp!, {r4, r5, r6, r7, r8, lr}
    3a42:	f853 3020 	ldr.w	r3, [r3, r0, lsl #2]
    3a46:	681e      	ldr	r6, [r3, #0]
    3a48:	601e      	str	r6, [r3, #0]
    3a4a:	4b12      	ldr	r3, [pc, #72]	; (3a94 <CTIMER_GenericIRQHandler+0x58>)
    3a4c:	5c1b      	ldrb	r3, [r3, r0]
    3a4e:	4604      	mov	r4, r0
    3a50:	b953      	cbnz	r3, 3a68 <CTIMER_GenericIRQHandler+0x2c>
    3a52:	4b11      	ldr	r3, [pc, #68]	; (3a98 <CTIMER_GenericIRQHandler+0x5c>)
    3a54:	f853 3020 	ldr.w	r3, [r3, r0, lsl #2]
    3a58:	681b      	ldr	r3, [r3, #0]
    3a5a:	b10b      	cbz	r3, 3a60 <CTIMER_GenericIRQHandler+0x24>
    3a5c:	4630      	mov	r0, r6
    3a5e:	4798      	blx	r3
    3a60:	f3bf 8f4f 	dsb	sy
    3a64:	e8bd 81f0 	ldmia.w	sp!, {r4, r5, r6, r7, r8, pc}
    3a68:	f8df 802c 	ldr.w	r8, [pc, #44]	; 3a98 <CTIMER_GenericIRQHandler+0x5c>
    3a6c:	2500      	movs	r5, #0
    3a6e:	2701      	movs	r7, #1
    3a70:	fa07 f305 	lsl.w	r3, r7, r5
    3a74:	4233      	tst	r3, r6
    3a76:	d006      	beq.n	3a86 <CTIMER_GenericIRQHandler+0x4a>
    3a78:	f858 3024 	ldr.w	r3, [r8, r4, lsl #2]
    3a7c:	f853 3025 	ldr.w	r3, [r3, r5, lsl #2]
    3a80:	b10b      	cbz	r3, 3a86 <CTIMER_GenericIRQHandler+0x4a>
    3a82:	4630      	mov	r0, r6
    3a84:	4798      	blx	r3
    3a86:	3501      	adds	r5, #1
    3a88:	2d06      	cmp	r5, #6
    3a8a:	d1f1      	bne.n	3a70 <CTIMER_GenericIRQHandler+0x34>
    3a8c:	e7e8      	b.n	3a60 <CTIMER_GenericIRQHandler+0x24>
    3a8e:	bf00      	nop
    3a90:	00008da4 	.word	0x00008da4
    3a94:	04015f10 	.word	0x04015f10
    3a98:	04015f14 	.word	0x04015f14

00003a9c <CTIMER0_DriverIRQHandler>:
    3a9c:	b508      	push	{r3, lr}
    3a9e:	2000      	movs	r0, #0
    3aa0:	f7ff ffcc 	bl	3a3c <CTIMER_GenericIRQHandler>
    3aa4:	f3bf 8f4f 	dsb	sy
    3aa8:	bd08      	pop	{r3, pc}

00003aaa <CTIMER1_DriverIRQHandler>:
    3aaa:	b508      	push	{r3, lr}
    3aac:	2001      	movs	r0, #1
    3aae:	f7ff ffc5 	bl	3a3c <CTIMER_GenericIRQHandler>
    3ab2:	f3bf 8f4f 	dsb	sy
    3ab6:	bd08      	pop	{r3, pc}

00003ab8 <DMA_GetInstance>:
    3ab8:	b508      	push	{r3, lr}
    3aba:	4b05      	ldr	r3, [pc, #20]	; (3ad0 <DMA_GetInstance+0x18>)
    3abc:	4298      	cmp	r0, r3
    3abe:	d005      	beq.n	3acc <DMA_GetInstance+0x14>
    3ac0:	4b04      	ldr	r3, [pc, #16]	; (3ad4 <DMA_GetInstance+0x1c>)
    3ac2:	4a05      	ldr	r2, [pc, #20]	; (3ad8 <DMA_GetInstance+0x20>)
    3ac4:	4805      	ldr	r0, [pc, #20]	; (3adc <DMA_GetInstance+0x24>)
    3ac6:	215a      	movs	r1, #90	; 0x5a
    3ac8:	f000 fd1c 	bl	4504 <__assert_func>
    3acc:	2000      	movs	r0, #0
    3ace:	bd08      	pop	{r3, pc}
    3ad0:	40085000 	.word	0x40085000
    3ad4:	00008dac 	.word	0x00008dac
    3ad8:	00008e16 	.word	0x00008e16
    3adc:	00008dce 	.word	0x00008dce

00003ae0 <DMA_IRQHandle>:
    3ae0:	e92d 43f8 	stmdb	sp!, {r3, r4, r5, r6, r7, r8, r9, lr}
    3ae4:	f7ff ffe8 	bl	3ab8 <DMA_GetInstance>
    3ae8:	4b26      	ldr	r3, [pc, #152]	; (3b84 <DMA_IRQHandle+0xa4>)
    3aea:	264c      	movs	r6, #76	; 0x4c
    3aec:	fb06 3600 	mla	r6, r6, r0, r3
    3af0:	2700      	movs	r7, #0
    3af2:	f04f 0801 	mov.w	r8, #1
    3af6:	f856 4b04 	ldr.w	r4, [r6], #4
    3afa:	2c00      	cmp	r4, #0
    3afc:	d03c      	beq.n	3b78 <DMA_IRQHandle+0x98>
    3afe:	7b25      	ldrb	r5, [r4, #12]
    3b00:	68a3      	ldr	r3, [r4, #8]
    3b02:	096a      	lsrs	r2, r5, #5
    3b04:	3358      	adds	r3, #88	; 0x58
    3b06:	f005 051f 	and.w	r5, r5, #31
    3b0a:	f853 1022 	ldr.w	r1, [r3, r2, lsl #2]
    3b0e:	fa08 f505 	lsl.w	r5, r8, r5
    3b12:	4229      	tst	r1, r5
    3b14:	d00b      	beq.n	3b2e <DMA_IRQHandle+0x4e>
    3b16:	f8d4 9000 	ldr.w	r9, [r4]
    3b1a:	f843 5022 	str.w	r5, [r3, r2, lsl #2]
    3b1e:	f1b9 0f00 	cmp.w	r9, #0
    3b22:	d004      	beq.n	3b2e <DMA_IRQHandle+0x4e>
    3b24:	6861      	ldr	r1, [r4, #4]
    3b26:	2300      	movs	r3, #0
    3b28:	2201      	movs	r2, #1
    3b2a:	4620      	mov	r0, r4
    3b2c:	47c8      	blx	r9
    3b2e:	68a3      	ldr	r3, [r4, #8]
    3b30:	7b22      	ldrb	r2, [r4, #12]
    3b32:	3360      	adds	r3, #96	; 0x60
    3b34:	0952      	lsrs	r2, r2, #5
    3b36:	f853 1022 	ldr.w	r1, [r3, r2, lsl #2]
    3b3a:	420d      	tst	r5, r1
    3b3c:	d00b      	beq.n	3b56 <DMA_IRQHandle+0x76>
    3b3e:	f8d4 9000 	ldr.w	r9, [r4]
    3b42:	f843 5022 	str.w	r5, [r3, r2, lsl #2]
    3b46:	f1b9 0f00 	cmp.w	r9, #0
    3b4a:	d004      	beq.n	3b56 <DMA_IRQHandle+0x76>
    3b4c:	2301      	movs	r3, #1
    3b4e:	6861      	ldr	r1, [r4, #4]
    3b50:	461a      	mov	r2, r3
    3b52:	4620      	mov	r0, r4
    3b54:	47c8      	blx	r9
    3b56:	68a3      	ldr	r3, [r4, #8]
    3b58:	7b22      	ldrb	r2, [r4, #12]
    3b5a:	3340      	adds	r3, #64	; 0x40
    3b5c:	0952      	lsrs	r2, r2, #5
    3b5e:	f853 1022 	ldr.w	r1, [r3, r2, lsl #2]
    3b62:	420d      	tst	r5, r1
    3b64:	d008      	beq.n	3b78 <DMA_IRQHandle+0x98>
    3b66:	f843 5022 	str.w	r5, [r3, r2, lsl #2]
    3b6a:	6825      	ldr	r5, [r4, #0]
    3b6c:	b125      	cbz	r5, 3b78 <DMA_IRQHandle+0x98>
    3b6e:	6861      	ldr	r1, [r4, #4]
    3b70:	2302      	movs	r3, #2
    3b72:	2200      	movs	r2, #0
    3b74:	4620      	mov	r0, r4
    3b76:	47a8      	blx	r5
    3b78:	3701      	adds	r7, #1
    3b7a:	2f13      	cmp	r7, #19
    3b7c:	d1bb      	bne.n	3af6 <DMA_IRQHandle+0x16>
    3b7e:	e8bd 83f8 	ldmia.w	sp!, {r3, r4, r5, r6, r7, r8, r9, pc}
    3b82:	bf00      	nop
    3b84:	04015f1c 	.word	0x04015f1c

00003b88 <DMA0_DriverIRQHandler>:
    3b88:	b508      	push	{r3, lr}
    3b8a:	4803      	ldr	r0, [pc, #12]	; (3b98 <DMA0_DriverIRQHandler+0x10>)
    3b8c:	f7ff ffa8 	bl	3ae0 <DMA_IRQHandle>
    3b90:	f3bf 8f4f 	dsb	sy
    3b94:	bd08      	pop	{r3, pc}
    3b96:	bf00      	nop
    3b98:	40085000 	.word	0x40085000

00003b9c <vMicroIntEnableOnly>:
    3b9c:	f3ef 8310 	mrs	r3, PRIMASK
    3ba0:	b672      	cpsid	i
    3ba2:	f3ef 8211 	mrs	r2, BASEPRI
    3ba6:	7002      	strb	r2, [r0, #0]
    3ba8:	2260      	movs	r2, #96	; 0x60
    3baa:	f382 8812 	msr	BASEPRI_MAX, r2
    3bae:	f383 8810 	msr	PRIMASK, r3
    3bb2:	4770      	bx	lr

00003bb4 <vMicroIntRestoreState>:
    3bb4:	7803      	ldrb	r3, [r0, #0]
    3bb6:	f383 8811 	msr	BASEPRI, r3
    3bba:	4770      	bx	lr

00003bbc <PWR_AllowDeviceToSleep>:
    3bbc:	b508      	push	{r3, lr}
    3bbe:	f7fd fee7 	bl	1990 <OSA_InterruptDisable>
    3bc2:	4a04      	ldr	r2, [pc, #16]	; (3bd4 <PWR_AllowDeviceToSleep+0x18>)
    3bc4:	7813      	ldrb	r3, [r2, #0]
    3bc6:	b10b      	cbz	r3, 3bcc <PWR_AllowDeviceToSleep+0x10>
    3bc8:	3b01      	subs	r3, #1
    3bca:	7013      	strb	r3, [r2, #0]
    3bcc:	e8bd 4008 	ldmia.w	sp!, {r3, lr}
    3bd0:	f7fd bedc 	b.w	198c <OSA_InterruptEnable>
    3bd4:	04015f68 	.word	0x04015f68

00003bd8 <PWR_DisallowDeviceToSleep>:
    3bd8:	b508      	push	{r3, lr}
    3bda:	f7fd fed9 	bl	1990 <OSA_InterruptDisable>
    3bde:	4a05      	ldr	r2, [pc, #20]	; (3bf4 <PWR_DisallowDeviceToSleep+0x1c>)
    3be0:	7813      	ldrb	r3, [r2, #0]
    3be2:	2bff      	cmp	r3, #255	; 0xff
    3be4:	bf1c      	itt	ne
    3be6:	3301      	addne	r3, #1
    3be8:	7013      	strbne	r3, [r2, #0]
    3bea:	e8bd 4008 	ldmia.w	sp!, {r3, lr}
    3bee:	f7fd becd 	b.w	198c <OSA_InterruptEnable>
    3bf2:	bf00      	nop
    3bf4:	04015f68 	.word	0x04015f68

00003bf8 <PWR_vWakeInterruptCallback>:
    3bf8:	b570      	push	{r4, r5, r6, lr}
    3bfa:	4c0d      	ldr	r4, [pc, #52]	; (3c30 <PWR_vWakeInterruptCallback+0x38>)
    3bfc:	4e0d      	ldr	r6, [pc, #52]	; (3c34 <PWR_vWakeInterruptCallback+0x3c>)
    3bfe:	6825      	ldr	r5, [r4, #0]
    3c00:	b925      	cbnz	r5, 3c0c <PWR_vWakeInterruptCallback+0x14>
    3c02:	2001      	movs	r0, #1
    3c04:	f7ff f886 	bl	2d14 <WTIMER_StopTimer>
    3c08:	7035      	strb	r5, [r6, #0]
    3c0a:	e00f      	b.n	3c2c <PWR_vWakeInterruptCallback+0x34>
    3c0c:	68ab      	ldr	r3, [r5, #8]
    3c0e:	b103      	cbz	r3, 3c12 <PWR_vWakeInterruptCallback+0x1a>
    3c10:	4798      	blx	r3
    3c12:	6823      	ldr	r3, [r4, #0]
    3c14:	681d      	ldr	r5, [r3, #0]
    3c16:	6025      	str	r5, [r4, #0]
    3c18:	2204      	movs	r2, #4
    3c1a:	731a      	strb	r2, [r3, #12]
    3c1c:	2d00      	cmp	r5, #0
    3c1e:	d0f0      	beq.n	3c02 <PWR_vWakeInterruptCallback+0xa>
    3c20:	6869      	ldr	r1, [r5, #4]
    3c22:	2001      	movs	r0, #1
    3c24:	f7ff f81c 	bl	2c60 <WTIMER_StartTimer>
    3c28:	2301      	movs	r3, #1
    3c2a:	7033      	strb	r3, [r6, #0]
    3c2c:	bd70      	pop	{r4, r5, r6, pc}
    3c2e:	bf00      	nop
    3c30:	04015f6c 	.word	0x04015f6c
    3c34:	04015f70 	.word	0x04015f70

00003c38 <PWR_longjmp>:
    3c38:	e8b0 5ff0 	ldmia.w	r0!, {r4, r5, r6, r7, r8, r9, sl, fp, ip, lr}
    3c3c:	46e5      	mov	sp, ip
    3c3e:	0008      	movs	r0, r1
    3c40:	bf08      	it	eq
    3c42:	2001      	moveq	r0, #1
    3c44:	4770      	bx	lr
    3c46:	bf00      	nop

00003c48 <WarmMain>:
    3c48:	b672      	cpsid	i
    3c4a:	4802      	ldr	r0, [pc, #8]	; (3c54 <WarmMain+0xc>)
    3c4c:	2101      	movs	r1, #1
    3c4e:	f7ff bff3 	b.w	3c38 <PWR_longjmp>
    3c52:	bf00      	nop
    3c54:	04015f74 	.word	0x04015f74

00003c58 <StrFormatPrintf>:
    3c58:	e92d 4ff0 	stmdb	sp!, {r4, r5, r6, r7, r8, r9, sl, fp, lr}
    3c5c:	b097      	sub	sp, #92	; 0x5c
    3c5e:	2500      	movs	r5, #0
    3c60:	9001      	str	r0, [sp, #4]
    3c62:	4617      	mov	r7, r2
    3c64:	4698      	mov	r8, r3
    3c66:	460c      	mov	r4, r1
    3c68:	950c      	str	r5, [sp, #48]	; 0x30
    3c6a:	9504      	str	r5, [sp, #16]
    3c6c:	9b01      	ldr	r3, [sp, #4]
    3c6e:	781a      	ldrb	r2, [r3, #0]
    3c70:	b91a      	cbnz	r2, 3c7a <StrFormatPrintf+0x22>
    3c72:	980c      	ldr	r0, [sp, #48]	; 0x30
    3c74:	b017      	add	sp, #92	; 0x5c
    3c76:	e8bd 8ff0 	ldmia.w	sp!, {r4, r5, r6, r7, r8, r9, sl, fp, pc}
    3c7a:	2a25      	cmp	r2, #37	; 0x25
    3c7c:	d02d      	beq.n	3cda <StrFormatPrintf+0x82>
    3c7e:	2301      	movs	r3, #1
    3c80:	a90c      	add	r1, sp, #48	; 0x30
    3c82:	4638      	mov	r0, r7
    3c84:	47c0      	blx	r8
    3c86:	e26d      	b.n	4164 <FLASH_BASE_ZIGBEE_STACK+0x164>
    3c88:	f046 0601 	orr.w	r6, r6, #1
    3c8c:	9201      	str	r2, [sp, #4]
    3c8e:	9b01      	ldr	r3, [sp, #4]
    3c90:	1c5a      	adds	r2, r3, #1
    3c92:	785b      	ldrb	r3, [r3, #1]
    3c94:	2b2b      	cmp	r3, #43	; 0x2b
    3c96:	d017      	beq.n	3cc8 <StrFormatPrintf+0x70>
    3c98:	d821      	bhi.n	3cde <StrFormatPrintf+0x86>
    3c9a:	2b20      	cmp	r3, #32
    3c9c:	d017      	beq.n	3cce <StrFormatPrintf+0x76>
    3c9e:	2b23      	cmp	r3, #35	; 0x23
    3ca0:	d018      	beq.n	3cd4 <StrFormatPrintf+0x7c>
    3ca2:	2300      	movs	r3, #0
    3ca4:	9302      	str	r3, [sp, #8]
    3ca6:	210a      	movs	r1, #10
    3ca8:	9a01      	ldr	r2, [sp, #4]
    3caa:	9b01      	ldr	r3, [sp, #4]
    3cac:	7852      	ldrb	r2, [r2, #1]
    3cae:	f1a2 0030 	sub.w	r0, r2, #48	; 0x30
    3cb2:	2809      	cmp	r0, #9
    3cb4:	f103 0301 	add.w	r3, r3, #1
    3cb8:	d818      	bhi.n	3cec <StrFormatPrintf+0x94>
    3cba:	9802      	ldr	r0, [sp, #8]
    3cbc:	fb01 2200 	mla	r2, r1, r0, r2
    3cc0:	3a30      	subs	r2, #48	; 0x30
    3cc2:	9202      	str	r2, [sp, #8]
    3cc4:	9301      	str	r3, [sp, #4]
    3cc6:	e7ef      	b.n	3ca8 <StrFormatPrintf+0x50>
    3cc8:	f046 0602 	orr.w	r6, r6, #2
    3ccc:	e7de      	b.n	3c8c <StrFormatPrintf+0x34>
    3cce:	f046 0604 	orr.w	r6, r6, #4
    3cd2:	e7db      	b.n	3c8c <StrFormatPrintf+0x34>
    3cd4:	f046 0610 	orr.w	r6, r6, #16
    3cd8:	e7d8      	b.n	3c8c <StrFormatPrintf+0x34>
    3cda:	2600      	movs	r6, #0
    3cdc:	e7d7      	b.n	3c8e <StrFormatPrintf+0x36>
    3cde:	2b2d      	cmp	r3, #45	; 0x2d
    3ce0:	d0d2      	beq.n	3c88 <StrFormatPrintf+0x30>
    3ce2:	2b30      	cmp	r3, #48	; 0x30
    3ce4:	d1dd      	bne.n	3ca2 <StrFormatPrintf+0x4a>
    3ce6:	f046 0608 	orr.w	r6, r6, #8
    3cea:	e7cf      	b.n	3c8c <StrFormatPrintf+0x34>
    3cec:	2a2a      	cmp	r2, #42	; 0x2a
    3cee:	f040 8254 	bne.w	419a <FLASH_BASE_ZIGBEE_STACK+0x19a>
    3cf2:	f854 2b04 	ldr.w	r2, [r4], #4
    3cf6:	e7e4      	b.n	3cc2 <StrFormatPrintf+0x6a>
    3cf8:	2a2a      	cmp	r2, #42	; 0x2a
    3cfa:	d104      	bne.n	3d06 <StrFormatPrintf+0xae>
    3cfc:	f854 9b04 	ldr.w	r9, [r4], #4
    3d00:	e25e      	b.n	41c0 <FLASH_BASE_ZIGBEE_STACK+0x1c0>
    3d02:	f04f 0906 	mov.w	r9, #6
    3d06:	9a01      	ldr	r2, [sp, #4]
    3d08:	9b01      	ldr	r3, [sp, #4]
    3d0a:	7852      	ldrb	r2, [r2, #1]
    3d0c:	2a68      	cmp	r2, #104	; 0x68
    3d0e:	f103 0301 	add.w	r3, r3, #1
    3d12:	d025      	beq.n	3d60 <StrFormatPrintf+0x108>
    3d14:	2a6c      	cmp	r2, #108	; 0x6c
    3d16:	d02e      	beq.n	3d76 <StrFormatPrintf+0x11e>
    3d18:	9b01      	ldr	r3, [sp, #4]
    3d1a:	1c5a      	adds	r2, r3, #1
    3d1c:	785b      	ldrb	r3, [r3, #1]
    3d1e:	9303      	str	r3, [sp, #12]
    3d20:	3b62      	subs	r3, #98	; 0x62
    3d22:	b2db      	uxtb	r3, r3
    3d24:	9306      	str	r3, [sp, #24]
    3d26:	9b03      	ldr	r3, [sp, #12]
    3d28:	9201      	str	r2, [sp, #4]
    3d2a:	2b64      	cmp	r3, #100	; 0x64
    3d2c:	d02e      	beq.n	3d8c <StrFormatPrintf+0x134>
    3d2e:	2b69      	cmp	r3, #105	; 0x69
    3d30:	d02c      	beq.n	3d8c <StrFormatPrintf+0x134>
    3d32:	f003 03df 	and.w	r3, r3, #223	; 0xdf
    3d36:	2b46      	cmp	r3, #70	; 0x46
    3d38:	d05e      	beq.n	3df8 <StrFormatPrintf+0x1a0>
    3d3a:	2b58      	cmp	r3, #88	; 0x58
    3d3c:	d05c      	beq.n	3df8 <StrFormatPrintf+0x1a0>
    3d3e:	9b06      	ldr	r3, [sp, #24]
    3d40:	2b13      	cmp	r3, #19
    3d42:	d804      	bhi.n	3d4e <StrFormatPrintf+0xf6>
    3d44:	4baf      	ldr	r3, [pc, #700]	; (4004 <FLASH_BASE_ZIGBEE_STACK+0x4>)
    3d46:	9a06      	ldr	r2, [sp, #24]
    3d48:	40d3      	lsrs	r3, r2
    3d4a:	07db      	lsls	r3, r3, #31
    3d4c:	d454      	bmi.n	3df8 <StrFormatPrintf+0x1a0>
    3d4e:	9b03      	ldr	r3, [sp, #12]
    3d50:	2b63      	cmp	r3, #99	; 0x63
    3d52:	f040 81e4 	bne.w	411e <FLASH_BASE_ZIGBEE_STACK+0x11e>
    3d56:	f854 2b04 	ldr.w	r2, [r4], #4
    3d5a:	2301      	movs	r3, #1
    3d5c:	b2d2      	uxtb	r2, r2
    3d5e:	e78f      	b.n	3c80 <StrFormatPrintf+0x28>
    3d60:	9a01      	ldr	r2, [sp, #4]
    3d62:	7892      	ldrb	r2, [r2, #2]
    3d64:	2a68      	cmp	r2, #104	; 0x68
    3d66:	bf09      	itett	eq
    3d68:	9b01      	ldreq	r3, [sp, #4]
    3d6a:	f046 0640 	orrne.w	r6, r6, #64	; 0x40
    3d6e:	3302      	addeq	r3, #2
    3d70:	f046 0620 	orreq.w	r6, r6, #32
    3d74:	e7d1      	b.n	3d1a <StrFormatPrintf+0xc2>
    3d76:	9a01      	ldr	r2, [sp, #4]
    3d78:	7892      	ldrb	r2, [r2, #2]
    3d7a:	2a6c      	cmp	r2, #108	; 0x6c
    3d7c:	bf09      	itett	eq
    3d7e:	9b01      	ldreq	r3, [sp, #4]
    3d80:	f046 0680 	orrne.w	r6, r6, #128	; 0x80
    3d84:	3302      	addeq	r3, #2
    3d86:	f446 7680 	orreq.w	r6, r6, #256	; 0x100
    3d8a:	e7c6      	b.n	3d1a <StrFormatPrintf+0xc2>
    3d8c:	05f0      	lsls	r0, r6, #23
    3d8e:	f140 808f 	bpl.w	3eb0 <StrFormatPrintf+0x258>
    3d92:	3407      	adds	r4, #7
    3d94:	f024 0407 	bic.w	r4, r4, #7
    3d98:	e8f4 2302 	ldrd	r2, r3, [r4], #8
    3d9c:	e9cd 230a 	strd	r2, r3, [sp, #40]	; 0x28
    3da0:	2300      	movs	r3, #0
    3da2:	f88d 3034 	strb.w	r3, [sp, #52]	; 0x34
    3da6:	e9dd 230a 	ldrd	r2, r3, [sp, #40]	; 0x28
    3daa:	4313      	orrs	r3, r2
    3dac:	f040 8087 	bne.w	3ebe <StrFormatPrintf+0x266>
    3db0:	2330      	movs	r3, #48	; 0x30
    3db2:	f88d 3035 	strb.w	r3, [sp, #53]	; 0x35
    3db6:	2501      	movs	r5, #1
    3db8:	ab0d      	add	r3, sp, #52	; 0x34
    3dba:	442b      	add	r3, r5
    3dbc:	9304      	str	r3, [sp, #16]
    3dbe:	e9dd 230a 	ldrd	r2, r3, [sp, #40]	; 0x28
    3dc2:	2a00      	cmp	r2, #0
    3dc4:	f173 0300 	sbcs.w	r3, r3, #0
    3dc8:	f280 80a2 	bge.w	3f10 <StrFormatPrintf+0x2b8>
    3dcc:	3501      	adds	r5, #1
    3dce:	f04f 092d 	mov.w	r9, #45	; 0x2d
    3dd2:	0732      	lsls	r2, r6, #28
    3dd4:	f140 80a9 	bpl.w	3f2a <StrFormatPrintf+0x2d2>
    3dd8:	f1b9 0f00 	cmp.w	r9, #0
    3ddc:	d004      	beq.n	3de8 <StrFormatPrintf+0x190>
    3dde:	2301      	movs	r3, #1
    3de0:	464a      	mov	r2, r9
    3de2:	a90c      	add	r1, sp, #48	; 0x30
    3de4:	4638      	mov	r0, r7
    3de6:	47c0      	blx	r8
    3de8:	9b02      	ldr	r3, [sp, #8]
    3dea:	2230      	movs	r2, #48	; 0x30
    3dec:	1b5b      	subs	r3, r3, r5
    3dee:	eb0d 0102 	add.w	r1, sp, r2
    3df2:	4638      	mov	r0, r7
    3df4:	47c0      	blx	r8
    3df6:	9d02      	ldr	r5, [sp, #8]
    3df8:	9b03      	ldr	r3, [sp, #12]
    3dfa:	2b58      	cmp	r3, #88	; 0x58
    3dfc:	f000 80a7 	beq.w	3f4e <StrFormatPrintf+0x2f6>
    3e00:	2b78      	cmp	r3, #120	; 0x78
    3e02:	f040 8101 	bne.w	4008 <FLASH_BASE_ZIGBEE_STACK+0x8>
    3e06:	f04f 0900 	mov.w	r9, #0
    3e0a:	05f0      	lsls	r0, r6, #23
    3e0c:	f140 80a2 	bpl.w	3f54 <StrFormatPrintf+0x2fc>
    3e10:	3407      	adds	r4, #7
    3e12:	f024 0407 	bic.w	r4, r4, #7
    3e16:	e8f4 ab02 	ldrd	sl, fp, [r4], #8
    3e1a:	2300      	movs	r3, #0
    3e1c:	f88d 3034 	strb.w	r3, [sp, #52]	; 0x34
    3e20:	ea5a 030b 	orrs.w	r3, sl, fp
    3e24:	f040 809c 	bne.w	3f60 <StrFormatPrintf+0x308>
    3e28:	2330      	movs	r3, #48	; 0x30
    3e2a:	f88d 3035 	strb.w	r3, [sp, #53]	; 0x35
    3e2e:	2501      	movs	r5, #1
    3e30:	ab0d      	add	r3, sp, #52	; 0x34
    3e32:	442b      	add	r3, r5
    3e34:	0731      	lsls	r1, r6, #28
    3e36:	9304      	str	r3, [sp, #16]
    3e38:	f006 0a10 	and.w	sl, r6, #16
    3e3c:	f140 80be 	bpl.w	3fbc <StrFormatPrintf+0x364>
    3e40:	f1ba 0f00 	cmp.w	sl, #0
    3e44:	f000 80b8 	beq.w	3fb8 <StrFormatPrintf+0x360>
    3e48:	2230      	movs	r2, #48	; 0x30
    3e4a:	eb0d 0102 	add.w	r1, sp, r2
    3e4e:	2301      	movs	r3, #1
    3e50:	4638      	mov	r0, r7
    3e52:	47c0      	blx	r8
    3e54:	f1b9 0f00 	cmp.w	r9, #0
    3e58:	f04f 0301 	mov.w	r3, #1
    3e5c:	bf14      	ite	ne
    3e5e:	2258      	movne	r2, #88	; 0x58
    3e60:	2278      	moveq	r2, #120	; 0x78
    3e62:	a90c      	add	r1, sp, #48	; 0x30
    3e64:	4638      	mov	r0, r7
    3e66:	47c0      	blx	r8
    3e68:	f04f 0b01 	mov.w	fp, #1
    3e6c:	9b02      	ldr	r3, [sp, #8]
    3e6e:	2230      	movs	r2, #48	; 0x30
    3e70:	1b5b      	subs	r3, r3, r5
    3e72:	eb0d 0102 	add.w	r1, sp, r2
    3e76:	4638      	mov	r0, r7
    3e78:	47c0      	blx	r8
    3e7a:	9d02      	ldr	r5, [sp, #8]
    3e7c:	f1ba 0f00 	cmp.w	sl, #0
    3e80:	f000 80bc 	beq.w	3ffc <StrFormatPrintf+0x3a4>
    3e84:	f1bb 0f00 	cmp.w	fp, #0
    3e88:	f040 80b8 	bne.w	3ffc <StrFormatPrintf+0x3a4>
    3e8c:	2230      	movs	r2, #48	; 0x30
    3e8e:	eb0d 0102 	add.w	r1, sp, r2
    3e92:	2301      	movs	r3, #1
    3e94:	4638      	mov	r0, r7
    3e96:	47c0      	blx	r8
    3e98:	f1b9 0f00 	cmp.w	r9, #0
    3e9c:	f04f 0301 	mov.w	r3, #1
    3ea0:	bf14      	ite	ne
    3ea2:	2258      	movne	r2, #88	; 0x58
    3ea4:	2278      	moveq	r2, #120	; 0x78
    3ea6:	a90c      	add	r1, sp, #48	; 0x30
    3ea8:	4638      	mov	r0, r7
    3eaa:	47c0      	blx	r8
    3eac:	3502      	adds	r5, #2
    3eae:	e0a5      	b.n	3ffc <StrFormatPrintf+0x3a4>
    3eb0:	f854 3b04 	ldr.w	r3, [r4], #4
    3eb4:	4619      	mov	r1, r3
    3eb6:	17da      	asrs	r2, r3, #31
    3eb8:	e9cd 120a 	strd	r1, r2, [sp, #40]	; 0x28
    3ebc:	e770      	b.n	3da0 <StrFormatPrintf+0x148>
    3ebe:	e9dd ab0a 	ldrd	sl, fp, [sp, #40]	; 0x28
    3ec2:	f04f 0901 	mov.w	r9, #1
    3ec6:	220a      	movs	r2, #10
    3ec8:	2300      	movs	r3, #0
    3eca:	4650      	mov	r0, sl
    3ecc:	4659      	mov	r1, fp
    3ece:	f8cd a010 	str.w	sl, [sp, #16]
    3ed2:	f003 fa3d 	bl	7350 <__aeabi_ldivmod>
    3ed6:	465d      	mov	r5, fp
    3ed8:	4682      	mov	sl, r0
    3eda:	468b      	mov	fp, r1
    3edc:	9804      	ldr	r0, [sp, #16]
    3ede:	220a      	movs	r2, #10
    3ee0:	2300      	movs	r3, #0
    3ee2:	4629      	mov	r1, r5
    3ee4:	f003 fa34 	bl	7350 <__aeabi_ldivmod>
    3ee8:	4619      	mov	r1, r3
    3eea:	2a00      	cmp	r2, #0
    3eec:	f171 0300 	sbcs.w	r3, r1, #0
    3ef0:	da0b      	bge.n	3f0a <StrFormatPrintf+0x2b2>
    3ef2:	2330      	movs	r3, #48	; 0x30
    3ef4:	1a98      	subs	r0, r3, r2
    3ef6:	ab0d      	add	r3, sp, #52	; 0x34
    3ef8:	464d      	mov	r5, r9
    3efa:	f803 0009 	strb.w	r0, [r3, r9]
    3efe:	ea5a 030b 	orrs.w	r3, sl, fp
    3f02:	f109 0901 	add.w	r9, r9, #1
    3f06:	d1de      	bne.n	3ec6 <StrFormatPrintf+0x26e>
    3f08:	e756      	b.n	3db8 <StrFormatPrintf+0x160>
    3f0a:	f112 0030 	adds.w	r0, r2, #48	; 0x30
    3f0e:	e7f2      	b.n	3ef6 <StrFormatPrintf+0x29e>
    3f10:	07b1      	lsls	r1, r6, #30
    3f12:	d503      	bpl.n	3f1c <StrFormatPrintf+0x2c4>
    3f14:	3501      	adds	r5, #1
    3f16:	f04f 092b 	mov.w	r9, #43	; 0x2b
    3f1a:	e75a      	b.n	3dd2 <StrFormatPrintf+0x17a>
    3f1c:	f016 0904 	ands.w	r9, r6, #4
    3f20:	bf1c      	itt	ne
    3f22:	3501      	addne	r5, #1
    3f24:	f04f 0920 	movne.w	r9, #32
    3f28:	e753      	b.n	3dd2 <StrFormatPrintf+0x17a>
    3f2a:	07f3      	lsls	r3, r6, #31
    3f2c:	d405      	bmi.n	3f3a <StrFormatPrintf+0x2e2>
    3f2e:	9b02      	ldr	r3, [sp, #8]
    3f30:	2220      	movs	r2, #32
    3f32:	1b5b      	subs	r3, r3, r5
    3f34:	a90c      	add	r1, sp, #48	; 0x30
    3f36:	4638      	mov	r0, r7
    3f38:	47c0      	blx	r8
    3f3a:	f1b9 0f00 	cmp.w	r9, #0
    3f3e:	f43f af5b 	beq.w	3df8 <StrFormatPrintf+0x1a0>
    3f42:	2301      	movs	r3, #1
    3f44:	464a      	mov	r2, r9
    3f46:	a90c      	add	r1, sp, #48	; 0x30
    3f48:	4638      	mov	r0, r7
    3f4a:	47c0      	blx	r8
    3f4c:	e754      	b.n	3df8 <StrFormatPrintf+0x1a0>
    3f4e:	f04f 0901 	mov.w	r9, #1
    3f52:	e75a      	b.n	3e0a <StrFormatPrintf+0x1b2>
    3f54:	f854 3b04 	ldr.w	r3, [r4], #4
    3f58:	f04f 0b00 	mov.w	fp, #0
    3f5c:	469a      	mov	sl, r3
    3f5e:	e75c      	b.n	3e1a <StrFormatPrintf+0x1c2>
    3f60:	f1b9 0f00 	cmp.w	r9, #0
    3f64:	d024      	beq.n	3fb0 <StrFormatPrintf+0x358>
    3f66:	2341      	movs	r3, #65	; 0x41
    3f68:	a90d      	add	r1, sp, #52	; 0x34
    3f6a:	2201      	movs	r2, #1
    3f6c:	f04f 0c00 	mov.w	ip, #0
    3f70:	3b0a      	subs	r3, #10
    3f72:	9104      	str	r1, [sp, #16]
    3f74:	ea4f 111a 	mov.w	r1, sl, lsr #4
    3f78:	ea41 710b 	orr.w	r1, r1, fp, lsl #28
    3f7c:	4655      	mov	r5, sl
    3f7e:	468a      	mov	sl, r1
    3f80:	f005 010f 	and.w	r1, r5, #15
    3f84:	e9cd 1c08 	strd	r1, ip, [sp, #32]
    3f88:	e9dd 0108 	ldrd	r0, r1, [sp, #32]
    3f8c:	2900      	cmp	r1, #0
    3f8e:	ea4f 1e1b 	mov.w	lr, fp, lsr #4
    3f92:	bf08      	it	eq
    3f94:	280a      	cmpeq	r0, #10
    3f96:	9908      	ldr	r1, [sp, #32]
    3f98:	46f3      	mov	fp, lr
    3f9a:	d20b      	bcs.n	3fb4 <StrFormatPrintf+0x35c>
    3f9c:	3130      	adds	r1, #48	; 0x30
    3f9e:	9804      	ldr	r0, [sp, #16]
    3fa0:	5411      	strb	r1, [r2, r0]
    3fa2:	ea5a 010b 	orrs.w	r1, sl, fp
    3fa6:	4615      	mov	r5, r2
    3fa8:	f102 0201 	add.w	r2, r2, #1
    3fac:	d1e2      	bne.n	3f74 <StrFormatPrintf+0x31c>
    3fae:	e73f      	b.n	3e30 <StrFormatPrintf+0x1d8>
    3fb0:	2361      	movs	r3, #97	; 0x61
    3fb2:	e7d9      	b.n	3f68 <StrFormatPrintf+0x310>
    3fb4:	1859      	adds	r1, r3, r1
    3fb6:	e7f2      	b.n	3f9e <StrFormatPrintf+0x346>
    3fb8:	46d3      	mov	fp, sl
    3fba:	e757      	b.n	3e6c <StrFormatPrintf+0x214>
    3fbc:	07f2      	lsls	r2, r6, #31
    3fbe:	f100 8102 	bmi.w	41c6 <FLASH_BASE_ZIGBEE_STACK+0x1c6>
    3fc2:	f1ba 0f00 	cmp.w	sl, #0
    3fc6:	d000      	beq.n	3fca <StrFormatPrintf+0x372>
    3fc8:	3502      	adds	r5, #2
    3fca:	9b02      	ldr	r3, [sp, #8]
    3fcc:	2220      	movs	r2, #32
    3fce:	1b5b      	subs	r3, r3, r5
    3fd0:	a90c      	add	r1, sp, #48	; 0x30
    3fd2:	4638      	mov	r0, r7
    3fd4:	47c0      	blx	r8
    3fd6:	f1ba 0f00 	cmp.w	sl, #0
    3fda:	d00f      	beq.n	3ffc <StrFormatPrintf+0x3a4>
    3fdc:	2230      	movs	r2, #48	; 0x30
    3fde:	eb0d 0102 	add.w	r1, sp, r2
    3fe2:	2301      	movs	r3, #1
    3fe4:	4638      	mov	r0, r7
    3fe6:	47c0      	blx	r8
    3fe8:	f1b9 0f00 	cmp.w	r9, #0
    3fec:	f04f 0301 	mov.w	r3, #1
    3ff0:	bf14      	ite	ne
    3ff2:	2258      	movne	r2, #88	; 0x58
    3ff4:	2278      	moveq	r2, #120	; 0x78
    3ff6:	a90c      	add	r1, sp, #48	; 0x30
    3ff8:	4638      	mov	r0, r7
    3ffa:	47c0      	blx	r8
    3ffc:	9b06      	ldr	r3, [sp, #24]
    3ffe:	2b13      	cmp	r3, #19
    4000:	d907      	bls.n	4012 <FLASH_BASE_ZIGBEE_STACK+0x12>
    4002:	e032      	b.n	406a <FLASH_BASE_ZIGBEE_STACK+0x6a>
    4004:	00086001 	.word	0x00086001
    4008:	9b06      	ldr	r3, [sp, #24]
    400a:	2b13      	cmp	r3, #19
    400c:	d87e      	bhi.n	410c <FLASH_BASE_ZIGBEE_STACK+0x10c>
    400e:	f04f 0901 	mov.w	r9, #1
    4012:	4b6f      	ldr	r3, [pc, #444]	; (41d0 <FLASH_BASE_ZIGBEE_STACK+0x1d0>)
    4014:	9a06      	ldr	r2, [sp, #24]
    4016:	40d3      	lsrs	r3, r2
    4018:	07db      	lsls	r3, r3, #31
    401a:	d577      	bpl.n	410c <FLASH_BASE_ZIGBEE_STACK+0x10c>
    401c:	05f0      	lsls	r0, r6, #23
    401e:	d531      	bpl.n	4084 <FLASH_BASE_ZIGBEE_STACK+0x84>
    4020:	3407      	adds	r4, #7
    4022:	f024 0407 	bic.w	r4, r4, #7
    4026:	e8f4 ab02 	ldrd	sl, fp, [r4], #8
    402a:	9b03      	ldr	r3, [sp, #12]
    402c:	2b6f      	cmp	r3, #111	; 0x6f
    402e:	d02f      	beq.n	4090 <FLASH_BASE_ZIGBEE_STACK+0x90>
    4030:	2b62      	cmp	r3, #98	; 0x62
    4032:	d02f      	beq.n	4094 <FLASH_BASE_ZIGBEE_STACK+0x94>
    4034:	2b70      	cmp	r3, #112	; 0x70
    4036:	bf0c      	ite	eq
    4038:	2310      	moveq	r3, #16
    403a:	230a      	movne	r3, #10
    403c:	2200      	movs	r2, #0
    403e:	f88d 2034 	strb.w	r2, [sp, #52]	; 0x34
    4042:	ea5a 020b 	orrs.w	r2, sl, fp
    4046:	d127      	bne.n	4098 <FLASH_BASE_ZIGBEE_STACK+0x98>
    4048:	2330      	movs	r3, #48	; 0x30
    404a:	f88d 3035 	strb.w	r3, [sp, #53]	; 0x35
    404e:	2501      	movs	r5, #1
    4050:	ab0d      	add	r3, sp, #52	; 0x34
    4052:	442b      	add	r3, r5
    4054:	0731      	lsls	r1, r6, #28
    4056:	9304      	str	r3, [sp, #16]
    4058:	d54f      	bpl.n	40fa <FLASH_BASE_ZIGBEE_STACK+0xfa>
    405a:	9b02      	ldr	r3, [sp, #8]
    405c:	2230      	movs	r2, #48	; 0x30
    405e:	1b5b      	subs	r3, r3, r5
    4060:	eb0d 0102 	add.w	r1, sp, r2
    4064:	4638      	mov	r0, r7
    4066:	47c0      	blx	r8
    4068:	9d02      	ldr	r5, [sp, #8]
    406a:	f8dd 9010 	ldr.w	r9, [sp, #16]
    406e:	f8cd 9010 	str.w	r9, [sp, #16]
    4072:	f819 2901 	ldrb.w	r2, [r9], #-1
    4076:	2a00      	cmp	r2, #0
    4078:	d04b      	beq.n	4112 <FLASH_BASE_ZIGBEE_STACK+0x112>
    407a:	2301      	movs	r3, #1
    407c:	a90c      	add	r1, sp, #48	; 0x30
    407e:	4638      	mov	r0, r7
    4080:	47c0      	blx	r8
    4082:	e7f4      	b.n	406e <FLASH_BASE_ZIGBEE_STACK+0x6e>
    4084:	f854 3b04 	ldr.w	r3, [r4], #4
    4088:	f04f 0b00 	mov.w	fp, #0
    408c:	469a      	mov	sl, r3
    408e:	e7cc      	b.n	402a <FLASH_BASE_ZIGBEE_STACK+0x2a>
    4090:	2308      	movs	r3, #8
    4092:	e7d3      	b.n	403c <FLASH_BASE_ZIGBEE_STACK+0x3c>
    4094:	2302      	movs	r3, #2
    4096:	e7d1      	b.n	403c <FLASH_BASE_ZIGBEE_STACK+0x3c>
    4098:	f1b9 0f00 	cmp.w	r9, #0
    409c:	d027      	beq.n	40ee <FLASH_BASE_ZIGBEE_STACK+0xee>
    409e:	f04f 0941 	mov.w	r9, #65	; 0x41
    40a2:	2201      	movs	r2, #1
    40a4:	9203      	str	r2, [sp, #12]
    40a6:	b2d9      	uxtb	r1, r3
    40a8:	2200      	movs	r2, #0
    40aa:	e9cd 1204 	strd	r1, r2, [sp, #16]
    40ae:	f1b9 090a 	subs.w	r9, r9, #10
    40b2:	4650      	mov	r0, sl
    40b4:	4659      	mov	r1, fp
    40b6:	e9dd 2304 	ldrd	r2, r3, [sp, #16]
    40ba:	f003 f999 	bl	73f0 <__aeabi_uldivmod>
    40be:	2b00      	cmp	r3, #0
    40c0:	bf08      	it	eq
    40c2:	2a0a      	cmpeq	r2, #10
    40c4:	e9cd ab06 	strd	sl, fp, [sp, #24]
    40c8:	4682      	mov	sl, r0
    40ca:	468b      	mov	fp, r1
    40cc:	d212      	bcs.n	40f4 <FLASH_BASE_ZIGBEE_STACK+0xf4>
    40ce:	3230      	adds	r2, #48	; 0x30
    40d0:	9b03      	ldr	r3, [sp, #12]
    40d2:	a90d      	add	r1, sp, #52	; 0x34
    40d4:	461d      	mov	r5, r3
    40d6:	54ca      	strb	r2, [r1, r3]
    40d8:	3301      	adds	r3, #1
    40da:	e9dd 0104 	ldrd	r0, r1, [sp, #16]
    40de:	9303      	str	r3, [sp, #12]
    40e0:	e9dd 2306 	ldrd	r2, r3, [sp, #24]
    40e4:	428b      	cmp	r3, r1
    40e6:	bf08      	it	eq
    40e8:	4282      	cmpeq	r2, r0
    40ea:	d2e2      	bcs.n	40b2 <FLASH_BASE_ZIGBEE_STACK+0xb2>
    40ec:	e7b0      	b.n	4050 <FLASH_BASE_ZIGBEE_STACK+0x50>
    40ee:	f04f 0961 	mov.w	r9, #97	; 0x61
    40f2:	e7d6      	b.n	40a2 <FLASH_BASE_ZIGBEE_STACK+0xa2>
    40f4:	eb19 0202 	adds.w	r2, r9, r2
    40f8:	e7ea      	b.n	40d0 <FLASH_BASE_ZIGBEE_STACK+0xd0>
    40fa:	07f2      	lsls	r2, r6, #31
    40fc:	d4b5      	bmi.n	406a <FLASH_BASE_ZIGBEE_STACK+0x6a>
    40fe:	9b02      	ldr	r3, [sp, #8]
    4100:	2220      	movs	r2, #32
    4102:	1b5b      	subs	r3, r3, r5
    4104:	a90c      	add	r1, sp, #48	; 0x30
    4106:	4638      	mov	r0, r7
    4108:	47c0      	blx	r8
    410a:	e7ae      	b.n	406a <FLASH_BASE_ZIGBEE_STACK+0x6a>
    410c:	9b04      	ldr	r3, [sp, #16]
    410e:	2b00      	cmp	r3, #0
    4110:	d1ab      	bne.n	406a <FLASH_BASE_ZIGBEE_STACK+0x6a>
    4112:	07f3      	lsls	r3, r6, #31
    4114:	d526      	bpl.n	4164 <FLASH_BASE_ZIGBEE_STACK+0x164>
    4116:	9b02      	ldr	r3, [sp, #8]
    4118:	2220      	movs	r2, #32
    411a:	1b5b      	subs	r3, r3, r5
    411c:	e5b0      	b.n	3c80 <StrFormatPrintf+0x28>
    411e:	9b03      	ldr	r3, [sp, #12]
    4120:	2b73      	cmp	r3, #115	; 0x73
    4122:	d137      	bne.n	4194 <FLASH_BASE_ZIGBEE_STACK+0x194>
    4124:	f854 bb04 	ldr.w	fp, [r4], #4
    4128:	f1bb 0f00 	cmp.w	fp, #0
    412c:	d01a      	beq.n	4164 <FLASH_BASE_ZIGBEE_STACK+0x164>
    412e:	f1ba 0f00 	cmp.w	sl, #0
    4132:	d01b      	beq.n	416c <FLASH_BASE_ZIGBEE_STACK+0x16c>
    4134:	464d      	mov	r5, r9
    4136:	f016 0601 	ands.w	r6, r6, #1
    413a:	d105      	bne.n	4148 <FLASH_BASE_ZIGBEE_STACK+0x148>
    413c:	9b02      	ldr	r3, [sp, #8]
    413e:	2220      	movs	r2, #32
    4140:	1b5b      	subs	r3, r3, r5
    4142:	a90c      	add	r1, sp, #48	; 0x30
    4144:	4638      	mov	r0, r7
    4146:	47c0      	blx	r8
    4148:	f10b 3bff 	add.w	fp, fp, #4294967295
    414c:	f1ba 0f00 	cmp.w	sl, #0
    4150:	d01b      	beq.n	418a <FLASH_BASE_ZIGBEE_STACK+0x18a>
    4152:	f81b 2f01 	ldrb.w	r2, [fp, #1]!
    4156:	b10a      	cbz	r2, 415c <FLASH_BASE_ZIGBEE_STACK+0x15c>
    4158:	2d00      	cmp	r5, #0
    415a:	dc0c      	bgt.n	4176 <FLASH_BASE_ZIGBEE_STACK+0x176>
    415c:	eba9 0505 	sub.w	r5, r9, r5
    4160:	2e00      	cmp	r6, #0
    4162:	d1d8      	bne.n	4116 <FLASH_BASE_ZIGBEE_STACK+0x116>
    4164:	9b01      	ldr	r3, [sp, #4]
    4166:	3301      	adds	r3, #1
    4168:	9301      	str	r3, [sp, #4]
    416a:	e57f      	b.n	3c6c <StrFormatPrintf+0x14>
    416c:	4658      	mov	r0, fp
    416e:	f003 fba7 	bl	78c0 <strlen>
    4172:	4605      	mov	r5, r0
    4174:	e7df      	b.n	4136 <FLASH_BASE_ZIGBEE_STACK+0x136>
    4176:	2301      	movs	r3, #1
    4178:	a90c      	add	r1, sp, #48	; 0x30
    417a:	4638      	mov	r0, r7
    417c:	47c0      	blx	r8
    417e:	3d01      	subs	r5, #1
    4180:	e7e7      	b.n	4152 <FLASH_BASE_ZIGBEE_STACK+0x152>
    4182:	2301      	movs	r3, #1
    4184:	a90c      	add	r1, sp, #48	; 0x30
    4186:	4638      	mov	r0, r7
    4188:	47c0      	blx	r8
    418a:	f81b 2f01 	ldrb.w	r2, [fp, #1]!
    418e:	2a00      	cmp	r2, #0
    4190:	d1f7      	bne.n	4182 <FLASH_BASE_ZIGBEE_STACK+0x182>
    4192:	e7e5      	b.n	4160 <FLASH_BASE_ZIGBEE_STACK+0x160>
    4194:	9a03      	ldr	r2, [sp, #12]
    4196:	2301      	movs	r3, #1
    4198:	e572      	b.n	3c80 <StrFormatPrintf+0x28>
    419a:	2a2e      	cmp	r2, #46	; 0x2e
    419c:	f04f 0a00 	mov.w	sl, #0
    41a0:	f47f adaf 	bne.w	3d02 <StrFormatPrintf+0xaa>
    41a4:	46d1      	mov	r9, sl
    41a6:	210a      	movs	r1, #10
    41a8:	9301      	str	r3, [sp, #4]
    41aa:	f813 2f01 	ldrb.w	r2, [r3, #1]!
    41ae:	f1a2 0030 	sub.w	r0, r2, #48	; 0x30
    41b2:	2809      	cmp	r0, #9
    41b4:	f63f ada0 	bhi.w	3cf8 <StrFormatPrintf+0xa0>
    41b8:	fb01 2909 	mla	r9, r1, r9, r2
    41bc:	f1a9 0930 	sub.w	r9, r9, #48	; 0x30
    41c0:	f04f 0a01 	mov.w	sl, #1
    41c4:	e7f0      	b.n	41a8 <FLASH_BASE_ZIGBEE_STACK+0x1a8>
    41c6:	f1ba 0f00 	cmp.w	sl, #0
    41ca:	f47f ae5f 	bne.w	3e8c <StrFormatPrintf+0x234>
    41ce:	e715      	b.n	3ffc <StrFormatPrintf+0x3a4>
    41d0:	00086001 	.word	0x00086001

000041d4 <SerialManager_Init>:
    41d4:	b538      	push	{r3, r4, r5, lr}
    41d6:	4604      	mov	r4, r0
    41d8:	460d      	mov	r5, r1
    41da:	b931      	cbnz	r1, 41ea <SerialManager_Init+0x16>
    41dc:	4b0f      	ldr	r3, [pc, #60]	; (421c <SerialManager_Init+0x48>)
    41de:	4a10      	ldr	r2, [pc, #64]	; (4220 <SerialManager_Init+0x4c>)
    41e0:	f240 3131 	movw	r1, #817	; 0x331
    41e4:	480f      	ldr	r0, [pc, #60]	; (4224 <SerialManager_Init+0x50>)
    41e6:	f000 f98d 	bl	4504 <__assert_func>
    41ea:	b920      	cbnz	r0, 41f6 <SerialManager_Init+0x22>
    41ec:	4b0e      	ldr	r3, [pc, #56]	; (4228 <SerialManager_Init+0x54>)
    41ee:	4a0c      	ldr	r2, [pc, #48]	; (4220 <SerialManager_Init+0x4c>)
    41f0:	f240 3136 	movw	r1, #822	; 0x336
    41f4:	e7f6      	b.n	41e4 <SerialManager_Init+0x10>
    41f6:	2210      	movs	r2, #16
    41f8:	2100      	movs	r1, #0
    41fa:	f003 fb0d 	bl	7818 <memset>
    41fe:	7a2b      	ldrb	r3, [r5, #8]
    4200:	7323      	strb	r3, [r4, #12]
    4202:	2b01      	cmp	r3, #1
    4204:	d106      	bne.n	4214 <SerialManager_Init+0x40>
    4206:	68e9      	ldr	r1, [r5, #12]
    4208:	f104 0008 	add.w	r0, r4, #8
    420c:	e8bd 4038 	ldmia.w	sp!, {r3, r4, r5, lr}
    4210:	f000 b898 	b.w	4344 <Serial_UartInit>
    4214:	f243 5021 	movw	r0, #13601	; 0x3521
    4218:	bd38      	pop	{r3, r4, r5, pc}
    421a:	bf00      	nop
    421c:	00008478 	.word	0x00008478
    4220:	00008ec4 	.word	0x00008ec4
    4224:	00008e26 	.word	0x00008e26
    4228:	00008e77 	.word	0x00008e77

0000422c <SerialManager_OpenWriteHandle>:
    422c:	b538      	push	{r3, r4, r5, lr}
    422e:	460d      	mov	r5, r1
    4230:	4604      	mov	r4, r0
    4232:	b930      	cbnz	r0, 4242 <SerialManager_OpenWriteHandle+0x16>
    4234:	4b0e      	ldr	r3, [pc, #56]	; (4270 <SerialManager_OpenWriteHandle+0x44>)
    4236:	4a0f      	ldr	r2, [pc, #60]	; (4274 <SerialManager_OpenWriteHandle+0x48>)
    4238:	f240 31e7 	movw	r1, #999	; 0x3e7
    423c:	480e      	ldr	r0, [pc, #56]	; (4278 <SerialManager_OpenWriteHandle+0x4c>)
    423e:	f000 f961 	bl	4504 <__assert_func>
    4242:	b921      	cbnz	r1, 424e <SerialManager_OpenWriteHandle+0x22>
    4244:	4b0d      	ldr	r3, [pc, #52]	; (427c <SerialManager_OpenWriteHandle+0x50>)
    4246:	4a0b      	ldr	r2, [pc, #44]	; (4274 <SerialManager_OpenWriteHandle+0x48>)
    4248:	f44f 717a 	mov.w	r1, #1000	; 0x3e8
    424c:	e7f6      	b.n	423c <SerialManager_OpenWriteHandle+0x10>
    424e:	2204      	movs	r2, #4
    4250:	2100      	movs	r1, #0
    4252:	4628      	mov	r0, r5
    4254:	f003 fae0 	bl	7818 <memset>
    4258:	f3ef 8210 	mrs	r2, PRIMASK
    425c:	b672      	cpsid	i
    425e:	6863      	ldr	r3, [r4, #4]
    4260:	3301      	adds	r3, #1
    4262:	6063      	str	r3, [r4, #4]
    4264:	f382 8810 	msr	PRIMASK, r2
    4268:	2000      	movs	r0, #0
    426a:	602c      	str	r4, [r5, #0]
    426c:	bd38      	pop	{r3, r4, r5, pc}
    426e:	bf00      	nop
    4270:	00008e77 	.word	0x00008e77
    4274:	00008ed7 	.word	0x00008ed7
    4278:	00008e26 	.word	0x00008e26
    427c:	00008e84 	.word	0x00008e84

00004280 <SerialManager_OpenReadHandle>:
    4280:	b570      	push	{r4, r5, r6, lr}
    4282:	460d      	mov	r5, r1
    4284:	4606      	mov	r6, r0
    4286:	b930      	cbnz	r0, 4296 <SerialManager_OpenReadHandle+0x16>
    4288:	4b10      	ldr	r3, [pc, #64]	; (42cc <SerialManager_OpenReadHandle+0x4c>)
    428a:	4a11      	ldr	r2, [pc, #68]	; (42d0 <SerialManager_OpenReadHandle+0x50>)
    428c:	f240 4121 	movw	r1, #1057	; 0x421
    4290:	4810      	ldr	r0, [pc, #64]	; (42d4 <SerialManager_OpenReadHandle+0x54>)
    4292:	f000 f937 	bl	4504 <__assert_func>
    4296:	b921      	cbnz	r1, 42a2 <SerialManager_OpenReadHandle+0x22>
    4298:	4b0f      	ldr	r3, [pc, #60]	; (42d8 <SerialManager_OpenReadHandle+0x58>)
    429a:	4a0d      	ldr	r2, [pc, #52]	; (42d0 <SerialManager_OpenReadHandle+0x50>)
    429c:	f240 4122 	movw	r1, #1058	; 0x422
    42a0:	e7f6      	b.n	4290 <SerialManager_OpenReadHandle+0x10>
    42a2:	f3ef 8310 	mrs	r3, PRIMASK
    42a6:	b672      	cpsid	i
    42a8:	6804      	ldr	r4, [r0, #0]
    42aa:	b124      	cbz	r4, 42b6 <SerialManager_OpenReadHandle+0x36>
    42ac:	f383 8810 	msr	PRIMASK, r3
    42b0:	f243 5022 	movw	r0, #13602	; 0x3522
    42b4:	bd70      	pop	{r4, r5, r6, pc}
    42b6:	6001      	str	r1, [r0, #0]
    42b8:	f383 8810 	msr	PRIMASK, r3
    42bc:	2204      	movs	r2, #4
    42be:	4621      	mov	r1, r4
    42c0:	4628      	mov	r0, r5
    42c2:	f003 faa9 	bl	7818 <memset>
    42c6:	602e      	str	r6, [r5, #0]
    42c8:	4620      	mov	r0, r4
    42ca:	e7f3      	b.n	42b4 <SerialManager_OpenReadHandle+0x34>
    42cc:	00008e77 	.word	0x00008e77
    42d0:	00008ef5 	.word	0x00008ef5
    42d4:	00008e26 	.word	0x00008e26
    42d8:	00008e97 	.word	0x00008e97

000042dc <SerialManager_WriteBlocking>:
    42dc:	b510      	push	{r4, lr}
    42de:	b930      	cbnz	r0, 42ee <SerialManager_WriteBlocking+0x12>
    42e0:	4b12      	ldr	r3, [pc, #72]	; (432c <SerialManager_WriteBlocking+0x50>)
    42e2:	4a13      	ldr	r2, [pc, #76]	; (4330 <SerialManager_WriteBlocking+0x54>)
    42e4:	f240 310e 	movw	r1, #782	; 0x30e
    42e8:	4812      	ldr	r0, [pc, #72]	; (4334 <SerialManager_WriteBlocking+0x58>)
    42ea:	f000 f90b 	bl	4504 <__assert_func>
    42ee:	b921      	cbnz	r1, 42fa <SerialManager_WriteBlocking+0x1e>
    42f0:	4b11      	ldr	r3, [pc, #68]	; (4338 <SerialManager_WriteBlocking+0x5c>)
    42f2:	4a0f      	ldr	r2, [pc, #60]	; (4330 <SerialManager_WriteBlocking+0x54>)
    42f4:	f240 310f 	movw	r1, #783	; 0x30f
    42f8:	e7f6      	b.n	42e8 <SerialManager_WriteBlocking+0xc>
    42fa:	b922      	cbnz	r2, 4306 <SerialManager_WriteBlocking+0x2a>
    42fc:	4b0f      	ldr	r3, [pc, #60]	; (433c <SerialManager_WriteBlocking+0x60>)
    42fe:	4a0c      	ldr	r2, [pc, #48]	; (4330 <SerialManager_WriteBlocking+0x54>)
    4300:	f44f 7144 	mov.w	r1, #784	; 0x310
    4304:	e7f0      	b.n	42e8 <SerialManager_WriteBlocking+0xc>
    4306:	6800      	ldr	r0, [r0, #0]
    4308:	b920      	cbnz	r0, 4314 <SerialManager_WriteBlocking+0x38>
    430a:	4b0d      	ldr	r3, [pc, #52]	; (4340 <SerialManager_WriteBlocking+0x64>)
    430c:	4a08      	ldr	r2, [pc, #32]	; (4330 <SerialManager_WriteBlocking+0x54>)
    430e:	f240 3115 	movw	r1, #789	; 0x315
    4312:	e7e9      	b.n	42e8 <SerialManager_WriteBlocking+0xc>
    4314:	7b03      	ldrb	r3, [r0, #12]
    4316:	2b01      	cmp	r3, #1
    4318:	d104      	bne.n	4324 <SerialManager_WriteBlocking+0x48>
    431a:	e8bd 4010 	ldmia.w	sp!, {r4, lr}
    431e:	3008      	adds	r0, #8
    4320:	f000 b840 	b.w	43a4 <Serial_UartWrite>
    4324:	f243 5021 	movw	r0, #13601	; 0x3521
    4328:	bd10      	pop	{r4, pc}
    432a:	bf00      	nop
    432c:	00008e84 	.word	0x00008e84
    4330:	00008eb0 	.word	0x00008eb0
    4334:	00008e26 	.word	0x00008e26
    4338:	00008ea2 	.word	0x00008ea2
    433c:	00008ea9 	.word	0x00008ea9
    4340:	00008e90 	.word	0x00008e90

00004344 <Serial_UartInit>:
    4344:	b51f      	push	{r0, r1, r2, r3, r4, lr}
    4346:	b929      	cbnz	r1, 4354 <Serial_UartInit+0x10>
    4348:	4b12      	ldr	r3, [pc, #72]	; (4394 <Serial_UartInit+0x50>)
    434a:	4a13      	ldr	r2, [pc, #76]	; (4398 <Serial_UartInit+0x54>)
    434c:	218b      	movs	r1, #139	; 0x8b
    434e:	4813      	ldr	r0, [pc, #76]	; (439c <Serial_UartInit+0x58>)
    4350:	f000 f8d8 	bl	4504 <__assert_func>
    4354:	b918      	cbnz	r0, 435e <Serial_UartInit+0x1a>
    4356:	4b12      	ldr	r3, [pc, #72]	; (43a0 <Serial_UartInit+0x5c>)
    4358:	4a0f      	ldr	r2, [pc, #60]	; (4398 <Serial_UartInit+0x54>)
    435a:	218c      	movs	r1, #140	; 0x8c
    435c:	e7f7      	b.n	434e <Serial_UartInit+0xa>
    435e:	7aca      	ldrb	r2, [r1, #11]
    4360:	f88d 200a 	strb.w	r2, [sp, #10]
    4364:	7b0a      	ldrb	r2, [r1, #12]
    4366:	684b      	ldr	r3, [r1, #4]
    4368:	f88d 200b 	strb.w	r2, [sp, #11]
    436c:	680a      	ldr	r2, [r1, #0]
    436e:	e9cd 2300 	strd	r2, r3, [sp]
    4372:	890b      	ldrh	r3, [r1, #8]
    4374:	f8ad 3008 	strh.w	r3, [sp, #8]
    4378:	7a8b      	ldrb	r3, [r1, #10]
    437a:	f88d 300c 	strb.w	r3, [sp, #12]
    437e:	4669      	mov	r1, sp
    4380:	f000 f834 	bl	43ec <HAL_UartInit>
    4384:	f243 5321 	movw	r3, #13601	; 0x3521
    4388:	2800      	cmp	r0, #0
    438a:	bf18      	it	ne
    438c:	4618      	movne	r0, r3
    438e:	b005      	add	sp, #20
    4390:	f85d fb04 	ldr.w	pc, [sp], #4
    4394:	00008f12 	.word	0x00008f12
    4398:	00008f72 	.word	0x00008f72
    439c:	00008f1f 	.word	0x00008f1f
    43a0:	00008e77 	.word	0x00008e77

000043a4 <Serial_UartWrite>:
    43a4:	b510      	push	{r4, lr}
    43a6:	b930      	cbnz	r0, 43b6 <Serial_UartWrite+0x12>
    43a8:	4b0b      	ldr	r3, [pc, #44]	; (43d8 <Serial_UartWrite+0x34>)
    43aa:	4a0c      	ldr	r2, [pc, #48]	; (43dc <Serial_UartWrite+0x38>)
    43ac:	f240 110b 	movw	r1, #267	; 0x10b
    43b0:	480b      	ldr	r0, [pc, #44]	; (43e0 <Serial_UartWrite+0x3c>)
    43b2:	f000 f8a7 	bl	4504 <__assert_func>
    43b6:	b921      	cbnz	r1, 43c2 <Serial_UartWrite+0x1e>
    43b8:	4b0a      	ldr	r3, [pc, #40]	; (43e4 <Serial_UartWrite+0x40>)
    43ba:	4a08      	ldr	r2, [pc, #32]	; (43dc <Serial_UartWrite+0x38>)
    43bc:	f44f 7186 	mov.w	r1, #268	; 0x10c
    43c0:	e7f6      	b.n	43b0 <Serial_UartWrite+0xc>
    43c2:	b922      	cbnz	r2, 43ce <Serial_UartWrite+0x2a>
    43c4:	4b08      	ldr	r3, [pc, #32]	; (43e8 <Serial_UartWrite+0x44>)
    43c6:	4a05      	ldr	r2, [pc, #20]	; (43dc <Serial_UartWrite+0x38>)
    43c8:	f240 110d 	movw	r1, #269	; 0x10d
    43cc:	e7f0      	b.n	43b0 <Serial_UartWrite+0xc>
    43ce:	e8bd 4010 	ldmia.w	sp!, {r4, lr}
    43d2:	f000 b86d 	b.w	44b0 <HAL_UartSendBlocking>
    43d6:	bf00      	nop
    43d8:	00008e77 	.word	0x00008e77
    43dc:	00008f82 	.word	0x00008f82
    43e0:	00008f1f 	.word	0x00008f1f
    43e4:	00008ea2 	.word	0x00008ea2
    43e8:	00008ea9 	.word	0x00008ea9

000043ec <HAL_UartInit>:
    43ec:	b57f      	push	{r0, r1, r2, r3, r4, r5, r6, lr}
    43ee:	460c      	mov	r4, r1
    43f0:	4605      	mov	r5, r0
    43f2:	b928      	cbnz	r0, 4400 <HAL_UartInit+0x14>
    43f4:	4b27      	ldr	r3, [pc, #156]	; (4494 <HAL_UartInit+0xa8>)
    43f6:	4a28      	ldr	r2, [pc, #160]	; (4498 <HAL_UartInit+0xac>)
    43f8:	21dc      	movs	r1, #220	; 0xdc
    43fa:	4828      	ldr	r0, [pc, #160]	; (449c <HAL_UartInit+0xb0>)
    43fc:	f000 f882 	bl	4504 <__assert_func>
    4400:	b919      	cbnz	r1, 440a <HAL_UartInit+0x1e>
    4402:	4b27      	ldr	r3, [pc, #156]	; (44a0 <HAL_UartInit+0xb4>)
    4404:	4a24      	ldr	r2, [pc, #144]	; (4498 <HAL_UartInit+0xac>)
    4406:	21dd      	movs	r1, #221	; 0xdd
    4408:	e7f7      	b.n	43fa <HAL_UartInit+0xe>
    440a:	7b0b      	ldrb	r3, [r1, #12]
    440c:	2b01      	cmp	r3, #1
    440e:	d903      	bls.n	4418 <HAL_UartInit+0x2c>
    4410:	4b24      	ldr	r3, [pc, #144]	; (44a4 <HAL_UartInit+0xb8>)
    4412:	4a21      	ldr	r2, [pc, #132]	; (4498 <HAL_UartInit+0xac>)
    4414:	21de      	movs	r1, #222	; 0xde
    4416:	e7f0      	b.n	43fa <HAL_UartInit+0xe>
    4418:	4e23      	ldr	r6, [pc, #140]	; (44a8 <HAL_UartInit+0xbc>)
    441a:	f856 3023 	ldr.w	r3, [r6, r3, lsl #2]
    441e:	b91b      	cbnz	r3, 4428 <HAL_UartInit+0x3c>
    4420:	4b22      	ldr	r3, [pc, #136]	; (44ac <HAL_UartInit+0xc0>)
    4422:	4a1d      	ldr	r2, [pc, #116]	; (4498 <HAL_UartInit+0xac>)
    4424:	21df      	movs	r1, #223	; 0xdf
    4426:	e7e8      	b.n	43fa <HAL_UartInit+0xe>
    4428:	4668      	mov	r0, sp
    442a:	f7fe f83f 	bl	24ac <USART_GetDefaultConfig>
    442e:	6863      	ldr	r3, [r4, #4]
    4430:	9300      	str	r3, [sp, #0]
    4432:	7a23      	ldrb	r3, [r4, #8]
    4434:	2b01      	cmp	r3, #1
    4436:	d125      	bne.n	4484 <HAL_UartInit+0x98>
    4438:	2302      	movs	r3, #2
    443a:	f88d 3004 	strb.w	r3, [sp, #4]
    443e:	7a63      	ldrb	r3, [r4, #9]
    4440:	1e5a      	subs	r2, r3, #1
    4442:	4253      	negs	r3, r2
    4444:	4153      	adcs	r3, r2
    4446:	f88d 3005 	strb.w	r3, [sp, #5]
    444a:	7aa3      	ldrb	r3, [r4, #10]
    444c:	6822      	ldr	r2, [r4, #0]
    444e:	3b00      	subs	r3, #0
    4450:	bf18      	it	ne
    4452:	2301      	movne	r3, #1
    4454:	f88d 3008 	strb.w	r3, [sp, #8]
    4458:	7ae3      	ldrb	r3, [r4, #11]
    445a:	3b00      	subs	r3, #0
    445c:	bf18      	it	ne
    445e:	2301      	movne	r3, #1
    4460:	f88d 3009 	strb.w	r3, [sp, #9]
    4464:	2300      	movs	r3, #0
    4466:	f88d 300b 	strb.w	r3, [sp, #11]
    446a:	f88d 300c 	strb.w	r3, [sp, #12]
    446e:	7b23      	ldrb	r3, [r4, #12]
    4470:	4669      	mov	r1, sp
    4472:	f856 0023 	ldr.w	r0, [r6, r3, lsl #2]
    4476:	f7fe f88b 	bl	2590 <USART_Init>
    447a:	b940      	cbnz	r0, 448e <HAL_UartInit+0xa2>
    447c:	7b23      	ldrb	r3, [r4, #12]
    447e:	702b      	strb	r3, [r5, #0]
    4480:	b004      	add	sp, #16
    4482:	bd70      	pop	{r4, r5, r6, pc}
    4484:	2b02      	cmp	r3, #2
    4486:	bf0c      	ite	eq
    4488:	2303      	moveq	r3, #3
    448a:	2300      	movne	r3, #0
    448c:	e7d5      	b.n	443a <HAL_UartInit+0x4e>
    448e:	f642 70af 	movw	r0, #12207	; 0x2faf
    4492:	e7f5      	b.n	4480 <HAL_UartInit+0x94>
    4494:	00008e90 	.word	0x00008e90
    4498:	0000904a 	.word	0x0000904a
    449c:	00008f93 	.word	0x00008f93
    44a0:	00008478 	.word	0x00008478
    44a4:	00008fd9 	.word	0x00008fd9
    44a8:	0000906c 	.word	0x0000906c
    44ac:	00009020 	.word	0x00009020

000044b0 <HAL_UartSendBlocking>:
    44b0:	b510      	push	{r4, lr}
    44b2:	b930      	cbnz	r0, 44c2 <HAL_UartSendBlocking+0x12>
    44b4:	4b0d      	ldr	r3, [pc, #52]	; (44ec <HAL_UartSendBlocking+0x3c>)
    44b6:	4a0e      	ldr	r2, [pc, #56]	; (44f0 <HAL_UartSendBlocking+0x40>)
    44b8:	f240 1145 	movw	r1, #325	; 0x145
    44bc:	480d      	ldr	r0, [pc, #52]	; (44f4 <HAL_UartSendBlocking+0x44>)
    44be:	f000 f821 	bl	4504 <__assert_func>
    44c2:	b921      	cbnz	r1, 44ce <HAL_UartSendBlocking+0x1e>
    44c4:	4b0c      	ldr	r3, [pc, #48]	; (44f8 <HAL_UartSendBlocking+0x48>)
    44c6:	4a0a      	ldr	r2, [pc, #40]	; (44f0 <HAL_UartSendBlocking+0x40>)
    44c8:	f44f 71a3 	mov.w	r1, #326	; 0x146
    44cc:	e7f6      	b.n	44bc <HAL_UartSendBlocking+0xc>
    44ce:	b922      	cbnz	r2, 44da <HAL_UartSendBlocking+0x2a>
    44d0:	4b0a      	ldr	r3, [pc, #40]	; (44fc <HAL_UartSendBlocking+0x4c>)
    44d2:	4a07      	ldr	r2, [pc, #28]	; (44f0 <HAL_UartSendBlocking+0x40>)
    44d4:	f240 1147 	movw	r1, #327	; 0x147
    44d8:	e7f0      	b.n	44bc <HAL_UartSendBlocking+0xc>
    44da:	4b09      	ldr	r3, [pc, #36]	; (4500 <HAL_UartSendBlocking+0x50>)
    44dc:	7800      	ldrb	r0, [r0, #0]
    44de:	f853 0020 	ldr.w	r0, [r3, r0, lsl #2]
    44e2:	f7fe f8db 	bl	269c <USART_WriteBlocking>
    44e6:	2000      	movs	r0, #0
    44e8:	bd10      	pop	{r4, pc}
    44ea:	bf00      	nop
    44ec:	00008e90 	.word	0x00008e90
    44f0:	00009057 	.word	0x00009057
    44f4:	00008f93 	.word	0x00008f93
    44f8:	00009045 	.word	0x00009045
    44fc:	00008ea9 	.word	0x00008ea9
    4500:	0000906c 	.word	0x0000906c

00004504 <__assert_func>:
    4504:	b507      	push	{r0, r1, r2, lr}
    4506:	460c      	mov	r4, r1
    4508:	9200      	str	r2, [sp, #0]
    450a:	4619      	mov	r1, r3
    450c:	4602      	mov	r2, r0
    450e:	4623      	mov	r3, r4
    4510:	4802      	ldr	r0, [pc, #8]	; (451c <__assert_func+0x18>)
    4512:	f7fc ffbf 	bl	1494 <DbgConsole_Printf>
    4516:	be00      	bkpt	0x0000
    4518:	e7fd      	b.n	4516 <__assert_func+0x12>
    451a:	bf00      	nop
    451c:	00009074 	.word	0x00009074

00004520 <PWRM_eStartActivity>:
    4520:	b508      	push	{r3, lr}
    4522:	f7ff fb59 	bl	3bd8 <PWR_DisallowDeviceToSleep>
    4526:	2000      	movs	r0, #0
    4528:	bd08      	pop	{r3, pc}

0000452a <PWRM_eFinishActivity>:
    452a:	b508      	push	{r3, lr}
    452c:	f7ff fb46 	bl	3bbc <PWR_AllowDeviceToSleep>
    4530:	2000      	movs	r0, #0
    4532:	bd08      	pop	{r3, pc}

00004534 <WAKE_UP_TIMER1_IRQHandler>:
    4534:	b508      	push	{r3, lr}
    4536:	2001      	movs	r0, #1
    4538:	f7fe fbce 	bl	2cd8 <WTIMER_ClearStatusFlags>
    453c:	e8bd 4008 	ldmia.w	sp!, {r3, lr}
    4540:	f7ff bb5a 	b.w	3bf8 <PWR_vWakeInterruptCallback>

00004544 <vMMAC_Enable>:
    4544:	b508      	push	{r3, lr}
    4546:	2000      	movs	r0, #0
    4548:	f002 fbe2 	bl	6d10 <vRadio_RadioInit>
    454c:	4b11      	ldr	r3, [pc, #68]	; (4594 <vMMAC_Enable+0x50>)
    454e:	f44f 6280 	mov.w	r2, #1024	; 0x400
    4552:	f8c3 2fe8 	str.w	r2, [r3, #4072]	; 0xfe8
    4556:	f8d3 2fe4 	ldr.w	r2, [r3, #4068]	; 0xfe4
    455a:	f442 6280 	orr.w	r2, r2, #1024	; 0x400
    455e:	f8c3 2fe4 	str.w	r2, [r3, #4068]	; 0xfe4
    4562:	4b0d      	ldr	r3, [pc, #52]	; (4598 <vMMAC_Enable+0x54>)
    4564:	f44f 6200 	mov.w	r2, #2048	; 0x800
    4568:	605a      	str	r2, [r3, #4]
    456a:	2240      	movs	r2, #64	; 0x40
    456c:	f883 232b 	strb.w	r2, [r3, #811]	; 0x32b
    4570:	2030      	movs	r0, #48	; 0x30
    4572:	4b0a      	ldr	r3, [pc, #40]	; (459c <vMMAC_Enable+0x58>)
    4574:	4798      	blx	r3
    4576:	4b0a      	ldr	r3, [pc, #40]	; (45a0 <vMMAC_Enable+0x5c>)
    4578:	7018      	strb	r0, [r3, #0]
    457a:	4b0a      	ldr	r3, [pc, #40]	; (45a4 <vMMAC_Enable+0x60>)
    457c:	f04f 32ff 	mov.w	r2, #4294967295
    4580:	641a      	str	r2, [r3, #64]	; 0x40
    4582:	f240 1207 	movw	r2, #263	; 0x107
    4586:	63da      	str	r2, [r3, #60]	; 0x3c
    4588:	2201      	movs	r2, #1
    458a:	621a      	str	r2, [r3, #32]
    458c:	4a06      	ldr	r2, [pc, #24]	; (45a8 <vMMAC_Enable+0x64>)
    458e:	f8c3 230c 	str.w	r2, [r3, #780]	; 0x30c
    4592:	bd08      	pop	{r3, pc}
    4594:	400b0000 	.word	0x400b0000
    4598:	e000e100 	.word	0xe000e100
    459c:	03001671 	.word	0x03001671
    45a0:	04015f9c 	.word	0x04015f9c
    45a4:	400b1000 	.word	0x400b1000
    45a8:	04000000 	.word	0x04000000

000045ac <vMMAC_EnableInterrupts>:
    45ac:	4b06      	ldr	r3, [pc, #24]	; (45c8 <vMMAC_EnableInterrupts+0x1c>)
    45ae:	781b      	ldrb	r3, [r3, #0]
    45b0:	b90b      	cbnz	r3, 45b6 <vMMAC_EnableInterrupts+0xa>
    45b2:	4b06      	ldr	r3, [pc, #24]	; (45cc <vMMAC_EnableInterrupts+0x20>)
    45b4:	6018      	str	r0, [r3, #0]
    45b6:	4b06      	ldr	r3, [pc, #24]	; (45d0 <vMMAC_EnableInterrupts+0x24>)
    45b8:	f44f 6280 	mov.w	r2, #1024	; 0x400
    45bc:	605a      	str	r2, [r3, #4]
    45be:	22a0      	movs	r2, #160	; 0xa0
    45c0:	f883 232a 	strb.w	r2, [r3, #810]	; 0x32a
    45c4:	b662      	cpsie	i
    45c6:	4770      	bx	lr
    45c8:	04015f9c 	.word	0x04015f9c
    45cc:	04015fa0 	.word	0x04015fa0
    45d0:	e000e100 	.word	0xe000e100

000045d4 <u32MMAC_GetPhyState>:
    45d4:	b082      	sub	sp, #8
    45d6:	f3ef 8110 	mrs	r1, PRIMASK
    45da:	b672      	cpsid	i
    45dc:	4b0d      	ldr	r3, [pc, #52]	; (4614 <u32MMAC_GetPhyState+0x40>)
    45de:	889a      	ldrh	r2, [r3, #4]
    45e0:	2001      	movs	r0, #1
    45e2:	f360 020f 	bfi	r2, r0, #0, #16
    45e6:	809a      	strh	r2, [r3, #4]
    45e8:	2000      	movs	r0, #0
    45ea:	9001      	str	r0, [sp, #4]
    45ec:	9a01      	ldr	r2, [sp, #4]
    45ee:	2a09      	cmp	r2, #9
    45f0:	dd0c      	ble.n	460c <u32MMAC_GetPhyState+0x38>
    45f2:	68da      	ldr	r2, [r3, #12]
    45f4:	07d2      	lsls	r2, r2, #31
    45f6:	d5f8      	bpl.n	45ea <u32MMAC_GetPhyState+0x16>
    45f8:	2201      	movs	r2, #1
    45fa:	609a      	str	r2, [r3, #8]
    45fc:	f8d3 0830 	ldr.w	r0, [r3, #2096]	; 0x830
    4600:	f3c0 0009 	ubfx	r0, r0, #0, #10
    4604:	f381 8810 	msr	PRIMASK, r1
    4608:	b002      	add	sp, #8
    460a:	4770      	bx	lr
    460c:	9a01      	ldr	r2, [sp, #4]
    460e:	3201      	adds	r2, #1
    4610:	9201      	str	r2, [sp, #4]
    4612:	e7eb      	b.n	45ec <u32MMAC_GetPhyState+0x18>
    4614:	40013000 	.word	0x40013000

00004618 <vMMAC_CheckRxStarted>:
    4618:	b538      	push	{r3, r4, r5, lr}
    461a:	4b15      	ldr	r3, [pc, #84]	; (4670 <vMMAC_CheckRxStarted+0x58>)
    461c:	781a      	ldrb	r2, [r3, #0]
    461e:	b32a      	cbz	r2, 466c <vMMAC_CheckRxStarted+0x54>
    4620:	2200      	movs	r2, #0
    4622:	701a      	strb	r2, [r3, #0]
    4624:	4b13      	ldr	r3, [pc, #76]	; (4674 <vMMAC_CheckRxStarted+0x5c>)
    4626:	f8d3 31c0 	ldr.w	r3, [r3, #448]	; 0x1c0
    462a:	b9fb      	cbnz	r3, 466c <vMMAC_CheckRxStarted+0x54>
    462c:	f7ff ffd2 	bl	45d4 <u32MMAC_GetPhyState>
    4630:	0702      	lsls	r2, r0, #28
    4632:	d41b      	bmi.n	466c <vMMAC_CheckRxStarted+0x54>
    4634:	4b10      	ldr	r3, [pc, #64]	; (4678 <vMMAC_CheckRxStarted+0x60>)
    4636:	f8d3 48ac 	ldr.w	r4, [r3, #2220]	; 0x8ac
    463a:	f8b3 28ac 	ldrh.w	r2, [r3, #2220]	; 0x8ac
    463e:	f240 71ff 	movw	r1, #2047	; 0x7ff
    4642:	f361 020a 	bfi	r2, r1, #0, #11
    4646:	f3c4 040a 	ubfx	r4, r4, #0, #11
    464a:	f8a3 28ac 	strh.w	r2, [r3, #2220]	; 0x8ac
    464e:	f44f 757a 	mov.w	r5, #1000	; 0x3e8
    4652:	f7ff ffbf 	bl	45d4 <u32MMAC_GetPhyState>
    4656:	3d01      	subs	r5, #1
    4658:	d001      	beq.n	465e <vMMAC_CheckRxStarted+0x46>
    465a:	0703      	lsls	r3, r0, #28
    465c:	d5f9      	bpl.n	4652 <vMMAC_CheckRxStarted+0x3a>
    465e:	4b06      	ldr	r3, [pc, #24]	; (4678 <vMMAC_CheckRxStarted+0x60>)
    4660:	f8b3 28ac 	ldrh.w	r2, [r3, #2220]	; 0x8ac
    4664:	f364 020a 	bfi	r2, r4, #0, #11
    4668:	f8a3 28ac 	strh.w	r2, [r3, #2220]	; 0x8ac
    466c:	bd38      	pop	{r3, r4, r5, pc}
    466e:	bf00      	nop
    4670:	04015f9d 	.word	0x04015f9d
    4674:	400b1000 	.word	0x400b1000
    4678:	40013000 	.word	0x40013000

0000467c <vMMAC_AbortRadio>:
    467c:	b5f8      	push	{r3, r4, r5, r6, r7, lr}
    467e:	4c11      	ldr	r4, [pc, #68]	; (46c4 <vMMAC_AbortRadio+0x48>)
    4680:	f8d4 58ac 	ldr.w	r5, [r4, #2220]	; 0x8ac
    4684:	f8b4 28ac 	ldrh.w	r2, [r4, #2220]	; 0x8ac
    4688:	f240 71ff 	movw	r1, #2047	; 0x7ff
    468c:	f361 020a 	bfi	r2, r1, #0, #11
    4690:	f3c5 050a 	ubfx	r5, r5, #0, #11
    4694:	f8a4 28ac 	strh.w	r2, [r4, #2220]	; 0x8ac
    4698:	2602      	movs	r6, #2
    469a:	2704      	movs	r7, #4
    469c:	f7ff ff9a 	bl	45d4 <u32MMAC_GetPhyState>
    46a0:	f010 0f0c 	tst.w	r0, #12
    46a4:	d002      	beq.n	46ac <vMMAC_AbortRadio+0x30>
    46a6:	f8c4 786c 	str.w	r7, [r4, #2156]	; 0x86c
    46aa:	e7f7      	b.n	469c <vMMAC_AbortRadio+0x20>
    46ac:	2800      	cmp	r0, #0
    46ae:	d1f5      	bne.n	469c <vMMAC_AbortRadio+0x20>
    46b0:	3e01      	subs	r6, #1
    46b2:	d1f3      	bne.n	469c <vMMAC_AbortRadio+0x20>
    46b4:	4b03      	ldr	r3, [pc, #12]	; (46c4 <vMMAC_AbortRadio+0x48>)
    46b6:	f8b3 28ac 	ldrh.w	r2, [r3, #2220]	; 0x8ac
    46ba:	f365 020a 	bfi	r2, r5, #0, #11
    46be:	f8a3 28ac 	strh.w	r2, [r3, #2220]	; 0x8ac
    46c2:	bdf8      	pop	{r3, r4, r5, r6, r7, pc}
    46c4:	40013000 	.word	0x40013000

000046c8 <vMMAC_RxCtlUpdate>:
    46c8:	4b0d      	ldr	r3, [pc, #52]	; (4700 <vMMAC_RxCtlUpdate+0x38>)
    46ca:	781b      	ldrb	r3, [r3, #0]
    46cc:	b913      	cbnz	r3, 46d4 <vMMAC_RxCtlUpdate+0xc>
    46ce:	4b0d      	ldr	r3, [pc, #52]	; (4704 <vMMAC_RxCtlUpdate+0x3c>)
    46d0:	f8c3 02c0 	str.w	r0, [r3, #704]	; 0x2c0
    46d4:	f3ef 8110 	mrs	r1, PRIMASK
    46d8:	b672      	cpsid	i
    46da:	4b0a      	ldr	r3, [pc, #40]	; (4704 <vMMAC_RxCtlUpdate+0x3c>)
    46dc:	4a0a      	ldr	r2, [pc, #40]	; (4708 <vMMAC_RxCtlUpdate+0x40>)
    46de:	b148      	cbz	r0, 46f4 <vMMAC_RxCtlUpdate+0x2c>
    46e0:	2001      	movs	r0, #1
    46e2:	7010      	strb	r0, [r2, #0]
    46e4:	f44f 7280 	mov.w	r2, #256	; 0x100
    46e8:	641a      	str	r2, [r3, #64]	; 0x40
    46ea:	220c      	movs	r2, #12
    46ec:	611a      	str	r2, [r3, #16]
    46ee:	f381 8810 	msr	PRIMASK, r1
    46f2:	4770      	bx	lr
    46f4:	7010      	strb	r0, [r2, #0]
    46f6:	f44f 7280 	mov.w	r2, #256	; 0x100
    46fa:	6118      	str	r0, [r3, #16]
    46fc:	641a      	str	r2, [r3, #64]	; 0x40
    46fe:	e7f6      	b.n	46ee <vMMAC_RxCtlUpdate+0x26>
    4700:	04015f9c 	.word	0x04015f9c
    4704:	400b1000 	.word	0x400b1000
    4708:	04015f9d 	.word	0x04015f9d

0000470c <vMMAC_RadioOff>:
    470c:	2000      	movs	r0, #0
    470e:	f7ff bfdb 	b.w	46c8 <vMMAC_RxCtlUpdate>
    4712:	Address 0x00004712 is out of bounds.


00004714 <vMMAC_RadioToOffAndWait>:
    4714:	b5f7      	push	{r0, r1, r2, r4, r5, r6, r7, lr}
    4716:	4c11      	ldr	r4, [pc, #68]	; (475c <vMMAC_RadioToOffAndWait+0x48>)
    4718:	2100      	movs	r1, #0
    471a:	a801      	add	r0, sp, #4
    471c:	f7ff fa3e 	bl	3b9c <vMicroIntEnableOnly>
    4720:	f7ff fff4 	bl	470c <vMMAC_RadioOff>
    4724:	6a67      	ldr	r7, [r4, #36]	; 0x24
    4726:	f243 06d3 	movw	r6, #12499	; 0x30d3
    472a:	6fe5      	ldr	r5, [r4, #124]	; 0x7c
    472c:	f7ff ff52 	bl	45d4 <u32MMAC_GetPhyState>
    4730:	f005 050f 	and.w	r5, r5, #15
    4734:	ea55 0200 	orrs.w	r2, r5, r0
    4738:	6a63      	ldr	r3, [r4, #36]	; 0x24
    473a:	d104      	bne.n	4746 <vMMAC_RadioToOffAndWait+0x32>
    473c:	a801      	add	r0, sp, #4
    473e:	f7ff fa39 	bl	3bb4 <vMicroIntRestoreState>
    4742:	b003      	add	sp, #12
    4744:	bdf0      	pop	{r4, r5, r6, r7, pc}
    4746:	1bdb      	subs	r3, r3, r7
    4748:	42b3      	cmp	r3, r6
    474a:	ddee      	ble.n	472a <vMMAC_RadioToOffAndWait+0x16>
    474c:	f7ff ff96 	bl	467c <vMMAC_AbortRadio>
    4750:	f7ff ff40 	bl	45d4 <u32MMAC_GetPhyState>
    4754:	2800      	cmp	r0, #0
    4756:	d1fb      	bne.n	4750 <vMMAC_RadioToOffAndWait+0x3c>
    4758:	e7f0      	b.n	473c <vMMAC_RadioToOffAndWait+0x28>
    475a:	bf00      	nop
    475c:	400b1000 	.word	0x400b1000

00004760 <vMMAC_StartMacTransmit>:
    4760:	b538      	push	{r3, r4, r5, lr}
    4762:	4605      	mov	r5, r0
    4764:	460c      	mov	r4, r1
    4766:	f7ff ffd5 	bl	4714 <vMMAC_RadioToOffAndWait>
    476a:	4b06      	ldr	r3, [pc, #24]	; (4784 <vMMAC_StartMacTransmit+0x24>)
    476c:	2200      	movs	r2, #0
    476e:	f8c3 21cc 	str.w	r2, [r3, #460]	; 0x1cc
    4772:	4a05      	ldr	r2, [pc, #20]	; (4788 <vMMAC_StartMacTransmit+0x28>)
    4774:	7812      	ldrb	r2, [r2, #0]
    4776:	645a      	str	r2, [r3, #68]	; 0x44
    4778:	f8c3 51dc 	str.w	r5, [r3, #476]	; 0x1dc
    477c:	f8c3 41c0 	str.w	r4, [r3, #448]	; 0x1c0
    4780:	bd38      	pop	{r3, r4, r5, pc}
    4782:	bf00      	nop
    4784:	400b1000 	.word	0x400b1000
    4788:	04015fa9 	.word	0x04015fa9

0000478c <vMMAC_SetChannelAndPower>:
    478c:	b5f7      	push	{r0, r1, r2, r4, r5, r6, r7, lr}
    478e:	4c0f      	ldr	r4, [pc, #60]	; (47cc <vMMAC_SetChannelAndPower+0x40>)
    4790:	4605      	mov	r5, r0
    4792:	460e      	mov	r6, r1
    4794:	a801      	add	r0, sp, #4
    4796:	2100      	movs	r1, #0
    4798:	f7ff fa00 	bl	3b9c <vMicroIntEnableOnly>
    479c:	f8d4 72c0 	ldr.w	r7, [r4, #704]	; 0x2c0
    47a0:	f7ff ffb8 	bl	4714 <vMMAC_RadioToOffAndWait>
    47a4:	4b0a      	ldr	r3, [pc, #40]	; (47d0 <vMMAC_SetChannelAndPower+0x44>)
    47a6:	781b      	ldrb	r3, [r3, #0]
    47a8:	b91b      	cbnz	r3, 47b2 <vMMAC_SetChannelAndPower+0x26>
    47aa:	b271      	sxtb	r1, r6
    47ac:	4628      	mov	r0, r5
    47ae:	f001 ff65 	bl	667c <vRadio_SetChannelAndPower>
    47b2:	f8d4 3088 	ldr.w	r3, [r4, #136]	; 0x88
    47b6:	f013 0f05 	tst.w	r3, #5
    47ba:	d102      	bne.n	47c2 <vMMAC_SetChannelAndPower+0x36>
    47bc:	4638      	mov	r0, r7
    47be:	f7ff ff83 	bl	46c8 <vMMAC_RxCtlUpdate>
    47c2:	a801      	add	r0, sp, #4
    47c4:	f7ff f9f6 	bl	3bb4 <vMicroIntRestoreState>
    47c8:	b003      	add	sp, #12
    47ca:	bdf0      	pop	{r4, r5, r6, r7, pc}
    47cc:	400b1000 	.word	0x400b1000
    47d0:	04015f9c 	.word	0x04015f9c

000047d4 <vMMAC_StartMacReceive>:
    47d4:	b410      	push	{r4}
    47d6:	4b08      	ldr	r3, [pc, #32]	; (47f8 <vMMAC_StartMacReceive+0x24>)
    47d8:	2400      	movs	r4, #0
    47da:	f8c3 41c0 	str.w	r4, [r3, #448]	; 0x1c0
    47de:	4c07      	ldr	r4, [pc, #28]	; (47fc <vMMAC_StartMacReceive+0x28>)
    47e0:	0a0a      	lsrs	r2, r1, #8
    47e2:	7824      	ldrb	r4, [r4, #0]
    47e4:	645c      	str	r4, [r3, #68]	; 0x44
    47e6:	f8c3 02dc 	str.w	r0, [r3, #732]	; 0x2dc
    47ea:	bc10      	pop	{r4}
    47ec:	f8c3 22e0 	str.w	r2, [r3, #736]	; 0x2e0
    47f0:	b2c8      	uxtb	r0, r1
    47f2:	f7ff bf69 	b.w	46c8 <vMMAC_RxCtlUpdate>
    47f6:	bf00      	nop
    47f8:	400b1000 	.word	0x400b1000
    47fc:	04015fa9 	.word	0x04015fa9

00004800 <vMMAC_WriteCcaThreshold>:
    4800:	4b0a      	ldr	r3, [pc, #40]	; (482c <vMMAC_WriteCcaThreshold+0x2c>)
    4802:	b510      	push	{r4, lr}
    4804:	4c0a      	ldr	r4, [pc, #40]	; (4830 <vMMAC_WriteCcaThreshold+0x30>)
    4806:	4343      	muls	r3, r0
    4808:	6821      	ldr	r1, [r4, #0]
    480a:	f503 0380 	add.w	r3, r3, #4194304	; 0x400000
    480e:	0ddb      	lsrs	r3, r3, #23
    4810:	f421 617f 	bic.w	r1, r1, #4080	; 0xff0
    4814:	f5a3 73c8 	sub.w	r3, r3, #400	; 0x190
    4818:	f640 72fc 	movw	r2, #4092	; 0xffc
    481c:	f021 010c 	bic.w	r1, r1, #12
    4820:	ea02 0383 	and.w	r3, r2, r3, lsl #2
    4824:	430b      	orrs	r3, r1
    4826:	6023      	str	r3, [r4, #0]
    4828:	bd10      	pop	{r4, pc}
    482a:	bf00      	nop
    482c:	00dcdcdd 	.word	0x00dcdcdd
    4830:	400b0000 	.word	0x400b0000

00004834 <vMMAC_SetHighPowerOptions>:
    4834:	4b02      	ldr	r3, [pc, #8]	; (4840 <vMMAC_SetHighPowerOptions+0xc>)
    4836:	7818      	ldrb	r0, [r3, #0]
    4838:	b108      	cbz	r0, 483e <vMMAC_SetHighPowerOptions+0xa>
    483a:	f7ff bfe1 	b.w	4800 <vMMAC_WriteCcaThreshold>
    483e:	4770      	bx	lr
    4840:	04015fa8 	.word	0x04015fa8

00004844 <vMMAC_IntHandlerBbc>:
    4844:	4b09      	ldr	r3, [pc, #36]	; (486c <vMMAC_IntHandlerBbc+0x28>)
    4846:	b510      	push	{r4, lr}
    4848:	f8d3 4088 	ldr.w	r4, [r3, #136]	; 0x88
    484c:	641c      	str	r4, [r3, #64]	; 0x40
    484e:	05e3      	lsls	r3, r4, #23
    4850:	d503      	bpl.n	485a <vMMAC_IntHandlerBbc+0x16>
    4852:	f7ff fee1 	bl	4618 <vMMAC_CheckRxStarted>
    4856:	f424 7480 	bic.w	r4, r4, #256	; 0x100
    485a:	4b05      	ldr	r3, [pc, #20]	; (4870 <vMMAC_IntHandlerBbc+0x2c>)
    485c:	681b      	ldr	r3, [r3, #0]
    485e:	b11b      	cbz	r3, 4868 <vMMAC_IntHandlerBbc+0x24>
    4860:	4620      	mov	r0, r4
    4862:	e8bd 4010 	ldmia.w	sp!, {r4, lr}
    4866:	4718      	bx	r3
    4868:	bd10      	pop	{r4, pc}
    486a:	bf00      	nop
    486c:	400b1000 	.word	0x400b1000
    4870:	04015fa0 	.word	0x04015fa0

00004874 <vMMAC_IntHandlerPhy>:
    4874:	4b0a      	ldr	r3, [pc, #40]	; (48a0 <vMMAC_IntHandlerPhy+0x2c>)
    4876:	b510      	push	{r4, lr}
    4878:	f8d3 4fe0 	ldr.w	r4, [r3, #4064]	; 0xfe0
    487c:	f8d3 2fe4 	ldr.w	r2, [r3, #4068]	; 0xfe4
    4880:	4014      	ands	r4, r2
    4882:	f8c3 4fe8 	str.w	r4, [r3, #4072]	; 0xfe8
    4886:	0563      	lsls	r3, r4, #21
    4888:	d501      	bpl.n	488e <vMMAC_IntHandlerPhy+0x1a>
    488a:	f001 fea9 	bl	65e0 <vRadio_RFT1778_bad_crc>
    488e:	4b05      	ldr	r3, [pc, #20]	; (48a4 <vMMAC_IntHandlerPhy+0x30>)
    4890:	681b      	ldr	r3, [r3, #0]
    4892:	b11b      	cbz	r3, 489c <vMMAC_IntHandlerPhy+0x28>
    4894:	4620      	mov	r0, r4
    4896:	e8bd 4010 	ldmia.w	sp!, {r4, lr}
    489a:	4718      	bx	r3
    489c:	bd10      	pop	{r4, pc}
    489e:	bf00      	nop
    48a0:	400b0000 	.word	0x400b0000
    48a4:	04015fa4 	.word	0x04015fa4

000048a8 <vMMAC_ConfigureRadio>:
    48a8:	4a08      	ldr	r2, [pc, #32]	; (48cc <vMMAC_ConfigureRadio+0x24>)
    48aa:	b508      	push	{r3, lr}
    48ac:	6813      	ldr	r3, [r2, #0]
    48ae:	f423 637f 	bic.w	r3, r3, #4080	; 0xff0
    48b2:	f023 030c 	bic.w	r3, r3, #12
    48b6:	f443 6336 	orr.w	r3, r3, #2912	; 0xb60
    48ba:	f043 0304 	orr.w	r3, r3, #4
    48be:	6013      	str	r3, [r2, #0]
    48c0:	f7ff ffb8 	bl	4834 <vMMAC_SetHighPowerOptions>
    48c4:	e8bd 4008 	ldmia.w	sp!, {r3, lr}
    48c8:	f001 beca 	b.w	6660 <vRadio_InitialiseRadioStandard>
    48cc:	400b0000 	.word	0x400b0000

000048d0 <radio_IsNotC2MF>:
    48d0:	b128      	cbz	r0, 48de <radio_IsNotC2MF+0xe>
    48d2:	4b0f      	ldr	r3, [pc, #60]	; (4910 <radio_IsNotC2MF+0x40>)
    48d4:	f8d3 34a0 	ldr.w	r3, [r3, #1184]	; 0x4a0
    48d8:	f003 033f 	and.w	r3, r3, #63	; 0x3f
    48dc:	6003      	str	r3, [r0, #0]
    48de:	b129      	cbz	r1, 48ec <radio_IsNotC2MF+0x1c>
    48e0:	4b0c      	ldr	r3, [pc, #48]	; (4914 <radio_IsNotC2MF+0x44>)
    48e2:	f8d3 30b0 	ldr.w	r3, [r3, #176]	; 0xb0
    48e6:	f003 033f 	and.w	r3, r3, #63	; 0x3f
    48ea:	600b      	str	r3, [r1, #0]
    48ec:	4b08      	ldr	r3, [pc, #32]	; (4910 <radio_IsNotC2MF+0x40>)
    48ee:	f8d3 34a0 	ldr.w	r3, [r3, #1184]	; 0x4a0
    48f2:	f003 033f 	and.w	r3, r3, #63	; 0x3f
    48f6:	2b05      	cmp	r3, #5
    48f8:	d108      	bne.n	490c <radio_IsNotC2MF+0x3c>
    48fa:	4b06      	ldr	r3, [pc, #24]	; (4914 <radio_IsNotC2MF+0x44>)
    48fc:	f8d3 00b0 	ldr.w	r0, [r3, #176]	; 0xb0
    4900:	f000 003f 	and.w	r0, r0, #63	; 0x3f
    4904:	3808      	subs	r0, #8
    4906:	bf18      	it	ne
    4908:	2001      	movne	r0, #1
    490a:	4770      	bx	lr
    490c:	2001      	movs	r0, #1
    490e:	4770      	bx	lr
    4910:	40013000 	.word	0x40013000
    4914:	40020000 	.word	0x40020000

00004918 <radio_TX_ZigBee_pll_dac_banked_set>:
    4918:	b508      	push	{r3, lr}
    491a:	4a0f      	ldr	r2, [pc, #60]	; (4958 <radio_TX_ZigBee_pll_dac_banked_set+0x40>)
    491c:	f8b2 32c0 	ldrh.w	r3, [r2, #704]	; 0x2c0
    4920:	f36f 1304 	bfc	r3, #4, #1
    4924:	f8a2 32c0 	strh.w	r3, [r2, #704]	; 0x2c0
    4928:	f8b2 32c0 	ldrh.w	r3, [r2, #704]	; 0x2c0
    492c:	2100      	movs	r1, #0
    492e:	f043 030c 	orr.w	r3, r3, #12
    4932:	f8a2 32c0 	strh.w	r3, [r2, #704]	; 0x2c0
    4936:	4608      	mov	r0, r1
    4938:	f7ff ffca 	bl	48d0 <radio_IsNotC2MF>
    493c:	b950      	cbnz	r0, 4954 <radio_TX_ZigBee_pll_dac_banked_set+0x3c>
    493e:	f8d2 379c 	ldr.w	r3, [r2, #1948]	; 0x79c
    4942:	f8b2 179c 	ldrh.w	r1, [r2, #1948]	; 0x79c
    4946:	f063 031f 	orn	r3, r3, #31
    494a:	b2db      	uxtb	r3, r3
    494c:	f363 0107 	bfi	r1, r3, #0, #8
    4950:	f8a2 179c 	strh.w	r1, [r2, #1948]	; 0x79c
    4954:	bd08      	pop	{r3, pc}
    4956:	bf00      	nop
    4958:	40013000 	.word	0x40013000

0000495c <radio_fill_std_ZB_regs>:
    495c:	b510      	push	{r4, lr}
    495e:	0852      	lsrs	r2, r2, #1
    4960:	eb01 0242 	add.w	r2, r1, r2, lsl #1
    4964:	4291      	cmp	r1, r2
    4966:	d300      	bcc.n	496a <radio_fill_std_ZB_regs+0xe>
    4968:	bd10      	pop	{r4, pc}
    496a:	884c      	ldrh	r4, [r1, #2]
    496c:	f831 3b08 	ldrh.w	r3, [r1], #8
    4970:	52c4      	strh	r4, [r0, r3]
    4972:	e7f7      	b.n	4964 <radio_fill_std_ZB_regs+0x8>

00004974 <radio_fill_std_BLE1M_regs>:
    4974:	b510      	push	{r4, lr}
    4976:	0852      	lsrs	r2, r2, #1
    4978:	eb01 0242 	add.w	r2, r1, r2, lsl #1
    497c:	4291      	cmp	r1, r2
    497e:	d300      	bcc.n	4982 <radio_fill_std_BLE1M_regs+0xe>
    4980:	bd10      	pop	{r4, pc}
    4982:	888c      	ldrh	r4, [r1, #4]
    4984:	f831 3b08 	ldrh.w	r3, [r1], #8
    4988:	52c4      	strh	r4, [r0, r3]
    498a:	e7f7      	b.n	497c <radio_fill_std_BLE1M_regs+0x8>

0000498c <radio_fill_std_BLE2M_regs>:
    498c:	b510      	push	{r4, lr}
    498e:	0852      	lsrs	r2, r2, #1
    4990:	eb01 0242 	add.w	r2, r1, r2, lsl #1
    4994:	4291      	cmp	r1, r2
    4996:	d300      	bcc.n	499a <radio_fill_std_BLE2M_regs+0xe>
    4998:	bd10      	pop	{r4, pc}
    499a:	88cc      	ldrh	r4, [r1, #6]
    499c:	f831 3b08 	ldrh.w	r3, [r1], #8
    49a0:	52c4      	strh	r4, [r0, r3]
    49a2:	e7f7      	b.n	4994 <radio_fill_std_BLE2M_regs+0x8>

000049a4 <radio_fill_zbble_ZB_regs>:
    49a4:	b510      	push	{r4, lr}
    49a6:	0852      	lsrs	r2, r2, #1
    49a8:	eb01 0242 	add.w	r2, r1, r2, lsl #1
    49ac:	4291      	cmp	r1, r2
    49ae:	d300      	bcc.n	49b2 <radio_fill_zbble_ZB_regs+0xe>
    49b0:	bd10      	pop	{r4, pc}
    49b2:	884c      	ldrh	r4, [r1, #2]
    49b4:	f831 3b06 	ldrh.w	r3, [r1], #6
    49b8:	52c4      	strh	r4, [r0, r3]
    49ba:	e7f7      	b.n	49ac <radio_fill_zbble_ZB_regs+0x8>

000049bc <radio_fill_zbble_BLE_regs>:
    49bc:	b510      	push	{r4, lr}
    49be:	0852      	lsrs	r2, r2, #1
    49c0:	eb01 0242 	add.w	r2, r1, r2, lsl #1
    49c4:	4291      	cmp	r1, r2
    49c6:	d300      	bcc.n	49ca <radio_fill_zbble_BLE_regs+0xe>
    49c8:	bd10      	pop	{r4, pc}
    49ca:	888c      	ldrh	r4, [r1, #4]
    49cc:	f831 3b06 	ldrh.w	r3, [r1], #6
    49d0:	52c4      	strh	r4, [r0, r3]
    49d2:	e7f7      	b.n	49c4 <radio_fill_zbble_BLE_regs+0x8>

000049d4 <radio_fill_regs>:
    49d4:	b510      	push	{r4, lr}
    49d6:	0852      	lsrs	r2, r2, #1
    49d8:	eb01 0242 	add.w	r2, r1, r2, lsl #1
    49dc:	4291      	cmp	r1, r2
    49de:	d300      	bcc.n	49e2 <radio_fill_regs+0xe>
    49e0:	bd10      	pop	{r4, pc}
    49e2:	884c      	ldrh	r4, [r1, #2]
    49e4:	f831 3b04 	ldrh.w	r3, [r1], #4
    49e8:	52c4      	strh	r4, [r0, r3]
    49ea:	e7f7      	b.n	49dc <radio_fill_regs+0x8>

000049ec <radio_power_down_to_off_polled>:
    49ec:	b510      	push	{r4, lr}
    49ee:	4c0c      	ldr	r4, [pc, #48]	; (4a20 <radio_power_down_to_off_polled+0x34>)
    49f0:	f894 2858 	ldrb.w	r2, [r4, #2136]	; 0x858
    49f4:	f36f 1204 	bfc	r2, #4, #1
    49f8:	f884 2858 	strb.w	r2, [r4, #2136]	; 0x858
    49fc:	2210      	movs	r2, #16
    49fe:	f8c4 2854 	str.w	r2, [r4, #2132]	; 0x854
    4a02:	2208      	movs	r2, #8
    4a04:	f8c4 286c 	str.w	r2, [r4, #2156]	; 0x86c
    4a08:	f8d4 384c 	ldr.w	r3, [r4, #2124]	; 0x84c
    4a0c:	06db      	lsls	r3, r3, #27
    4a0e:	d503      	bpl.n	4a18 <radio_power_down_to_off_polled+0x2c>
    4a10:	2310      	movs	r3, #16
    4a12:	f8c4 3854 	str.w	r3, [r4, #2132]	; 0x854
    4a16:	bd10      	pop	{r4, pc}
    4a18:	200a      	movs	r0, #10
    4a1a:	f7fd fb95 	bl	2148 <CLOCK_uDelay>
    4a1e:	e7f3      	b.n	4a08 <radio_power_down_to_off_polled+0x1c>
    4a20:	40013000 	.word	0x40013000

00004a24 <radio_pre_start_to_pll_polled>:
    4a24:	b510      	push	{r4, lr}
    4a26:	4c1c      	ldr	r4, [pc, #112]	; (4a98 <radio_pre_start_to_pll_polled+0x74>)
    4a28:	f8b4 2848 	ldrh.w	r2, [r4, #2120]	; 0x848
    4a2c:	f36f 1286 	bfc	r2, #6, #1
    4a30:	f8a4 2848 	strh.w	r2, [r4, #2120]	; 0x848
    4a34:	f06f 0240 	mvn.w	r2, #64	; 0x40
    4a38:	f8c4 2844 	str.w	r2, [r4, #2116]	; 0x844
    4a3c:	f46f 6202 	mvn.w	r2, #2080	; 0x820
    4a40:	f8c4 2864 	str.w	r2, [r4, #2148]	; 0x864
    4a44:	2201      	movs	r2, #1
    4a46:	f8c4 286c 	str.w	r2, [r4, #2156]	; 0x86c
    4a4a:	f8d4 383c 	ldr.w	r3, [r4, #2108]	; 0x83c
    4a4e:	065b      	lsls	r3, r3, #25
    4a50:	d516      	bpl.n	4a80 <radio_pre_start_to_pll_polled+0x5c>
    4a52:	f8d4 3804 	ldr.w	r3, [r4, #2052]	; 0x804
    4a56:	0658      	lsls	r0, r3, #25
    4a58:	d504      	bpl.n	4a64 <radio_pre_start_to_pll_polled+0x40>
    4a5a:	4c0f      	ldr	r4, [pc, #60]	; (4a98 <radio_pre_start_to_pll_polled+0x74>)
    4a5c:	f8d4 385c 	ldr.w	r3, [r4, #2140]	; 0x85c
    4a60:	069a      	lsls	r2, r3, #26
    4a62:	d511      	bpl.n	4a88 <radio_pre_start_to_pll_polled+0x64>
    4a64:	4c0c      	ldr	r4, [pc, #48]	; (4a98 <radio_pre_start_to_pll_polled+0x74>)
    4a66:	f8d4 2804 	ldr.w	r2, [r4, #2052]	; 0x804
    4a6a:	05d1      	lsls	r1, r2, #23
    4a6c:	d503      	bpl.n	4a76 <radio_pre_start_to_pll_polled+0x52>
    4a6e:	f8d4 385c 	ldr.w	r3, [r4, #2140]	; 0x85c
    4a72:	051b      	lsls	r3, r3, #20
    4a74:	d50c      	bpl.n	4a90 <radio_pre_start_to_pll_polled+0x6c>
    4a76:	4b08      	ldr	r3, [pc, #32]	; (4a98 <radio_pre_start_to_pll_polled+0x74>)
    4a78:	2240      	movs	r2, #64	; 0x40
    4a7a:	f8c3 2844 	str.w	r2, [r3, #2116]	; 0x844
    4a7e:	bd10      	pop	{r4, pc}
    4a80:	2001      	movs	r0, #1
    4a82:	f7fd fb61 	bl	2148 <CLOCK_uDelay>
    4a86:	e7e0      	b.n	4a4a <radio_pre_start_to_pll_polled+0x26>
    4a88:	2001      	movs	r0, #1
    4a8a:	f7fd fb5d 	bl	2148 <CLOCK_uDelay>
    4a8e:	e7e5      	b.n	4a5c <radio_pre_start_to_pll_polled+0x38>
    4a90:	2001      	movs	r0, #1
    4a92:	f7fd fb59 	bl	2148 <CLOCK_uDelay>
    4a96:	e7ea      	b.n	4a6e <radio_pre_start_to_pll_polled+0x4a>
    4a98:	40013000 	.word	0x40013000

00004a9c <radio_rx_assert_polled>:
    4a9c:	b510      	push	{r4, lr}
    4a9e:	4c0c      	ldr	r4, [pc, #48]	; (4ad0 <radio_rx_assert_polled+0x34>)
    4aa0:	f894 2858 	ldrb.w	r2, [r4, #2136]	; 0x858
    4aa4:	f36f 0241 	bfc	r2, #1, #1
    4aa8:	f884 2858 	strb.w	r2, [r4, #2136]	; 0x858
    4aac:	2202      	movs	r2, #2
    4aae:	f8c4 2854 	str.w	r2, [r4, #2132]	; 0x854
    4ab2:	2240      	movs	r2, #64	; 0x40
    4ab4:	f8c4 286c 	str.w	r2, [r4, #2156]	; 0x86c
    4ab8:	f8d4 384c 	ldr.w	r3, [r4, #2124]	; 0x84c
    4abc:	079b      	lsls	r3, r3, #30
    4abe:	d503      	bpl.n	4ac8 <radio_rx_assert_polled+0x2c>
    4ac0:	2302      	movs	r3, #2
    4ac2:	f8c4 3854 	str.w	r3, [r4, #2132]	; 0x854
    4ac6:	bd10      	pop	{r4, pc}
    4ac8:	2001      	movs	r0, #1
    4aca:	f7fd fb3d 	bl	2148 <CLOCK_uDelay>
    4ace:	e7f3      	b.n	4ab8 <radio_rx_assert_polled+0x1c>
    4ad0:	40013000 	.word	0x40013000

00004ad4 <radio_rx_deassert_polled>:
    4ad4:	b510      	push	{r4, lr}
    4ad6:	4c0c      	ldr	r4, [pc, #48]	; (4b08 <radio_rx_deassert_polled+0x34>)
    4ad8:	f894 2858 	ldrb.w	r2, [r4, #2136]	; 0x858
    4adc:	f36f 02c3 	bfc	r2, #3, #1
    4ae0:	f884 2858 	strb.w	r2, [r4, #2136]	; 0x858
    4ae4:	2208      	movs	r2, #8
    4ae6:	f8c4 2854 	str.w	r2, [r4, #2132]	; 0x854
    4aea:	2280      	movs	r2, #128	; 0x80
    4aec:	f8c4 286c 	str.w	r2, [r4, #2156]	; 0x86c
    4af0:	f8d4 384c 	ldr.w	r3, [r4, #2124]	; 0x84c
    4af4:	071b      	lsls	r3, r3, #28
    4af6:	d503      	bpl.n	4b00 <radio_rx_deassert_polled+0x2c>
    4af8:	2308      	movs	r3, #8
    4afa:	f8c4 3854 	str.w	r3, [r4, #2132]	; 0x854
    4afe:	bd10      	pop	{r4, pc}
    4b00:	2001      	movs	r0, #1
    4b02:	f7fd fb21 	bl	2148 <CLOCK_uDelay>
    4b06:	e7f3      	b.n	4af0 <radio_rx_deassert_polled+0x1c>
    4b08:	40013000 	.word	0x40013000

00004b0c <radio_RSSI_cal>:
    4b0c:	4b12      	ldr	r3, [pc, #72]	; (4b58 <radio_RSSI_cal+0x4c>)
    4b0e:	4913      	ldr	r1, [pc, #76]	; (4b5c <radio_RSSI_cal+0x50>)
    4b10:	681b      	ldr	r3, [r3, #0]
    4b12:	f013 0f01 	tst.w	r3, #1
    4b16:	d01a      	beq.n	4b4e <radio_RSSI_cal+0x42>
    4b18:	f9b1 2032 	ldrsh.w	r2, [r1, #50]	; 0x32
    4b1c:	f9b1 001c 	ldrsh.w	r0, [r1, #28]
    4b20:	1a10      	subs	r0, r2, r0
    4b22:	4a0f      	ldr	r2, [pc, #60]	; (4b60 <radio_RSSI_cal+0x54>)
    4b24:	4342      	muls	r2, r0
    4b26:	f343 0346 	sbfx	r3, r3, #1, #7
    4b2a:	f502 32d9 	add.w	r2, r2, #111104	; 0x1b200
    4b2e:	3b07      	subs	r3, #7
    4b30:	f502 72db 	add.w	r2, r2, #438	; 0x1b6
    4b34:	eb03 33e2 	add.w	r3, r3, r2, asr #15
    4b38:	f303 0006 	ssat	r0, #7, r3
    4b3c:	644b      	str	r3, [r1, #68]	; 0x44
    4b3e:	4b09      	ldr	r3, [pc, #36]	; (4b64 <radio_RSSI_cal+0x58>)
    4b40:	f8b3 2060 	ldrh.w	r2, [r3, #96]	; 0x60
    4b44:	f360 0206 	bfi	r2, r0, #0, #7
    4b48:	f8a3 2060 	strh.w	r2, [r3, #96]	; 0x60
    4b4c:	4770      	bx	lr
    4b4e:	f06f 0306 	mvn.w	r3, #6
    4b52:	4618      	mov	r0, r3
    4b54:	e7f2      	b.n	4b3c <radio_RSSI_cal+0x30>
    4b56:	bf00      	nop
    4b58:	0009fcd8 	.word	0x0009fcd8
    4b5c:	04015b28 	.word	0x04015b28
    4b60:	fffff979 	.word	0xfffff979
    4b64:	40013000 	.word	0x40013000

00004b68 <radio_Init>:
    4b68:	2270      	movs	r2, #112	; 0x70
    4b6a:	b508      	push	{r3, lr}
    4b6c:	4909      	ldr	r1, [pc, #36]	; (4b94 <radio_Init+0x2c>)
    4b6e:	480a      	ldr	r0, [pc, #40]	; (4b98 <radio_Init+0x30>)
    4b70:	f7ff ff30 	bl	49d4 <radio_fill_regs>
    4b74:	2100      	movs	r1, #0
    4b76:	4608      	mov	r0, r1
    4b78:	f7ff feaa 	bl	48d0 <radio_IsNotC2MF>
    4b7c:	220c      	movs	r2, #12
    4b7e:	b138      	cbz	r0, 4b90 <radio_Init+0x28>
    4b80:	4906      	ldr	r1, [pc, #24]	; (4b9c <radio_Init+0x34>)
    4b82:	4805      	ldr	r0, [pc, #20]	; (4b98 <radio_Init+0x30>)
    4b84:	f7ff ff26 	bl	49d4 <radio_fill_regs>
    4b88:	e8bd 4008 	ldmia.w	sp!, {r3, lr}
    4b8c:	f7ff bfbe 	b.w	4b0c <radio_RSSI_cal>
    4b90:	4903      	ldr	r1, [pc, #12]	; (4ba0 <radio_Init+0x38>)
    4b92:	e7f6      	b.n	4b82 <radio_Init+0x1a>
    4b94:	000091a6 	.word	0x000091a6
    4b98:	40013000 	.word	0x40013000
    4b9c:	00009216 	.word	0x00009216
    4ba0:	00009222 	.word	0x00009222

00004ba4 <radio_TMU_Init>:
    4ba4:	4902      	ldr	r1, [pc, #8]	; (4bb0 <radio_TMU_Init+0xc>)
    4ba6:	4803      	ldr	r0, [pc, #12]	; (4bb4 <radio_TMU_Init+0x10>)
    4ba8:	224c      	movs	r2, #76	; 0x4c
    4baa:	f7ff bf13 	b.w	49d4 <radio_fill_regs>
    4bae:	bf00      	nop
    4bb0:	0000915a 	.word	0x0000915a
    4bb4:	40013000 	.word	0x40013000

00004bb8 <radio_Use_Cal_Values>:
    4bb8:	b510      	push	{r4, lr}
    4bba:	4b4a      	ldr	r3, [pc, #296]	; (4ce4 <radio_Use_Cal_Values+0x12c>)
    4bbc:	4a4a      	ldr	r2, [pc, #296]	; (4ce8 <radio_Use_Cal_Values+0x130>)
    4bbe:	6999      	ldr	r1, [r3, #24]
    4bc0:	f3c1 0180 	ubfx	r1, r1, #2, #1
    4bc4:	6011      	str	r1, [r2, #0]
    4bc6:	699a      	ldr	r2, [r3, #24]
    4bc8:	f36f 0282 	bfc	r2, #2, #1
    4bcc:	619a      	str	r2, [r3, #24]
    4bce:	4b47      	ldr	r3, [pc, #284]	; (4cec <radio_Use_Cal_Values+0x134>)
    4bd0:	681a      	ldr	r2, [r3, #0]
    4bd2:	4b47      	ldr	r3, [pc, #284]	; (4cf0 <radio_Use_Cal_Values+0x138>)
    4bd4:	07d4      	lsls	r4, r2, #31
    4bd6:	f8b3 03d0 	ldrh.w	r0, [r3, #976]	; 0x3d0
    4bda:	bf4c      	ite	mi
    4bdc:	f3c2 0244 	ubfxmi	r2, r2, #1, #5
    4be0:	2208      	movpl	r2, #8
    4be2:	f362 1008 	bfi	r0, r2, #4, #5
    4be6:	f8a3 03d0 	strh.w	r0, [r3, #976]	; 0x3d0
    4bea:	f893 23d4 	ldrb.w	r2, [r3, #980]	; 0x3d4
    4bee:	f36f 1204 	bfc	r2, #4, #1
    4bf2:	f883 23d4 	strb.w	r2, [r3, #980]	; 0x3d4
    4bf6:	4a3f      	ldr	r2, [pc, #252]	; (4cf4 <radio_Use_Cal_Values+0x13c>)
    4bf8:	6812      	ldr	r2, [r2, #0]
    4bfa:	07d0      	lsls	r0, r2, #31
    4bfc:	f8b3 03d0 	ldrh.w	r0, [r3, #976]	; 0x3d0
    4c00:	bf4c      	ite	mi
    4c02:	f3c2 0242 	ubfxmi	r2, r2, #1, #3
    4c06:	2202      	movpl	r2, #2
    4c08:	f362 204b 	bfi	r0, r2, #9, #3
    4c0c:	f8a3 03d0 	strh.w	r0, [r3, #976]	; 0x3d0
    4c10:	f893 23d4 	ldrb.w	r2, [r3, #980]	; 0x3d4
    4c14:	f36f 1245 	bfc	r2, #5, #1
    4c18:	f883 23d4 	strb.w	r2, [r3, #980]	; 0x3d4
    4c1c:	f893 2684 	ldrb.w	r2, [r3, #1668]	; 0x684
    4c20:	2009      	movs	r0, #9
    4c22:	f360 0205 	bfi	r2, r0, #0, #6
    4c26:	f883 2684 	strb.w	r2, [r3, #1668]	; 0x684
    4c2a:	f8b3 2680 	ldrh.w	r2, [r3, #1664]	; 0x680
    4c2e:	f249 5456 	movw	r4, #38230	; 0x9556
    4c32:	f364 020f 	bfi	r2, r4, #0, #16
    4c36:	f8a3 2680 	strh.w	r2, [r3, #1664]	; 0x680
    4c3a:	f893 268c 	ldrb.w	r2, [r3, #1676]	; 0x68c
    4c3e:	f360 0205 	bfi	r2, r0, #0, #6
    4c42:	f883 268c 	strb.w	r2, [r3, #1676]	; 0x68c
    4c46:	f8b3 2688 	ldrh.w	r2, [r3, #1672]	; 0x688
    4c4a:	f249 4041 	movw	r0, #37953	; 0x9441
    4c4e:	f360 020f 	bfi	r2, r0, #0, #16
    4c52:	f8a3 2688 	strh.w	r2, [r3, #1672]	; 0x688
    4c56:	f8b3 2690 	ldrh.w	r2, [r3, #1680]	; 0x690
    4c5a:	f240 30b2 	movw	r0, #946	; 0x3b2
    4c5e:	f360 020a 	bfi	r2, r0, #0, #11
    4c62:	f8a3 2690 	strh.w	r2, [r3, #1680]	; 0x690
    4c66:	f8b3 2794 	ldrh.w	r2, [r3, #1940]	; 0x794
    4c6a:	f360 020a 	bfi	r2, r0, #0, #11
    4c6e:	f8a3 2794 	strh.w	r2, [r3, #1940]	; 0x794
    4c72:	f893 2780 	ldrb.w	r2, [r3, #1920]	; 0x780
    4c76:	f36f 1204 	bfc	r2, #4, #1
    4c7a:	f883 2780 	strb.w	r2, [r3, #1920]	; 0x780
    4c7e:	f893 26a0 	ldrb.w	r2, [r3, #1696]	; 0x6a0
    4c82:	f36f 0204 	bfc	r2, #0, #5
    4c86:	f883 26a0 	strb.w	r2, [r3, #1696]	; 0x6a0
    4c8a:	f8b3 26ac 	ldrh.w	r2, [r3, #1708]	; 0x6ac
    4c8e:	207a      	movs	r0, #122	; 0x7a
    4c90:	f360 0208 	bfi	r2, r0, #0, #9
    4c94:	f8a3 26ac 	strh.w	r2, [r3, #1708]	; 0x6ac
    4c98:	f8b3 26d0 	ldrh.w	r2, [r3, #1744]	; 0x6d0
    4c9c:	f360 0208 	bfi	r2, r0, #0, #9
    4ca0:	f8a3 26d0 	strh.w	r2, [r3, #1744]	; 0x6d0
    4ca4:	f893 26b0 	ldrb.w	r2, [r3, #1712]	; 0x6b0
    4ca8:	200f      	movs	r0, #15
    4caa:	f360 0207 	bfi	r2, r0, #0, #8
    4cae:	f883 26b0 	strb.w	r2, [r3, #1712]	; 0x6b0
    4cb2:	f893 271c 	ldrb.w	r2, [r3, #1820]	; 0x71c
    4cb6:	f360 0207 	bfi	r2, r0, #0, #8
    4cba:	f883 271c 	strb.w	r2, [r3, #1820]	; 0x71c
    4cbe:	f893 22dc 	ldrb.w	r2, [r3, #732]	; 0x2dc
    4cc2:	f360 0286 	bfi	r2, r0, #2, #5
    4cc6:	f883 22dc 	strb.w	r2, [r3, #732]	; 0x2dc
    4cca:	f893 22e0 	ldrb.w	r2, [r3, #736]	; 0x2e0
    4cce:	f36f 0282 	bfc	r2, #2, #1
    4cd2:	f883 22e0 	strb.w	r2, [r3, #736]	; 0x2e0
    4cd6:	4b03      	ldr	r3, [pc, #12]	; (4ce4 <radio_Use_Cal_Values+0x12c>)
    4cd8:	699a      	ldr	r2, [r3, #24]
    4cda:	f361 0282 	bfi	r2, r1, #2, #1
    4cde:	619a      	str	r2, [r3, #24]
    4ce0:	bd10      	pop	{r4, pc}
    4ce2:	bf00      	nop
    4ce4:	400b0000 	.word	0x400b0000
    4ce8:	04015fc4 	.word	0x04015fc4
    4cec:	0009fc88 	.word	0x0009fc88
    4cf0:	40013000 	.word	0x40013000
    4cf4:	0009fd10 	.word	0x0009fd10

00004cf8 <radio_Use_Retained_Cal_Values>:
    4cf8:	4a10      	ldr	r2, [pc, #64]	; (4d3c <radio_Use_Retained_Cal_Values+0x44>)
    4cfa:	4b11      	ldr	r3, [pc, #68]	; (4d40 <radio_Use_Retained_Cal_Values+0x48>)
    4cfc:	6991      	ldr	r1, [r2, #24]
    4cfe:	f3c1 0180 	ubfx	r1, r1, #2, #1
    4d02:	6019      	str	r1, [r3, #0]
    4d04:	6993      	ldr	r3, [r2, #24]
    4d06:	f36f 0382 	bfc	r3, #2, #1
    4d0a:	6193      	str	r3, [r2, #24]
    4d0c:	4b0d      	ldr	r3, [pc, #52]	; (4d44 <radio_Use_Retained_Cal_Values+0x4c>)
    4d0e:	f893 03d4 	ldrb.w	r0, [r3, #980]	; 0x3d4
    4d12:	f36f 1004 	bfc	r0, #4, #1
    4d16:	f883 03d4 	strb.w	r0, [r3, #980]	; 0x3d4
    4d1a:	f893 03d4 	ldrb.w	r0, [r3, #980]	; 0x3d4
    4d1e:	f36f 1045 	bfc	r0, #5, #1
    4d22:	f883 03d4 	strb.w	r0, [r3, #980]	; 0x3d4
    4d26:	f893 02e0 	ldrb.w	r0, [r3, #736]	; 0x2e0
    4d2a:	f36f 0082 	bfc	r0, #2, #1
    4d2e:	f883 02e0 	strb.w	r0, [r3, #736]	; 0x2e0
    4d32:	6993      	ldr	r3, [r2, #24]
    4d34:	f361 0382 	bfi	r3, r1, #2, #1
    4d38:	6193      	str	r3, [r2, #24]
    4d3a:	4770      	bx	lr
    4d3c:	400b0000 	.word	0x400b0000
    4d40:	04015fc4 	.word	0x04015fc4
    4d44:	40013000 	.word	0x40013000

00004d48 <radio_rfbandgap_cal>:
    4d48:	4b09      	ldr	r3, [pc, #36]	; (4d70 <radio_rfbandgap_cal+0x28>)
    4d4a:	6819      	ldr	r1, [r3, #0]
    4d4c:	4b09      	ldr	r3, [pc, #36]	; (4d74 <radio_rfbandgap_cal+0x2c>)
    4d4e:	f893 22dc 	ldrb.w	r2, [r3, #732]	; 0x2dc
    4d52:	f3c1 3184 	ubfx	r1, r1, #14, #5
    4d56:	f361 0286 	bfi	r2, r1, #2, #5
    4d5a:	f883 22dc 	strb.w	r2, [r3, #732]	; 0x2dc
    4d5e:	f893 22e0 	ldrb.w	r2, [r3, #736]	; 0x2e0
    4d62:	f36f 0282 	bfc	r2, #2, #1
    4d66:	f883 22e0 	strb.w	r2, [r3, #736]	; 0x2e0
    4d6a:	2000      	movs	r0, #0
    4d6c:	4770      	bx	lr
    4d6e:	bf00      	nop
    4d70:	0009fc88 	.word	0x0009fc88
    4d74:	40013000 	.word	0x40013000

00004d78 <radio_Carrier_Frequency_Select_by_index>:
    4d78:	b530      	push	{r4, r5, lr}
    4d7a:	4b21      	ldr	r3, [pc, #132]	; (4e00 <radio_Carrier_Frequency_Select_by_index+0x88>)
    4d7c:	f8b3 280c 	ldrh.w	r2, [r3, #2060]	; 0x80c
    4d80:	2101      	movs	r1, #1
    4d82:	f361 224a 	bfi	r2, r1, #9, #2
    4d86:	f8a3 280c 	strh.w	r2, [r3, #2060]	; 0x80c
    4d8a:	f8b3 280c 	ldrh.w	r2, [r3, #2060]	; 0x80c
    4d8e:	f361 22cc 	bfi	r2, r1, #11, #2
    4d92:	2114      	movs	r1, #20
    4d94:	f8a3 280c 	strh.w	r2, [r3, #2060]	; 0x80c
    4d98:	4341      	muls	r1, r0
    4d9a:	4a1a      	ldr	r2, [pc, #104]	; (4e04 <radio_Carrier_Frequency_Select_by_index+0x8c>)
    4d9c:	5855      	ldr	r5, [r2, r1]
    4d9e:	1854      	adds	r4, r2, r1
    4da0:	f8b3 1924 	ldrh.w	r1, [r3, #2340]	; 0x924
    4da4:	f365 010b 	bfi	r1, r5, #0, #12
    4da8:	f8a3 1924 	strh.w	r1, [r3, #2340]	; 0x924
    4dac:	f8b3 1928 	ldrh.w	r1, [r3, #2344]	; 0x928
    4db0:	6865      	ldr	r5, [r4, #4]
    4db2:	2801      	cmp	r0, #1
    4db4:	f365 010d 	bfi	r1, r5, #0, #14
    4db8:	f8a3 1928 	strh.w	r1, [r3, #2344]	; 0x928
    4dbc:	d906      	bls.n	4dcc <radio_Carrier_Frequency_Select_by_index+0x54>
    4dbe:	f503 231d 	add.w	r3, r3, #643072	; 0x9d000
    4dc2:	68a4      	ldr	r4, [r4, #8]
    4dc4:	6959      	ldr	r1, [r3, #20]
    4dc6:	f364 0103 	bfi	r1, r4, #0, #4
    4dca:	6159      	str	r1, [r3, #20]
    4dcc:	2314      	movs	r3, #20
    4dce:	fb03 2000 	mla	r0, r3, r0, r2
    4dd2:	4b0b      	ldr	r3, [pc, #44]	; (4e00 <radio_Carrier_Frequency_Select_by_index+0x88>)
    4dd4:	7b01      	ldrb	r1, [r0, #12]
    4dd6:	f8b3 2200 	ldrh.w	r2, [r3, #512]	; 0x200
    4dda:	f361 0207 	bfi	r2, r1, #0, #8
    4dde:	f8a3 2200 	strh.w	r2, [r3, #512]	; 0x200
    4de2:	f8b3 2200 	ldrh.w	r2, [r3, #512]	; 0x200
    4de6:	7c01      	ldrb	r1, [r0, #16]
    4de8:	f361 220f 	bfi	r2, r1, #8, #8
    4dec:	f8a3 2200 	strh.w	r2, [r3, #512]	; 0x200
    4df0:	f893 26a8 	ldrb.w	r2, [r3, #1704]	; 0x6a8
    4df4:	f36f 0241 	bfc	r2, #1, #1
    4df8:	f883 26a8 	strb.w	r2, [r3, #1704]	; 0x6a8
    4dfc:	bd30      	pop	{r4, r5, pc}
    4dfe:	bf00      	nop
    4e00:	40013000 	.word	0x40013000
    4e04:	00009384 	.word	0x00009384

00004e08 <radio_Synthesizer_Cw_Mode_Init>:
    4e08:	4b06      	ldr	r3, [pc, #24]	; (4e24 <radio_Synthesizer_Cw_Mode_Init+0x1c>)
    4e0a:	f893 2980 	ldrb.w	r2, [r3, #2432]	; 0x980
    4e0e:	f36f 0200 	bfc	r2, #0, #1
    4e12:	f883 2980 	strb.w	r2, [r3, #2432]	; 0x980
    4e16:	f8b3 28f8 	ldrh.w	r2, [r3, #2296]	; 0x8f8
    4e1a:	f042 0220 	orr.w	r2, r2, #32
    4e1e:	f8a3 28f8 	strh.w	r2, [r3, #2296]	; 0x8f8
    4e22:	4770      	bx	lr
    4e24:	40013000 	.word	0x40013000

00004e28 <radio_Trx_Packet_SW_Ctrl_Init>:
    4e28:	4b06      	ldr	r3, [pc, #24]	; (4e44 <radio_Trx_Packet_SW_Ctrl_Init+0x1c>)
    4e2a:	f8b3 2800 	ldrh.w	r2, [r3, #2048]	; 0x800
    4e2e:	f36f 2208 	bfc	r2, #8, #1
    4e32:	f8a3 2800 	strh.w	r2, [r3, #2048]	; 0x800
    4e36:	f8b3 2804 	ldrh.w	r2, [r3, #2052]	; 0x804
    4e3a:	f36f 0282 	bfc	r2, #2, #1
    4e3e:	f8a3 2804 	strh.w	r2, [r3, #2052]	; 0x804
    4e42:	4770      	bx	lr
    4e44:	40013000 	.word	0x40013000

00004e48 <radio_Disable_Auto_Kmod_Chan_and_Synth_Cal_Operation>:
    4e48:	4b06      	ldr	r3, [pc, #24]	; (4e64 <radio_Disable_Auto_Kmod_Chan_and_Synth_Cal_Operation+0x1c>)
    4e4a:	f8b3 2804 	ldrh.w	r2, [r3, #2052]	; 0x804
    4e4e:	f36f 1286 	bfc	r2, #6, #1
    4e52:	f8a3 2804 	strh.w	r2, [r3, #2052]	; 0x804
    4e56:	f8b3 2804 	ldrh.w	r2, [r3, #2052]	; 0x804
    4e5a:	f36f 2208 	bfc	r2, #8, #1
    4e5e:	f8a3 2804 	strh.w	r2, [r3, #2052]	; 0x804
    4e62:	4770      	bx	lr
    4e64:	40013000 	.word	0x40013000

00004e68 <radio_Synthesizer_Cal_Startup_init>:
    4e68:	b538      	push	{r3, r4, r5, lr}
    4e6a:	4c0a      	ldr	r4, [pc, #40]	; (4e94 <radio_Synthesizer_Cal_Startup_init+0x2c>)
    4e6c:	4d0a      	ldr	r5, [pc, #40]	; (4e98 <radio_Synthesizer_Cal_Startup_init+0x30>)
    4e6e:	69a3      	ldr	r3, [r4, #24]
    4e70:	490a      	ldr	r1, [pc, #40]	; (4e9c <radio_Synthesizer_Cal_Startup_init+0x34>)
    4e72:	480b      	ldr	r0, [pc, #44]	; (4ea0 <radio_Synthesizer_Cal_Startup_init+0x38>)
    4e74:	f3c3 0380 	ubfx	r3, r3, #2, #1
    4e78:	602b      	str	r3, [r5, #0]
    4e7a:	69a3      	ldr	r3, [r4, #24]
    4e7c:	f36f 0382 	bfc	r3, #2, #1
    4e80:	61a3      	str	r3, [r4, #24]
    4e82:	2244      	movs	r2, #68	; 0x44
    4e84:	f7ff fda6 	bl	49d4 <radio_fill_regs>
    4e88:	682a      	ldr	r2, [r5, #0]
    4e8a:	69a3      	ldr	r3, [r4, #24]
    4e8c:	f362 0382 	bfi	r3, r2, #2, #1
    4e90:	61a3      	str	r3, [r4, #24]
    4e92:	bd38      	pop	{r3, r4, r5, pc}
    4e94:	400b0000 	.word	0x400b0000
    4e98:	04015fc4 	.word	0x04015fc4
    4e9c:	00009116 	.word	0x00009116
    4ea0:	40013000 	.word	0x40013000

00004ea4 <radio_Synthesizer_Cal_Startup_algo>:
    4ea4:	b570      	push	{r4, r5, r6, lr}
    4ea6:	4b40      	ldr	r3, [pc, #256]	; (4fa8 <radio_Synthesizer_Cal_Startup_algo+0x104>)
    4ea8:	4d40      	ldr	r5, [pc, #256]	; (4fac <radio_Synthesizer_Cal_Startup_algo+0x108>)
    4eaa:	699a      	ldr	r2, [r3, #24]
    4eac:	4c40      	ldr	r4, [pc, #256]	; (4fb0 <radio_Synthesizer_Cal_Startup_algo+0x10c>)
    4eae:	f3c2 0280 	ubfx	r2, r2, #2, #1
    4eb2:	602a      	str	r2, [r5, #0]
    4eb4:	699a      	ldr	r2, [r3, #24]
    4eb6:	f36f 0282 	bfc	r2, #2, #1
    4eba:	619a      	str	r2, [r3, #24]
    4ebc:	f8b4 3868 	ldrh.w	r3, [r4, #2152]	; 0x868
    4ec0:	f36f 238a 	bfc	r3, #10, #1
    4ec4:	f8a4 3868 	strh.w	r3, [r4, #2152]	; 0x868
    4ec8:	f44f 6380 	mov.w	r3, #1024	; 0x400
    4ecc:	f8c4 3864 	str.w	r3, [r4, #2148]	; 0x864
    4ed0:	f8b4 33a8 	ldrh.w	r3, [r4, #936]	; 0x3a8
    4ed4:	f043 0301 	orr.w	r3, r3, #1
    4ed8:	f8a4 33a8 	strh.w	r3, [r4, #936]	; 0x3a8
    4edc:	f894 33ac 	ldrb.w	r3, [r4, #940]	; 0x3ac
    4ee0:	f36f 0300 	bfc	r3, #0, #1
    4ee4:	f884 33ac 	strb.w	r3, [r4, #940]	; 0x3ac
    4ee8:	f641 73ff 	movw	r3, #8191	; 0x1fff
    4eec:	f8c4 3864 	str.w	r3, [r4, #2148]	; 0x864
    4ef0:	2301      	movs	r3, #1
    4ef2:	f8c4 3878 	str.w	r3, [r4, #2168]	; 0x878
    4ef6:	f8d4 385c 	ldr.w	r3, [r4, #2140]	; 0x85c
    4efa:	055b      	lsls	r3, r3, #21
    4efc:	d550      	bpl.n	4fa0 <radio_Synthesizer_Cal_Startup_algo+0xfc>
    4efe:	f44f 6380 	mov.w	r3, #1024	; 0x400
    4f02:	f8c4 3864 	str.w	r3, [r4, #2148]	; 0x864
    4f06:	f894 33ac 	ldrb.w	r3, [r4, #940]	; 0x3ac
    4f0a:	f043 0301 	orr.w	r3, r3, #1
    4f0e:	f884 33ac 	strb.w	r3, [r4, #940]	; 0x3ac
    4f12:	f8b4 33a8 	ldrh.w	r3, [r4, #936]	; 0x3a8
    4f16:	f36f 0300 	bfc	r3, #0, #1
    4f1a:	f8a4 33a8 	strh.w	r3, [r4, #936]	; 0x3a8
    4f1e:	f8d4 26ac 	ldr.w	r2, [r4, #1708]	; 0x6ac
    4f22:	f8b4 36d0 	ldrh.w	r3, [r4, #1744]	; 0x6d0
    4f26:	f362 0308 	bfi	r3, r2, #0, #9
    4f2a:	f8a4 36d0 	strh.w	r3, [r4, #1744]	; 0x6d0
    4f2e:	f8d4 26b0 	ldr.w	r2, [r4, #1712]	; 0x6b0
    4f32:	f894 371c 	ldrb.w	r3, [r4, #1820]	; 0x71c
    4f36:	b2d2      	uxtb	r2, r2
    4f38:	f362 0307 	bfi	r3, r2, #0, #8
    4f3c:	4a1d      	ldr	r2, [pc, #116]	; (4fb4 <radio_Synthesizer_Cal_Startup_algo+0x110>)
    4f3e:	f884 371c 	strb.w	r3, [r4, #1820]	; 0x71c
    4f42:	f892 3050 	ldrb.w	r3, [r2, #80]	; 0x50
    4f46:	2b03      	cmp	r3, #3
    4f48:	d823      	bhi.n	4f92 <radio_Synthesizer_Cal_Startup_algo+0xee>
    4f4a:	f892 1030 	ldrb.w	r1, [r2, #48]	; 0x30
    4f4e:	b301      	cbz	r1, 4f92 <radio_Synthesizer_Cal_Startup_algo+0xee>
    4f50:	6cd0      	ldr	r0, [r2, #76]	; 0x4c
    4f52:	eb00 0243 	add.w	r2, r0, r3, lsl #1
    4f56:	f9b2 2004 	ldrsh.w	r2, [r2, #4]
    4f5a:	f512 7f80 	cmn.w	r2, #256	; 0x100
    4f5e:	d118      	bne.n	4f92 <radio_Synthesizer_Cal_Startup_algo+0xee>
    4f60:	f8d4 171c 	ldr.w	r1, [r4, #1820]	; 0x71c
    4f64:	f8d4 26b0 	ldr.w	r2, [r4, #1712]	; 0x6b0
    4f68:	266c      	movs	r6, #108	; 0x6c
    4f6a:	fb06 0303 	mla	r3, r6, r3, r0
    4f6e:	b2c9      	uxtb	r1, r1
    4f70:	b2d2      	uxtb	r2, r2
    4f72:	ea42 2201 	orr.w	r2, r2, r1, lsl #8
    4f76:	f8a3 207a 	strh.w	r2, [r3, #122]	; 0x7a
    4f7a:	f8d4 26ac 	ldr.w	r2, [r4, #1708]	; 0x6ac
    4f7e:	f3c2 0208 	ubfx	r2, r2, #0, #9
    4f82:	f8a3 207c 	strh.w	r2, [r3, #124]	; 0x7c
    4f86:	f8d4 26d0 	ldr.w	r2, [r4, #1744]	; 0x6d0
    4f8a:	f3c2 0208 	ubfx	r2, r2, #0, #9
    4f8e:	f8a3 207e 	strh.w	r2, [r3, #126]	; 0x7e
    4f92:	4b05      	ldr	r3, [pc, #20]	; (4fa8 <radio_Synthesizer_Cal_Startup_algo+0x104>)
    4f94:	6829      	ldr	r1, [r5, #0]
    4f96:	699a      	ldr	r2, [r3, #24]
    4f98:	f361 0282 	bfi	r2, r1, #2, #1
    4f9c:	619a      	str	r2, [r3, #24]
    4f9e:	bd70      	pop	{r4, r5, r6, pc}
    4fa0:	200a      	movs	r0, #10
    4fa2:	f7fd f8d1 	bl	2148 <CLOCK_uDelay>
    4fa6:	e7a6      	b.n	4ef6 <radio_Synthesizer_Cal_Startup_algo+0x52>
    4fa8:	400b0000 	.word	0x400b0000
    4fac:	04015fc4 	.word	0x04015fc4
    4fb0:	40013000 	.word	0x40013000
    4fb4:	04015b28 	.word	0x04015b28

00004fb8 <radio_Synthesizer_Cal_Startup>:
    4fb8:	b510      	push	{r4, lr}
    4fba:	4604      	mov	r4, r0
    4fbc:	f7ff ff54 	bl	4e68 <radio_Synthesizer_Cal_Startup_init>
    4fc0:	b394      	cbz	r4, 5028 <radio_Synthesizer_Cal_Startup+0x70>
    4fc2:	4a1a      	ldr	r2, [pc, #104]	; (502c <radio_Synthesizer_Cal_Startup+0x74>)
    4fc4:	6cd3      	ldr	r3, [r2, #76]	; 0x4c
    4fc6:	f892 2050 	ldrb.w	r2, [r2, #80]	; 0x50
    4fca:	eb03 0142 	add.w	r1, r3, r2, lsl #1
    4fce:	f9b1 1004 	ldrsh.w	r1, [r1, #4]
    4fd2:	f511 7f80 	cmn.w	r1, #256	; 0x100
    4fd6:	d103      	bne.n	4fe0 <radio_Synthesizer_Cal_Startup+0x28>
    4fd8:	e8bd 4010 	ldmia.w	sp!, {r4, lr}
    4fdc:	f7ff bf62 	b.w	4ea4 <radio_Synthesizer_Cal_Startup_algo>
    4fe0:	216c      	movs	r1, #108	; 0x6c
    4fe2:	fb01 3202 	mla	r2, r1, r2, r3
    4fe6:	4b12      	ldr	r3, [pc, #72]	; (5030 <radio_Synthesizer_Cal_Startup+0x78>)
    4fe8:	f8b2 107a 	ldrh.w	r1, [r2, #122]	; 0x7a
    4fec:	f893 071c 	ldrb.w	r0, [r3, #1820]	; 0x71c
    4ff0:	0a0c      	lsrs	r4, r1, #8
    4ff2:	f364 0007 	bfi	r0, r4, #0, #8
    4ff6:	f883 071c 	strb.w	r0, [r3, #1820]	; 0x71c
    4ffa:	b2c8      	uxtb	r0, r1
    4ffc:	f893 16b0 	ldrb.w	r1, [r3, #1712]	; 0x6b0
    5000:	f360 0107 	bfi	r1, r0, #0, #8
    5004:	f883 16b0 	strb.w	r1, [r3, #1712]	; 0x6b0
    5008:	f8b2 007c 	ldrh.w	r0, [r2, #124]	; 0x7c
    500c:	f8b3 16ac 	ldrh.w	r1, [r3, #1708]	; 0x6ac
    5010:	f360 0108 	bfi	r1, r0, #0, #9
    5014:	f8a3 16ac 	strh.w	r1, [r3, #1708]	; 0x6ac
    5018:	f8b2 107e 	ldrh.w	r1, [r2, #126]	; 0x7e
    501c:	f8b3 26d0 	ldrh.w	r2, [r3, #1744]	; 0x6d0
    5020:	f361 0208 	bfi	r2, r1, #0, #9
    5024:	f8a3 26d0 	strh.w	r2, [r3, #1744]	; 0x6d0
    5028:	bd10      	pop	{r4, pc}
    502a:	bf00      	nop
    502c:	04015b28 	.word	0x04015b28
    5030:	40013000 	.word	0x40013000

00005034 <radio_Synthesizer_Cal_Operation_And_Lock_init>:
    5034:	b5f8      	push	{r3, r4, r5, r6, r7, lr}
    5036:	4c14      	ldr	r4, [pc, #80]	; (5088 <radio_Synthesizer_Cal_Operation_And_Lock_init+0x54>)
    5038:	4f14      	ldr	r7, [pc, #80]	; (508c <radio_Synthesizer_Cal_Operation_And_Lock_init+0x58>)
    503a:	69a3      	ldr	r3, [r4, #24]
    503c:	4814      	ldr	r0, [pc, #80]	; (5090 <radio_Synthesizer_Cal_Operation_And_Lock_init+0x5c>)
    503e:	4915      	ldr	r1, [pc, #84]	; (5094 <radio_Synthesizer_Cal_Operation_And_Lock_init+0x60>)
    5040:	f3c3 0380 	ubfx	r3, r3, #2, #1
    5044:	603b      	str	r3, [r7, #0]
    5046:	69a3      	ldr	r3, [r4, #24]
    5048:	f36f 0382 	bfc	r3, #2, #1
    504c:	61a3      	str	r3, [r4, #24]
    504e:	2240      	movs	r2, #64	; 0x40
    5050:	f8d0 66bc 	ldr.w	r6, [r0, #1724]	; 0x6bc
    5054:	f8d0 56bc 	ldr.w	r5, [r0, #1724]	; 0x6bc
    5058:	f7ff fcbc 	bl	49d4 <radio_fill_regs>
    505c:	f8b0 36bc 	ldrh.w	r3, [r0, #1724]	; 0x6bc
    5060:	f3c6 2642 	ubfx	r6, r6, #9, #3
    5064:	f366 234b 	bfi	r3, r6, #9, #3
    5068:	f8a0 36bc 	strh.w	r3, [r0, #1724]	; 0x6bc
    506c:	f8b0 36bc 	ldrh.w	r3, [r0, #1724]	; 0x6bc
    5070:	f3c5 1582 	ubfx	r5, r5, #6, #3
    5074:	f365 1388 	bfi	r3, r5, #6, #3
    5078:	f8a0 36bc 	strh.w	r3, [r0, #1724]	; 0x6bc
    507c:	683a      	ldr	r2, [r7, #0]
    507e:	69a3      	ldr	r3, [r4, #24]
    5080:	f362 0382 	bfi	r3, r2, #2, #1
    5084:	61a3      	str	r3, [r4, #24]
    5086:	bdf8      	pop	{r3, r4, r5, r6, r7, pc}
    5088:	400b0000 	.word	0x400b0000
    508c:	04015fc4 	.word	0x04015fc4
    5090:	40013000 	.word	0x40013000
    5094:	000090d6 	.word	0x000090d6

00005098 <radio_Synthesizer_Cal_Operation_And_Lock_algo>:
    5098:	b510      	push	{r4, lr}
    509a:	4c0d      	ldr	r4, [pc, #52]	; (50d0 <radio_Synthesizer_Cal_Operation_And_Lock_algo+0x38>)
    509c:	f8b4 2868 	ldrh.w	r2, [r4, #2152]	; 0x868
    50a0:	f36f 22cb 	bfc	r2, #11, #1
    50a4:	f8a4 2868 	strh.w	r2, [r4, #2152]	; 0x868
    50a8:	f44f 6200 	mov.w	r2, #2048	; 0x800
    50ac:	f8c4 2864 	str.w	r2, [r4, #2148]	; 0x864
    50b0:	2204      	movs	r2, #4
    50b2:	f8c4 2878 	str.w	r2, [r4, #2168]	; 0x878
    50b6:	f8d4 385c 	ldr.w	r3, [r4, #2140]	; 0x85c
    50ba:	051b      	lsls	r3, r3, #20
    50bc:	d504      	bpl.n	50c8 <radio_Synthesizer_Cal_Operation_And_Lock_algo+0x30>
    50be:	f44f 6300 	mov.w	r3, #2048	; 0x800
    50c2:	f8c4 3864 	str.w	r3, [r4, #2148]	; 0x864
    50c6:	bd10      	pop	{r4, pc}
    50c8:	200a      	movs	r0, #10
    50ca:	f7fd f83d 	bl	2148 <CLOCK_uDelay>
    50ce:	e7f2      	b.n	50b6 <radio_Synthesizer_Cal_Operation_And_Lock_algo+0x1e>
    50d0:	40013000 	.word	0x40013000

000050d4 <radio_Synthesizer_Cal_Operation_And_Lock>:
    50d4:	b510      	push	{r4, lr}
    50d6:	4604      	mov	r4, r0
    50d8:	f7ff ffac 	bl	5034 <radio_Synthesizer_Cal_Operation_And_Lock_init>
    50dc:	b11c      	cbz	r4, 50e6 <radio_Synthesizer_Cal_Operation_And_Lock+0x12>
    50de:	e8bd 4010 	ldmia.w	sp!, {r4, lr}
    50e2:	f7ff bfd9 	b.w	5098 <radio_Synthesizer_Cal_Operation_And_Lock_algo>
    50e6:	bd10      	pop	{r4, pc}

000050e8 <radio_Synthesizer_Kmod_Band_init>:
    50e8:	b570      	push	{r4, r5, r6, lr}
    50ea:	4b3a      	ldr	r3, [pc, #232]	; (51d4 <radio_Synthesizer_Kmod_Band_init+0xec>)
    50ec:	4d3a      	ldr	r5, [pc, #232]	; (51d8 <radio_Synthesizer_Kmod_Band_init+0xf0>)
    50ee:	699a      	ldr	r2, [r3, #24]
    50f0:	4c3a      	ldr	r4, [pc, #232]	; (51dc <radio_Synthesizer_Kmod_Band_init+0xf4>)
    50f2:	f3c2 0280 	ubfx	r2, r2, #2, #1
    50f6:	602a      	str	r2, [r5, #0]
    50f8:	699a      	ldr	r2, [r3, #24]
    50fa:	f36f 0282 	bfc	r2, #2, #1
    50fe:	619a      	str	r2, [r3, #24]
    5100:	f8b4 367c 	ldrh.w	r3, [r4, #1660]	; 0x67c
    5104:	2206      	movs	r2, #6
    5106:	f362 0302 	bfi	r3, r2, #0, #3
    510a:	f8a4 367c 	strh.w	r3, [r4, #1660]	; 0x67c
    510e:	f8b4 367c 	ldrh.w	r3, [r4, #1660]	; 0x67c
    5112:	2601      	movs	r6, #1
    5114:	f366 03c4 	bfi	r3, r6, #3, #2
    5118:	f8a4 367c 	strh.w	r3, [r4, #1660]	; 0x67c
    511c:	f8b4 367c 	ldrh.w	r3, [r4, #1660]	; 0x67c
    5120:	f366 1346 	bfi	r3, r6, #5, #2
    5124:	f8a4 367c 	strh.w	r3, [r4, #1660]	; 0x67c
    5128:	f8b4 367c 	ldrh.w	r3, [r4, #1660]	; 0x67c
    512c:	2260      	movs	r2, #96	; 0x60
    512e:	f362 13ce 	bfi	r3, r2, #7, #8
    5132:	f8a4 367c 	strh.w	r3, [r4, #1660]	; 0x67c
    5136:	f894 3780 	ldrb.w	r3, [r4, #1920]	; 0x780
    513a:	f043 0310 	orr.w	r3, r3, #16
    513e:	f884 3780 	strb.w	r3, [r4, #1920]	; 0x780
    5142:	f894 3780 	ldrb.w	r3, [r4, #1920]	; 0x780
    5146:	f36f 0301 	bfc	r3, #0, #2
    514a:	f884 3780 	strb.w	r3, [r4, #1920]	; 0x780
    514e:	f7ff fbe3 	bl	4918 <radio_TX_ZigBee_pll_dac_banked_set>
    5152:	2100      	movs	r1, #0
    5154:	4608      	mov	r0, r1
    5156:	f7ff fbbb 	bl	48d0 <radio_IsNotC2MF>
    515a:	4623      	mov	r3, r4
    515c:	b958      	cbnz	r0, 5176 <radio_Synthesizer_Kmod_Band_init+0x8e>
    515e:	f8b4 280c 	ldrh.w	r2, [r4, #2060]	; 0x80c
    5162:	f366 1246 	bfi	r2, r6, #5, #2
    5166:	f8a4 280c 	strh.w	r2, [r4, #2060]	; 0x80c
    516a:	f8b4 2800 	ldrh.w	r2, [r4, #2048]	; 0x800
    516e:	f360 0242 	bfi	r2, r0, #1, #2
    5172:	f8a4 2800 	strh.w	r2, [r4, #2048]	; 0x800
    5176:	f893 22cc 	ldrb.w	r2, [r3, #716]	; 0x2cc
    517a:	f36f 0203 	bfc	r2, #0, #4
    517e:	f883 22cc 	strb.w	r2, [r3, #716]	; 0x2cc
    5182:	f893 26cc 	ldrb.w	r2, [r3, #1740]	; 0x6cc
    5186:	2102      	movs	r1, #2
    5188:	f361 0203 	bfi	r2, r1, #0, #4
    518c:	f883 26cc 	strb.w	r2, [r3, #1740]	; 0x6cc
    5190:	f8b3 25c4 	ldrh.w	r2, [r3, #1476]	; 0x5c4
    5194:	2105      	movs	r1, #5
    5196:	f361 0202 	bfi	r2, r1, #0, #3
    519a:	f8a3 25c4 	strh.w	r2, [r3, #1476]	; 0x5c4
    519e:	f8b3 26bc 	ldrh.w	r2, [r3, #1724]	; 0x6bc
    51a2:	2106      	movs	r1, #6
    51a4:	f361 224b 	bfi	r2, r1, #9, #3
    51a8:	f8a3 26bc 	strh.w	r2, [r3, #1724]	; 0x6bc
    51ac:	f8b3 26bc 	ldrh.w	r2, [r3, #1724]	; 0x6bc
    51b0:	f442 72e0 	orr.w	r2, r2, #448	; 0x1c0
    51b4:	f8a3 26bc 	strh.w	r2, [r3, #1724]	; 0x6bc
    51b8:	f893 26b8 	ldrb.w	r2, [r3, #1720]	; 0x6b8
    51bc:	2160      	movs	r1, #96	; 0x60
    51be:	f361 0207 	bfi	r2, r1, #0, #8
    51c2:	f883 26b8 	strb.w	r2, [r3, #1720]	; 0x6b8
    51c6:	4b03      	ldr	r3, [pc, #12]	; (51d4 <radio_Synthesizer_Kmod_Band_init+0xec>)
    51c8:	6829      	ldr	r1, [r5, #0]
    51ca:	699a      	ldr	r2, [r3, #24]
    51cc:	f361 0282 	bfi	r2, r1, #2, #1
    51d0:	619a      	str	r2, [r3, #24]
    51d2:	bd70      	pop	{r4, r5, r6, pc}
    51d4:	400b0000 	.word	0x400b0000
    51d8:	04015fc4 	.word	0x04015fc4
    51dc:	40013000 	.word	0x40013000

000051e0 <radio_Synthesizer_Kmod_Band_algo>:
    51e0:	b538      	push	{r3, r4, r5, lr}
    51e2:	4b2d      	ldr	r3, [pc, #180]	; (5298 <radio_Synthesizer_Kmod_Band_algo+0xb8>)
    51e4:	4d2d      	ldr	r5, [pc, #180]	; (529c <radio_Synthesizer_Kmod_Band_algo+0xbc>)
    51e6:	6999      	ldr	r1, [r3, #24]
    51e8:	4c2d      	ldr	r4, [pc, #180]	; (52a0 <radio_Synthesizer_Kmod_Band_algo+0xc0>)
    51ea:	f3c1 0180 	ubfx	r1, r1, #2, #1
    51ee:	6029      	str	r1, [r5, #0]
    51f0:	6999      	ldr	r1, [r3, #24]
    51f2:	f36f 0182 	bfc	r1, #2, #1
    51f6:	6199      	str	r1, [r3, #24]
    51f8:	f8b4 1868 	ldrh.w	r1, [r4, #2152]	; 0x868
    51fc:	f36f 1104 	bfc	r1, #4, #1
    5200:	f8a4 1868 	strh.w	r1, [r4, #2152]	; 0x868
    5204:	2110      	movs	r1, #16
    5206:	f8c4 1864 	str.w	r1, [r4, #2148]	; 0x864
    520a:	f8b4 13a8 	ldrh.w	r1, [r4, #936]	; 0x3a8
    520e:	f041 0101 	orr.w	r1, r1, #1
    5212:	f8a4 13a8 	strh.w	r1, [r4, #936]	; 0x3a8
    5216:	f894 13ac 	ldrb.w	r1, [r4, #940]	; 0x3ac
    521a:	f36f 0100 	bfc	r1, #0, #1
    521e:	f884 13ac 	strb.w	r1, [r4, #940]	; 0x3ac
    5222:	f8b4 13a8 	ldrh.w	r1, [r4, #936]	; 0x3a8
    5226:	f441 6180 	orr.w	r1, r1, #1024	; 0x400
    522a:	f8a4 13a8 	strh.w	r1, [r4, #936]	; 0x3a8
    522e:	f894 13ac 	ldrb.w	r1, [r4, #940]	; 0x3ac
    5232:	f36f 1145 	bfc	r1, #5, #1
    5236:	f884 13ac 	strb.w	r1, [r4, #940]	; 0x3ac
    523a:	f8b4 13a8 	ldrh.w	r1, [r4, #936]	; 0x3a8
    523e:	f36f 218a 	bfc	r1, #10, #1
    5242:	f8a4 13a8 	strh.w	r1, [r4, #936]	; 0x3a8
    5246:	f894 13ac 	ldrb.w	r1, [r4, #940]	; 0x3ac
    524a:	f041 0120 	orr.w	r1, r1, #32
    524e:	f884 13ac 	strb.w	r1, [r4, #940]	; 0x3ac
    5252:	2101      	movs	r1, #1
    5254:	f8c4 1874 	str.w	r1, [r4, #2164]	; 0x874
    5258:	f8d4 385c 	ldr.w	r3, [r4, #2140]	; 0x85c
    525c:	06db      	lsls	r3, r3, #27
    525e:	d516      	bpl.n	528e <radio_Synthesizer_Kmod_Band_algo+0xae>
    5260:	2310      	movs	r3, #16
    5262:	f8c4 3864 	str.w	r3, [r4, #2148]	; 0x864
    5266:	f894 33ac 	ldrb.w	r3, [r4, #940]	; 0x3ac
    526a:	f043 0301 	orr.w	r3, r3, #1
    526e:	f884 33ac 	strb.w	r3, [r4, #940]	; 0x3ac
    5272:	f8b4 33a8 	ldrh.w	r3, [r4, #936]	; 0x3a8
    5276:	f36f 0300 	bfc	r3, #0, #1
    527a:	f8a4 33a8 	strh.w	r3, [r4, #936]	; 0x3a8
    527e:	4b06      	ldr	r3, [pc, #24]	; (5298 <radio_Synthesizer_Kmod_Band_algo+0xb8>)
    5280:	6829      	ldr	r1, [r5, #0]
    5282:	699a      	ldr	r2, [r3, #24]
    5284:	f361 0282 	bfi	r2, r1, #2, #1
    5288:	619a      	str	r2, [r3, #24]
    528a:	2000      	movs	r0, #0
    528c:	bd38      	pop	{r3, r4, r5, pc}
    528e:	2064      	movs	r0, #100	; 0x64
    5290:	f7fc ff5a 	bl	2148 <CLOCK_uDelay>
    5294:	e7e0      	b.n	5258 <radio_Synthesizer_Kmod_Band_algo+0x78>
    5296:	bf00      	nop
    5298:	400b0000 	.word	0x400b0000
    529c:	04015fc4 	.word	0x04015fc4
    52a0:	40013000 	.word	0x40013000

000052a4 <radio_Synthesizer_Kmod_Band>:
    52a4:	e92d 4ff7 	stmdb	sp!, {r0, r1, r2, r4, r5, r6, r7, r8, r9, sl, fp, lr}
    52a8:	4c76      	ldr	r4, [pc, #472]	; (5484 <radio_Synthesizer_Kmod_Band+0x1e0>)
    52aa:	4d77      	ldr	r5, [pc, #476]	; (5488 <radio_Synthesizer_Kmod_Band+0x1e4>)
    52ac:	f8d4 36bc 	ldr.w	r3, [r4, #1724]	; 0x6bc
    52b0:	f3c3 2a42 	ubfx	sl, r3, #9, #3
    52b4:	f8d4 36bc 	ldr.w	r3, [r4, #1724]	; 0x6bc
    52b8:	4606      	mov	r6, r0
    52ba:	f3c3 1b82 	ubfx	fp, r3, #6, #3
    52be:	f7ff ff13 	bl	50e8 <radio_Synthesizer_Kmod_Band_init>
    52c2:	6cea      	ldr	r2, [r5, #76]	; 0x4c
    52c4:	f895 3050 	ldrb.w	r3, [r5, #80]	; 0x50
    52c8:	eb02 0143 	add.w	r1, r2, r3, lsl #1
    52cc:	f9b1 1004 	ldrsh.w	r1, [r1, #4]
    52d0:	f511 7f80 	cmn.w	r1, #256	; 0x100
    52d4:	d045      	beq.n	5362 <radio_Synthesizer_Kmod_Band+0xbe>
    52d6:	216c      	movs	r1, #108	; 0x6c
    52d8:	fb01 2303 	mla	r3, r1, r3, r2
    52dc:	f894 2684 	ldrb.w	r2, [r4, #1668]	; 0x684
    52e0:	f893 1074 	ldrb.w	r1, [r3, #116]	; 0x74
    52e4:	f361 0205 	bfi	r2, r1, #0, #6
    52e8:	f884 2684 	strb.w	r2, [r4, #1668]	; 0x684
    52ec:	f8b3 2072 	ldrh.w	r2, [r3, #114]	; 0x72
    52f0:	f8a4 2680 	strh.w	r2, [r4, #1664]	; 0x680
    52f4:	f893 1078 	ldrb.w	r1, [r3, #120]	; 0x78
    52f8:	f894 268c 	ldrb.w	r2, [r4, #1676]	; 0x68c
    52fc:	f361 0205 	bfi	r2, r1, #0, #6
    5300:	f884 268c 	strb.w	r2, [r4, #1676]	; 0x68c
    5304:	f8b3 2076 	ldrh.w	r2, [r3, #118]	; 0x76
    5308:	f8a4 2688 	strh.w	r2, [r4, #1672]	; 0x688
    530c:	f8b3 2070 	ldrh.w	r2, [r3, #112]	; 0x70
    5310:	f8b4 3690 	ldrh.w	r3, [r4, #1680]	; 0x690
    5314:	f362 030a 	bfi	r3, r2, #0, #11
    5318:	f8a4 3690 	strh.w	r3, [r4, #1680]	; 0x690
    531c:	4a59      	ldr	r2, [pc, #356]	; (5484 <radio_Synthesizer_Kmod_Band+0x1e0>)
    531e:	f8d2 1690 	ldr.w	r1, [r2, #1680]	; 0x690
    5322:	f8b2 3794 	ldrh.w	r3, [r2, #1940]	; 0x794
    5326:	f361 030a 	bfi	r3, r1, #0, #11
    532a:	f8a2 3794 	strh.w	r3, [r2, #1940]	; 0x794
    532e:	f8b2 36bc 	ldrh.w	r3, [r2, #1724]	; 0x6bc
    5332:	f36a 234b 	bfi	r3, sl, #9, #3
    5336:	f8a2 36bc 	strh.w	r3, [r2, #1724]	; 0x6bc
    533a:	f8b2 36bc 	ldrh.w	r3, [r2, #1724]	; 0x6bc
    533e:	2100      	movs	r1, #0
    5340:	f36b 1388 	bfi	r3, fp, #6, #3
    5344:	f8a2 36bc 	strh.w	r3, [r2, #1724]	; 0x6bc
    5348:	4608      	mov	r0, r1
    534a:	f7ff fac1 	bl	48d0 <radio_IsNotC2MF>
    534e:	b928      	cbnz	r0, 535c <radio_Synthesizer_Kmod_Band+0xb8>
    5350:	f8b2 380c 	ldrh.w	r3, [r2, #2060]	; 0x80c
    5354:	f360 1346 	bfi	r3, r0, #5, #2
    5358:	f8a2 380c 	strh.w	r3, [r2, #2060]	; 0x80c
    535c:	b003      	add	sp, #12
    535e:	e8bd 8ff0 	ldmia.w	sp!, {r4, r5, r6, r7, r8, r9, sl, fp, pc}
    5362:	2e00      	cmp	r6, #0
    5364:	d0da      	beq.n	531c <radio_Synthesizer_Kmod_Band+0x78>
    5366:	2600      	movs	r6, #0
    5368:	2700      	movs	r7, #0
    536a:	2219      	movs	r2, #25
    536c:	46b0      	mov	r8, r6
    536e:	46b9      	mov	r9, r7
    5370:	9200      	str	r2, [sp, #0]
    5372:	f7ff ff35 	bl	51e0 <radio_Synthesizer_Kmod_Band_algo>
    5376:	f8d4 1684 	ldr.w	r1, [r4, #1668]	; 0x684
    537a:	f8d4 3680 	ldr.w	r3, [r4, #1664]	; 0x680
    537e:	9a00      	ldr	r2, [sp, #0]
    5380:	f001 013f 	and.w	r1, r1, #63	; 0x3f
    5384:	b29b      	uxth	r3, r3
    5386:	ea43 4301 	orr.w	r3, r3, r1, lsl #16
    538a:	eb18 0803 	adds.w	r8, r8, r3
    538e:	f8d4 168c 	ldr.w	r1, [r4, #1676]	; 0x68c
    5392:	eb49 79e3 	adc.w	r9, r9, r3, asr #31
    5396:	f8d4 3688 	ldr.w	r3, [r4, #1672]	; 0x688
    539a:	f001 013f 	and.w	r1, r1, #63	; 0x3f
    539e:	b29b      	uxth	r3, r3
    53a0:	ea43 4301 	orr.w	r3, r3, r1, lsl #16
    53a4:	18f6      	adds	r6, r6, r3
    53a6:	eb47 77e3 	adc.w	r7, r7, r3, asr #31
    53aa:	3a01      	subs	r2, #1
    53ac:	d1e0      	bne.n	5370 <radio_Synthesizer_Kmod_Band+0xcc>
    53ae:	f8df e0dc 	ldr.w	lr, [pc, #220]	; 548c <radio_Synthesizer_Kmod_Band+0x1e8>
    53b2:	fba8 230e 	umull	r2, r3, r8, lr
    53b6:	e9cd 2300 	strd	r2, r3, [sp]
    53ba:	9b01      	ldr	r3, [sp, #4]
    53bc:	fb0e 3c09 	mla	ip, lr, r9, r3
    53c0:	f8cd c004 	str.w	ip, [sp, #4]
    53c4:	f8d4 067c 	ldr.w	r0, [r4, #1660]	; 0x67c
    53c8:	fba6 890e 	umull	r8, r9, r6, lr
    53cc:	f8d4 667c 	ldr.w	r6, [r4, #1660]	; 0x67c
    53d0:	f894 3684 	ldrb.w	r3, [r4, #1668]	; 0x684
    53d4:	f3c0 1041 	ubfx	r0, r0, #5, #2
    53d8:	f006 0607 	and.w	r6, r6, #7
    53dc:	fb0e 9207 	mla	r2, lr, r7, r9
    53e0:	4406      	add	r6, r0
    53e2:	f3cc 4705 	ubfx	r7, ip, #16, #6
    53e6:	f44f 5080 	mov.w	r0, #4096	; 0x1000
    53ea:	40b0      	lsls	r0, r6
    53ec:	f367 0305 	bfi	r3, r7, #0, #6
    53f0:	ebac 0602 	sub.w	r6, ip, r2
    53f4:	fa1f fc8c 	uxth.w	ip, ip
    53f8:	f884 3684 	strb.w	r3, [r4, #1668]	; 0x684
    53fc:	f8a4 c680 	strh.w	ip, [r4, #1664]	; 0x680
    5400:	f894 368c 	ldrb.w	r3, [r4, #1676]	; 0x68c
    5404:	fbb0 f0f6 	udiv	r0, r0, r6
    5408:	f3c2 4e05 	ubfx	lr, r2, #16, #6
    540c:	f36e 0305 	bfi	r3, lr, #0, #6
    5410:	b292      	uxth	r2, r2
    5412:	f884 368c 	strb.w	r3, [r4, #1676]	; 0x68c
    5416:	f8a4 2688 	strh.w	r2, [r4, #1672]	; 0x688
    541a:	f8b4 3690 	ldrh.w	r3, [r4, #1680]	; 0x690
    541e:	3001      	adds	r0, #1
    5420:	0846      	lsrs	r6, r0, #1
    5422:	f3c0 004a 	ubfx	r0, r0, #1, #11
    5426:	f360 030a 	bfi	r3, r0, #0, #11
    542a:	f8a4 3690 	strh.w	r3, [r4, #1680]	; 0x690
    542e:	f895 3050 	ldrb.w	r3, [r5, #80]	; 0x50
    5432:	2b03      	cmp	r3, #3
    5434:	f63f af72 	bhi.w	531c <radio_Synthesizer_Kmod_Band+0x78>
    5438:	f895 1030 	ldrb.w	r1, [r5, #48]	; 0x30
    543c:	2900      	cmp	r1, #0
    543e:	f43f af6d 	beq.w	531c <radio_Synthesizer_Kmod_Band+0x78>
    5442:	6ce8      	ldr	r0, [r5, #76]	; 0x4c
    5444:	eb00 0143 	add.w	r1, r0, r3, lsl #1
    5448:	f9b1 4004 	ldrsh.w	r4, [r1, #4]
    544c:	f514 7f80 	cmn.w	r4, #256	; 0x100
    5450:	f47f af64 	bne.w	531c <radio_Synthesizer_Kmod_Band+0x78>
    5454:	246c      	movs	r4, #108	; 0x6c
    5456:	fb04 0303 	mla	r3, r4, r3, r0
    545a:	f8a3 7074 	strh.w	r7, [r3, #116]	; 0x74
    545e:	f8a3 c072 	strh.w	ip, [r3, #114]	; 0x72
    5462:	f8a3 e078 	strh.w	lr, [r3, #120]	; 0x78
    5466:	f8a3 2076 	strh.w	r2, [r3, #118]	; 0x76
    546a:	f8a3 6070 	strh.w	r6, [r3, #112]	; 0x70
    546e:	f895 302e 	ldrb.w	r3, [r5, #46]	; 0x2e
    5472:	2b00      	cmp	r3, #0
    5474:	f43f af52 	beq.w	531c <radio_Synthesizer_Kmod_Band+0x78>
    5478:	8e6b      	ldrh	r3, [r5, #50]	; 0x32
    547a:	808b      	strh	r3, [r1, #4]
    547c:	2301      	movs	r3, #1
    547e:	f885 302a 	strb.w	r3, [r5, #42]	; 0x2a
    5482:	e74b      	b.n	531c <radio_Synthesizer_Kmod_Band+0x78>
    5484:	40013000 	.word	0x40013000
    5488:	04015b28 	.word	0x04015b28
    548c:	0a3d70a4 	.word	0x0a3d70a4

00005490 <radio_Trx_Packet_HW_Ctrl_Init>:
    5490:	b510      	push	{r4, lr}
    5492:	4a21      	ldr	r2, [pc, #132]	; (5518 <radio_Trx_Packet_HW_Ctrl_Init+0x88>)
    5494:	4b21      	ldr	r3, [pc, #132]	; (551c <radio_Trx_Packet_HW_Ctrl_Init+0x8c>)
    5496:	6991      	ldr	r1, [r2, #24]
    5498:	f3c1 0180 	ubfx	r1, r1, #2, #1
    549c:	6019      	str	r1, [r3, #0]
    549e:	6993      	ldr	r3, [r2, #24]
    54a0:	f36f 0382 	bfc	r3, #2, #1
    54a4:	6193      	str	r3, [r2, #24]
    54a6:	4b1e      	ldr	r3, [pc, #120]	; (5520 <radio_Trx_Packet_HW_Ctrl_Init+0x90>)
    54a8:	f8b3 0800 	ldrh.w	r0, [r3, #2048]	; 0x800
    54ac:	f440 7080 	orr.w	r0, r0, #256	; 0x100
    54b0:	f8a3 0800 	strh.w	r0, [r3, #2048]	; 0x800
    54b4:	f8b3 0804 	ldrh.w	r0, [r3, #2052]	; 0x804
    54b8:	f040 0004 	orr.w	r0, r0, #4
    54bc:	f8a3 0804 	strh.w	r0, [r3, #2052]	; 0x804
    54c0:	f8b3 0804 	ldrh.w	r0, [r3, #2052]	; 0x804
    54c4:	f040 0040 	orr.w	r0, r0, #64	; 0x40
    54c8:	f8a3 0804 	strh.w	r0, [r3, #2052]	; 0x804
    54cc:	f893 0780 	ldrb.w	r0, [r3, #1920]	; 0x780
    54d0:	f040 0020 	orr.w	r0, r0, #32
    54d4:	f883 0780 	strb.w	r0, [r3, #1920]	; 0x780
    54d8:	f8b3 0804 	ldrh.w	r0, [r3, #2052]	; 0x804
    54dc:	f440 7080 	orr.w	r0, r0, #256	; 0x100
    54e0:	f8a3 0804 	strh.w	r0, [r3, #2052]	; 0x804
    54e4:	f8b3 080c 	ldrh.w	r0, [r3, #2060]	; 0x80c
    54e8:	f36f 204a 	bfc	r0, #9, #2
    54ec:	f8a3 080c 	strh.w	r0, [r3, #2060]	; 0x80c
    54f0:	f8b3 080c 	ldrh.w	r0, [r3, #2060]	; 0x80c
    54f4:	2401      	movs	r4, #1
    54f6:	f364 20cc 	bfi	r0, r4, #11, #2
    54fa:	f8a3 080c 	strh.w	r0, [r3, #2060]	; 0x80c
    54fe:	f8b3 0928 	ldrh.w	r0, [r3, #2344]	; 0x928
    5502:	2404      	movs	r4, #4
    5504:	f364 000d 	bfi	r0, r4, #0, #14
    5508:	f8a3 0928 	strh.w	r0, [r3, #2344]	; 0x928
    550c:	6993      	ldr	r3, [r2, #24]
    550e:	f361 0382 	bfi	r3, r1, #2, #1
    5512:	6193      	str	r3, [r2, #24]
    5514:	bd10      	pop	{r4, pc}
    5516:	bf00      	nop
    5518:	400b0000 	.word	0x400b0000
    551c:	04015fc4 	.word	0x04015fc4
    5520:	40013000 	.word	0x40013000

00005524 <radio_Synthesizer_Full_Cal>:
    5524:	b510      	push	{r4, lr}
    5526:	4c12      	ldr	r4, [pc, #72]	; (5570 <radio_Synthesizer_Full_Cal+0x4c>)
    5528:	2005      	movs	r0, #5
    552a:	f7ff fc25 	bl	4d78 <radio_Carrier_Frequency_Select_by_index>
    552e:	f7ff fc6b 	bl	4e08 <radio_Synthesizer_Cw_Mode_Init>
    5532:	f894 3024 	ldrb.w	r3, [r4, #36]	; 0x24
    5536:	b12b      	cbz	r3, 5544 <radio_Synthesizer_Full_Cal+0x20>
    5538:	f7ff fc76 	bl	4e28 <radio_Trx_Packet_SW_Ctrl_Init>
    553c:	f7ff fc84 	bl	4e48 <radio_Disable_Auto_Kmod_Chan_and_Synth_Cal_Operation>
    5540:	f7ff fa70 	bl	4a24 <radio_pre_start_to_pll_polled>
    5544:	f894 0024 	ldrb.w	r0, [r4, #36]	; 0x24
    5548:	f7ff fd36 	bl	4fb8 <radio_Synthesizer_Cal_Startup>
    554c:	f894 0024 	ldrb.w	r0, [r4, #36]	; 0x24
    5550:	f7ff fdc0 	bl	50d4 <radio_Synthesizer_Cal_Operation_And_Lock>
    5554:	f894 0024 	ldrb.w	r0, [r4, #36]	; 0x24
    5558:	f7ff fea4 	bl	52a4 <radio_Synthesizer_Kmod_Band>
    555c:	f894 3024 	ldrb.w	r3, [r4, #36]	; 0x24
    5560:	b12b      	cbz	r3, 556e <radio_Synthesizer_Full_Cal+0x4a>
    5562:	f7ff fa43 	bl	49ec <radio_power_down_to_off_polled>
    5566:	e8bd 4010 	ldmia.w	sp!, {r4, lr}
    556a:	f7ff bf91 	b.w	5490 <radio_Trx_Packet_HW_Ctrl_Init>
    556e:	bd10      	pop	{r4, pc}
    5570:	04015b28 	.word	0x04015b28

00005574 <radio_PA_rewrite_lut>:
    5574:	4bab      	ldr	r3, [pc, #684]	; (5824 <radio_PA_rewrite_lut+0x2b0>)
    5576:	4aac      	ldr	r2, [pc, #688]	; (5828 <radio_PA_rewrite_lut+0x2b4>)
    5578:	6899      	ldr	r1, [r3, #8]
    557a:	4bac      	ldr	r3, [pc, #688]	; (582c <radio_PA_rewrite_lut+0x2b8>)
    557c:	2900      	cmp	r1, #0
    557e:	bf08      	it	eq
    5580:	461a      	moveq	r2, r3
    5582:	4bab      	ldr	r3, [pc, #684]	; (5830 <radio_PA_rewrite_lut+0x2bc>)
    5584:	f8b3 1c4c 	ldrh.w	r1, [r3, #3148]	; 0xc4c
    5588:	2001      	movs	r0, #1
    558a:	f360 0108 	bfi	r1, r0, #0, #9
    558e:	f8a3 1c4c 	strh.w	r1, [r3, #3148]	; 0xc4c
    5592:	f8b3 1c50 	ldrh.w	r1, [r3, #3152]	; 0xc50
    5596:	8850      	ldrh	r0, [r2, #2]
    5598:	f360 0108 	bfi	r1, r0, #0, #9
    559c:	f8a3 1c50 	strh.w	r1, [r3, #3152]	; 0xc50
    55a0:	f8b3 1c54 	ldrh.w	r1, [r3, #3156]	; 0xc54
    55a4:	2002      	movs	r0, #2
    55a6:	f360 0108 	bfi	r1, r0, #0, #9
    55aa:	f8a3 1c54 	strh.w	r1, [r3, #3156]	; 0xc54
    55ae:	f8b3 1c58 	ldrh.w	r1, [r3, #3160]	; 0xc58
    55b2:	f360 0108 	bfi	r1, r0, #0, #9
    55b6:	f8a3 1c58 	strh.w	r1, [r3, #3160]	; 0xc58
    55ba:	f8b3 1c5c 	ldrh.w	r1, [r3, #3164]	; 0xc5c
    55be:	8910      	ldrh	r0, [r2, #8]
    55c0:	f360 0108 	bfi	r1, r0, #0, #9
    55c4:	f8a3 1c5c 	strh.w	r1, [r3, #3164]	; 0xc5c
    55c8:	f8b3 1c60 	ldrh.w	r1, [r3, #3168]	; 0xc60
    55cc:	8950      	ldrh	r0, [r2, #10]
    55ce:	f360 0108 	bfi	r1, r0, #0, #9
    55d2:	f8a3 1c60 	strh.w	r1, [r3, #3168]	; 0xc60
    55d6:	f8b3 1c64 	ldrh.w	r1, [r3, #3172]	; 0xc64
    55da:	8990      	ldrh	r0, [r2, #12]
    55dc:	f360 0108 	bfi	r1, r0, #0, #9
    55e0:	f8a3 1c64 	strh.w	r1, [r3, #3172]	; 0xc64
    55e4:	f8b3 1c68 	ldrh.w	r1, [r3, #3176]	; 0xc68
    55e8:	89d0      	ldrh	r0, [r2, #14]
    55ea:	f360 0108 	bfi	r1, r0, #0, #9
    55ee:	f8a3 1c68 	strh.w	r1, [r3, #3176]	; 0xc68
    55f2:	8a10      	ldrh	r0, [r2, #16]
    55f4:	f8b3 1c6c 	ldrh.w	r1, [r3, #3180]	; 0xc6c
    55f8:	f360 0108 	bfi	r1, r0, #0, #9
    55fc:	f8a3 1c6c 	strh.w	r1, [r3, #3180]	; 0xc6c
    5600:	8a50      	ldrh	r0, [r2, #18]
    5602:	f8b3 1c70 	ldrh.w	r1, [r3, #3184]	; 0xc70
    5606:	f360 0108 	bfi	r1, r0, #0, #9
    560a:	f8a3 1c70 	strh.w	r1, [r3, #3184]	; 0xc70
    560e:	8a90      	ldrh	r0, [r2, #20]
    5610:	f8b3 1c74 	ldrh.w	r1, [r3, #3188]	; 0xc74
    5614:	f360 0108 	bfi	r1, r0, #0, #9
    5618:	f8a3 1c74 	strh.w	r1, [r3, #3188]	; 0xc74
    561c:	8ad0      	ldrh	r0, [r2, #22]
    561e:	f8b3 1c78 	ldrh.w	r1, [r3, #3192]	; 0xc78
    5622:	f360 0108 	bfi	r1, r0, #0, #9
    5626:	f8a3 1c78 	strh.w	r1, [r3, #3192]	; 0xc78
    562a:	f8b3 1c7c 	ldrh.w	r1, [r3, #3196]	; 0xc7c
    562e:	8b10      	ldrh	r0, [r2, #24]
    5630:	f360 0108 	bfi	r1, r0, #0, #9
    5634:	f8a3 1c7c 	strh.w	r1, [r3, #3196]	; 0xc7c
    5638:	f8b3 1c80 	ldrh.w	r1, [r3, #3200]	; 0xc80
    563c:	8b50      	ldrh	r0, [r2, #26]
    563e:	f360 0108 	bfi	r1, r0, #0, #9
    5642:	f8a3 1c80 	strh.w	r1, [r3, #3200]	; 0xc80
    5646:	f8b3 1c84 	ldrh.w	r1, [r3, #3204]	; 0xc84
    564a:	8b90      	ldrh	r0, [r2, #28]
    564c:	f360 0108 	bfi	r1, r0, #0, #9
    5650:	f8a3 1c84 	strh.w	r1, [r3, #3204]	; 0xc84
    5654:	f8b3 1c88 	ldrh.w	r1, [r3, #3208]	; 0xc88
    5658:	8bd0      	ldrh	r0, [r2, #30]
    565a:	f360 0108 	bfi	r1, r0, #0, #9
    565e:	f8a3 1c88 	strh.w	r1, [r3, #3208]	; 0xc88
    5662:	f8b3 1c8c 	ldrh.w	r1, [r3, #3212]	; 0xc8c
    5666:	8c10      	ldrh	r0, [r2, #32]
    5668:	f360 0108 	bfi	r1, r0, #0, #9
    566c:	f8a3 1c8c 	strh.w	r1, [r3, #3212]	; 0xc8c
    5670:	f8b3 1c90 	ldrh.w	r1, [r3, #3216]	; 0xc90
    5674:	8c50      	ldrh	r0, [r2, #34]	; 0x22
    5676:	f360 0108 	bfi	r1, r0, #0, #9
    567a:	f8a3 1c90 	strh.w	r1, [r3, #3216]	; 0xc90
    567e:	f8b3 1c94 	ldrh.w	r1, [r3, #3220]	; 0xc94
    5682:	8c90      	ldrh	r0, [r2, #36]	; 0x24
    5684:	f360 0108 	bfi	r1, r0, #0, #9
    5688:	f8a3 1c94 	strh.w	r1, [r3, #3220]	; 0xc94
    568c:	8cd0      	ldrh	r0, [r2, #38]	; 0x26
    568e:	f8b3 1c98 	ldrh.w	r1, [r3, #3224]	; 0xc98
    5692:	f360 0108 	bfi	r1, r0, #0, #9
    5696:	f8a3 1c98 	strh.w	r1, [r3, #3224]	; 0xc98
    569a:	8d10      	ldrh	r0, [r2, #40]	; 0x28
    569c:	f8b3 1c9c 	ldrh.w	r1, [r3, #3228]	; 0xc9c
    56a0:	f360 0108 	bfi	r1, r0, #0, #9
    56a4:	f8a3 1c9c 	strh.w	r1, [r3, #3228]	; 0xc9c
    56a8:	8d50      	ldrh	r0, [r2, #42]	; 0x2a
    56aa:	f8b3 1ca0 	ldrh.w	r1, [r3, #3232]	; 0xca0
    56ae:	f360 0108 	bfi	r1, r0, #0, #9
    56b2:	f8a3 1ca0 	strh.w	r1, [r3, #3232]	; 0xca0
    56b6:	8d90      	ldrh	r0, [r2, #44]	; 0x2c
    56b8:	f8b3 1ca4 	ldrh.w	r1, [r3, #3236]	; 0xca4
    56bc:	f360 0108 	bfi	r1, r0, #0, #9
    56c0:	f8a3 1ca4 	strh.w	r1, [r3, #3236]	; 0xca4
    56c4:	f8b3 1ca8 	ldrh.w	r1, [r3, #3240]	; 0xca8
    56c8:	8dd0      	ldrh	r0, [r2, #46]	; 0x2e
    56ca:	f360 0108 	bfi	r1, r0, #0, #9
    56ce:	f8a3 1ca8 	strh.w	r1, [r3, #3240]	; 0xca8
    56d2:	f8b3 1cac 	ldrh.w	r1, [r3, #3244]	; 0xcac
    56d6:	8e10      	ldrh	r0, [r2, #48]	; 0x30
    56d8:	f360 0108 	bfi	r1, r0, #0, #9
    56dc:	f8a3 1cac 	strh.w	r1, [r3, #3244]	; 0xcac
    56e0:	f8b3 1cb0 	ldrh.w	r1, [r3, #3248]	; 0xcb0
    56e4:	8e50      	ldrh	r0, [r2, #50]	; 0x32
    56e6:	f360 0108 	bfi	r1, r0, #0, #9
    56ea:	f8a3 1cb0 	strh.w	r1, [r3, #3248]	; 0xcb0
    56ee:	f8b3 1cb4 	ldrh.w	r1, [r3, #3252]	; 0xcb4
    56f2:	8e90      	ldrh	r0, [r2, #52]	; 0x34
    56f4:	f360 0108 	bfi	r1, r0, #0, #9
    56f8:	f8a3 1cb4 	strh.w	r1, [r3, #3252]	; 0xcb4
    56fc:	f8b3 1cb8 	ldrh.w	r1, [r3, #3256]	; 0xcb8
    5700:	8ed0      	ldrh	r0, [r2, #54]	; 0x36
    5702:	f360 0108 	bfi	r1, r0, #0, #9
    5706:	f8a3 1cb8 	strh.w	r1, [r3, #3256]	; 0xcb8
    570a:	f8b3 1cbc 	ldrh.w	r1, [r3, #3260]	; 0xcbc
    570e:	8f10      	ldrh	r0, [r2, #56]	; 0x38
    5710:	f360 0108 	bfi	r1, r0, #0, #9
    5714:	f8a3 1cbc 	strh.w	r1, [r3, #3260]	; 0xcbc
    5718:	f8b3 1cc0 	ldrh.w	r1, [r3, #3264]	; 0xcc0
    571c:	8f50      	ldrh	r0, [r2, #58]	; 0x3a
    571e:	f360 0108 	bfi	r1, r0, #0, #9
    5722:	f8a3 1cc0 	strh.w	r1, [r3, #3264]	; 0xcc0
    5726:	8f90      	ldrh	r0, [r2, #60]	; 0x3c
    5728:	f8b3 1cc4 	ldrh.w	r1, [r3, #3268]	; 0xcc4
    572c:	f360 0108 	bfi	r1, r0, #0, #9
    5730:	f8a3 1cc4 	strh.w	r1, [r3, #3268]	; 0xcc4
    5734:	8fd0      	ldrh	r0, [r2, #62]	; 0x3e
    5736:	f8b3 1cc8 	ldrh.w	r1, [r3, #3272]	; 0xcc8
    573a:	f360 0108 	bfi	r1, r0, #0, #9
    573e:	f8a3 1cc8 	strh.w	r1, [r3, #3272]	; 0xcc8
    5742:	f8b2 0040 	ldrh.w	r0, [r2, #64]	; 0x40
    5746:	f8b3 1ccc 	ldrh.w	r1, [r3, #3276]	; 0xccc
    574a:	f360 0108 	bfi	r1, r0, #0, #9
    574e:	f8a3 1ccc 	strh.w	r1, [r3, #3276]	; 0xccc
    5752:	f8b3 1cd0 	ldrh.w	r1, [r3, #3280]	; 0xcd0
    5756:	f8b2 0042 	ldrh.w	r0, [r2, #66]	; 0x42
    575a:	f360 0108 	bfi	r1, r0, #0, #9
    575e:	f8a3 1cd0 	strh.w	r1, [r3, #3280]	; 0xcd0
    5762:	f8b3 1cd4 	ldrh.w	r1, [r3, #3284]	; 0xcd4
    5766:	f8b2 0044 	ldrh.w	r0, [r2, #68]	; 0x44
    576a:	f360 0108 	bfi	r1, r0, #0, #9
    576e:	f8a3 1cd4 	strh.w	r1, [r3, #3284]	; 0xcd4
    5772:	f8b3 1cd8 	ldrh.w	r1, [r3, #3288]	; 0xcd8
    5776:	f8b2 0046 	ldrh.w	r0, [r2, #70]	; 0x46
    577a:	f360 0108 	bfi	r1, r0, #0, #9
    577e:	f8a3 1cd8 	strh.w	r1, [r3, #3288]	; 0xcd8
    5782:	f8b3 1cdc 	ldrh.w	r1, [r3, #3292]	; 0xcdc
    5786:	f8b2 0048 	ldrh.w	r0, [r2, #72]	; 0x48
    578a:	f360 0108 	bfi	r1, r0, #0, #9
    578e:	f8a3 1cdc 	strh.w	r1, [r3, #3292]	; 0xcdc
    5792:	f8b3 1ce0 	ldrh.w	r1, [r3, #3296]	; 0xce0
    5796:	f8b2 004a 	ldrh.w	r0, [r2, #74]	; 0x4a
    579a:	f360 0108 	bfi	r1, r0, #0, #9
    579e:	f8a3 1ce0 	strh.w	r1, [r3, #3296]	; 0xce0
    57a2:	f8b3 1ce4 	ldrh.w	r1, [r3, #3300]	; 0xce4
    57a6:	f8b2 004c 	ldrh.w	r0, [r2, #76]	; 0x4c
    57aa:	f360 0108 	bfi	r1, r0, #0, #9
    57ae:	f8a3 1ce4 	strh.w	r1, [r3, #3300]	; 0xce4
    57b2:	f8b3 1ce8 	ldrh.w	r1, [r3, #3304]	; 0xce8
    57b6:	f8b2 004e 	ldrh.w	r0, [r2, #78]	; 0x4e
    57ba:	f360 0108 	bfi	r1, r0, #0, #9
    57be:	f8a3 1ce8 	strh.w	r1, [r3, #3304]	; 0xce8
    57c2:	f8b3 1cec 	ldrh.w	r1, [r3, #3308]	; 0xcec
    57c6:	f8b2 0050 	ldrh.w	r0, [r2, #80]	; 0x50
    57ca:	f360 0108 	bfi	r1, r0, #0, #9
    57ce:	f8a3 1cec 	strh.w	r1, [r3, #3308]	; 0xcec
    57d2:	f8b2 0052 	ldrh.w	r0, [r2, #82]	; 0x52
    57d6:	f8b3 1cf0 	ldrh.w	r1, [r3, #3312]	; 0xcf0
    57da:	f360 0108 	bfi	r1, r0, #0, #9
    57de:	f8a3 1cf0 	strh.w	r1, [r3, #3312]	; 0xcf0
    57e2:	f8b2 0054 	ldrh.w	r0, [r2, #84]	; 0x54
    57e6:	f8b3 1cf4 	ldrh.w	r1, [r3, #3316]	; 0xcf4
    57ea:	f360 0108 	bfi	r1, r0, #0, #9
    57ee:	f8a3 1cf4 	strh.w	r1, [r3, #3316]	; 0xcf4
    57f2:	f8b2 0056 	ldrh.w	r0, [r2, #86]	; 0x56
    57f6:	f8b3 1cf8 	ldrh.w	r1, [r3, #3320]	; 0xcf8
    57fa:	f360 0108 	bfi	r1, r0, #0, #9
    57fe:	f8a3 1cf8 	strh.w	r1, [r3, #3320]	; 0xcf8
    5802:	f8b2 1058 	ldrh.w	r1, [r2, #88]	; 0x58
    5806:	f8b3 2cfc 	ldrh.w	r2, [r3, #3324]	; 0xcfc
    580a:	f361 0208 	bfi	r2, r1, #0, #9
    580e:	f8a3 2cfc 	strh.w	r2, [r3, #3324]	; 0xcfc
    5812:	f8b3 2d00 	ldrh.w	r2, [r3, #3328]	; 0xd00
    5816:	f240 11ff 	movw	r1, #511	; 0x1ff
    581a:	f361 0208 	bfi	r2, r1, #0, #9
    581e:	f8a3 2d00 	strh.w	r2, [r3, #3328]	; 0xd00
    5822:	4770      	bx	lr
    5824:	04015b28 	.word	0x04015b28
    5828:	0000946c 	.word	0x0000946c
    582c:	00009410 	.word	0x00009410
    5830:	40013000 	.word	0x40013000

00005834 <radio_DCO_cal_init>:
    5834:	b530      	push	{r4, r5, lr}
    5836:	4a77      	ldr	r2, [pc, #476]	; (5a14 <radio_DCO_cal_init+0x1e0>)
    5838:	4b77      	ldr	r3, [pc, #476]	; (5a18 <radio_DCO_cal_init+0x1e4>)
    583a:	6991      	ldr	r1, [r2, #24]
    583c:	f3c1 0180 	ubfx	r1, r1, #2, #1
    5840:	6019      	str	r1, [r3, #0]
    5842:	6993      	ldr	r3, [r2, #24]
    5844:	f36f 0382 	bfc	r3, #2, #1
    5848:	6193      	str	r3, [r2, #24]
    584a:	4b74      	ldr	r3, [pc, #464]	; (5a1c <radio_DCO_cal_init+0x1e8>)
    584c:	f893 03e8 	ldrb.w	r0, [r3, #1000]	; 0x3e8
    5850:	f040 0004 	orr.w	r0, r0, #4
    5854:	f883 03e8 	strb.w	r0, [r3, #1000]	; 0x3e8
    5858:	f893 03e8 	ldrb.w	r0, [r3, #1000]	; 0x3e8
    585c:	f040 0008 	orr.w	r0, r0, #8
    5860:	f883 03e8 	strb.w	r0, [r3, #1000]	; 0x3e8
    5864:	f8b3 0600 	ldrh.w	r0, [r3, #1536]	; 0x600
    5868:	2403      	movs	r4, #3
    586a:	f364 0003 	bfi	r0, r4, #0, #4
    586e:	f8a3 0600 	strh.w	r0, [r3, #1536]	; 0x600
    5872:	f8b3 0600 	ldrh.w	r0, [r3, #1536]	; 0x600
    5876:	f36f 2049 	bfc	r0, #9, #1
    587a:	f8a3 0600 	strh.w	r0, [r3, #1536]	; 0x600
    587e:	f8b3 0600 	ldrh.w	r0, [r3, #1536]	; 0x600
    5882:	f440 70e0 	orr.w	r0, r0, #448	; 0x1c0
    5886:	f8a3 0600 	strh.w	r0, [r3, #1536]	; 0x600
    588a:	f8b3 460c 	ldrh.w	r4, [r3, #1548]	; 0x60c
    588e:	f240 2071 	movw	r0, #625	; 0x271
    5892:	f360 040f 	bfi	r4, r0, #0, #16
    5896:	f8a3 460c 	strh.w	r4, [r3, #1548]	; 0x60c
    589a:	f8b3 4610 	ldrh.w	r4, [r3, #1552]	; 0x610
    589e:	f360 040f 	bfi	r4, r0, #0, #16
    58a2:	f8a3 4610 	strh.w	r4, [r3, #1552]	; 0x610
    58a6:	f8b3 4614 	ldrh.w	r4, [r3, #1556]	; 0x614
    58aa:	f360 040f 	bfi	r4, r0, #0, #16
    58ae:	f8a3 4614 	strh.w	r4, [r3, #1556]	; 0x614
    58b2:	f8b3 4618 	ldrh.w	r4, [r3, #1560]	; 0x618
    58b6:	f360 040f 	bfi	r4, r0, #0, #16
    58ba:	f8a3 4618 	strh.w	r4, [r3, #1560]	; 0x618
    58be:	f8b3 089c 	ldrh.w	r0, [r3, #2204]	; 0x89c
    58c2:	2464      	movs	r4, #100	; 0x64
    58c4:	f364 000f 	bfi	r0, r4, #0, #16
    58c8:	f8a3 089c 	strh.w	r0, [r3, #2204]	; 0x89c
    58cc:	f8b3 08a0 	ldrh.w	r0, [r3, #2208]	; 0x8a0
    58d0:	240a      	movs	r4, #10
    58d2:	f364 000f 	bfi	r0, r4, #0, #16
    58d6:	f8a3 08a0 	strh.w	r0, [r3, #2208]	; 0x8a0
    58da:	f893 0880 	ldrb.w	r0, [r3, #2176]	; 0x880
    58de:	2502      	movs	r5, #2
    58e0:	f365 0001 	bfi	r0, r5, #0, #2
    58e4:	f883 0880 	strb.w	r0, [r3, #2176]	; 0x880
    58e8:	f893 02b8 	ldrb.w	r0, [r3, #696]	; 0x2b8
    58ec:	f040 0001 	orr.w	r0, r0, #1
    58f0:	f883 02b8 	strb.w	r0, [r3, #696]	; 0x2b8
    58f4:	f893 02ac 	ldrb.w	r0, [r3, #684]	; 0x2ac
    58f8:	f040 0004 	orr.w	r0, r0, #4
    58fc:	f883 02ac 	strb.w	r0, [r3, #684]	; 0x2ac
    5900:	f893 02a4 	ldrb.w	r0, [r3, #676]	; 0x2a4
    5904:	f040 0001 	orr.w	r0, r0, #1
    5908:	f883 02a4 	strb.w	r0, [r3, #676]	; 0x2a4
    590c:	f893 0298 	ldrb.w	r0, [r3, #664]	; 0x298
    5910:	f040 0010 	orr.w	r0, r0, #16
    5914:	f883 0298 	strb.w	r0, [r3, #664]	; 0x298
    5918:	f893 0298 	ldrb.w	r0, [r3, #664]	; 0x298
    591c:	f040 0004 	orr.w	r0, r0, #4
    5920:	f883 0298 	strb.w	r0, [r3, #664]	; 0x298
    5924:	f893 0468 	ldrb.w	r0, [r3, #1128]	; 0x468
    5928:	4328      	orrs	r0, r5
    592a:	f883 0468 	strb.w	r0, [r3, #1128]	; 0x468
    592e:	f8b3 03a8 	ldrh.w	r0, [r3, #936]	; 0x3a8
    5932:	f36f 1086 	bfc	r0, #6, #1
    5936:	f8a3 03a8 	strh.w	r0, [r3, #936]	; 0x3a8
    593a:	f893 03ac 	ldrb.w	r0, [r3, #940]	; 0x3ac
    593e:	f36f 0082 	bfc	r0, #2, #1
    5942:	f883 03ac 	strb.w	r0, [r3, #940]	; 0x3ac
    5946:	f893 02b8 	ldrb.w	r0, [r3, #696]	; 0x2b8
    594a:	4328      	orrs	r0, r5
    594c:	f883 02b8 	strb.w	r0, [r3, #696]	; 0x2b8
    5950:	f893 02b4 	ldrb.w	r0, [r3, #692]	; 0x2b4
    5954:	f040 0040 	orr.w	r0, r0, #64	; 0x40
    5958:	f883 02b4 	strb.w	r0, [r3, #692]	; 0x2b4
    595c:	f893 02f4 	ldrb.w	r0, [r3, #756]	; 0x2f4
    5960:	f040 0001 	orr.w	r0, r0, #1
    5964:	f883 02f4 	strb.w	r0, [r3, #756]	; 0x2f4
    5968:	f893 02f0 	ldrb.w	r0, [r3, #752]	; 0x2f0
    596c:	f040 0001 	orr.w	r0, r0, #1
    5970:	f883 02f0 	strb.w	r0, [r3, #752]	; 0x2f0
    5974:	f893 045c 	ldrb.w	r0, [r3, #1116]	; 0x45c
    5978:	f040 0001 	orr.w	r0, r0, #1
    597c:	f883 045c 	strb.w	r0, [r3, #1116]	; 0x45c
    5980:	f893 0458 	ldrb.w	r0, [r3, #1112]	; 0x458
    5984:	f040 0001 	orr.w	r0, r0, #1
    5988:	f883 0458 	strb.w	r0, [r3, #1112]	; 0x458
    598c:	f893 0284 	ldrb.w	r0, [r3, #644]	; 0x284
    5990:	f040 0001 	orr.w	r0, r0, #1
    5994:	f883 0284 	strb.w	r0, [r3, #644]	; 0x284
    5998:	f8b3 0280 	ldrh.w	r0, [r3, #640]	; 0x280
    599c:	f040 0001 	orr.w	r0, r0, #1
    59a0:	f8a3 0280 	strh.w	r0, [r3, #640]	; 0x280
    59a4:	f8b3 0600 	ldrh.w	r0, [r3, #1536]	; 0x600
    59a8:	f440 70e0 	orr.w	r0, r0, #448	; 0x1c0
    59ac:	f8a3 0600 	strh.w	r0, [r3, #1536]	; 0x600
    59b0:	f8b3 0604 	ldrh.w	r0, [r3, #1540]	; 0x604
    59b4:	2505      	movs	r5, #5
    59b6:	f365 0004 	bfi	r0, r5, #0, #5
    59ba:	f8a3 0604 	strh.w	r0, [r3, #1540]	; 0x604
    59be:	f8b3 0604 	ldrh.w	r0, [r3, #1540]	; 0x604
    59c2:	2509      	movs	r5, #9
    59c4:	f365 200c 	bfi	r0, r5, #8, #5
    59c8:	f8a3 0604 	strh.w	r0, [r3, #1540]	; 0x604
    59cc:	f8b3 0608 	ldrh.w	r0, [r3, #1544]	; 0x608
    59d0:	f364 0004 	bfi	r0, r4, #0, #5
    59d4:	f8a3 0608 	strh.w	r0, [r3, #1544]	; 0x608
    59d8:	f8b3 0608 	ldrh.w	r0, [r3, #1544]	; 0x608
    59dc:	240f      	movs	r4, #15
    59de:	f364 200c 	bfi	r0, r4, #8, #5
    59e2:	f8a3 0608 	strh.w	r0, [r3, #1544]	; 0x608
    59e6:	f8b3 0800 	ldrh.w	r0, [r3, #2048]	; 0x800
    59ea:	f36f 2008 	bfc	r0, #8, #1
    59ee:	f8a3 0800 	strh.w	r0, [r3, #2048]	; 0x800
    59f2:	f8b3 0804 	ldrh.w	r0, [r3, #2052]	; 0x804
    59f6:	f36f 0082 	bfc	r0, #2, #1
    59fa:	f8a3 0804 	strh.w	r0, [r3, #2052]	; 0x804
    59fe:	f8b3 0848 	ldrh.w	r0, [r3, #2120]	; 0x848
    5a02:	f36f 1086 	bfc	r0, #6, #1
    5a06:	f8a3 0848 	strh.w	r0, [r3, #2120]	; 0x848
    5a0a:	6993      	ldr	r3, [r2, #24]
    5a0c:	f361 0382 	bfi	r3, r1, #2, #1
    5a10:	6193      	str	r3, [r2, #24]
    5a12:	bd30      	pop	{r4, r5, pc}
    5a14:	400b0000 	.word	0x400b0000
    5a18:	04015fc4 	.word	0x04015fc4
    5a1c:	40013000 	.word	0x40013000

00005a20 <radio_DCO_cal>:
    5a20:	e92d 4ff0 	stmdb	sp!, {r4, r5, r6, r7, r8, r9, sl, fp, lr}
    5a24:	4bc5      	ldr	r3, [pc, #788]	; (5d3c <radio_DCO_cal+0x31c>)
    5a26:	b0a3      	sub	sp, #140	; 0x8c
    5a28:	889a      	ldrh	r2, [r3, #4]
    5a2a:	6818      	ldr	r0, [r3, #0]
    5a2c:	799b      	ldrb	r3, [r3, #6]
    5a2e:	f88d 306a 	strb.w	r3, [sp, #106]	; 0x6a
    5a32:	4bc3      	ldr	r3, [pc, #780]	; (5d40 <radio_DCO_cal+0x320>)
    5a34:	f8ad 2068 	strh.w	r2, [sp, #104]	; 0x68
    5a38:	9019      	str	r0, [sp, #100]	; 0x64
    5a3a:	aa1b      	add	r2, sp, #108	; 0x6c
    5a3c:	f103 0518 	add.w	r5, r3, #24
    5a40:	6818      	ldr	r0, [r3, #0]
    5a42:	6859      	ldr	r1, [r3, #4]
    5a44:	4614      	mov	r4, r2
    5a46:	c403      	stmia	r4!, {r0, r1}
    5a48:	3308      	adds	r3, #8
    5a4a:	42ab      	cmp	r3, r5
    5a4c:	4622      	mov	r2, r4
    5a4e:	d1f7      	bne.n	5a40 <radio_DCO_cal+0x20>
    5a50:	6818      	ldr	r0, [r3, #0]
    5a52:	4ebc      	ldr	r6, [pc, #752]	; (5d44 <radio_DCO_cal+0x324>)
    5a54:	4bbc      	ldr	r3, [pc, #752]	; (5d48 <radio_DCO_cal+0x328>)
    5a56:	6020      	str	r0, [r4, #0]
    5a58:	9317      	str	r3, [sp, #92]	; 0x5c
    5a5a:	f64a 7370 	movw	r3, #44912	; 0xaf70
    5a5e:	f8ad 3060 	strh.w	r3, [sp, #96]	; 0x60
    5a62:	f7ff fee7 	bl	5834 <radio_DCO_cal_init>
    5a66:	f896 3024 	ldrb.w	r3, [r6, #36]	; 0x24
    5a6a:	2b00      	cmp	r3, #0
    5a6c:	f000 808e 	beq.w	5b8c <radio_DCO_cal+0x16c>
    5a70:	6cf3      	ldr	r3, [r6, #76]	; 0x4c
    5a72:	f896 2051 	ldrb.w	r2, [r6, #81]	; 0x51
    5a76:	eb03 0342 	add.w	r3, r3, r2, lsl #1
    5a7a:	f9b3 300c 	ldrsh.w	r3, [r3, #12]
    5a7e:	f513 7f80 	cmn.w	r3, #256	; 0x100
    5a82:	f040 8083 	bne.w	5b8c <radio_DCO_cal+0x16c>
    5a86:	4bb1      	ldr	r3, [pc, #708]	; (5d4c <radio_DCO_cal+0x32c>)
    5a88:	4db1      	ldr	r5, [pc, #708]	; (5d50 <radio_DCO_cal+0x330>)
    5a8a:	699a      	ldr	r2, [r3, #24]
    5a8c:	f3c2 0280 	ubfx	r2, r2, #2, #1
    5a90:	602a      	str	r2, [r5, #0]
    5a92:	699a      	ldr	r2, [r3, #24]
    5a94:	f36f 0282 	bfc	r2, #2, #1
    5a98:	619a      	str	r2, [r3, #24]
    5a9a:	f7fe ffc3 	bl	4a24 <radio_pre_start_to_pll_polled>
    5a9e:	f7fe fffd 	bl	4a9c <radio_rx_assert_polled>
    5aa2:	2200      	movs	r2, #0
    5aa4:	4bab      	ldr	r3, [pc, #684]	; (5d54 <radio_DCO_cal+0x334>)
    5aa6:	4611      	mov	r1, r2
    5aa8:	4610      	mov	r0, r2
    5aaa:	f8c3 261c 	str.w	r2, [r3, #1564]	; 0x61c
    5aae:	3201      	adds	r2, #1
    5ab0:	2a15      	cmp	r2, #21
    5ab2:	f8c3 06d4 	str.w	r0, [r3, #1748]	; 0x6d4
    5ab6:	f8c3 06d8 	str.w	r0, [r3, #1752]	; 0x6d8
    5aba:	f8c3 0620 	str.w	r0, [r3, #1568]	; 0x620
    5abe:	f8c3 0624 	str.w	r0, [r3, #1572]	; 0x624
    5ac2:	d1f2      	bne.n	5aaa <radio_DCO_cal+0x8a>
    5ac4:	f893 2880 	ldrb.w	r2, [r3, #2176]	; 0x880
    5ac8:	2001      	movs	r0, #1
    5aca:	f360 0201 	bfi	r2, r0, #0, #2
    5ace:	f883 2880 	strb.w	r2, [r3, #2176]	; 0x880
    5ad2:	f8b3 2600 	ldrh.w	r2, [r3, #1536]	; 0x600
    5ad6:	f361 1205 	bfi	r2, r1, #4, #2
    5ada:	f8a3 2600 	strh.w	r2, [r3, #1536]	; 0x600
    5ade:	f8b3 25f8 	ldrh.w	r2, [r3, #1528]	; 0x5f8
    5ae2:	2441      	movs	r4, #65	; 0x41
    5ae4:	f364 020f 	bfi	r2, r4, #0, #16
    5ae8:	f8a3 25f8 	strh.w	r2, [r3, #1528]	; 0x5f8
    5aec:	f893 25fc 	ldrb.w	r2, [r3, #1532]	; 0x5fc
    5af0:	4c98      	ldr	r4, [pc, #608]	; (5d54 <radio_DCO_cal+0x334>)
    5af2:	f361 0204 	bfi	r2, r1, #0, #5
    5af6:	f883 25fc 	strb.w	r2, [r3, #1532]	; 0x5fc
    5afa:	f893 22ac 	ldrb.w	r2, [r3, #684]	; 0x2ac
    5afe:	f361 0282 	bfi	r2, r1, #2, #1
    5b02:	f883 22ac 	strb.w	r2, [r3, #684]	; 0x2ac
    5b06:	f8b3 22a8 	ldrh.w	r2, [r3, #680]	; 0x2a8
    5b0a:	f361 1287 	bfi	r2, r1, #6, #2
    5b0e:	f8a3 22a8 	strh.w	r2, [r3, #680]	; 0x2a8
    5b12:	2240      	movs	r2, #64	; 0x40
    5b14:	f8c3 0864 	str.w	r0, [r3, #2148]	; 0x864
    5b18:	f8c3 2870 	str.w	r2, [r3, #2160]	; 0x870
    5b1c:	f8d4 385c 	ldr.w	r3, [r4, #2140]	; 0x85c
    5b20:	07da      	lsls	r2, r3, #31
    5b22:	f140 81fb 	bpl.w	5f1c <radio_DCO_cal+0x4fc>
    5b26:	2301      	movs	r3, #1
    5b28:	f8c4 3864 	str.w	r3, [r4, #2148]	; 0x864
    5b2c:	f8b4 35f8 	ldrh.w	r3, [r4, #1528]	; 0x5f8
    5b30:	f36f 030f 	bfc	r3, #0, #16
    5b34:	f8a4 35f8 	strh.w	r3, [r4, #1528]	; 0x5f8
    5b38:	f894 35fc 	ldrb.w	r3, [r4, #1532]	; 0x5fc
    5b3c:	2210      	movs	r2, #16
    5b3e:	f362 0304 	bfi	r3, r2, #0, #5
    5b42:	f884 35fc 	strb.w	r3, [r4, #1532]	; 0x5fc
    5b46:	f894 32ac 	ldrb.w	r3, [r4, #684]	; 0x2ac
    5b4a:	f36f 0382 	bfc	r3, #2, #1
    5b4e:	f884 32ac 	strb.w	r3, [r4, #684]	; 0x2ac
    5b52:	f8b4 32a8 	ldrh.w	r3, [r4, #680]	; 0x2a8
    5b56:	2202      	movs	r2, #2
    5b58:	f362 1387 	bfi	r3, r2, #6, #2
    5b5c:	f8a4 32a8 	strh.w	r3, [r4, #680]	; 0x2a8
    5b60:	2340      	movs	r3, #64	; 0x40
    5b62:	f8c4 3870 	str.w	r3, [r4, #2160]	; 0x870
    5b66:	4c7b      	ldr	r4, [pc, #492]	; (5d54 <radio_DCO_cal+0x334>)
    5b68:	f8d4 385c 	ldr.w	r3, [r4, #2140]	; 0x85c
    5b6c:	07db      	lsls	r3, r3, #31
    5b6e:	f140 81d9 	bpl.w	5f24 <radio_DCO_cal+0x504>
    5b72:	2301      	movs	r3, #1
    5b74:	f8c4 3864 	str.w	r3, [r4, #2148]	; 0x864
    5b78:	f7fe ffac 	bl	4ad4 <radio_rx_deassert_polled>
    5b7c:	f7fe ff36 	bl	49ec <radio_power_down_to_off_polled>
    5b80:	4b72      	ldr	r3, [pc, #456]	; (5d4c <radio_DCO_cal+0x32c>)
    5b82:	6829      	ldr	r1, [r5, #0]
    5b84:	699a      	ldr	r2, [r3, #24]
    5b86:	f361 0282 	bfi	r2, r1, #2, #1
    5b8a:	619a      	str	r2, [r3, #24]
    5b8c:	4d71      	ldr	r5, [pc, #452]	; (5d54 <radio_DCO_cal+0x334>)
    5b8e:	f895 32ac 	ldrb.w	r3, [r5, #684]	; 0x2ac
    5b92:	f043 0304 	orr.w	r3, r3, #4
    5b96:	f885 32ac 	strb.w	r3, [r5, #684]	; 0x2ac
    5b9a:	f895 33ac 	ldrb.w	r3, [r5, #940]	; 0x3ac
    5b9e:	f043 0304 	orr.w	r3, r3, #4
    5ba2:	f885 33ac 	strb.w	r3, [r5, #940]	; 0x3ac
    5ba6:	f8b5 3600 	ldrh.w	r3, [r5, #1536]	; 0x600
    5baa:	2202      	movs	r2, #2
    5bac:	f362 1305 	bfi	r3, r2, #4, #2
    5bb0:	f8a5 3600 	strh.w	r3, [r5, #1536]	; 0x600
    5bb4:	f896 3024 	ldrb.w	r3, [r6, #36]	; 0x24
    5bb8:	2b00      	cmp	r3, #0
    5bba:	f000 81ac 	beq.w	5f16 <radio_DCO_cal+0x4f6>
    5bbe:	f896 3051 	ldrb.w	r3, [r6, #81]	; 0x51
    5bc2:	f8d6 b04c 	ldr.w	fp, [r6, #76]	; 0x4c
    5bc6:	9303      	str	r3, [sp, #12]
    5bc8:	eb0b 0343 	add.w	r3, fp, r3, lsl #1
    5bcc:	930c      	str	r3, [sp, #48]	; 0x30
    5bce:	f9b3 300c 	ldrsh.w	r3, [r3, #12]
    5bd2:	f513 7f80 	cmn.w	r3, #256	; 0x100
    5bd6:	f040 815f 	bne.w	5e98 <radio_DCO_cal+0x478>
    5bda:	9b03      	ldr	r3, [sp, #12]
    5bdc:	226c      	movs	r2, #108	; 0x6c
    5bde:	fb02 be03 	mla	lr, r2, r3, fp
    5be2:	2000      	movs	r0, #0
    5be4:	e9ce 001a 	strd	r0, r0, [lr, #104]	; 0x68
    5be8:	f8c5 061c 	str.w	r0, [r5, #1564]	; 0x61c
    5bec:	f8d5 3620 	ldr.w	r3, [r5, #1568]	; 0x620
    5bf0:	f8d5 2624 	ldr.w	r2, [r5, #1572]	; 0x624
    5bf4:	f343 0c0b 	sbfx	ip, r3, #0, #12
    5bf8:	2306      	movs	r3, #6
    5bfa:	f8c5 361c 	str.w	r3, [r5, #1564]	; 0x61c
    5bfe:	f04f 0814 	mov.w	r8, #20
    5c02:	f8d5 3620 	ldr.w	r3, [r5, #1568]	; 0x620
    5c06:	f8d5 1624 	ldr.w	r1, [r5, #1572]	; 0x624
    5c0a:	f8c5 861c 	str.w	r8, [r5, #1564]	; 0x61c
    5c0e:	f8d5 7620 	ldr.w	r7, [r5, #1568]	; 0x620
    5c12:	f8d5 5624 	ldr.w	r5, [r5, #1572]	; 0x624
    5c16:	9005      	str	r0, [sp, #20]
    5c18:	f343 030b 	sbfx	r3, r3, #0, #12
    5c1c:	f347 070b 	sbfx	r7, r7, #0, #12
    5c20:	1afe      	subs	r6, r7, r3
    5c22:	f341 010b 	sbfx	r1, r1, #0, #12
    5c26:	f345 050b 	sbfx	r5, r5, #0, #12
    5c2a:	eb06 0686 	add.w	r6, r6, r6, lsl #2
    5c2e:	9607      	str	r6, [sp, #28]
    5c30:	1a6e      	subs	r6, r5, r1
    5c32:	eb06 0686 	add.w	r6, r6, r6, lsl #2
    5c36:	9608      	str	r6, [sp, #32]
    5c38:	f06f 0638 	mvn.w	r6, #56	; 0x38
    5c3c:	f240 19bf 	movw	r9, #447	; 0x1bf
    5c40:	fb06 fa03 	mul.w	sl, r6, r3
    5c44:	fb09 a40c 	mla	r4, r9, ip, sl
    5c48:	f342 020b 	sbfx	r2, r2, #0, #12
    5c4c:	fb06 fa01 	mul.w	sl, r6, r1
    5c50:	940e      	str	r4, [sp, #56]	; 0x38
    5c52:	fb09 a402 	mla	r4, r9, r2, sl
    5c56:	f04f 093e 	mov.w	r9, #62	; 0x3e
    5c5a:	fb09 f303 	mul.w	r3, r9, r3
    5c5e:	fb09 f101 	mul.w	r1, r9, r1
    5c62:	fb06 1102 	mla	r1, r6, r2, r1
    5c66:	fb06 3c0c 	mla	ip, r6, ip, r3
    5c6a:	f06f 0304 	mvn.w	r3, #4
    5c6e:	940f      	str	r4, [sp, #60]	; 0x3c
    5c70:	fb03 c407 	mla	r4, r3, r7, ip
    5c74:	fb03 1305 	mla	r3, r3, r5, r1
    5c78:	9311      	str	r3, [sp, #68]	; 0x44
    5c7a:	f8de 3068 	ldr.w	r3, [lr, #104]	; 0x68
    5c7e:	9304      	str	r3, [sp, #16]
    5c80:	9b03      	ldr	r3, [sp, #12]
    5c82:	9410      	str	r4, [sp, #64]	; 0x40
    5c84:	226c      	movs	r2, #108	; 0x6c
    5c86:	fb12 8403 	smlabb	r4, r2, r3, r8
    5c8a:	eb0b 0304 	add.w	r3, fp, r4
    5c8e:	9309      	str	r3, [sp, #36]	; 0x24
    5c90:	9b07      	ldr	r3, [sp, #28]
    5c92:	4619      	mov	r1, r3
    5c94:	17da      	asrs	r2, r3, #31
    5c96:	9b08      	ldr	r3, [sp, #32]
    5c98:	e9cd 1212 	strd	r1, r2, [sp, #72]	; 0x48
    5c9c:	4619      	mov	r1, r3
    5c9e:	17da      	asrs	r2, r3, #31
    5ca0:	e9cd 1214 	strd	r1, r2, [sp, #80]	; 0x50
    5ca4:	4681      	mov	r9, r0
    5ca6:	fa5f f189 	uxtb.w	r1, r9
    5caa:	2307      	movs	r3, #7
    5cac:	fbb1 f3f3 	udiv	r3, r1, r3
    5cb0:	ebc3 02c3 	rsb	r2, r3, r3, lsl #3
    5cb4:	1a89      	subs	r1, r1, r2
    5cb6:	b2c9      	uxtb	r1, r1
    5cb8:	aa22      	add	r2, sp, #136	; 0x88
    5cba:	eb02 0081 	add.w	r0, r2, r1, lsl #2
    5cbe:	eb02 0343 	add.w	r3, r2, r3, lsl #1
    5cc2:	f930 4c1c 	ldrsh.w	r4, [r0, #-28]
    5cc6:	f930 5c1a 	ldrsh.w	r5, [r0, #-26]
    5cca:	9810      	ldr	r0, [sp, #64]	; 0x40
    5ccc:	f833 2c2c 	ldrh.w	r2, [r3, #-44]
    5cd0:	fb84 6700 	smull	r6, r7, r4, r0
    5cd4:	ea4f 3c07 	mov.w	ip, r7, lsl #12
    5cd8:	ea4c 5c16 	orr.w	ip, ip, r6, lsr #20
    5cdc:	0330      	lsls	r0, r6, #12
    5cde:	9e07      	ldr	r6, [sp, #28]
    5ce0:	fb82 2304 	smull	r2, r3, r2, r4
    5ce4:	fb06 fe03 	mul.w	lr, r6, r3
    5ce8:	9e13      	ldr	r6, [sp, #76]	; 0x4c
    5cea:	fb02 ee06 	mla	lr, r2, r6, lr
    5cee:	9e07      	ldr	r6, [sp, #28]
    5cf0:	fba6 6702 	umull	r6, r7, r6, r2
    5cf4:	1980      	adds	r0, r0, r6
    5cf6:	9e0e      	ldr	r6, [sp, #56]	; 0x38
    5cf8:	4477      	add	r7, lr
    5cfa:	eb4c 0c07 	adc.w	ip, ip, r7
    5cfe:	fb85 6706 	smull	r6, r7, r5, r6
    5d02:	ea4f 3e07 	mov.w	lr, r7, lsl #12
    5d06:	ea4f 3806 	mov.w	r8, r6, lsl #12
    5d0a:	eb10 0008 	adds.w	r0, r0, r8
    5d0e:	ea4e 5e16 	orr.w	lr, lr, r6, lsr #20
    5d12:	9000      	str	r0, [sp, #0]
    5d14:	eb4c 000e 	adc.w	r0, ip, lr
    5d18:	9001      	str	r0, [sp, #4]
    5d1a:	e9dd 6700 	ldrd	r6, r7, [sp]
    5d1e:	2e00      	cmp	r6, #0
    5d20:	f177 0000 	sbcs.w	r0, r7, #0
    5d24:	da18      	bge.n	5d58 <radio_DCO_cal+0x338>
    5d26:	9800      	ldr	r0, [sp, #0]
    5d28:	f06f 4670 	mvn.w	r6, #4026531840	; 0xf0000000
    5d2c:	1980      	adds	r0, r0, r6
    5d2e:	9000      	str	r0, [sp, #0]
    5d30:	9801      	ldr	r0, [sp, #4]
    5d32:	f140 0000 	adc.w	r0, r0, #0
    5d36:	9001      	str	r0, [sp, #4]
    5d38:	e00e      	b.n	5d58 <radio_DCO_cal+0x338>
    5d3a:	bf00      	nop
    5d3c:	000090b2 	.word	0x000090b2
    5d40:	000090ba 	.word	0x000090ba
    5d44:	04015b28 	.word	0x04015b28
    5d48:	3b721000 	.word	0x3b721000
    5d4c:	400b0000 	.word	0x400b0000
    5d50:	04015fc4 	.word	0x04015fc4
    5d54:	40013000 	.word	0x40013000
    5d58:	032f      	lsls	r7, r5, #12
    5d5a:	9800      	ldr	r0, [sp, #0]
    5d5c:	9d11      	ldr	r5, [sp, #68]	; 0x44
    5d5e:	9e01      	ldr	r6, [sp, #4]
    5d60:	fb84 4505 	smull	r4, r5, r4, r5
    5d64:	0f00      	lsrs	r0, r0, #28
    5d66:	ea40 1006 	orr.w	r0, r0, r6, lsl #4
    5d6a:	032e      	lsls	r6, r5, #12
    5d6c:	ea46 5614 	orr.w	r6, r6, r4, lsr #20
    5d70:	ea4f 3c04 	mov.w	ip, r4, lsl #12
    5d74:	9c08      	ldr	r4, [sp, #32]
    5d76:	9d15      	ldr	r5, [sp, #84]	; 0x54
    5d78:	435c      	muls	r4, r3
    5d7a:	fb02 4405 	mla	r4, r2, r5, r4
    5d7e:	9d08      	ldr	r5, [sp, #32]
    5d80:	fba5 2302 	umull	r2, r3, r5, r2
    5d84:	4423      	add	r3, r4
    5d86:	eb1c 0402 	adds.w	r4, ip, r2
    5d8a:	eb46 0303 	adc.w	r3, r6, r3
    5d8e:	930b      	str	r3, [sp, #44]	; 0x2c
    5d90:	940a      	str	r4, [sp, #40]	; 0x28
    5d92:	e9dd 450a 	ldrd	r4, r5, [sp, #40]	; 0x28
    5d96:	9b0f      	ldr	r3, [sp, #60]	; 0x3c
    5d98:	fbc7 4503 	smlal	r4, r5, r7, r3
    5d9c:	2c00      	cmp	r4, #0
    5d9e:	4622      	mov	r2, r4
    5da0:	f175 0400 	sbcs.w	r4, r5, #0
    5da4:	462b      	mov	r3, r5
    5da6:	da04      	bge.n	5db2 <radio_DCO_cal+0x392>
    5da8:	f06f 4470 	mvn.w	r4, #4026531840	; 0xf0000000
    5dac:	1912      	adds	r2, r2, r4
    5dae:	f145 0300 	adc.w	r3, r5, #0
    5db2:	0f16      	lsrs	r6, r2, #28
    5db4:	aa22      	add	r2, sp, #136	; 0x88
    5db6:	4411      	add	r1, r2
    5db8:	f500 6580 	add.w	r5, r0, #1024	; 0x400
    5dbc:	f5b5 6f00 	cmp.w	r5, #2048	; 0x800
    5dc0:	ea46 1303 	orr.w	r3, r6, r3, lsl #4
    5dc4:	f811 6c24 	ldrb.w	r6, [r1, #-36]
    5dc8:	f200 80b0 	bhi.w	5f2c <radio_DCO_cal+0x50c>
    5dcc:	2500      	movs	r5, #0
    5dce:	4370      	muls	r0, r6
    5dd0:	9506      	str	r5, [sp, #24]
    5dd2:	f503 6480 	add.w	r4, r3, #1024	; 0x400
    5dd6:	f5b4 6f00 	cmp.w	r4, #2048	; 0x800
    5dda:	f200 80c6 	bhi.w	5f6a <radio_DCO_cal+0x54a>
    5dde:	2400      	movs	r4, #0
    5de0:	435e      	muls	r6, r3
    5de2:	46a0      	mov	r8, r4
    5de4:	f44f 77c3 	mov.w	r7, #390	; 0x186
    5de8:	fb90 f0f7 	sdiv	r0, r0, r7
    5dec:	f001 fa1e 	bl	722c <__aeabi_i2d>
    5df0:	2200      	movs	r2, #0
    5df2:	4b6d      	ldr	r3, [pc, #436]	; (5fa8 <radio_DCO_cal+0x588>)
    5df4:	f001 f8ce 	bl	6f94 <__adddf3>
    5df8:	f001 fa82 	bl	7300 <__aeabi_d2iz>
    5dfc:	f240 7aff 	movw	sl, #2047	; 0x7ff
    5e00:	4550      	cmp	r0, sl
    5e02:	4603      	mov	r3, r0
    5e04:	bfa8      	it	ge
    5e06:	4653      	movge	r3, sl
    5e08:	fb96 f0f7 	sdiv	r0, r6, r7
    5e0c:	930d      	str	r3, [sp, #52]	; 0x34
    5e0e:	f001 fa0d 	bl	722c <__aeabi_i2d>
    5e12:	4b65      	ldr	r3, [pc, #404]	; (5fa8 <radio_DCO_cal+0x588>)
    5e14:	2200      	movs	r2, #0
    5e16:	f001 f8bd 	bl	6f94 <__adddf3>
    5e1a:	f001 fa71 	bl	7300 <__aeabi_d2iz>
    5e1e:	9b0d      	ldr	r3, [sp, #52]	; 0x34
    5e20:	9a09      	ldr	r2, [sp, #36]	; 0x24
    5e22:	461f      	mov	r7, r3
    5e24:	4b61      	ldr	r3, [pc, #388]	; (5fac <radio_DCO_cal+0x58c>)
    5e26:	4582      	cmp	sl, r0
    5e28:	bfa8      	it	ge
    5e2a:	4682      	movge	sl, r0
    5e2c:	429f      	cmp	r7, r3
    5e2e:	bfb8      	it	lt
    5e30:	461f      	movlt	r7, r3
    5e32:	f3c7 070b 	ubfx	r7, r7, #0, #12
    5e36:	459a      	cmp	sl, r3
    5e38:	bfb8      	it	lt
    5e3a:	469a      	movlt	sl, r3
    5e3c:	ea47 3505 	orr.w	r5, r7, r5, lsl #12
    5e40:	f822 5b02 	strh.w	r5, [r2], #2
    5e44:	f3ca 0a0b 	ubfx	sl, sl, #0, #12
    5e48:	9b06      	ldr	r3, [sp, #24]
    5e4a:	9209      	str	r2, [sp, #36]	; 0x24
    5e4c:	ea4a 3404 	orr.w	r4, sl, r4, lsl #12
    5e50:	8514      	strh	r4, [r2, #40]	; 0x28
    5e52:	9a04      	ldr	r2, [sp, #16]
    5e54:	fa03 f309 	lsl.w	r3, r3, r9
    5e58:	431a      	orrs	r2, r3
    5e5a:	9b05      	ldr	r3, [sp, #20]
    5e5c:	9204      	str	r2, [sp, #16]
    5e5e:	fa08 f809 	lsl.w	r8, r8, r9
    5e62:	f109 0901 	add.w	r9, r9, #1
    5e66:	ea43 0308 	orr.w	r3, r3, r8
    5e6a:	f1b9 0f15 	cmp.w	r9, #21
    5e6e:	9305      	str	r3, [sp, #20]
    5e70:	f47f af19 	bne.w	5ca6 <radio_DCO_cal+0x286>
    5e74:	9a03      	ldr	r2, [sp, #12]
    5e76:	236c      	movs	r3, #108	; 0x6c
    5e78:	fb03 b302 	mla	r3, r3, r2, fp
    5e7c:	9a04      	ldr	r2, [sp, #16]
    5e7e:	669a      	str	r2, [r3, #104]	; 0x68
    5e80:	9a05      	ldr	r2, [sp, #20]
    5e82:	66da      	str	r2, [r3, #108]	; 0x6c
    5e84:	4b4a      	ldr	r3, [pc, #296]	; (5fb0 <radio_DCO_cal+0x590>)
    5e86:	f893 202e 	ldrb.w	r2, [r3, #46]	; 0x2e
    5e8a:	b12a      	cbz	r2, 5e98 <radio_DCO_cal+0x478>
    5e8c:	990c      	ldr	r1, [sp, #48]	; 0x30
    5e8e:	8e5a      	ldrh	r2, [r3, #50]	; 0x32
    5e90:	818a      	strh	r2, [r1, #12]
    5e92:	2201      	movs	r2, #1
    5e94:	f883 202b 	strb.w	r2, [r3, #43]	; 0x2b
    5e98:	9b03      	ldr	r3, [sp, #12]
    5e9a:	226c      	movs	r2, #108	; 0x6c
    5e9c:	fb02 b303 	mla	r3, r2, r3, fp
    5ea0:	e9d3 541a 	ldrd	r5, r4, [r3, #104]	; 0x68
    5ea4:	9b03      	ldr	r3, [sp, #12]
    5ea6:	fb02 b203 	mla	r2, r2, r3, fp
    5eaa:	4b42      	ldr	r3, [pc, #264]	; (5fb4 <radio_DCO_cal+0x594>)
    5eac:	3214      	adds	r2, #20
    5eae:	2100      	movs	r1, #0
    5eb0:	f8c3 161c 	str.w	r1, [r3, #1564]	; 0x61c
    5eb4:	f893 06d4 	ldrb.w	r0, [r3, #1748]	; 0x6d4
    5eb8:	f832 7b02 	ldrh.w	r7, [r2], #2
    5ebc:	fa25 f601 	lsr.w	r6, r5, r1
    5ec0:	f366 1004 	bfi	r0, r6, #4, #1
    5ec4:	f883 06d4 	strb.w	r0, [r3, #1748]	; 0x6d4
    5ec8:	f893 06d8 	ldrb.w	r0, [r3, #1752]	; 0x6d8
    5ecc:	fa24 f601 	lsr.w	r6, r4, r1
    5ed0:	f366 1004 	bfi	r0, r6, #4, #1
    5ed4:	f883 06d8 	strb.w	r0, [r3, #1752]	; 0x6d8
    5ed8:	f893 06d4 	ldrb.w	r0, [r3, #1748]	; 0x6d4
    5edc:	0b3e      	lsrs	r6, r7, #12
    5ede:	f366 0003 	bfi	r0, r6, #0, #4
    5ee2:	f883 06d4 	strb.w	r0, [r3, #1748]	; 0x6d4
    5ee6:	8d16      	ldrh	r6, [r2, #40]	; 0x28
    5ee8:	f893 06d8 	ldrb.w	r0, [r3, #1752]	; 0x6d8
    5eec:	ea4f 3c16 	mov.w	ip, r6, lsr #12
    5ef0:	f36c 0003 	bfi	r0, ip, #0, #4
    5ef4:	f883 06d8 	strb.w	r0, [r3, #1752]	; 0x6d8
    5ef8:	f8b3 0620 	ldrh.w	r0, [r3, #1568]	; 0x620
    5efc:	f367 000b 	bfi	r0, r7, #0, #12
    5f00:	f8a3 0620 	strh.w	r0, [r3, #1568]	; 0x620
    5f04:	f8b3 0624 	ldrh.w	r0, [r3, #1572]	; 0x624
    5f08:	3101      	adds	r1, #1
    5f0a:	f366 000b 	bfi	r0, r6, #0, #12
    5f0e:	2915      	cmp	r1, #21
    5f10:	f8a3 0624 	strh.w	r0, [r3, #1572]	; 0x624
    5f14:	d1cc      	bne.n	5eb0 <radio_DCO_cal+0x490>
    5f16:	b023      	add	sp, #140	; 0x8c
    5f18:	e8bd 8ff0 	ldmia.w	sp!, {r4, r5, r6, r7, r8, r9, sl, fp, pc}
    5f1c:	2001      	movs	r0, #1
    5f1e:	f7fc f913 	bl	2148 <CLOCK_uDelay>
    5f22:	e5fb      	b.n	5b1c <radio_DCO_cal+0xfc>
    5f24:	2001      	movs	r0, #1
    5f26:	f7fc f90f 	bl	2148 <CLOCK_uDelay>
    5f2a:	e61d      	b.n	5b68 <radio_DCO_cal+0x148>
    5f2c:	f5b0 6f80 	cmp.w	r0, #1024	; 0x400
    5f30:	dd0d      	ble.n	5f4e <radio_DCO_cal+0x52e>
    5f32:	12ed      	asrs	r5, r5, #11
    5f34:	3d01      	subs	r5, #1
    5f36:	b2ed      	uxtb	r5, r5
    5f38:	2d0f      	cmp	r5, #15
    5f3a:	d811      	bhi.n	5f60 <radio_DCO_cal+0x540>
    5f3c:	2d07      	cmp	r5, #7
    5f3e:	d810      	bhi.n	5f62 <radio_DCO_cal+0x542>
    5f40:	1c6a      	adds	r2, r5, #1
    5f42:	eba0 20c2 	sub.w	r0, r0, r2, lsl #11
    5f46:	2201      	movs	r2, #1
    5f48:	4370      	muls	r0, r6
    5f4a:	9206      	str	r2, [sp, #24]
    5f4c:	e741      	b.n	5dd2 <radio_DCO_cal+0x3b2>
    5f4e:	f5b0 6580 	subs.w	r5, r0, #1024	; 0x400
    5f52:	bf48      	it	mi
    5f54:	f200 35ff 	addwmi	r5, r0, #1023	; 0x3ff
    5f58:	12ed      	asrs	r5, r5, #11
    5f5a:	f1c5 0507 	rsb	r5, r5, #7
    5f5e:	e7ea      	b.n	5f36 <radio_DCO_cal+0x516>
    5f60:	250f      	movs	r5, #15
    5f62:	1fea      	subs	r2, r5, #7
    5f64:	eb00 20c2 	add.w	r0, r0, r2, lsl #11
    5f68:	e7ed      	b.n	5f46 <radio_DCO_cal+0x526>
    5f6a:	f5b3 6f80 	cmp.w	r3, #1024	; 0x400
    5f6e:	dd0d      	ble.n	5f8c <radio_DCO_cal+0x56c>
    5f70:	12e4      	asrs	r4, r4, #11
    5f72:	3c01      	subs	r4, #1
    5f74:	b2e4      	uxtb	r4, r4
    5f76:	2c0f      	cmp	r4, #15
    5f78:	d811      	bhi.n	5f9e <radio_DCO_cal+0x57e>
    5f7a:	2c07      	cmp	r4, #7
    5f7c:	d810      	bhi.n	5fa0 <radio_DCO_cal+0x580>
    5f7e:	1c62      	adds	r2, r4, #1
    5f80:	eba3 23c2 	sub.w	r3, r3, r2, lsl #11
    5f84:	435e      	muls	r6, r3
    5f86:	f04f 0801 	mov.w	r8, #1
    5f8a:	e72b      	b.n	5de4 <radio_DCO_cal+0x3c4>
    5f8c:	f5b3 6480 	subs.w	r4, r3, #1024	; 0x400
    5f90:	bf48      	it	mi
    5f92:	f203 34ff 	addwmi	r4, r3, #1023	; 0x3ff
    5f96:	12e4      	asrs	r4, r4, #11
    5f98:	f1c4 0407 	rsb	r4, r4, #7
    5f9c:	e7ea      	b.n	5f74 <radio_DCO_cal+0x554>
    5f9e:	240f      	movs	r4, #15
    5fa0:	1fe2      	subs	r2, r4, #7
    5fa2:	eb03 23c2 	add.w	r3, r3, r2, lsl #11
    5fa6:	e7ed      	b.n	5f84 <radio_DCO_cal+0x564>
    5fa8:	3fe00000 	.word	0x3fe00000
    5fac:	fffff800 	.word	0xfffff800
    5fb0:	04015b28 	.word	0x04015b28
    5fb4:	40013000 	.word	0x40013000

00005fb8 <radio_IQ_cal>:
    5fb8:	4b0e      	ldr	r3, [pc, #56]	; (5ff4 <radio_IQ_cal+0x3c>)
    5fba:	681b      	ldr	r3, [r3, #0]
    5fbc:	f240 4201 	movw	r2, #1025	; 0x401
    5fc0:	439a      	bics	r2, r3
    5fc2:	d115      	bne.n	5ff0 <radio_IQ_cal+0x38>
    5fc4:	4a0c      	ldr	r2, [pc, #48]	; (5ff8 <radio_IQ_cal+0x40>)
    5fc6:	6991      	ldr	r1, [r2, #24]
    5fc8:	4a0c      	ldr	r2, [pc, #48]	; (5ffc <radio_IQ_cal+0x44>)
    5fca:	4291      	cmp	r1, r2
    5fcc:	d910      	bls.n	5ff0 <radio_IQ_cal+0x38>
    5fce:	4a0c      	ldr	r2, [pc, #48]	; (6000 <radio_IQ_cal+0x48>)
    5fd0:	f8b2 1660 	ldrh.w	r1, [r2, #1632]	; 0x660
    5fd4:	f3c3 20c9 	ubfx	r0, r3, #11, #10
    5fd8:	f360 0109 	bfi	r1, r0, #0, #10
    5fdc:	f8a2 1660 	strh.w	r1, [r2, #1632]	; 0x660
    5fe0:	f8b2 165c 	ldrh.w	r1, [r2, #1628]	; 0x65c
    5fe4:	f3c3 0348 	ubfx	r3, r3, #1, #9
    5fe8:	f363 0108 	bfi	r1, r3, #0, #9
    5fec:	f8a2 165c 	strh.w	r1, [r2, #1628]	; 0x65c
    5ff0:	4770      	bx	lr
    5ff2:	bf00      	nop
    5ff4:	0009fd20 	.word	0x0009fd20
    5ff8:	04015b28 	.word	0x04015b28
    5ffc:	0133ed4c 	.word	0x0133ed4c
    6000:	40013000 	.word	0x40013000

00006004 <radio_PowerOnCheckXtal>:
    6004:	b538      	push	{r3, r4, r5, lr}
    6006:	4b3e      	ldr	r3, [pc, #248]	; (6100 <radio_PowerOnCheckXtal+0xfc>)
    6008:	f8d3 23c0 	ldr.w	r2, [r3, #960]	; 0x3c0
    600c:	06d0      	lsls	r0, r2, #27
    600e:	d461      	bmi.n	60d4 <radio_PowerOnCheckXtal+0xd0>
    6010:	f893 23c0 	ldrb.w	r2, [r3, #960]	; 0x3c0
    6014:	4d3b      	ldr	r5, [pc, #236]	; (6104 <radio_PowerOnCheckXtal+0x100>)
    6016:	4c3c      	ldr	r4, [pc, #240]	; (6108 <radio_PowerOnCheckXtal+0x104>)
    6018:	f36f 1204 	bfc	r2, #4, #1
    601c:	f883 23c0 	strb.w	r2, [r3, #960]	; 0x3c0
    6020:	f8b3 241c 	ldrh.w	r2, [r3, #1052]	; 0x41c
    6024:	f442 7200 	orr.w	r2, r2, #512	; 0x200
    6028:	f8a3 241c 	strh.w	r2, [r3, #1052]	; 0x41c
    602c:	f893 2420 	ldrb.w	r2, [r3, #1056]	; 0x420
    6030:	f36f 0241 	bfc	r2, #1, #1
    6034:	f883 2420 	strb.w	r2, [r3, #1056]	; 0x420
    6038:	f893 24a4 	ldrb.w	r2, [r3, #1188]	; 0x4a4
    603c:	f36f 0200 	bfc	r2, #0, #1
    6040:	f883 24a4 	strb.w	r2, [r3, #1188]	; 0x4a4
    6044:	f8d5 3098 	ldr.w	r3, [r5, #152]	; 0x98
    6048:	07d9      	lsls	r1, r3, #31
    604a:	bf4c      	ite	mi
    604c:	201e      	movmi	r0, #30
    604e:	200a      	movpl	r0, #10
    6050:	f7fc f87a 	bl	2148 <CLOCK_uDelay>
    6054:	f8d4 20ac 	ldr.w	r2, [r4, #172]	; 0xac
    6058:	f042 6200 	orr.w	r2, r2, #134217728	; 0x8000000
    605c:	f8c4 20ac 	str.w	r2, [r4, #172]	; 0xac
    6060:	f8d4 20a8 	ldr.w	r2, [r4, #168]	; 0xa8
    6064:	f422 727e 	bic.w	r2, r2, #1016	; 0x3f8
    6068:	f022 0202 	bic.w	r2, r2, #2
    606c:	f442 72d5 	orr.w	r2, r2, #426	; 0x1aa
    6070:	f8c4 20a8 	str.w	r2, [r4, #168]	; 0xa8
    6074:	f8d5 2098 	ldr.w	r2, [r5, #152]	; 0x98
    6078:	07d2      	lsls	r2, r2, #31
    607a:	d42c      	bmi.n	60d6 <radio_PowerOnCheckXtal+0xd2>
    607c:	2014      	movs	r0, #20
    607e:	f7fc f863 	bl	2148 <CLOCK_uDelay>
    6082:	f8d4 30ac 	ldr.w	r3, [r4, #172]	; 0xac
    6086:	4a21      	ldr	r2, [pc, #132]	; (610c <radio_PowerOnCheckXtal+0x108>)
    6088:	401a      	ands	r2, r3
    608a:	4b21      	ldr	r3, [pc, #132]	; (6110 <radio_PowerOnCheckXtal+0x10c>)
    608c:	4313      	orrs	r3, r2
    608e:	f8c4 30ac 	str.w	r3, [r4, #172]	; 0xac
    6092:	f8d5 3098 	ldr.w	r3, [r5, #152]	; 0x98
    6096:	f013 0f01 	tst.w	r3, #1
    609a:	4b19      	ldr	r3, [pc, #100]	; (6100 <radio_PowerOnCheckXtal+0xfc>)
    609c:	f8b3 247c 	ldrh.w	r2, [r3, #1148]	; 0x47c
    60a0:	f042 0202 	orr.w	r2, r2, #2
    60a4:	f8a3 247c 	strh.w	r2, [r3, #1148]	; 0x47c
    60a8:	f893 2480 	ldrb.w	r2, [r3, #1152]	; 0x480
    60ac:	f36f 0200 	bfc	r2, #0, #1
    60b0:	f883 2480 	strb.w	r2, [r3, #1152]	; 0x480
    60b4:	d016      	beq.n	60e4 <radio_PowerOnCheckXtal+0xe0>
    60b6:	4a12      	ldr	r2, [pc, #72]	; (6100 <radio_PowerOnCheckXtal+0xfc>)
    60b8:	f892 33c0 	ldrb.w	r3, [r2, #960]	; 0x3c0
    60bc:	f043 0310 	orr.w	r3, r3, #16
    60c0:	f882 33c0 	strb.w	r3, [r2, #960]	; 0x3c0
    60c4:	f502 4250 	add.w	r2, r2, #53248	; 0xd000
    60c8:	f8d2 30ac 	ldr.w	r3, [r2, #172]	; 0xac
    60cc:	f043 5380 	orr.w	r3, r3, #268435456	; 0x10000000
    60d0:	f8c2 30ac 	str.w	r3, [r2, #172]	; 0xac
    60d4:	bd38      	pop	{r3, r4, r5, pc}
    60d6:	f8d4 30ac 	ldr.w	r3, [r4, #172]	; 0xac
    60da:	f043 5380 	orr.w	r3, r3, #268435456	; 0x10000000
    60de:	f8c4 30ac 	str.w	r3, [r4, #172]	; 0xac
    60e2:	e7ce      	b.n	6082 <radio_PowerOnCheckXtal+0x7e>
    60e4:	4c08      	ldr	r4, [pc, #32]	; (6108 <radio_PowerOnCheckXtal+0x104>)
    60e6:	f8d4 30b4 	ldr.w	r3, [r4, #180]	; 0xb4
    60ea:	07db      	lsls	r3, r3, #31
    60ec:	d503      	bpl.n	60f6 <radio_PowerOnCheckXtal+0xf2>
    60ee:	20c8      	movs	r0, #200	; 0xc8
    60f0:	f7fc f82a 	bl	2148 <CLOCK_uDelay>
    60f4:	e7df      	b.n	60b6 <radio_PowerOnCheckXtal+0xb2>
    60f6:	200a      	movs	r0, #10
    60f8:	f7fc f826 	bl	2148 <CLOCK_uDelay>
    60fc:	e7f3      	b.n	60e6 <radio_PowerOnCheckXtal+0xe2>
    60fe:	bf00      	nop
    6100:	40013000 	.word	0x40013000
    6104:	40012000 	.word	0x40012000
    6108:	40020000 	.word	0x40020000
    610c:	fc3c0001 	.word	0xfc3c0001
    6110:	05c30e18 	.word	0x05c30e18

00006114 <radio_PowerOn>:
    6114:	b510      	push	{r4, lr}
    6116:	4c20      	ldr	r4, [pc, #128]	; (6198 <radio_PowerOn+0x84>)
    6118:	f8d4 33c0 	ldr.w	r3, [r4, #960]	; 0x3c0
    611c:	06db      	lsls	r3, r3, #27
    611e:	d439      	bmi.n	6194 <radio_PowerOn+0x80>
    6120:	f894 33c0 	ldrb.w	r3, [r4, #960]	; 0x3c0
    6124:	f36f 1304 	bfc	r3, #4, #1
    6128:	f884 33c0 	strb.w	r3, [r4, #960]	; 0x3c0
    612c:	f8b4 341c 	ldrh.w	r3, [r4, #1052]	; 0x41c
    6130:	f443 7300 	orr.w	r3, r3, #512	; 0x200
    6134:	f8a4 341c 	strh.w	r3, [r4, #1052]	; 0x41c
    6138:	f894 3420 	ldrb.w	r3, [r4, #1056]	; 0x420
    613c:	f36f 0341 	bfc	r3, #1, #1
    6140:	f884 3420 	strb.w	r3, [r4, #1056]	; 0x420
    6144:	f894 34a4 	ldrb.w	r3, [r4, #1188]	; 0x4a4
    6148:	f36f 0300 	bfc	r3, #0, #1
    614c:	f884 34a4 	strb.w	r3, [r4, #1188]	; 0x4a4
    6150:	201e      	movs	r0, #30
    6152:	f7fb fff9 	bl	2148 <CLOCK_uDelay>
    6156:	4b11      	ldr	r3, [pc, #68]	; (619c <radio_PowerOn+0x88>)
    6158:	f8d3 20ac 	ldr.w	r2, [r3, #172]	; 0xac
    615c:	f042 6200 	orr.w	r2, r2, #134217728	; 0x8000000
    6160:	f8c3 20ac 	str.w	r2, [r3, #172]	; 0xac
    6164:	f8d3 20ac 	ldr.w	r2, [r3, #172]	; 0xac
    6168:	f042 5280 	orr.w	r2, r2, #268435456	; 0x10000000
    616c:	f8c3 20ac 	str.w	r2, [r3, #172]	; 0xac
    6170:	f8b4 347c 	ldrh.w	r3, [r4, #1148]	; 0x47c
    6174:	f043 0302 	orr.w	r3, r3, #2
    6178:	f8a4 347c 	strh.w	r3, [r4, #1148]	; 0x47c
    617c:	f894 3480 	ldrb.w	r3, [r4, #1152]	; 0x480
    6180:	f36f 0300 	bfc	r3, #0, #1
    6184:	f884 3480 	strb.w	r3, [r4, #1152]	; 0x480
    6188:	f894 33c0 	ldrb.w	r3, [r4, #960]	; 0x3c0
    618c:	f043 0310 	orr.w	r3, r3, #16
    6190:	f884 33c0 	strb.w	r3, [r4, #960]	; 0x3c0
    6194:	bd10      	pop	{r4, pc}
    6196:	bf00      	nop
    6198:	40013000 	.word	0x40013000
    619c:	40020000 	.word	0x40020000

000061a0 <vRadio_PowerOnSpecific>:
    61a0:	b510      	push	{r4, lr}
    61a2:	4c20      	ldr	r4, [pc, #128]	; (6224 <vRadio_PowerOnSpecific+0x84>)
    61a4:	f894 33c0 	ldrb.w	r3, [r4, #960]	; 0x3c0
    61a8:	f36f 1304 	bfc	r3, #4, #1
    61ac:	f884 33c0 	strb.w	r3, [r4, #960]	; 0x3c0
    61b0:	f894 32dc 	ldrb.w	r3, [r4, #732]	; 0x2dc
    61b4:	f043 0301 	orr.w	r3, r3, #1
    61b8:	f884 32dc 	strb.w	r3, [r4, #732]	; 0x2dc
    61bc:	f894 32e0 	ldrb.w	r3, [r4, #736]	; 0x2e0
    61c0:	f36f 0300 	bfc	r3, #0, #1
    61c4:	f884 32e0 	strb.w	r3, [r4, #736]	; 0x2e0
    61c8:	200f      	movs	r0, #15
    61ca:	f7fb ffbd 	bl	2148 <CLOCK_uDelay>
    61ce:	f894 34a4 	ldrb.w	r3, [r4, #1188]	; 0x4a4
    61d2:	f043 0301 	orr.w	r3, r3, #1
    61d6:	f884 34a4 	strb.w	r3, [r4, #1188]	; 0x4a4
    61da:	201e      	movs	r0, #30
    61dc:	f7fb ffb4 	bl	2148 <CLOCK_uDelay>
    61e0:	4b11      	ldr	r3, [pc, #68]	; (6228 <vRadio_PowerOnSpecific+0x88>)
    61e2:	f8b3 20a8 	ldrh.w	r2, [r3, #168]	; 0xa8
    61e6:	f042 0202 	orr.w	r2, r2, #2
    61ea:	f8a3 20a8 	strh.w	r2, [r3, #168]	; 0xa8
    61ee:	f8d3 20ac 	ldr.w	r2, [r3, #172]	; 0xac
    61f2:	f04f 4180 	mov.w	r1, #1073741824	; 0x40000000
    61f6:	f442 0280 	orr.w	r2, r2, #4194304	; 0x400000
    61fa:	f8c3 20ac 	str.w	r2, [r3, #172]	; 0xac
    61fe:	f891 25d8 	ldrb.w	r2, [r1, #1496]	; 0x5d8
    6202:	f042 0201 	orr.w	r2, r2, #1
    6206:	f881 25d8 	strb.w	r2, [r1, #1496]	; 0x5d8
    620a:	f8d3 20ac 	ldr.w	r2, [r3, #172]	; 0xac
    620e:	f36f 62db 	bfc	r2, #27, #1
    6212:	f8c3 20ac 	str.w	r2, [r3, #172]	; 0xac
    6216:	f894 33c0 	ldrb.w	r3, [r4, #960]	; 0x3c0
    621a:	f043 0310 	orr.w	r3, r3, #16
    621e:	f884 33c0 	strb.w	r3, [r4, #960]	; 0x3c0
    6222:	bd10      	pop	{r4, pc}
    6224:	40013000 	.word	0x40013000
    6228:	40020000 	.word	0x40020000

0000622c <vRadio_InitXtal>:
    622c:	b538      	push	{r3, r4, r5, lr}
    622e:	f04f 4380 	mov.w	r3, #1073741824	; 0x40000000
    6232:	f04f 7208 	mov.w	r2, #35651584	; 0x2200000
    6236:	f8c3 2124 	str.w	r2, [r3, #292]	; 0x124
    623a:	f893 204c 	ldrb.w	r2, [r3, #76]	; 0x4c
    623e:	4d17      	ldr	r5, [pc, #92]	; (629c <vRadio_InitXtal+0x70>)
    6240:	f042 0201 	orr.w	r2, r2, #1
    6244:	f883 204c 	strb.w	r2, [r3, #76]	; 0x4c
    6248:	f895 1027 	ldrb.w	r1, [r5, #39]	; 0x27
    624c:	f04f 7238 	mov.w	r2, #48234496	; 0x2e00000
    6250:	f8c3 2224 	str.w	r2, [r3, #548]	; 0x224
    6254:	f04f 7200 	mov.w	r2, #33554432	; 0x2000000
    6258:	f8c3 2144 	str.w	r2, [r3, #324]	; 0x144
    625c:	461c      	mov	r4, r3
    625e:	b1c1      	cbz	r1, 6292 <vRadio_InitXtal+0x66>
    6260:	f7ff ff58 	bl	6114 <radio_PowerOn>
    6264:	f44f 1300 	mov.w	r3, #2097152	; 0x200000
    6268:	f8c4 3144 	str.w	r3, [r4, #324]	; 0x144
    626c:	f894 32cc 	ldrb.w	r3, [r4, #716]	; 0x2cc
    6270:	f36f 0300 	bfc	r3, #0, #1
    6274:	f884 32cc 	strb.w	r3, [r4, #716]	; 0x2cc
    6278:	f894 32cc 	ldrb.w	r3, [r4, #716]	; 0x2cc
    627c:	f36f 0341 	bfc	r3, #1, #1
    6280:	f884 32cc 	strb.w	r3, [r4, #716]	; 0x2cc
    6284:	f895 3027 	ldrb.w	r3, [r5, #39]	; 0x27
    6288:	b933      	cbnz	r3, 6298 <vRadio_InitXtal+0x6c>
    628a:	e8bd 4038 	ldmia.w	sp!, {r3, r4, r5, lr}
    628e:	f7fc b81b 	b.w	22c8 <CLOCK_XtalBasicTrim>
    6292:	f7ff feb7 	bl	6004 <radio_PowerOnCheckXtal>
    6296:	e7e5      	b.n	6264 <vRadio_InitXtal+0x38>
    6298:	bd38      	pop	{r3, r4, r5, pc}
    629a:	bf00      	nop
    629c:	04015b28 	.word	0x04015b28

000062a0 <radio_get_retention_info>:
    62a0:	2300      	movs	r3, #0
    62a2:	6003      	str	r3, [r0, #0]
    62a4:	4b0e      	ldr	r3, [pc, #56]	; (62e0 <radio_get_retention_info+0x40>)
    62a6:	f893 302f 	ldrb.w	r3, [r3, #47]	; 0x2f
    62aa:	b1c3      	cbz	r3, 62de <radio_get_retention_info+0x3e>
    62ac:	490d      	ldr	r1, [pc, #52]	; (62e4 <radio_get_retention_info+0x44>)
    62ae:	f8d1 23d0 	ldr.w	r2, [r1, #976]	; 0x3d0
    62b2:	f3c2 2242 	ubfx	r2, r2, #9, #3
    62b6:	f082 0203 	eor.w	r2, r2, #3
    62ba:	6002      	str	r2, [r0, #0]
    62bc:	f8d1 3690 	ldr.w	r3, [r1, #1680]	; 0x690
    62c0:	f3c3 030a 	ubfx	r3, r3, #0, #11
    62c4:	431a      	orrs	r2, r3
    62c6:	6002      	str	r2, [r0, #0]
    62c8:	f8d1 36b0 	ldr.w	r3, [r1, #1712]	; 0x6b0
    62cc:	b2db      	uxtb	r3, r3
    62ce:	4313      	orrs	r3, r2
    62d0:	6003      	str	r3, [r0, #0]
    62d2:	f8d1 26ac 	ldr.w	r2, [r1, #1708]	; 0x6ac
    62d6:	f3c2 0208 	ubfx	r2, r2, #0, #9
    62da:	4313      	orrs	r3, r2
    62dc:	6003      	str	r3, [r0, #0]
    62de:	4770      	bx	lr
    62e0:	04015b28 	.word	0x04015b28
    62e4:	40013000 	.word	0x40013000

000062e8 <vRadio_Standard_Init>:
    62e8:	f3c0 2307 	ubfx	r3, r0, #8, #8
    62ec:	b570      	push	{r4, r5, r6, lr}
    62ee:	4da4      	ldr	r5, [pc, #656]	; (6580 <vRadio_Standard_Init+0x298>)
    62f0:	4ca4      	ldr	r4, [pc, #656]	; (6584 <vRadio_Standard_Init+0x29c>)
    62f2:	616b      	str	r3, [r5, #20]
    62f4:	b2c0      	uxtb	r0, r0
    62f6:	2b03      	cmp	r3, #3
    62f8:	6128      	str	r0, [r5, #16]
    62fa:	d01e      	beq.n	633a <vRadio_Standard_Init+0x52>
    62fc:	2b04      	cmp	r3, #4
    62fe:	f000 80c0 	beq.w	6482 <vRadio_Standard_Init+0x19a>
    6302:	4620      	mov	r0, r4
    6304:	49a0      	ldr	r1, [pc, #640]	; (6588 <vRadio_Standard_Init+0x2a0>)
    6306:	2210      	movs	r2, #16
    6308:	2600      	movs	r6, #0
    630a:	60ee      	str	r6, [r5, #12]
    630c:	f7fe fb26 	bl	495c <radio_fill_std_ZB_regs>
    6310:	499e      	ldr	r1, [pc, #632]	; (658c <vRadio_Standard_Init+0x2a4>)
    6312:	229c      	movs	r2, #156	; 0x9c
    6314:	f7fe fb46 	bl	49a4 <radio_fill_zbble_ZB_regs>
    6318:	f7fe fafe 	bl	4918 <radio_TX_ZigBee_pll_dac_banked_set>
    631c:	692b      	ldr	r3, [r5, #16]
    631e:	2b01      	cmp	r3, #1
    6320:	f000 80d9 	beq.w	64d6 <vRadio_Standard_Init+0x1ee>
    6324:	2b02      	cmp	r3, #2
    6326:	f000 80e8 	beq.w	64fa <vRadio_Standard_Init+0x212>
    632a:	f8b4 3784 	ldrh.w	r3, [r4, #1924]	; 0x784
    632e:	2202      	movs	r2, #2
    6330:	f362 0342 	bfi	r3, r2, #1, #2
    6334:	f8a4 3784 	strh.w	r3, [r4, #1924]	; 0x784
    6338:	e0d3      	b.n	64e2 <vRadio_Standard_Init+0x1fa>
    633a:	4620      	mov	r0, r4
    633c:	4992      	ldr	r1, [pc, #584]	; (6588 <vRadio_Standard_Init+0x2a0>)
    633e:	2210      	movs	r2, #16
    6340:	2601      	movs	r6, #1
    6342:	60ee      	str	r6, [r5, #12]
    6344:	f7fe fb16 	bl	4974 <radio_fill_std_BLE1M_regs>
    6348:	4990      	ldr	r1, [pc, #576]	; (658c <vRadio_Standard_Init+0x2a4>)
    634a:	229c      	movs	r2, #156	; 0x9c
    634c:	f7fe fb36 	bl	49bc <radio_fill_zbble_BLE_regs>
    6350:	2100      	movs	r1, #0
    6352:	4608      	mov	r0, r1
    6354:	f7fe fabc 	bl	48d0 <radio_IsNotC2MF>
    6358:	f8b4 32c0 	ldrh.w	r3, [r4, #704]	; 0x2c0
    635c:	2800      	cmp	r0, #0
    635e:	f000 8081 	beq.w	6464 <vRadio_Standard_Init+0x17c>
    6362:	f36f 1304 	bfc	r3, #4, #1
    6366:	f8a4 32c0 	strh.w	r3, [r4, #704]	; 0x2c0
    636a:	f8b4 32c0 	ldrh.w	r3, [r4, #704]	; 0x2c0
    636e:	2202      	movs	r2, #2
    6370:	f362 0383 	bfi	r3, r2, #2, #2
    6374:	f8a4 32c0 	strh.w	r3, [r4, #704]	; 0x2c0
    6378:	f8b4 378c 	ldrh.w	r3, [r4, #1932]	; 0x78c
    637c:	f240 7285 	movw	r2, #1925	; 0x785
    6380:	f362 030a 	bfi	r3, r2, #0, #11
    6384:	4982      	ldr	r1, [pc, #520]	; (6590 <vRadio_Standard_Init+0x2a8>)
    6386:	487f      	ldr	r0, [pc, #508]	; (6584 <vRadio_Standard_Init+0x29c>)
    6388:	f8a4 378c 	strh.w	r3, [r4, #1932]	; 0x78c
    638c:	2248      	movs	r2, #72	; 0x48
    638e:	f7fe fb15 	bl	49bc <radio_fill_zbble_BLE_regs>
    6392:	487c      	ldr	r0, [pc, #496]	; (6584 <vRadio_Standard_Init+0x29c>)
    6394:	497f      	ldr	r1, [pc, #508]	; (6594 <vRadio_Standard_Init+0x2ac>)
    6396:	2238      	movs	r2, #56	; 0x38
    6398:	f7fe faec 	bl	4974 <radio_fill_std_BLE1M_regs>
    639c:	2000      	movs	r0, #0
    639e:	f7fe fceb 	bl	4d78 <radio_Carrier_Frequency_Select_by_index>
    63a2:	f7ff f875 	bl	5490 <radio_Trx_Packet_HW_Ctrl_Init>
    63a6:	f04f 4280 	mov.w	r2, #1073741824	; 0x40000000
    63aa:	497b      	ldr	r1, [pc, #492]	; (6598 <vRadio_Standard_Init+0x2b0>)
    63ac:	f8d2 35cc 	ldr.w	r3, [r2, #1484]	; 0x5cc
    63b0:	f043 0346 	orr.w	r3, r3, #70	; 0x46
    63b4:	f8c2 35cc 	str.w	r3, [r2, #1484]	; 0x5cc
    63b8:	4b78      	ldr	r3, [pc, #480]	; (659c <vRadio_Standard_Init+0x2b4>)
    63ba:	f893 2084 	ldrb.w	r2, [r3, #132]	; 0x84
    63be:	f36f 0282 	bfc	r2, #2, #1
    63c2:	f883 2084 	strb.w	r2, [r3, #132]	; 0x84
    63c6:	6d1a      	ldr	r2, [r3, #80]	; 0x50
    63c8:	f36f 4253 	bfc	r2, #17, #3
    63cc:	651a      	str	r2, [r3, #80]	; 0x50
    63ce:	4a74      	ldr	r2, [pc, #464]	; (65a0 <vRadio_Standard_Init+0x2b8>)
    63d0:	f8c2 1080 	str.w	r1, [r2, #128]	; 0x80
    63d4:	6dda      	ldr	r2, [r3, #92]	; 0x5c
    63d6:	212d      	movs	r1, #45	; 0x2d
    63d8:	f361 0205 	bfi	r2, r1, #0, #6
    63dc:	65da      	str	r2, [r3, #92]	; 0x5c
    63de:	6e1a      	ldr	r2, [r3, #96]	; 0x60
    63e0:	210a      	movs	r1, #10
    63e2:	f361 4213 	bfi	r2, r1, #16, #4
    63e6:	661a      	str	r2, [r3, #96]	; 0x60
    63e8:	6d9a      	ldr	r2, [r3, #88]	; 0x58
    63ea:	2116      	movs	r1, #22
    63ec:	f361 0205 	bfi	r2, r1, #0, #6
    63f0:	659a      	str	r2, [r3, #88]	; 0x58
    63f2:	2418      	movs	r4, #24
    63f4:	2630      	movs	r6, #48	; 0x30
    63f6:	4863      	ldr	r0, [pc, #396]	; (6584 <vRadio_Standard_Init+0x29c>)
    63f8:	6d03      	ldr	r3, [r0, #80]	; 0x50
    63fa:	f003 0307 	and.w	r3, r3, #7
    63fe:	2b01      	cmp	r3, #1
    6400:	d003      	beq.n	640a <vRadio_Standard_Init+0x122>
    6402:	4968      	ldr	r1, [pc, #416]	; (65a4 <vRadio_Standard_Init+0x2bc>)
    6404:	2228      	movs	r2, #40	; 0x28
    6406:	f7fe fae5 	bl	49d4 <radio_fill_regs>
    640a:	f240 1301 	movw	r3, #257	; 0x101
    640e:	61c3      	str	r3, [r0, #28]
    6410:	f8b0 217c 	ldrh.w	r2, [r0, #380]	; 0x17c
    6414:	f5c6 7332 	rsb	r3, r6, #712	; 0x2c8
    6418:	f403 737e 	and.w	r3, r3, #1016	; 0x3f8
    641c:	f363 0209 	bfi	r2, r3, #0, #10
    6420:	f8a0 217c 	strh.w	r2, [r0, #380]	; 0x17c
    6424:	f8b0 3180 	ldrh.w	r3, [r0, #384]	; 0x180
    6428:	f5c4 74c1 	rsb	r4, r4, #386	; 0x182
    642c:	3401      	adds	r4, #1
    642e:	f364 0308 	bfi	r3, r4, #0, #9
    6432:	f8a0 3180 	strh.w	r3, [r0, #384]	; 0x180
    6436:	6c6b      	ldr	r3, [r5, #68]	; 0x44
    6438:	f8b0 2060 	ldrh.w	r2, [r0, #96]	; 0x60
    643c:	1b9b      	subs	r3, r3, r6
    643e:	f303 0306 	ssat	r3, #7, r3
    6442:	f363 0206 	bfi	r2, r3, #0, #7
    6446:	f8a0 2060 	strh.w	r2, [r0, #96]	; 0x60
    644a:	f890 3780 	ldrb.w	r3, [r0, #1920]	; 0x780
    644e:	f36f 0301 	bfc	r3, #0, #2
    6452:	f880 3780 	strb.w	r3, [r0, #1920]	; 0x780
    6456:	f890 3040 	ldrb.w	r3, [r0, #64]	; 0x40
    645a:	f36f 0301 	bfc	r3, #0, #2
    645e:	f880 3040 	strb.w	r3, [r0, #64]	; 0x40
    6462:	bd70      	pop	{r4, r5, r6, pc}
    6464:	f043 0310 	orr.w	r3, r3, #16
    6468:	f8a4 32c0 	strh.w	r3, [r4, #704]	; 0x2c0
    646c:	f8b4 32c0 	ldrh.w	r3, [r4, #704]	; 0x2c0
    6470:	f366 0383 	bfi	r3, r6, #2, #2
    6474:	f8a4 32c0 	strh.w	r3, [r4, #704]	; 0x2c0
    6478:	f8b4 378c 	ldrh.w	r3, [r4, #1932]	; 0x78c
    647c:	f240 720a 	movw	r2, #1802	; 0x70a
    6480:	e77e      	b.n	6380 <vRadio_Standard_Init+0x98>
    6482:	4620      	mov	r0, r4
    6484:	4940      	ldr	r1, [pc, #256]	; (6588 <vRadio_Standard_Init+0x2a0>)
    6486:	2601      	movs	r6, #1
    6488:	2210      	movs	r2, #16
    648a:	60ee      	str	r6, [r5, #12]
    648c:	f7fe fa7e 	bl	498c <radio_fill_std_BLE2M_regs>
    6490:	493e      	ldr	r1, [pc, #248]	; (658c <vRadio_Standard_Init+0x2a4>)
    6492:	229c      	movs	r2, #156	; 0x9c
    6494:	f7fe fa92 	bl	49bc <radio_fill_zbble_BLE_regs>
    6498:	f8b4 32c0 	ldrh.w	r3, [r4, #704]	; 0x2c0
    649c:	493c      	ldr	r1, [pc, #240]	; (6590 <vRadio_Standard_Init+0x2a8>)
    649e:	f36f 1304 	bfc	r3, #4, #1
    64a2:	f8a4 32c0 	strh.w	r3, [r4, #704]	; 0x2c0
    64a6:	f8b4 32c0 	ldrh.w	r3, [r4, #704]	; 0x2c0
    64aa:	2202      	movs	r2, #2
    64ac:	f362 0383 	bfi	r3, r2, #2, #2
    64b0:	f8a4 32c0 	strh.w	r3, [r4, #704]	; 0x2c0
    64b4:	f8b4 378c 	ldrh.w	r3, [r4, #1932]	; 0x78c
    64b8:	f240 720a 	movw	r2, #1802	; 0x70a
    64bc:	f362 030a 	bfi	r3, r2, #0, #11
    64c0:	f8a4 378c 	strh.w	r3, [r4, #1932]	; 0x78c
    64c4:	2248      	movs	r2, #72	; 0x48
    64c6:	f7fe fa79 	bl	49bc <radio_fill_zbble_BLE_regs>
    64ca:	4932      	ldr	r1, [pc, #200]	; (6594 <vRadio_Standard_Init+0x2ac>)
    64cc:	2238      	movs	r2, #56	; 0x38
    64ce:	f7fe fa5d 	bl	498c <radio_fill_std_BLE2M_regs>
    64d2:	4630      	mov	r0, r6
    64d4:	e763      	b.n	639e <vRadio_Standard_Init+0xb6>
    64d6:	f8b4 2784 	ldrh.w	r2, [r4, #1924]	; 0x784
    64da:	f363 0242 	bfi	r2, r3, #1, #2
    64de:	f8a4 2784 	strh.w	r2, [r4, #1924]	; 0x784
    64e2:	f8b4 378c 	ldrh.w	r3, [r4, #1932]	; 0x78c
    64e6:	f240 62fb 	movw	r2, #1787	; 0x6fb
    64ea:	f362 030a 	bfi	r3, r2, #0, #11
    64ee:	f8a4 378c 	strh.w	r3, [r4, #1932]	; 0x78c
    64f2:	f894 3790 	ldrb.w	r3, [r4, #1936]	; 0x790
    64f6:	2240      	movs	r2, #64	; 0x40
    64f8:	e010      	b.n	651c <vRadio_Standard_Init+0x234>
    64fa:	f8b4 3784 	ldrh.w	r3, [r4, #1924]	; 0x784
    64fe:	f366 0342 	bfi	r3, r6, #1, #2
    6502:	f8a4 3784 	strh.w	r3, [r4, #1924]	; 0x784
    6506:	f8b4 378c 	ldrh.w	r3, [r4, #1932]	; 0x78c
    650a:	f240 720a 	movw	r2, #1802	; 0x70a
    650e:	f362 030a 	bfi	r3, r2, #0, #11
    6512:	f8a4 378c 	strh.w	r3, [r4, #1932]	; 0x78c
    6516:	f894 3790 	ldrb.w	r3, [r4, #1936]	; 0x790
    651a:	223c      	movs	r2, #60	; 0x3c
    651c:	f362 0307 	bfi	r3, r2, #0, #8
    6520:	f884 3790 	strb.w	r3, [r4, #1936]	; 0x790
    6524:	4b20      	ldr	r3, [pc, #128]	; (65a8 <vRadio_Standard_Init+0x2c0>)
    6526:	68da      	ldr	r2, [r3, #12]
    6528:	2102      	movs	r1, #2
    652a:	f361 328f 	bfi	r2, r1, #14, #2
    652e:	60da      	str	r2, [r3, #12]
    6530:	685a      	ldr	r2, [r3, #4]
    6532:	f042 0204 	orr.w	r2, r2, #4
    6536:	605a      	str	r2, [r3, #4]
    6538:	f503 5380 	add.w	r3, r3, #4096	; 0x1000
    653c:	2117      	movs	r1, #23
    653e:	6cda      	ldr	r2, [r3, #76]	; 0x4c
    6540:	f361 0207 	bfi	r2, r1, #0, #8
    6544:	64da      	str	r2, [r3, #76]	; 0x4c
    6546:	6c9a      	ldr	r2, [r3, #72]	; 0x48
    6548:	2118      	movs	r1, #24
    654a:	f361 0207 	bfi	r2, r1, #0, #8
    654e:	649a      	str	r2, [r3, #72]	; 0x48
    6550:	2005      	movs	r0, #5
    6552:	f7fe fc11 	bl	4d78 <radio_Carrier_Frequency_Select_by_index>
    6556:	f7fe ff9b 	bl	5490 <radio_Trx_Packet_HW_Ctrl_Init>
    655a:	f895 403c 	ldrb.w	r4, [r5, #60]	; 0x3c
    655e:	b16c      	cbz	r4, 657c <vRadio_Standard_Init+0x294>
    6560:	4b08      	ldr	r3, [pc, #32]	; (6584 <vRadio_Standard_Init+0x29c>)
    6562:	f8d3 23f0 	ldr.w	r2, [r3, #1008]	; 0x3f0
    6566:	f442 6240 	orr.w	r2, r2, #3072	; 0xc00
    656a:	f8c3 23f0 	str.w	r2, [r3, #1008]	; 0x3f0
    656e:	f44f 72c0 	mov.w	r2, #384	; 0x180
    6572:	f8c3 218c 	str.w	r2, [r3, #396]	; 0x18c
    6576:	2400      	movs	r4, #0
    6578:	f8c3 2188 	str.w	r2, [r3, #392]	; 0x188
    657c:	4626      	mov	r6, r4
    657e:	e73a      	b.n	63f6 <vRadio_Standard_Init+0x10e>
    6580:	04015b28 	.word	0x04015b28
    6584:	40013000 	.word	0x40013000
    6588:	0000928e 	.word	0x0000928e
    658c:	0000929e 	.word	0x0000929e
    6590:	0000933a 	.word	0x0000933a
    6594:	0000922e 	.word	0x0000922e
    6598:	408d0f50 	.word	0x408d0f50
    659c:	40014000 	.word	0x40014000
    65a0:	400a0000 	.word	0x400a0000
    65a4:	00009266 	.word	0x00009266
    65a8:	400b0000 	.word	0x400b0000

000065ac <vGetCalInfo>:
    65ac:	4b08      	ldr	r3, [pc, #32]	; (65d0 <vGetCalInfo+0x24>)
    65ae:	4a09      	ldr	r2, [pc, #36]	; (65d4 <vGetCalInfo+0x28>)
    65b0:	681b      	ldr	r3, [r3, #0]
    65b2:	6193      	str	r3, [r2, #24]
    65b4:	4b08      	ldr	r3, [pc, #32]	; (65d8 <vGetCalInfo+0x2c>)
    65b6:	681b      	ldr	r3, [r3, #0]
    65b8:	83d3      	strh	r3, [r2, #30]
    65ba:	4b08      	ldr	r3, [pc, #32]	; (65dc <vGetCalInfo+0x30>)
    65bc:	681b      	ldr	r3, [r3, #0]
    65be:	07d9      	lsls	r1, r3, #31
    65c0:	bf43      	ittte	mi
    65c2:	03db      	lslmi	r3, r3, #15
    65c4:	f503 1300 	addmi.w	r3, r3, #2097152	; 0x200000
    65c8:	0d9b      	lsrmi	r3, r3, #22
    65ca:	2334      	movpl	r3, #52	; 0x34
    65cc:	8393      	strh	r3, [r2, #28]
    65ce:	4770      	bx	lr
    65d0:	0009fc68 	.word	0x0009fc68
    65d4:	04015b28 	.word	0x04015b28
    65d8:	0009fc64 	.word	0x0009fc64
    65dc:	0009fdc8 	.word	0x0009fdc8

000065e0 <vRadio_RFT1778_bad_crc>:
    65e0:	b510      	push	{r4, lr}
    65e2:	4b0c      	ldr	r3, [pc, #48]	; (6614 <vRadio_RFT1778_bad_crc+0x34>)
    65e4:	f8d3 02c4 	ldr.w	r0, [r3, #708]	; 0x2c4
    65e8:	f010 0001 	ands.w	r0, r0, #1
    65ec:	d011      	beq.n	6612 <vRadio_RFT1778_bad_crc+0x32>
    65ee:	4c0a      	ldr	r4, [pc, #40]	; (6618 <vRadio_RFT1778_bad_crc+0x38>)
    65f0:	69a3      	ldr	r3, [r4, #24]
    65f2:	f043 0302 	orr.w	r3, r3, #2
    65f6:	61a3      	str	r3, [r4, #24]
    65f8:	f7fe fc16 	bl	4e28 <radio_Trx_Packet_SW_Ctrl_Init>
    65fc:	f7fe fa6a 	bl	4ad4 <radio_rx_deassert_polled>
    6600:	f7fe fa4c 	bl	4a9c <radio_rx_assert_polled>
    6604:	f7fe ff44 	bl	5490 <radio_Trx_Packet_HW_Ctrl_Init>
    6608:	69a3      	ldr	r3, [r4, #24]
    660a:	f36f 0341 	bfc	r3, #1, #1
    660e:	61a3      	str	r3, [r4, #24]
    6610:	2001      	movs	r0, #1
    6612:	bd10      	pop	{r4, pc}
    6614:	400b1000 	.word	0x400b1000
    6618:	400b0000 	.word	0x400b0000

0000661c <vRadio_UpdateRadioStandard>:
    661c:	b537      	push	{r0, r1, r2, r4, r5, lr}
    661e:	f44f 3380 	mov.w	r3, #65536	; 0x10000
    6622:	281a      	cmp	r0, #26
    6624:	9300      	str	r3, [sp, #0]
    6626:	f04f 0302 	mov.w	r3, #2
    662a:	f8ad 3004 	strh.w	r3, [sp, #4]
    662e:	4d09      	ldr	r5, [pc, #36]	; (6654 <vRadio_UpdateRadioStandard+0x38>)
    6630:	bf0c      	ite	eq
    6632:	4b09      	ldreq	r3, [pc, #36]	; (6658 <vRadio_UpdateRadioStandard+0x3c>)
    6634:	4b09      	ldrne	r3, [pc, #36]	; (665c <vRadio_UpdateRadioStandard+0x40>)
    6636:	781c      	ldrb	r4, [r3, #0]
    6638:	782b      	ldrb	r3, [r5, #0]
    663a:	42a3      	cmp	r3, r4
    663c:	d007      	beq.n	664e <vRadio_UpdateRadioStandard+0x32>
    663e:	ab02      	add	r3, sp, #8
    6640:	eb03 0344 	add.w	r3, r3, r4, lsl #1
    6644:	f833 0c08 	ldrh.w	r0, [r3, #-8]
    6648:	f7ff fe4e 	bl	62e8 <vRadio_Standard_Init>
    664c:	702c      	strb	r4, [r5, #0]
    664e:	b003      	add	sp, #12
    6650:	bd30      	pop	{r4, r5, pc}
    6652:	bf00      	nop
    6654:	04015b7c 	.word	0x04015b7c
    6658:	04015fab 	.word	0x04015fab
    665c:	04015faa 	.word	0x04015faa

00006660 <vRadio_InitialiseRadioStandard>:
    6660:	4b04      	ldr	r3, [pc, #16]	; (6674 <vRadio_InitialiseRadioStandard+0x14>)
    6662:	22ff      	movs	r2, #255	; 0xff
    6664:	701a      	strb	r2, [r3, #0]
    6666:	4b04      	ldr	r3, [pc, #16]	; (6678 <vRadio_InitialiseRadioStandard+0x18>)
    6668:	69d8      	ldr	r0, [r3, #28]
    666a:	f000 001f 	and.w	r0, r0, #31
    666e:	f7ff bfd5 	b.w	661c <vRadio_UpdateRadioStandard>
    6672:	bf00      	nop
    6674:	04015b7c 	.word	0x04015b7c
    6678:	400b0000 	.word	0x400b0000

0000667c <vRadio_SetChannelAndPower>:
    667c:	b570      	push	{r4, r5, r6, lr}
    667e:	4d0c      	ldr	r5, [pc, #48]	; (66b0 <vRadio_SetChannelAndPower+0x34>)
    6680:	69eb      	ldr	r3, [r5, #28]
    6682:	f360 0304 	bfi	r3, r0, #0, #5
    6686:	61eb      	str	r3, [r5, #28]
    6688:	4606      	mov	r6, r0
    668a:	460c      	mov	r4, r1
    668c:	f7ff ffc6 	bl	661c <vRadio_UpdateRadioStandard>
    6690:	2e1a      	cmp	r6, #26
    6692:	bf0c      	ite	eq
    6694:	4b07      	ldreq	r3, [pc, #28]	; (66b4 <vRadio_SetChannelAndPower+0x38>)
    6696:	4b08      	ldrne	r3, [pc, #32]	; (66b8 <vRadio_SetChannelAndPower+0x3c>)
    6698:	f993 1000 	ldrsb.w	r1, [r3]
    669c:	6a2b      	ldr	r3, [r5, #32]
    669e:	428c      	cmp	r4, r1
    66a0:	bfa8      	it	ge
    66a2:	460c      	movge	r4, r1
    66a4:	00a4      	lsls	r4, r4, #2
    66a6:	b2e4      	uxtb	r4, r4
    66a8:	f364 0307 	bfi	r3, r4, #0, #8
    66ac:	622b      	str	r3, [r5, #32]
    66ae:	bd70      	pop	{r4, r5, r6, pc}
    66b0:	400b0000 	.word	0x400b0000
    66b4:	04015b7e 	.word	0x04015b7e
    66b8:	04015b7d 	.word	0x04015b7d

000066bc <vRadio_Temp_GetInfos>:
    66bc:	4b1c      	ldr	r3, [pc, #112]	; (6730 <vRadio_Temp_GetInfos+0x74>)
    66be:	f8d3 2084 	ldr.w	r2, [r3, #132]	; 0x84
    66c2:	4b1c      	ldr	r3, [pc, #112]	; (6734 <vRadio_Temp_GetInfos+0x78>)
    66c4:	f3c2 7180 	ubfx	r1, r2, #30, #1
    66c8:	b510      	push	{r4, lr}
    66ca:	f883 102c 	strb.w	r1, [r3, #44]	; 0x2c
    66ce:	f3c2 7140 	ubfx	r1, r2, #29, #1
    66d2:	f883 102d 	strb.w	r1, [r3, #45]	; 0x2d
    66d6:	f3c2 60c0 	ubfx	r0, r2, #27, #1
    66da:	f3c2 7100 	ubfx	r1, r2, #28, #1
    66de:	f883 102e 	strb.w	r1, [r3, #46]	; 0x2e
    66e2:	f883 0031 	strb.w	r0, [r3, #49]	; 0x31
    66e6:	b138      	cbz	r0, 66f8 <vRadio_Temp_GetInfos+0x3c>
    66e8:	f3c2 6480 	ubfx	r4, r2, #26, #1
    66ec:	f883 402f 	strb.w	r4, [r3, #47]	; 0x2f
    66f0:	f3c2 6400 	ubfx	r4, r2, #24, #1
    66f4:	f883 4030 	strb.w	r4, [r3, #48]	; 0x30
    66f8:	b191      	cbz	r1, 6720 <vRadio_Temp_GetInfos+0x64>
    66fa:	f342 31c8 	sbfx	r1, r2, #15, #9
    66fe:	f021 0101 	bic.w	r1, r1, #1
    6702:	8659      	strh	r1, [r3, #50]	; 0x32
    6704:	b178      	cbz	r0, 6726 <vRadio_Temp_GetInfos+0x6a>
    6706:	f893 102f 	ldrb.w	r1, [r3, #47]	; 0x2f
    670a:	b161      	cbz	r1, 6726 <vRadio_Temp_GetInfos+0x6a>
    670c:	0211      	lsls	r1, r2, #8
    670e:	f342 12c8 	sbfx	r2, r2, #7, #9
    6712:	f341 11c8 	sbfx	r1, r1, #7, #9
    6716:	f022 0201 	bic.w	r2, r2, #1
    671a:	8699      	strh	r1, [r3, #52]	; 0x34
    671c:	86da      	strh	r2, [r3, #54]	; 0x36
    671e:	bd10      	pop	{r4, pc}
    6720:	f06f 01ff 	mvn.w	r1, #255	; 0xff
    6724:	e7ed      	b.n	6702 <vRadio_Temp_GetInfos+0x46>
    6726:	f04f 22ff 	mov.w	r2, #4278255360	; 0xff00ff00
    672a:	635a      	str	r2, [r3, #52]	; 0x34
    672c:	e7f7      	b.n	671e <vRadio_Temp_GetInfos+0x62>
    672e:	bf00      	nop
    6730:	40012000 	.word	0x40012000
    6734:	04015b28 	.word	0x04015b28

00006738 <vRadio_Temp_SetInfos>:
    6738:	4a1f      	ldr	r2, [pc, #124]	; (67b8 <vRadio_Temp_SetInfos+0x80>)
    673a:	f892 3031 	ldrb.w	r3, [r2, #49]	; 0x31
    673e:	f892 102e 	ldrb.w	r1, [r2, #46]	; 0x2e
    6742:	06db      	lsls	r3, r3, #27
    6744:	0709      	lsls	r1, r1, #28
    6746:	f001 5180 	and.w	r1, r1, #268435456	; 0x10000000
    674a:	f003 6300 	and.w	r3, r3, #134217728	; 0x8000000
    674e:	430b      	orrs	r3, r1
    6750:	f9b2 1034 	ldrsh.w	r1, [r2, #52]	; 0x34
    6754:	eb01 71d1 	add.w	r1, r1, r1, lsr #31
    6758:	f3c1 0147 	ubfx	r1, r1, #1, #8
    675c:	430b      	orrs	r3, r1
    675e:	f892 102c 	ldrb.w	r1, [r2, #44]	; 0x2c
    6762:	0789      	lsls	r1, r1, #30
    6764:	f001 4180 	and.w	r1, r1, #1073741824	; 0x40000000
    6768:	430b      	orrs	r3, r1
    676a:	f892 102d 	ldrb.w	r1, [r2, #45]	; 0x2d
    676e:	0749      	lsls	r1, r1, #29
    6770:	f001 5100 	and.w	r1, r1, #536870912	; 0x20000000
    6774:	430b      	orrs	r3, r1
    6776:	f892 102f 	ldrb.w	r1, [r2, #47]	; 0x2f
    677a:	0689      	lsls	r1, r1, #26
    677c:	f001 6180 	and.w	r1, r1, #67108864	; 0x4000000
    6780:	430b      	orrs	r3, r1
    6782:	f892 1030 	ldrb.w	r1, [r2, #48]	; 0x30
    6786:	0609      	lsls	r1, r1, #24
    6788:	f001 7180 	and.w	r1, r1, #16777216	; 0x1000000
    678c:	430b      	orrs	r3, r1
    678e:	f9b2 1036 	ldrsh.w	r1, [r2, #54]	; 0x36
    6792:	f9b2 2032 	ldrsh.w	r2, [r2, #50]	; 0x32
    6796:	eb01 71d1 	add.w	r1, r1, r1, lsr #31
    679a:	01c9      	lsls	r1, r1, #7
    679c:	eb02 72d2 	add.w	r2, r2, r2, lsr #31
    67a0:	f401 417f 	and.w	r1, r1, #65280	; 0xff00
    67a4:	03d2      	lsls	r2, r2, #15
    67a6:	f402 027f 	and.w	r2, r2, #16711680	; 0xff0000
    67aa:	430b      	orrs	r3, r1
    67ac:	4313      	orrs	r3, r2
    67ae:	4a03      	ldr	r2, [pc, #12]	; (67bc <vRadio_Temp_SetInfos+0x84>)
    67b0:	f8c2 3084 	str.w	r3, [r2, #132]	; 0x84
    67b4:	4770      	bx	lr
    67b6:	bf00      	nop
    67b8:	04015b28 	.word	0x04015b28
    67bc:	40012000 	.word	0x40012000

000067c0 <vRadio_Temp_Update>:
    67c0:	b510      	push	{r4, lr}
    67c2:	4604      	mov	r4, r0
    67c4:	f7ff ff7a 	bl	66bc <vRadio_Temp_GetInfos>
    67c8:	f06f 034f 	mvn.w	r3, #79	; 0x4f
    67cc:	4a19      	ldr	r2, [pc, #100]	; (6834 <vRadio_Temp_Update+0x74>)
    67ce:	42a3      	cmp	r3, r4
    67d0:	f04f 0100 	mov.w	r1, #0
    67d4:	bfb8      	it	lt
    67d6:	4623      	movlt	r3, r4
    67d8:	8591      	strh	r1, [r2, #44]	; 0x2c
    67da:	2101      	movs	r1, #1
    67dc:	2bfa      	cmp	r3, #250	; 0xfa
    67de:	f882 102e 	strb.w	r1, [r2, #46]	; 0x2e
    67e2:	f892 1031 	ldrb.w	r1, [r2, #49]	; 0x31
    67e6:	bfa8      	it	ge
    67e8:	23fa      	movge	r3, #250	; 0xfa
    67ea:	8653      	strh	r3, [r2, #50]	; 0x32
    67ec:	b1e9      	cbz	r1, 682a <vRadio_Temp_Update+0x6a>
    67ee:	8e90      	ldrh	r0, [r2, #52]	; 0x34
    67f0:	b29b      	uxth	r3, r3
    67f2:	1a19      	subs	r1, r3, r0
    67f4:	b209      	sxth	r1, r1
    67f6:	2900      	cmp	r1, #0
    67f8:	bfb8      	it	lt
    67fa:	1ac1      	sublt	r1, r0, r3
    67fc:	f9b2 0038 	ldrsh.w	r0, [r2, #56]	; 0x38
    6800:	bfb8      	it	lt
    6802:	b209      	sxthlt	r1, r1
    6804:	4288      	cmp	r0, r1
    6806:	8ed0      	ldrh	r0, [r2, #54]	; 0x36
    6808:	bfdc      	itt	le
    680a:	2101      	movle	r1, #1
    680c:	f882 102c 	strble.w	r1, [r2, #44]	; 0x2c
    6810:	1a19      	subs	r1, r3, r0
    6812:	b209      	sxth	r1, r1
    6814:	2900      	cmp	r1, #0
    6816:	bfbc      	itt	lt
    6818:	1ac3      	sublt	r3, r0, r3
    681a:	b219      	sxthlt	r1, r3
    681c:	f9b2 303a 	ldrsh.w	r3, [r2, #58]	; 0x3a
    6820:	428b      	cmp	r3, r1
    6822:	bfdc      	itt	le
    6824:	2301      	movle	r3, #1
    6826:	f882 302d 	strble.w	r3, [r2, #45]	; 0x2d
    682a:	e8bd 4010 	ldmia.w	sp!, {r4, lr}
    682e:	f7ff bf83 	b.w	6738 <vRadio_Temp_SetInfos>
    6832:	bf00      	nop
    6834:	04015b28 	.word	0x04015b28

00006838 <vRadio_start_rx_ISR>:
    6838:	4b05      	ldr	r3, [pc, #20]	; (6850 <vRadio_start_rx_ISR+0x18>)
    683a:	781a      	ldrb	r2, [r3, #0]
    683c:	b932      	cbnz	r2, 684c <vRadio_start_rx_ISR+0x14>
    683e:	2201      	movs	r2, #1
    6840:	701a      	strb	r2, [r3, #0]
    6842:	4a04      	ldr	r2, [pc, #16]	; (6854 <vRadio_start_rx_ISR+0x1c>)
    6844:	6813      	ldr	r3, [r2, #0]
    6846:	f043 63a0 	orr.w	r3, r3, #83886080	; 0x5000000
    684a:	6013      	str	r3, [r2, #0]
    684c:	4770      	bx	lr
    684e:	bf00      	nop
    6850:	04015fcc 	.word	0x04015fcc
    6854:	40014000 	.word	0x40014000

00006858 <vRadio_remove_patch_ISR>:
    6858:	4a07      	ldr	r2, [pc, #28]	; (6878 <vRadio_remove_patch_ISR+0x20>)
    685a:	7813      	ldrb	r3, [r2, #0]
    685c:	b153      	cbz	r3, 6874 <vRadio_remove_patch_ISR+0x1c>
    685e:	4907      	ldr	r1, [pc, #28]	; (687c <vRadio_remove_patch_ISR+0x24>)
    6860:	680b      	ldr	r3, [r1, #0]
    6862:	f023 63a0 	bic.w	r3, r3, #83886080	; 0x5000000
    6866:	600b      	str	r3, [r1, #0]
    6868:	2300      	movs	r3, #0
    686a:	7013      	strb	r3, [r2, #0]
    686c:	4b04      	ldr	r3, [pc, #16]	; (6880 <vRadio_remove_patch_ISR+0x28>)
    686e:	2280      	movs	r2, #128	; 0x80
    6870:	f8c3 2844 	str.w	r2, [r3, #2116]	; 0x844
    6874:	4770      	bx	lr
    6876:	bf00      	nop
    6878:	04015fcc 	.word	0x04015fcc
    687c:	40014000 	.word	0x40014000
    6880:	40013000 	.word	0x40013000

00006884 <RFP_TMU_IRQHandler>:
    6884:	480b      	ldr	r0, [pc, #44]	; (68b4 <RFP_TMU_IRQHandler+0x30>)
    6886:	f8d0 183c 	ldr.w	r1, [r0, #2108]	; 0x83c
    688a:	f8d0 2848 	ldr.w	r2, [r0, #2120]	; 0x848
    688e:	4011      	ands	r1, r2
    6890:	060a      	lsls	r2, r1, #24
    6892:	b508      	push	{r3, lr}
    6894:	d504      	bpl.n	68a0 <RFP_TMU_IRQHandler+0x1c>
    6896:	f7ff ffcf 	bl	6838 <vRadio_start_rx_ISR>
    689a:	2380      	movs	r3, #128	; 0x80
    689c:	f8c0 3844 	str.w	r3, [r0, #2116]	; 0x844
    68a0:	058b      	lsls	r3, r1, #22
    68a2:	d505      	bpl.n	68b0 <RFP_TMU_IRQHandler+0x2c>
    68a4:	f7ff ffd8 	bl	6858 <vRadio_remove_patch_ISR>
    68a8:	f44f 7300 	mov.w	r3, #512	; 0x200
    68ac:	f8c0 3844 	str.w	r3, [r0, #2116]	; 0x844
    68b0:	bd08      	pop	{r3, pc}
    68b2:	bf00      	nop
    68b4:	40013000 	.word	0x40013000

000068b8 <vRadio_Enable_DCO_DAC>:
    68b8:	4834      	ldr	r0, [pc, #208]	; (698c <vRadio_Enable_DCO_DAC+0xd4>)
    68ba:	f890 2048 	ldrb.w	r2, [r0, #72]	; 0x48
    68be:	2a00      	cmp	r2, #0
    68c0:	d162      	bne.n	6988 <vRadio_Enable_DCO_DAC+0xd0>
    68c2:	4b33      	ldr	r3, [pc, #204]	; (6990 <vRadio_Enable_DCO_DAC+0xd8>)
    68c4:	f8b3 1294 	ldrh.w	r1, [r3, #660]	; 0x294
    68c8:	f041 0101 	orr.w	r1, r1, #1
    68cc:	f8a3 1294 	strh.w	r1, [r3, #660]	; 0x294
    68d0:	f8b3 1294 	ldrh.w	r1, [r3, #660]	; 0x294
    68d4:	f041 0102 	orr.w	r1, r1, #2
    68d8:	f8a3 1294 	strh.w	r1, [r3, #660]	; 0x294
    68dc:	f893 1298 	ldrb.w	r1, [r3, #664]	; 0x298
    68e0:	f362 0100 	bfi	r1, r2, #0, #1
    68e4:	f883 1298 	strb.w	r1, [r3, #664]	; 0x298
    68e8:	f893 1298 	ldrb.w	r1, [r3, #664]	; 0x298
    68ec:	f362 0141 	bfi	r1, r2, #1, #1
    68f0:	f883 1298 	strb.w	r1, [r3, #664]	; 0x298
    68f4:	f8b3 1470 	ldrh.w	r1, [r3, #1136]	; 0x470
    68f8:	f041 0102 	orr.w	r1, r1, #2
    68fc:	f8a3 1470 	strh.w	r1, [r3, #1136]	; 0x470
    6900:	f893 1474 	ldrb.w	r1, [r3, #1140]	; 0x474
    6904:	f362 0100 	bfi	r1, r2, #0, #1
    6908:	f883 1474 	strb.w	r1, [r3, #1140]	; 0x474
    690c:	2301      	movs	r3, #1
    690e:	f880 3048 	strb.w	r3, [r0, #72]	; 0x48
    6912:	4b20      	ldr	r3, [pc, #128]	; (6994 <vRadio_Enable_DCO_DAC+0xdc>)
    6914:	f8d3 10bc 	ldr.w	r1, [r3, #188]	; 0xbc
    6918:	f44f 709c 	mov.w	r0, #312	; 0x138
    691c:	f360 0108 	bfi	r1, r0, #0, #9
    6920:	f8c3 10bc 	str.w	r1, [r3, #188]	; 0xbc
    6924:	f8d3 10bc 	ldr.w	r1, [r3, #188]	; 0xbc
    6928:	f362 214c 	bfi	r1, r2, #9, #4
    692c:	f8c3 10bc 	str.w	r1, [r3, #188]	; 0xbc
    6930:	f8d3 10bc 	ldr.w	r1, [r3, #188]	; 0xbc
    6934:	f362 3150 	bfi	r1, r2, #13, #4
    6938:	f8c3 10bc 	str.w	r1, [r3, #188]	; 0xbc
    693c:	f8d3 10bc 	ldr.w	r1, [r3, #188]	; 0xbc
    6940:	f44f 70b8 	mov.w	r0, #368	; 0x170
    6944:	f360 0108 	bfi	r1, r0, #0, #9
    6948:	f8c3 10bc 	str.w	r1, [r3, #188]	; 0xbc
    694c:	f8d3 10bc 	ldr.w	r1, [r3, #188]	; 0xbc
    6950:	f362 214c 	bfi	r1, r2, #9, #4
    6954:	f8c3 10bc 	str.w	r1, [r3, #188]	; 0xbc
    6958:	f8d3 10bc 	ldr.w	r1, [r3, #188]	; 0xbc
    695c:	f362 3150 	bfi	r1, r2, #13, #4
    6960:	f8c3 10bc 	str.w	r1, [r3, #188]	; 0xbc
    6964:	f8d3 10bc 	ldr.w	r1, [r3, #188]	; 0xbc
    6968:	f362 0108 	bfi	r1, r2, #0, #9
    696c:	f8c3 10bc 	str.w	r1, [r3, #188]	; 0xbc
    6970:	f8d3 10bc 	ldr.w	r1, [r3, #188]	; 0xbc
    6974:	f362 214c 	bfi	r1, r2, #9, #4
    6978:	f8c3 10bc 	str.w	r1, [r3, #188]	; 0xbc
    697c:	f8d3 10bc 	ldr.w	r1, [r3, #188]	; 0xbc
    6980:	f362 3150 	bfi	r1, r2, #13, #4
    6984:	f8c3 10bc 	str.w	r1, [r3, #188]	; 0xbc
    6988:	4770      	bx	lr
    698a:	bf00      	nop
    698c:	04015b28 	.word	0x04015b28
    6990:	40013000 	.word	0x40013000
    6994:	40020000 	.word	0x40020000

00006998 <bIsCalNeeded>:
    6998:	b510      	push	{r4, lr}
    699a:	4b0d      	ldr	r3, [pc, #52]	; (69d0 <bIsCalNeeded+0x38>)
    699c:	f893 4031 	ldrb.w	r4, [r3, #49]	; 0x31
    69a0:	b1a4      	cbz	r4, 69cc <bIsCalNeeded+0x34>
    69a2:	f893 402e 	ldrb.w	r4, [r3, #46]	; 0x2e
    69a6:	b18c      	cbz	r4, 69cc <bIsCalNeeded+0x34>
    69a8:	b289      	uxth	r1, r1
    69aa:	b280      	uxth	r0, r0
    69ac:	1a44      	subs	r4, r0, r1
    69ae:	b224      	sxth	r4, r4
    69b0:	2c00      	cmp	r4, #0
    69b2:	bfbc      	itt	lt
    69b4:	1a09      	sublt	r1, r1, r0
    69b6:	b20c      	sxthlt	r4, r1
    69b8:	42a2      	cmp	r2, r4
    69ba:	dd07      	ble.n	69cc <bIsCalNeeded+0x34>
    69bc:	6a1a      	ldr	r2, [r3, #32]
    69be:	b12a      	cbz	r2, 69cc <bIsCalNeeded+0x34>
    69c0:	f893 002f 	ldrb.w	r0, [r3, #47]	; 0x2f
    69c4:	fab0 f080 	clz	r0, r0
    69c8:	0940      	lsrs	r0, r0, #5
    69ca:	bd10      	pop	{r4, pc}
    69cc:	2001      	movs	r0, #1
    69ce:	e7fc      	b.n	69ca <bIsCalNeeded+0x32>
    69d0:	04015b28 	.word	0x04015b28

000069d4 <vUpdateFlashCalData>:
    69d4:	b510      	push	{r4, lr}
    69d6:	4c0a      	ldr	r4, [pc, #40]	; (6a00 <vUpdateFlashCalData+0x2c>)
    69d8:	f894 302e 	ldrb.w	r3, [r4, #46]	; 0x2e
    69dc:	b17b      	cbz	r3, 69fe <vUpdateFlashCalData+0x2a>
    69de:	8d63      	ldrh	r3, [r4, #42]	; 0x2a
    69e0:	b16b      	cbz	r3, 69fe <vUpdateFlashCalData+0x2a>
    69e2:	6ce0      	ldr	r0, [r4, #76]	; 0x4c
    69e4:	f44f 71e2 	mov.w	r1, #452	; 0x1c4
    69e8:	f3af 8000 	nop.w
    69ec:	2300      	movs	r3, #0
    69ee:	6ce1      	ldr	r1, [r4, #76]	; 0x4c
    69f0:	8563      	strh	r3, [r4, #42]	; 0x2a
    69f2:	4804      	ldr	r0, [pc, #16]	; (6a04 <vUpdateFlashCalData+0x30>)
    69f4:	e8bd 4010 	ldmia.w	sp!, {r4, lr}
    69f8:	2214      	movs	r2, #20
    69fa:	f000 be73 	b.w	76e4 <memcpy>
    69fe:	bd10      	pop	{r4, pc}
    6a00:	04015b28 	.word	0x04015b28
    6a04:	04015fb0 	.word	0x04015fb0

00006a08 <vInitFlashCalData>:
    6a08:	4a72      	ldr	r2, [pc, #456]	; (6bd4 <vInitFlashCalData+0x1cc>)
    6a0a:	6cd3      	ldr	r3, [r2, #76]	; 0x4c
    6a0c:	f04f 21ff 	mov.w	r1, #4278255360	; 0xff00ff00
    6a10:	f240 3cea 	movw	ip, #1002	; 0x3ea
    6a14:	e92d 41f0 	stmdb	sp!, {r4, r5, r6, r7, r8, lr}
    6a18:	e9c3 c100 	strd	ip, r1, [r3]
    6a1c:	e9c3 1102 	strd	r1, r1, [r3, #8]
    6a20:	6119      	str	r1, [r3, #16]
    6a22:	8bd4      	ldrh	r4, [r2, #30]
    6a24:	2c63      	cmp	r4, #99	; 0x63
    6a26:	f200 80b4 	bhi.w	6b92 <vInitFlashCalData+0x18a>
    6a2a:	2101      	movs	r1, #1
    6a2c:	6995      	ldr	r5, [r2, #24]
    6a2e:	486a      	ldr	r0, [pc, #424]	; (6bd8 <vInitFlashCalData+0x1d0>)
    6a30:	4285      	cmp	r5, r0
    6a32:	d92b      	bls.n	6a8c <vInitFlashCalData+0x84>
    6a34:	4869      	ldr	r0, [pc, #420]	; (6bdc <vInitFlashCalData+0x1d4>)
    6a36:	6800      	ldr	r0, [r0, #0]
    6a38:	07c7      	lsls	r7, r0, #31
    6a3a:	bf44      	itt	mi
    6a3c:	f3c0 004a 	ubfxmi	r0, r0, #1, #11
    6a40:	f8a3 0070 	strhmi.w	r0, [r3, #112]	; 0x70
    6a44:	4866      	ldr	r0, [pc, #408]	; (6be0 <vInitFlashCalData+0x1d8>)
    6a46:	6800      	ldr	r0, [r0, #0]
    6a48:	bf58      	it	pl
    6a4a:	2101      	movpl	r1, #1
    6a4c:	07c6      	lsls	r6, r0, #31
    6a4e:	bf42      	ittt	mi
    6a50:	f3c0 4545 	ubfxmi	r5, r0, #17, #6
    6a54:	0840      	lsrmi	r0, r0, #1
    6a56:	f8a3 0072 	strhmi.w	r0, [r3, #114]	; 0x72
    6a5a:	4862      	ldr	r0, [pc, #392]	; (6be4 <vInitFlashCalData+0x1dc>)
    6a5c:	bf48      	it	mi
    6a5e:	f8a3 5074 	strhmi.w	r5, [r3, #116]	; 0x74
    6a62:	6800      	ldr	r0, [r0, #0]
    6a64:	bf58      	it	pl
    6a66:	2101      	movpl	r1, #1
    6a68:	07c5      	lsls	r5, r0, #31
    6a6a:	d50f      	bpl.n	6a8c <vInitFlashCalData+0x84>
    6a6c:	f3c0 4545 	ubfx	r5, r0, #17, #6
    6a70:	0840      	lsrs	r0, r0, #1
    6a72:	f8a3 5078 	strh.w	r5, [r3, #120]	; 0x78
    6a76:	f8a3 0076 	strh.w	r0, [r3, #118]	; 0x76
    6a7a:	b939      	cbnz	r1, 6a8c <vInitFlashCalData+0x84>
    6a7c:	8b91      	ldrh	r1, [r2, #28]
    6a7e:	8099      	strh	r1, [r3, #4]
    6a80:	f892 102e 	ldrb.w	r1, [r2, #46]	; 0x2e
    6a84:	b111      	cbz	r1, 6a8c <vInitFlashCalData+0x84>
    6a86:	2101      	movs	r1, #1
    6a88:	f882 102a 	strb.w	r1, [r2, #42]	; 0x2a
    6a8c:	2cc7      	cmp	r4, #199	; 0xc7
    6a8e:	d97e      	bls.n	6b8e <vInitFlashCalData+0x186>
    6a90:	4955      	ldr	r1, [pc, #340]	; (6be8 <vInitFlashCalData+0x1e0>)
    6a92:	6808      	ldr	r0, [r1, #0]
    6a94:	f242 0101 	movw	r1, #8193	; 0x2001
    6a98:	4381      	bics	r1, r0
    6a9a:	d178      	bne.n	6b8e <vInitFlashCalData+0x186>
    6a9c:	4853      	ldr	r0, [pc, #332]	; (6bec <vInitFlashCalData+0x1e4>)
    6a9e:	4d54      	ldr	r5, [pc, #336]	; (6bf0 <vInitFlashCalData+0x1e8>)
    6aa0:	f103 0414 	add.w	r4, r3, #20
    6aa4:	f850 1b04 	ldr.w	r1, [r0], #4
    6aa8:	f3c1 064b 	ubfx	r6, r1, #1, #12
    6aac:	f824 6b02 	strh.w	r6, [r4], #2
    6ab0:	f3c1 318b 	ubfx	r1, r1, #14, #12
    6ab4:	42a8      	cmp	r0, r5
    6ab6:	8521      	strh	r1, [r4, #40]	; 0x28
    6ab8:	d1f4      	bne.n	6aa4 <vInitFlashCalData+0x9c>
    6aba:	2100      	movs	r1, #0
    6abc:	e9c3 111a 	strd	r1, r1, [r3, #104]	; 0x68
    6ac0:	4618      	mov	r0, r3
    6ac2:	ea4f 0c41 	mov.w	ip, r1, lsl #1
    6ac6:	f50c 2c1f 	add.w	ip, ip, #651264	; 0x9f000
    6aca:	8a84      	ldrh	r4, [r0, #20]
    6acc:	f8dc 5d80 	ldr.w	r5, [ip, #3456]	; 0xd80
    6ad0:	6e9f      	ldr	r7, [r3, #104]	; 0x68
    6ad2:	086e      	lsrs	r6, r5, #1
    6ad4:	f3c5 1540 	ubfx	r5, r5, #5, #1
    6ad8:	408d      	lsls	r5, r1
    6ada:	432f      	orrs	r7, r5
    6adc:	ea44 3406 	orr.w	r4, r4, r6, lsl #12
    6ae0:	8284      	strh	r4, [r0, #20]
    6ae2:	669f      	str	r7, [r3, #104]	; 0x68
    6ae4:	f8dc 4d80 	ldr.w	r4, [ip, #3456]	; 0xd80
    6ae8:	8fc5      	ldrh	r5, [r0, #62]	; 0x3e
    6aea:	09e6      	lsrs	r6, r4, #7
    6aec:	ea45 3506 	orr.w	r5, r5, r6, lsl #12
    6af0:	f3c4 24c0 	ubfx	r4, r4, #11, #1
    6af4:	6ede      	ldr	r6, [r3, #108]	; 0x6c
    6af6:	87c5      	strh	r5, [r0, #62]	; 0x3e
    6af8:	408c      	lsls	r4, r1
    6afa:	4326      	orrs	r6, r4
    6afc:	66de      	str	r6, [r3, #108]	; 0x6c
    6afe:	f8dc 5d80 	ldr.w	r5, [ip, #3456]	; 0xd80
    6b02:	8ac4      	ldrh	r4, [r0, #22]
    6b04:	f101 0e01 	add.w	lr, r1, #1
    6b08:	ea4f 3855 	mov.w	r8, r5, lsr #13
    6b0c:	f3c5 4540 	ubfx	r5, r5, #17, #1
    6b10:	fa05 f50e 	lsl.w	r5, r5, lr
    6b14:	ea44 3408 	orr.w	r4, r4, r8, lsl #12
    6b18:	433d      	orrs	r5, r7
    6b1a:	82c4      	strh	r4, [r0, #22]
    6b1c:	669d      	str	r5, [r3, #104]	; 0x68
    6b1e:	f8dc 7d80 	ldr.w	r7, [ip, #3456]	; 0xd80
    6b22:	f8b0 4040 	ldrh.w	r4, [r0, #64]	; 0x40
    6b26:	ea4f 4cd7 	mov.w	ip, r7, lsr #19
    6b2a:	ea44 340c 	orr.w	r4, r4, ip, lsl #12
    6b2e:	f8a0 4040 	strh.w	r4, [r0, #64]	; 0x40
    6b32:	f3c7 54c0 	ubfx	r4, r7, #23, #1
    6b36:	fa04 f40e 	lsl.w	r4, r4, lr
    6b3a:	3102      	adds	r1, #2
    6b3c:	4334      	orrs	r4, r6
    6b3e:	2914      	cmp	r1, #20
    6b40:	66dc      	str	r4, [r3, #108]	; 0x6c
    6b42:	f100 0004 	add.w	r0, r0, #4
    6b46:	d1bc      	bne.n	6ac2 <vInitFlashCalData+0xba>
    6b48:	4e2a      	ldr	r6, [pc, #168]	; (6bf4 <vInitFlashCalData+0x1ec>)
    6b4a:	8f98      	ldrh	r0, [r3, #60]	; 0x3c
    6b4c:	6831      	ldr	r1, [r6, #0]
    6b4e:	084f      	lsrs	r7, r1, #1
    6b50:	03c9      	lsls	r1, r1, #15
    6b52:	f401 1180 	and.w	r1, r1, #1048576	; 0x100000
    6b56:	430d      	orrs	r5, r1
    6b58:	669d      	str	r5, [r3, #104]	; 0x68
    6b5a:	6831      	ldr	r1, [r6, #0]
    6b5c:	ea40 3007 	orr.w	r0, r0, r7, lsl #12
    6b60:	8798      	strh	r0, [r3, #60]	; 0x3c
    6b62:	09cd      	lsrs	r5, r1, #7
    6b64:	f8b3 0066 	ldrh.w	r0, [r3, #102]	; 0x66
    6b68:	0249      	lsls	r1, r1, #9
    6b6a:	f401 1180 	and.w	r1, r1, #1048576	; 0x100000
    6b6e:	430c      	orrs	r4, r1
    6b70:	ea40 3005 	orr.w	r0, r0, r5, lsl #12
    6b74:	8b91      	ldrh	r1, [r2, #28]
    6b76:	8199      	strh	r1, [r3, #12]
    6b78:	f8a3 0066 	strh.w	r0, [r3, #102]	; 0x66
    6b7c:	66dc      	str	r4, [r3, #108]	; 0x6c
    6b7e:	2328      	movs	r3, #40	; 0x28
    6b80:	8753      	strh	r3, [r2, #58]	; 0x3a
    6b82:	f892 302e 	ldrb.w	r3, [r2, #46]	; 0x2e
    6b86:	b113      	cbz	r3, 6b8e <vInitFlashCalData+0x186>
    6b88:	2301      	movs	r3, #1
    6b8a:	f882 302b 	strb.w	r3, [r2, #43]	; 0x2b
    6b8e:	e8bd 81f0 	ldmia.w	sp!, {r4, r5, r6, r7, r8, pc}
    6b92:	4919      	ldr	r1, [pc, #100]	; (6bf8 <vInitFlashCalData+0x1f0>)
    6b94:	6809      	ldr	r1, [r1, #0]
    6b96:	f240 2001 	movw	r0, #513	; 0x201
    6b9a:	4388      	bics	r0, r1
    6b9c:	bf02      	ittt	eq
    6b9e:	0a88      	lsreq	r0, r1, #10
    6ba0:	f3c1 0147 	ubfxeq	r1, r1, #1, #8
    6ba4:	ea41 2100 	orreq.w	r1, r1, r0, lsl #8
    6ba8:	4814      	ldr	r0, [pc, #80]	; (6bfc <vInitFlashCalData+0x1f4>)
    6baa:	bf08      	it	eq
    6bac:	f8a3 107a 	strheq.w	r1, [r3, #122]	; 0x7a
    6bb0:	6800      	ldr	r0, [r0, #0]
    6bb2:	f240 4501 	movw	r5, #1025	; 0x401
    6bb6:	bf0c      	ite	eq
    6bb8:	2100      	moveq	r1, #0
    6bba:	2101      	movne	r1, #1
    6bbc:	4385      	bics	r5, r0
    6bbe:	f47f af34 	bne.w	6a2a <vInitFlashCalData+0x22>
    6bc2:	f3c0 25c8 	ubfx	r5, r0, #11, #9
    6bc6:	f3c0 0048 	ubfx	r0, r0, #1, #9
    6bca:	f8a3 507e 	strh.w	r5, [r3, #126]	; 0x7e
    6bce:	f8a3 007c 	strh.w	r0, [r3, #124]	; 0x7c
    6bd2:	e72b      	b.n	6a2c <vInitFlashCalData+0x24>
    6bd4:	04015b28 	.word	0x04015b28
    6bd8:	01341394 	.word	0x01341394
    6bdc:	0009fdac 	.word	0x0009fdac
    6be0:	0009fdb0 	.word	0x0009fdb0
    6be4:	0009fdb4 	.word	0x0009fdb4
    6be8:	0009fd30 	.word	0x0009fd30
    6bec:	0009fd2c 	.word	0x0009fd2c
    6bf0:	0009fd80 	.word	0x0009fd80
    6bf4:	0009fda8 	.word	0x0009fda8
    6bf8:	0009fd14 	.word	0x0009fd14
    6bfc:	0009fd18 	.word	0x0009fd18

00006c00 <vCheckFlashCalData>:
    6c00:	b5f8      	push	{r3, r4, r5, r6, r7, lr}
    6c02:	4c40      	ldr	r4, [pc, #256]	; (6d04 <vCheckFlashCalData+0x104>)
    6c04:	f894 202e 	ldrb.w	r2, [r4, #46]	; 0x2e
    6c08:	6ce0      	ldr	r0, [r4, #76]	; 0x4c
    6c0a:	460d      	mov	r5, r1
    6c0c:	2a00      	cmp	r2, #0
    6c0e:	d06d      	beq.n	6cec <vCheckFlashCalData+0xec>
    6c10:	2900      	cmp	r1, #0
    6c12:	d05f      	beq.n	6cd4 <vCheckFlashCalData+0xd4>
    6c14:	6ce3      	ldr	r3, [r4, #76]	; 0x4c
    6c16:	6819      	ldr	r1, [r3, #0]
    6c18:	f240 32ea 	movw	r2, #1002	; 0x3ea
    6c1c:	4291      	cmp	r1, r2
    6c1e:	d105      	bne.n	6c2c <vCheckFlashCalData+0x2c>
    6c20:	f9b3 1004 	ldrsh.w	r1, [r3, #4]
    6c24:	f9b4 201c 	ldrsh.w	r2, [r4, #28]
    6c28:	4291      	cmp	r1, r2
    6c2a:	d00b      	beq.n	6c44 <vCheckFlashCalData+0x44>
    6c2c:	2d00      	cmp	r5, #0
    6c2e:	d057      	beq.n	6ce0 <vCheckFlashCalData+0xe0>
    6c30:	f44f 427f 	mov.w	r2, #65280	; 0xff00
    6c34:	809a      	strh	r2, [r3, #4]
    6c36:	819a      	strh	r2, [r3, #12]
    6c38:	80da      	strh	r2, [r3, #6]
    6c3a:	81da      	strh	r2, [r3, #14]
    6c3c:	811a      	strh	r2, [r3, #8]
    6c3e:	821a      	strh	r2, [r3, #16]
    6c40:	815a      	strh	r2, [r3, #10]
    6c42:	825a      	strh	r2, [r3, #18]
    6c44:	6ce1      	ldr	r1, [r4, #76]	; 0x4c
    6c46:	f9b4 5032 	ldrsh.w	r5, [r4, #50]	; 0x32
    6c4a:	4f2f      	ldr	r7, [pc, #188]	; (6d08 <vCheckFlashCalData+0x108>)
    6c4c:	f101 0c04 	add.w	ip, r1, #4
    6c50:	2000      	movs	r0, #0
    6c52:	2604      	movs	r6, #4
    6c54:	f93c 3b02 	ldrsh.w	r3, [ip], #2
    6c58:	f513 7f80 	cmn.w	r3, #256	; 0x100
    6c5c:	b2c2      	uxtb	r2, r0
    6c5e:	d00a      	beq.n	6c76 <vCheckFlashCalData+0x76>
    6c60:	1b5b      	subs	r3, r3, r5
    6c62:	435b      	muls	r3, r3
    6c64:	42bb      	cmp	r3, r7
    6c66:	f100 0001 	add.w	r0, r0, #1
    6c6a:	bf3c      	itt	cc
    6c6c:	461f      	movcc	r7, r3
    6c6e:	4616      	movcc	r6, r2
    6c70:	2804      	cmp	r0, #4
    6c72:	d1ef      	bne.n	6c54 <vCheckFlashCalData+0x54>
    6c74:	4602      	mov	r2, r0
    6c76:	2e04      	cmp	r6, #4
    6c78:	d005      	beq.n	6c86 <vCheckFlashCalData+0x86>
    6c7a:	f9b4 3038 	ldrsh.w	r3, [r4, #56]	; 0x38
    6c7e:	435b      	muls	r3, r3
    6c80:	42bb      	cmp	r3, r7
    6c82:	bf88      	it	hi
    6c84:	4632      	movhi	r2, r6
    6c86:	4f20      	ldr	r7, [pc, #128]	; (6d08 <vCheckFlashCalData+0x108>)
    6c88:	f884 2050 	strb.w	r2, [r4, #80]	; 0x50
    6c8c:	310c      	adds	r1, #12
    6c8e:	2200      	movs	r2, #0
    6c90:	2604      	movs	r6, #4
    6c92:	f931 3b02 	ldrsh.w	r3, [r1], #2
    6c96:	f513 7f80 	cmn.w	r3, #256	; 0x100
    6c9a:	b2d0      	uxtb	r0, r2
    6c9c:	d00a      	beq.n	6cb4 <vCheckFlashCalData+0xb4>
    6c9e:	1b5b      	subs	r3, r3, r5
    6ca0:	435b      	muls	r3, r3
    6ca2:	42bb      	cmp	r3, r7
    6ca4:	f102 0201 	add.w	r2, r2, #1
    6ca8:	bf3c      	itt	cc
    6caa:	461f      	movcc	r7, r3
    6cac:	4606      	movcc	r6, r0
    6cae:	2a04      	cmp	r2, #4
    6cb0:	d1ef      	bne.n	6c92 <vCheckFlashCalData+0x92>
    6cb2:	4610      	mov	r0, r2
    6cb4:	2e04      	cmp	r6, #4
    6cb6:	d016      	beq.n	6ce6 <vCheckFlashCalData+0xe6>
    6cb8:	f9b4 303a 	ldrsh.w	r3, [r4, #58]	; 0x3a
    6cbc:	435b      	muls	r3, r3
    6cbe:	42bb      	cmp	r3, r7
    6cc0:	d911      	bls.n	6ce6 <vCheckFlashCalData+0xe6>
    6cc2:	f884 6051 	strb.w	r6, [r4, #81]	; 0x51
    6cc6:	6ce1      	ldr	r1, [r4, #76]	; 0x4c
    6cc8:	4810      	ldr	r0, [pc, #64]	; (6d0c <vCheckFlashCalData+0x10c>)
    6cca:	e8bd 40f8 	ldmia.w	sp!, {r3, r4, r5, r6, r7, lr}
    6cce:	2214      	movs	r2, #20
    6cd0:	f000 bd08 	b.w	76e4 <memcpy>
    6cd4:	f44f 71e2 	mov.w	r1, #452	; 0x1c4
    6cd8:	f3af 8000 	nop.w
    6cdc:	2800      	cmp	r0, #0
    6cde:	d199      	bne.n	6c14 <vCheckFlashCalData+0x14>
    6ce0:	f7ff fe92 	bl	6a08 <vInitFlashCalData>
    6ce4:	e7ae      	b.n	6c44 <vCheckFlashCalData+0x44>
    6ce6:	f884 0051 	strb.w	r0, [r4, #81]	; 0x51
    6cea:	e7ec      	b.n	6cc6 <vCheckFlashCalData+0xc6>
    6cec:	f04f 23ff 	mov.w	r3, #4278255360	; 0xff00ff00
    6cf0:	f240 31ea 	movw	r1, #1002	; 0x3ea
    6cf4:	e9c0 1300 	strd	r1, r3, [r0]
    6cf8:	e9c0 3302 	strd	r3, r3, [r0, #8]
    6cfc:	6103      	str	r3, [r0, #16]
    6cfe:	f8a4 2050 	strh.w	r2, [r4, #80]	; 0x50
    6d02:	e7e0      	b.n	6cc6 <vCheckFlashCalData+0xc6>
    6d04:	04015b28 	.word	0x04015b28
    6d08:	0001a964 	.word	0x0001a964
    6d0c:	04015fb0 	.word	0x04015fb0

00006d10 <vRadio_RadioInit>:
    6d10:	b530      	push	{r4, r5, lr}
    6d12:	f04f 4380 	mov.w	r3, #1073741824	; 0x40000000
    6d16:	b0f3      	sub	sp, #460	; 0x1cc
    6d18:	f8d3 35d8 	ldr.w	r3, [r3, #1496]	; 0x5d8
    6d1c:	07dc      	lsls	r4, r3, #31
    6d1e:	4605      	mov	r5, r0
    6d20:	d403      	bmi.n	6d2a <vRadio_RadioInit+0x1a>
    6d22:	f7ff fa83 	bl	622c <vRadio_InitXtal>
    6d26:	f7ff fdc7 	bl	68b8 <vRadio_Enable_DCO_DAC>
    6d2a:	4c91      	ldr	r4, [pc, #580]	; (6f70 <vRadio_RadioInit+0x260>)
    6d2c:	f7ff fc3e 	bl	65ac <vGetCalInfo>
    6d30:	b2eb      	uxtb	r3, r5
    6d32:	f104 0020 	add.w	r0, r4, #32
    6d36:	f3c5 2507 	ubfx	r5, r5, #8, #8
    6d3a:	6063      	str	r3, [r4, #4]
    6d3c:	60a5      	str	r5, [r4, #8]
    6d3e:	f7ff faaf 	bl	62a0 <radio_get_retention_info>
    6d42:	f7ff fcbb 	bl	66bc <vRadio_Temp_GetInfos>
    6d46:	f894 302e 	ldrb.w	r3, [r4, #46]	; 0x2e
    6d4a:	b90b      	cbnz	r3, 6d50 <vRadio_RadioInit+0x40>
    6d4c:	8ba3      	ldrh	r3, [r4, #28]
    6d4e:	8663      	strh	r3, [r4, #50]	; 0x32
    6d50:	6863      	ldr	r3, [r4, #4]
    6d52:	1e5a      	subs	r2, r3, #1
    6d54:	2a01      	cmp	r2, #1
    6d56:	f200 80ed 	bhi.w	6f34 <vRadio_RadioInit+0x224>
    6d5a:	2300      	movs	r3, #0
    6d5c:	84a3      	strh	r3, [r4, #36]	; 0x24
    6d5e:	ab01      	add	r3, sp, #4
    6d60:	64e3      	str	r3, [r4, #76]	; 0x4c
    6d62:	8ca3      	ldrh	r3, [r4, #36]	; 0x24
    6d64:	f04f 22ff 	mov.w	r2, #4278255360	; 0xff00ff00
    6d68:	2100      	movs	r1, #0
    6d6a:	f240 30ea 	movw	r0, #1002	; 0x3ea
    6d6e:	e9cd 0201 	strd	r0, r2, [sp, #4]
    6d72:	e9cd 2203 	strd	r2, r2, [sp, #12]
    6d76:	f8a4 1050 	strh.w	r1, [r4, #80]	; 0x50
    6d7a:	8561      	strh	r1, [r4, #42]	; 0x2a
    6d7c:	9205      	str	r2, [sp, #20]
    6d7e:	b11b      	cbz	r3, 6d88 <vRadio_RadioInit+0x78>
    6d80:	f9b4 0032 	ldrsh.w	r0, [r4, #50]	; 0x32
    6d84:	f7ff ff3c 	bl	6c00 <vCheckFlashCalData>
    6d88:	f7fd feee 	bl	4b68 <radio_Init>
    6d8c:	f7fd ff0a 	bl	4ba4 <radio_TMU_Init>
    6d90:	6863      	ldr	r3, [r4, #4]
    6d92:	2b02      	cmp	r3, #2
    6d94:	d007      	beq.n	6da6 <vRadio_RadioInit+0x96>
    6d96:	2b00      	cmp	r3, #0
    6d98:	f040 80e6 	bne.w	6f68 <vRadio_RadioInit+0x258>
    6d9c:	f894 3024 	ldrb.w	r3, [r4, #36]	; 0x24
    6da0:	2b00      	cmp	r3, #0
    6da2:	f040 80e1 	bne.w	6f68 <vRadio_RadioInit+0x258>
    6da6:	f7fd ffa7 	bl	4cf8 <radio_Use_Retained_Cal_Values>
    6daa:	6860      	ldr	r0, [r4, #4]
    6dac:	f7fd ffcc 	bl	4d48 <radio_rfbandgap_cal>
    6db0:	f04f 4380 	mov.w	r3, #1073741824	; 0x40000000
    6db4:	f8d3 35d8 	ldr.w	r3, [r3, #1496]	; 0x5d8
    6db8:	07db      	lsls	r3, r3, #31
    6dba:	d401      	bmi.n	6dc0 <vRadio_RadioInit+0xb0>
    6dbc:	f7ff f9f0 	bl	61a0 <vRadio_PowerOnSpecific>
    6dc0:	4d6c      	ldr	r5, [pc, #432]	; (6f74 <vRadio_RadioInit+0x264>)
    6dc2:	f7fe fbaf 	bl	5524 <radio_Synthesizer_Full_Cal>
    6dc6:	496c      	ldr	r1, [pc, #432]	; (6f78 <vRadio_RadioInit+0x268>)
    6dc8:	2210      	movs	r2, #16
    6dca:	4628      	mov	r0, r5
    6dcc:	f7fd fdc6 	bl	495c <radio_fill_std_ZB_regs>
    6dd0:	f7fd fda2 	bl	4918 <radio_TX_ZigBee_pll_dac_banked_set>
    6dd4:	4628      	mov	r0, r5
    6dd6:	4969      	ldr	r1, [pc, #420]	; (6f7c <vRadio_RadioInit+0x26c>)
    6dd8:	2248      	movs	r2, #72	; 0x48
    6dda:	f7fd fde3 	bl	49a4 <radio_fill_zbble_ZB_regs>
    6dde:	4968      	ldr	r1, [pc, #416]	; (6f80 <vRadio_RadioInit+0x270>)
    6de0:	2238      	movs	r2, #56	; 0x38
    6de2:	f7fd fdbb 	bl	495c <radio_fill_std_ZB_regs>
    6de6:	f8b5 378c 	ldrh.w	r3, [r5, #1932]	; 0x78c
    6dea:	f240 62fb 	movw	r2, #1787	; 0x6fb
    6dee:	f362 030a 	bfi	r3, r2, #0, #11
    6df2:	f8a5 378c 	strh.w	r3, [r5, #1932]	; 0x78c
    6df6:	4b63      	ldr	r3, [pc, #396]	; (6f84 <vRadio_RadioInit+0x274>)
    6df8:	68da      	ldr	r2, [r3, #12]
    6dfa:	2102      	movs	r1, #2
    6dfc:	f361 328f 	bfi	r2, r1, #14, #2
    6e00:	60da      	str	r2, [r3, #12]
    6e02:	685a      	ldr	r2, [r3, #4]
    6e04:	f042 0204 	orr.w	r2, r2, #4
    6e08:	605a      	str	r2, [r3, #4]
    6e0a:	f503 5380 	add.w	r3, r3, #4096	; 0x1000
    6e0e:	2117      	movs	r1, #23
    6e10:	6cda      	ldr	r2, [r3, #76]	; 0x4c
    6e12:	f361 0207 	bfi	r2, r1, #0, #8
    6e16:	64da      	str	r2, [r3, #76]	; 0x4c
    6e18:	6c9a      	ldr	r2, [r3, #72]	; 0x48
    6e1a:	2118      	movs	r1, #24
    6e1c:	f361 0207 	bfi	r2, r1, #0, #8
    6e20:	649a      	str	r2, [r3, #72]	; 0x48
    6e22:	2005      	movs	r0, #5
    6e24:	f7fd ffa8 	bl	4d78 <radio_Carrier_Frequency_Select_by_index>
    6e28:	f7fe fb32 	bl	5490 <radio_Trx_Packet_HW_Ctrl_Init>
    6e2c:	f240 1301 	movw	r3, #257	; 0x101
    6e30:	61eb      	str	r3, [r5, #28]
    6e32:	f7fe fdf5 	bl	5a20 <radio_DCO_cal>
    6e36:	f7ff f8bf 	bl	5fb8 <radio_IQ_cal>
    6e3a:	f7fe fb9b 	bl	5574 <radio_PA_rewrite_lut>
    6e3e:	f7fe fb27 	bl	5490 <radio_Trx_Packet_HW_Ctrl_Init>
    6e42:	6863      	ldr	r3, [r4, #4]
    6e44:	2b01      	cmp	r3, #1
    6e46:	d101      	bne.n	6e4c <vRadio_RadioInit+0x13c>
    6e48:	f7fd feb6 	bl	4bb8 <radio_Use_Cal_Values>
    6e4c:	f895 34e8 	ldrb.w	r3, [r5, #1256]	; 0x4e8
    6e50:	f043 0301 	orr.w	r3, r3, #1
    6e54:	f885 34e8 	strb.w	r3, [r5, #1256]	; 0x4e8
    6e58:	f895 34e8 	ldrb.w	r3, [r5, #1256]	; 0x4e8
    6e5c:	f043 0302 	orr.w	r3, r3, #2
    6e60:	f885 34e8 	strb.w	r3, [r5, #1256]	; 0x4e8
    6e64:	f895 34ec 	ldrb.w	r3, [r5, #1260]	; 0x4ec
    6e68:	f043 0301 	orr.w	r3, r3, #1
    6e6c:	f885 34ec 	strb.w	r3, [r5, #1260]	; 0x4ec
    6e70:	f895 34ec 	ldrb.w	r3, [r5, #1260]	; 0x4ec
    6e74:	f043 0302 	orr.w	r3, r3, #2
    6e78:	f885 34ec 	strb.w	r3, [r5, #1260]	; 0x4ec
    6e7c:	f8b5 3c00 	ldrh.w	r3, [r5, #3072]	; 0xc00
    6e80:	f640 022b 	movw	r2, #2091	; 0x82b
    6e84:	f362 030f 	bfi	r3, r2, #0, #16
    6e88:	f8a5 3c00 	strh.w	r3, [r5, #3072]	; 0xc00
    6e8c:	f894 3030 	ldrb.w	r3, [r4, #48]	; 0x30
    6e90:	b11b      	cbz	r3, 6e9a <vRadio_RadioInit+0x18a>
    6e92:	f9b4 0032 	ldrsh.w	r0, [r4, #50]	; 0x32
    6e96:	f7ff fd9d 	bl	69d4 <vUpdateFlashCalData>
    6e9a:	f894 3024 	ldrb.w	r3, [r4, #36]	; 0x24
    6e9e:	b173      	cbz	r3, 6ebe <vRadio_RadioInit+0x1ae>
    6ea0:	f894 302e 	ldrb.w	r3, [r4, #46]	; 0x2e
    6ea4:	b15b      	cbz	r3, 6ebe <vRadio_RadioInit+0x1ae>
    6ea6:	6ce3      	ldr	r3, [r4, #76]	; 0x4c
    6ea8:	f894 2050 	ldrb.w	r2, [r4, #80]	; 0x50
    6eac:	eb03 0342 	add.w	r3, r3, r2, lsl #1
    6eb0:	889b      	ldrh	r3, [r3, #4]
    6eb2:	86a3      	strh	r3, [r4, #52]	; 0x34
    6eb4:	2300      	movs	r3, #0
    6eb6:	f884 3024 	strb.w	r3, [r4, #36]	; 0x24
    6eba:	f884 302c 	strb.w	r3, [r4, #44]	; 0x2c
    6ebe:	f894 3025 	ldrb.w	r3, [r4, #37]	; 0x25
    6ec2:	b173      	cbz	r3, 6ee2 <vRadio_RadioInit+0x1d2>
    6ec4:	f894 302e 	ldrb.w	r3, [r4, #46]	; 0x2e
    6ec8:	b15b      	cbz	r3, 6ee2 <vRadio_RadioInit+0x1d2>
    6eca:	6ce3      	ldr	r3, [r4, #76]	; 0x4c
    6ecc:	f894 2051 	ldrb.w	r2, [r4, #81]	; 0x51
    6ed0:	eb03 0342 	add.w	r3, r3, r2, lsl #1
    6ed4:	899b      	ldrh	r3, [r3, #12]
    6ed6:	86e3      	strh	r3, [r4, #54]	; 0x36
    6ed8:	2300      	movs	r3, #0
    6eda:	f884 3025 	strb.w	r3, [r4, #37]	; 0x25
    6ede:	f884 302d 	strb.w	r3, [r4, #45]	; 0x2d
    6ee2:	2301      	movs	r3, #1
    6ee4:	f884 3031 	strb.w	r3, [r4, #49]	; 0x31
    6ee8:	f7ff fc26 	bl	6738 <vRadio_Temp_SetInfos>
    6eec:	f894 3028 	ldrb.w	r3, [r4, #40]	; 0x28
    6ef0:	b16b      	cbz	r3, 6f0e <vRadio_RadioInit+0x1fe>
    6ef2:	f04f 4380 	mov.w	r3, #1073741824	; 0x40000000
    6ef6:	f44f 1100 	mov.w	r1, #2097152	; 0x200000
    6efa:	f8c3 1124 	str.w	r1, [r3, #292]	; 0x124
    6efe:	f893 22cc 	ldrb.w	r2, [r3, #716]	; 0x2cc
    6f02:	f042 0201 	orr.w	r2, r2, #1
    6f06:	f883 22cc 	strb.w	r2, [r3, #716]	; 0x2cc
    6f0a:	f8c3 1244 	str.w	r1, [r3, #580]	; 0x244
    6f0e:	f894 3029 	ldrb.w	r3, [r4, #41]	; 0x29
    6f12:	b16b      	cbz	r3, 6f30 <vRadio_RadioInit+0x220>
    6f14:	f04f 4380 	mov.w	r3, #1073741824	; 0x40000000
    6f18:	f44f 0180 	mov.w	r1, #4194304	; 0x400000
    6f1c:	f8c3 1124 	str.w	r1, [r3, #292]	; 0x124
    6f20:	f893 22cc 	ldrb.w	r2, [r3, #716]	; 0x2cc
    6f24:	f042 0202 	orr.w	r2, r2, #2
    6f28:	f883 22cc 	strb.w	r2, [r3, #716]	; 0x2cc
    6f2c:	f8c3 1244 	str.w	r1, [r3, #580]	; 0x244
    6f30:	b073      	add	sp, #460	; 0x1cc
    6f32:	bd30      	pop	{r4, r5, pc}
    6f34:	2b03      	cmp	r3, #3
    6f36:	d102      	bne.n	6f3e <vRadio_RadioInit+0x22e>
    6f38:	f240 1301 	movw	r3, #257	; 0x101
    6f3c:	e70e      	b.n	6d5c <vRadio_RadioInit+0x4c>
    6f3e:	f9b4 5032 	ldrsh.w	r5, [r4, #50]	; 0x32
    6f42:	f9b4 2038 	ldrsh.w	r2, [r4, #56]	; 0x38
    6f46:	f9b4 1034 	ldrsh.w	r1, [r4, #52]	; 0x34
    6f4a:	4628      	mov	r0, r5
    6f4c:	f7ff fd24 	bl	6998 <bIsCalNeeded>
    6f50:	f9b4 203a 	ldrsh.w	r2, [r4, #58]	; 0x3a
    6f54:	f884 0024 	strb.w	r0, [r4, #36]	; 0x24
    6f58:	f9b4 1036 	ldrsh.w	r1, [r4, #54]	; 0x36
    6f5c:	4628      	mov	r0, r5
    6f5e:	f7ff fd1b 	bl	6998 <bIsCalNeeded>
    6f62:	f884 0025 	strb.w	r0, [r4, #37]	; 0x25
    6f66:	e6fa      	b.n	6d5e <vRadio_RadioInit+0x4e>
    6f68:	f7fd fe26 	bl	4bb8 <radio_Use_Cal_Values>
    6f6c:	e71d      	b.n	6daa <vRadio_RadioInit+0x9a>
    6f6e:	bf00      	nop
    6f70:	04015b28 	.word	0x04015b28
    6f74:	40013000 	.word	0x40013000
    6f78:	0000928e 	.word	0x0000928e
    6f7c:	0000933a 	.word	0x0000933a
    6f80:	0000922e 	.word	0x0000922e
    6f84:	400b0000 	.word	0x400b0000

00006f88 <__aeabi_drsub>:
    6f88:	f081 4100 	eor.w	r1, r1, #2147483648	; 0x80000000
    6f8c:	e002      	b.n	6f94 <__adddf3>
    6f8e:	bf00      	nop

00006f90 <__aeabi_dsub>:
    6f90:	f083 4300 	eor.w	r3, r3, #2147483648	; 0x80000000

00006f94 <__adddf3>:
    6f94:	b530      	push	{r4, r5, lr}
    6f96:	ea4f 0441 	mov.w	r4, r1, lsl #1
    6f9a:	ea4f 0543 	mov.w	r5, r3, lsl #1
    6f9e:	ea94 0f05 	teq	r4, r5
    6fa2:	bf08      	it	eq
    6fa4:	ea90 0f02 	teqeq	r0, r2
    6fa8:	bf1f      	itttt	ne
    6faa:	ea54 0c00 	orrsne.w	ip, r4, r0
    6fae:	ea55 0c02 	orrsne.w	ip, r5, r2
    6fb2:	ea7f 5c64 	mvnsne.w	ip, r4, asr #21
    6fb6:	ea7f 5c65 	mvnsne.w	ip, r5, asr #21
    6fba:	f000 80e2 	beq.w	7182 <__adddf3+0x1ee>
    6fbe:	ea4f 5454 	mov.w	r4, r4, lsr #21
    6fc2:	ebd4 5555 	rsbs	r5, r4, r5, lsr #21
    6fc6:	bfb8      	it	lt
    6fc8:	426d      	neglt	r5, r5
    6fca:	dd0c      	ble.n	6fe6 <__adddf3+0x52>
    6fcc:	442c      	add	r4, r5
    6fce:	ea80 0202 	eor.w	r2, r0, r2
    6fd2:	ea81 0303 	eor.w	r3, r1, r3
    6fd6:	ea82 0000 	eor.w	r0, r2, r0
    6fda:	ea83 0101 	eor.w	r1, r3, r1
    6fde:	ea80 0202 	eor.w	r2, r0, r2
    6fe2:	ea81 0303 	eor.w	r3, r1, r3
    6fe6:	2d36      	cmp	r5, #54	; 0x36
    6fe8:	bf88      	it	hi
    6fea:	bd30      	pophi	{r4, r5, pc}
    6fec:	f011 4f00 	tst.w	r1, #2147483648	; 0x80000000
    6ff0:	ea4f 3101 	mov.w	r1, r1, lsl #12
    6ff4:	f44f 1c80 	mov.w	ip, #1048576	; 0x100000
    6ff8:	ea4c 3111 	orr.w	r1, ip, r1, lsr #12
    6ffc:	d002      	beq.n	7004 <__adddf3+0x70>
    6ffe:	4240      	negs	r0, r0
    7000:	eb61 0141 	sbc.w	r1, r1, r1, lsl #1
    7004:	f013 4f00 	tst.w	r3, #2147483648	; 0x80000000
    7008:	ea4f 3303 	mov.w	r3, r3, lsl #12
    700c:	ea4c 3313 	orr.w	r3, ip, r3, lsr #12
    7010:	d002      	beq.n	7018 <__adddf3+0x84>
    7012:	4252      	negs	r2, r2
    7014:	eb63 0343 	sbc.w	r3, r3, r3, lsl #1
    7018:	ea94 0f05 	teq	r4, r5
    701c:	f000 80a7 	beq.w	716e <__adddf3+0x1da>
    7020:	f1a4 0401 	sub.w	r4, r4, #1
    7024:	f1d5 0e20 	rsbs	lr, r5, #32
    7028:	db0d      	blt.n	7046 <__adddf3+0xb2>
    702a:	fa02 fc0e 	lsl.w	ip, r2, lr
    702e:	fa22 f205 	lsr.w	r2, r2, r5
    7032:	1880      	adds	r0, r0, r2
    7034:	f141 0100 	adc.w	r1, r1, #0
    7038:	fa03 f20e 	lsl.w	r2, r3, lr
    703c:	1880      	adds	r0, r0, r2
    703e:	fa43 f305 	asr.w	r3, r3, r5
    7042:	4159      	adcs	r1, r3
    7044:	e00e      	b.n	7064 <__adddf3+0xd0>
    7046:	f1a5 0520 	sub.w	r5, r5, #32
    704a:	f10e 0e20 	add.w	lr, lr, #32
    704e:	2a01      	cmp	r2, #1
    7050:	fa03 fc0e 	lsl.w	ip, r3, lr
    7054:	bf28      	it	cs
    7056:	f04c 0c02 	orrcs.w	ip, ip, #2
    705a:	fa43 f305 	asr.w	r3, r3, r5
    705e:	18c0      	adds	r0, r0, r3
    7060:	eb51 71e3 	adcs.w	r1, r1, r3, asr #31
    7064:	f001 4500 	and.w	r5, r1, #2147483648	; 0x80000000
    7068:	d507      	bpl.n	707a <__adddf3+0xe6>
    706a:	f04f 0e00 	mov.w	lr, #0
    706e:	f1dc 0c00 	rsbs	ip, ip, #0
    7072:	eb7e 0000 	sbcs.w	r0, lr, r0
    7076:	eb6e 0101 	sbc.w	r1, lr, r1
    707a:	f5b1 1f80 	cmp.w	r1, #1048576	; 0x100000
    707e:	d31b      	bcc.n	70b8 <__adddf3+0x124>
    7080:	f5b1 1f00 	cmp.w	r1, #2097152	; 0x200000
    7084:	d30c      	bcc.n	70a0 <__adddf3+0x10c>
    7086:	0849      	lsrs	r1, r1, #1
    7088:	ea5f 0030 	movs.w	r0, r0, rrx
    708c:	ea4f 0c3c 	mov.w	ip, ip, rrx
    7090:	f104 0401 	add.w	r4, r4, #1
    7094:	ea4f 5244 	mov.w	r2, r4, lsl #21
    7098:	f512 0f80 	cmn.w	r2, #4194304	; 0x400000
    709c:	f080 809a 	bcs.w	71d4 <__adddf3+0x240>
    70a0:	f1bc 4f00 	cmp.w	ip, #2147483648	; 0x80000000
    70a4:	bf08      	it	eq
    70a6:	ea5f 0c50 	movseq.w	ip, r0, lsr #1
    70aa:	f150 0000 	adcs.w	r0, r0, #0
    70ae:	eb41 5104 	adc.w	r1, r1, r4, lsl #20
    70b2:	ea41 0105 	orr.w	r1, r1, r5
    70b6:	bd30      	pop	{r4, r5, pc}
    70b8:	ea5f 0c4c 	movs.w	ip, ip, lsl #1
    70bc:	4140      	adcs	r0, r0
    70be:	eb41 0101 	adc.w	r1, r1, r1
    70c2:	3c01      	subs	r4, #1
    70c4:	bf28      	it	cs
    70c6:	f5b1 1f80 	cmpcs.w	r1, #1048576	; 0x100000
    70ca:	d2e9      	bcs.n	70a0 <__adddf3+0x10c>
    70cc:	f091 0f00 	teq	r1, #0
    70d0:	bf04      	itt	eq
    70d2:	4601      	moveq	r1, r0
    70d4:	2000      	moveq	r0, #0
    70d6:	fab1 f381 	clz	r3, r1
    70da:	bf08      	it	eq
    70dc:	3320      	addeq	r3, #32
    70de:	f1a3 030b 	sub.w	r3, r3, #11
    70e2:	f1b3 0220 	subs.w	r2, r3, #32
    70e6:	da0c      	bge.n	7102 <__adddf3+0x16e>
    70e8:	320c      	adds	r2, #12
    70ea:	dd08      	ble.n	70fe <__adddf3+0x16a>
    70ec:	f102 0c14 	add.w	ip, r2, #20
    70f0:	f1c2 020c 	rsb	r2, r2, #12
    70f4:	fa01 f00c 	lsl.w	r0, r1, ip
    70f8:	fa21 f102 	lsr.w	r1, r1, r2
    70fc:	e00c      	b.n	7118 <__adddf3+0x184>
    70fe:	f102 0214 	add.w	r2, r2, #20
    7102:	bfd8      	it	le
    7104:	f1c2 0c20 	rsble	ip, r2, #32
    7108:	fa01 f102 	lsl.w	r1, r1, r2
    710c:	fa20 fc0c 	lsr.w	ip, r0, ip
    7110:	bfdc      	itt	le
    7112:	ea41 010c 	orrle.w	r1, r1, ip
    7116:	4090      	lslle	r0, r2
    7118:	1ae4      	subs	r4, r4, r3
    711a:	bfa2      	ittt	ge
    711c:	eb01 5104 	addge.w	r1, r1, r4, lsl #20
    7120:	4329      	orrge	r1, r5
    7122:	bd30      	popge	{r4, r5, pc}
    7124:	ea6f 0404 	mvn.w	r4, r4
    7128:	3c1f      	subs	r4, #31
    712a:	da1c      	bge.n	7166 <__adddf3+0x1d2>
    712c:	340c      	adds	r4, #12
    712e:	dc0e      	bgt.n	714e <__adddf3+0x1ba>
    7130:	f104 0414 	add.w	r4, r4, #20
    7134:	f1c4 0220 	rsb	r2, r4, #32
    7138:	fa20 f004 	lsr.w	r0, r0, r4
    713c:	fa01 f302 	lsl.w	r3, r1, r2
    7140:	ea40 0003 	orr.w	r0, r0, r3
    7144:	fa21 f304 	lsr.w	r3, r1, r4
    7148:	ea45 0103 	orr.w	r1, r5, r3
    714c:	bd30      	pop	{r4, r5, pc}
    714e:	f1c4 040c 	rsb	r4, r4, #12
    7152:	f1c4 0220 	rsb	r2, r4, #32
    7156:	fa20 f002 	lsr.w	r0, r0, r2
    715a:	fa01 f304 	lsl.w	r3, r1, r4
    715e:	ea40 0003 	orr.w	r0, r0, r3
    7162:	4629      	mov	r1, r5
    7164:	bd30      	pop	{r4, r5, pc}
    7166:	fa21 f004 	lsr.w	r0, r1, r4
    716a:	4629      	mov	r1, r5
    716c:	bd30      	pop	{r4, r5, pc}
    716e:	f094 0f00 	teq	r4, #0
    7172:	f483 1380 	eor.w	r3, r3, #1048576	; 0x100000
    7176:	bf06      	itte	eq
    7178:	f481 1180 	eoreq.w	r1, r1, #1048576	; 0x100000
    717c:	3401      	addeq	r4, #1
    717e:	3d01      	subne	r5, #1
    7180:	e74e      	b.n	7020 <__adddf3+0x8c>
    7182:	ea7f 5c64 	mvns.w	ip, r4, asr #21
    7186:	bf18      	it	ne
    7188:	ea7f 5c65 	mvnsne.w	ip, r5, asr #21
    718c:	d029      	beq.n	71e2 <__adddf3+0x24e>
    718e:	ea94 0f05 	teq	r4, r5
    7192:	bf08      	it	eq
    7194:	ea90 0f02 	teqeq	r0, r2
    7198:	d005      	beq.n	71a6 <__adddf3+0x212>
    719a:	ea54 0c00 	orrs.w	ip, r4, r0
    719e:	bf04      	itt	eq
    71a0:	4619      	moveq	r1, r3
    71a2:	4610      	moveq	r0, r2
    71a4:	bd30      	pop	{r4, r5, pc}
    71a6:	ea91 0f03 	teq	r1, r3
    71aa:	bf1e      	ittt	ne
    71ac:	2100      	movne	r1, #0
    71ae:	2000      	movne	r0, #0
    71b0:	bd30      	popne	{r4, r5, pc}
    71b2:	ea5f 5c54 	movs.w	ip, r4, lsr #21
    71b6:	d105      	bne.n	71c4 <__adddf3+0x230>
    71b8:	0040      	lsls	r0, r0, #1
    71ba:	4149      	adcs	r1, r1
    71bc:	bf28      	it	cs
    71be:	f041 4100 	orrcs.w	r1, r1, #2147483648	; 0x80000000
    71c2:	bd30      	pop	{r4, r5, pc}
    71c4:	f514 0480 	adds.w	r4, r4, #4194304	; 0x400000
    71c8:	bf3c      	itt	cc
    71ca:	f501 1180 	addcc.w	r1, r1, #1048576	; 0x100000
    71ce:	bd30      	popcc	{r4, r5, pc}
    71d0:	f001 4500 	and.w	r5, r1, #2147483648	; 0x80000000
    71d4:	f045 41fe 	orr.w	r1, r5, #2130706432	; 0x7f000000
    71d8:	f441 0170 	orr.w	r1, r1, #15728640	; 0xf00000
    71dc:	f04f 0000 	mov.w	r0, #0
    71e0:	bd30      	pop	{r4, r5, pc}
    71e2:	ea7f 5c64 	mvns.w	ip, r4, asr #21
    71e6:	bf1a      	itte	ne
    71e8:	4619      	movne	r1, r3
    71ea:	4610      	movne	r0, r2
    71ec:	ea7f 5c65 	mvnseq.w	ip, r5, asr #21
    71f0:	bf1c      	itt	ne
    71f2:	460b      	movne	r3, r1
    71f4:	4602      	movne	r2, r0
    71f6:	ea50 3401 	orrs.w	r4, r0, r1, lsl #12
    71fa:	bf06      	itte	eq
    71fc:	ea52 3503 	orrseq.w	r5, r2, r3, lsl #12
    7200:	ea91 0f03 	teqeq	r1, r3
    7204:	f441 2100 	orrne.w	r1, r1, #524288	; 0x80000
    7208:	bd30      	pop	{r4, r5, pc}
    720a:	bf00      	nop

0000720c <__aeabi_ui2d>:
    720c:	f090 0f00 	teq	r0, #0
    7210:	bf04      	itt	eq
    7212:	2100      	moveq	r1, #0
    7214:	4770      	bxeq	lr
    7216:	b530      	push	{r4, r5, lr}
    7218:	f44f 6480 	mov.w	r4, #1024	; 0x400
    721c:	f104 0432 	add.w	r4, r4, #50	; 0x32
    7220:	f04f 0500 	mov.w	r5, #0
    7224:	f04f 0100 	mov.w	r1, #0
    7228:	e750      	b.n	70cc <__adddf3+0x138>
    722a:	bf00      	nop

0000722c <__aeabi_i2d>:
    722c:	f090 0f00 	teq	r0, #0
    7230:	bf04      	itt	eq
    7232:	2100      	moveq	r1, #0
    7234:	4770      	bxeq	lr
    7236:	b530      	push	{r4, r5, lr}
    7238:	f44f 6480 	mov.w	r4, #1024	; 0x400
    723c:	f104 0432 	add.w	r4, r4, #50	; 0x32
    7240:	f010 4500 	ands.w	r5, r0, #2147483648	; 0x80000000
    7244:	bf48      	it	mi
    7246:	4240      	negmi	r0, r0
    7248:	f04f 0100 	mov.w	r1, #0
    724c:	e73e      	b.n	70cc <__adddf3+0x138>
    724e:	bf00      	nop

00007250 <__aeabi_f2d>:
    7250:	0042      	lsls	r2, r0, #1
    7252:	ea4f 01e2 	mov.w	r1, r2, asr #3
    7256:	ea4f 0131 	mov.w	r1, r1, rrx
    725a:	ea4f 7002 	mov.w	r0, r2, lsl #28
    725e:	bf1f      	itttt	ne
    7260:	f012 437f 	andsne.w	r3, r2, #4278190080	; 0xff000000
    7264:	f093 4f7f 	teqne	r3, #4278190080	; 0xff000000
    7268:	f081 5160 	eorne.w	r1, r1, #939524096	; 0x38000000
    726c:	4770      	bxne	lr
    726e:	f032 427f 	bics.w	r2, r2, #4278190080	; 0xff000000
    7272:	bf08      	it	eq
    7274:	4770      	bxeq	lr
    7276:	f093 4f7f 	teq	r3, #4278190080	; 0xff000000
    727a:	bf04      	itt	eq
    727c:	f441 2100 	orreq.w	r1, r1, #524288	; 0x80000
    7280:	4770      	bxeq	lr
    7282:	b530      	push	{r4, r5, lr}
    7284:	f44f 7460 	mov.w	r4, #896	; 0x380
    7288:	f001 4500 	and.w	r5, r1, #2147483648	; 0x80000000
    728c:	f021 4100 	bic.w	r1, r1, #2147483648	; 0x80000000
    7290:	e71c      	b.n	70cc <__adddf3+0x138>
    7292:	bf00      	nop

00007294 <__aeabi_ul2d>:
    7294:	ea50 0201 	orrs.w	r2, r0, r1
    7298:	bf08      	it	eq
    729a:	4770      	bxeq	lr
    729c:	b530      	push	{r4, r5, lr}
    729e:	f04f 0500 	mov.w	r5, #0
    72a2:	e00a      	b.n	72ba <__aeabi_l2d+0x16>

000072a4 <__aeabi_l2d>:
    72a4:	ea50 0201 	orrs.w	r2, r0, r1
    72a8:	bf08      	it	eq
    72aa:	4770      	bxeq	lr
    72ac:	b530      	push	{r4, r5, lr}
    72ae:	f011 4500 	ands.w	r5, r1, #2147483648	; 0x80000000
    72b2:	d502      	bpl.n	72ba <__aeabi_l2d+0x16>
    72b4:	4240      	negs	r0, r0
    72b6:	eb61 0141 	sbc.w	r1, r1, r1, lsl #1
    72ba:	f44f 6480 	mov.w	r4, #1024	; 0x400
    72be:	f104 0432 	add.w	r4, r4, #50	; 0x32
    72c2:	ea5f 5c91 	movs.w	ip, r1, lsr #22
    72c6:	f43f aed8 	beq.w	707a <__adddf3+0xe6>
    72ca:	f04f 0203 	mov.w	r2, #3
    72ce:	ea5f 0cdc 	movs.w	ip, ip, lsr #3
    72d2:	bf18      	it	ne
    72d4:	3203      	addne	r2, #3
    72d6:	ea5f 0cdc 	movs.w	ip, ip, lsr #3
    72da:	bf18      	it	ne
    72dc:	3203      	addne	r2, #3
    72de:	eb02 02dc 	add.w	r2, r2, ip, lsr #3
    72e2:	f1c2 0320 	rsb	r3, r2, #32
    72e6:	fa00 fc03 	lsl.w	ip, r0, r3
    72ea:	fa20 f002 	lsr.w	r0, r0, r2
    72ee:	fa01 fe03 	lsl.w	lr, r1, r3
    72f2:	ea40 000e 	orr.w	r0, r0, lr
    72f6:	fa21 f102 	lsr.w	r1, r1, r2
    72fa:	4414      	add	r4, r2
    72fc:	e6bd      	b.n	707a <__adddf3+0xe6>
    72fe:	bf00      	nop

00007300 <__aeabi_d2iz>:
    7300:	ea4f 0241 	mov.w	r2, r1, lsl #1
    7304:	f512 1200 	adds.w	r2, r2, #2097152	; 0x200000
    7308:	d215      	bcs.n	7336 <__aeabi_d2iz+0x36>
    730a:	d511      	bpl.n	7330 <__aeabi_d2iz+0x30>
    730c:	f46f 7378 	mvn.w	r3, #992	; 0x3e0
    7310:	ebb3 5262 	subs.w	r2, r3, r2, asr #21
    7314:	d912      	bls.n	733c <__aeabi_d2iz+0x3c>
    7316:	ea4f 23c1 	mov.w	r3, r1, lsl #11
    731a:	f043 4300 	orr.w	r3, r3, #2147483648	; 0x80000000
    731e:	ea43 5350 	orr.w	r3, r3, r0, lsr #21
    7322:	f011 4f00 	tst.w	r1, #2147483648	; 0x80000000
    7326:	fa23 f002 	lsr.w	r0, r3, r2
    732a:	bf18      	it	ne
    732c:	4240      	negne	r0, r0
    732e:	4770      	bx	lr
    7330:	f04f 0000 	mov.w	r0, #0
    7334:	4770      	bx	lr
    7336:	ea50 3001 	orrs.w	r0, r0, r1, lsl #12
    733a:	d105      	bne.n	7348 <__aeabi_d2iz+0x48>
    733c:	f011 4000 	ands.w	r0, r1, #2147483648	; 0x80000000
    7340:	bf08      	it	eq
    7342:	f06f 4000 	mvneq.w	r0, #2147483648	; 0x80000000
    7346:	4770      	bx	lr
    7348:	f04f 0000 	mov.w	r0, #0
    734c:	4770      	bx	lr
    734e:	bf00      	nop

00007350 <__aeabi_ldivmod>:
    7350:	b97b      	cbnz	r3, 7372 <__aeabi_ldivmod+0x22>
    7352:	b972      	cbnz	r2, 7372 <__aeabi_ldivmod+0x22>
    7354:	2900      	cmp	r1, #0
    7356:	bfbe      	ittt	lt
    7358:	2000      	movlt	r0, #0
    735a:	f04f 4100 	movlt.w	r1, #2147483648	; 0x80000000
    735e:	e006      	blt.n	736e <__aeabi_ldivmod+0x1e>
    7360:	bf08      	it	eq
    7362:	2800      	cmpeq	r0, #0
    7364:	bf1c      	itt	ne
    7366:	f06f 4100 	mvnne.w	r1, #2147483648	; 0x80000000
    736a:	f04f 30ff 	movne.w	r0, #4294967295
    736e:	f000 b9b7 	b.w	76e0 <__aeabi_idiv0>
    7372:	f1ad 0c08 	sub.w	ip, sp, #8
    7376:	e96d ce04 	strd	ip, lr, [sp, #-16]!
    737a:	2900      	cmp	r1, #0
    737c:	db09      	blt.n	7392 <__aeabi_ldivmod+0x42>
    737e:	2b00      	cmp	r3, #0
    7380:	db1a      	blt.n	73b8 <__aeabi_ldivmod+0x68>
    7382:	f000 f84d 	bl	7420 <__udivmoddi4>
    7386:	f8dd e004 	ldr.w	lr, [sp, #4]
    738a:	e9dd 2302 	ldrd	r2, r3, [sp, #8]
    738e:	b004      	add	sp, #16
    7390:	4770      	bx	lr
    7392:	4240      	negs	r0, r0
    7394:	eb61 0141 	sbc.w	r1, r1, r1, lsl #1
    7398:	2b00      	cmp	r3, #0
    739a:	db1b      	blt.n	73d4 <__aeabi_ldivmod+0x84>
    739c:	f000 f840 	bl	7420 <__udivmoddi4>
    73a0:	f8dd e004 	ldr.w	lr, [sp, #4]
    73a4:	e9dd 2302 	ldrd	r2, r3, [sp, #8]
    73a8:	b004      	add	sp, #16
    73aa:	4240      	negs	r0, r0
    73ac:	eb61 0141 	sbc.w	r1, r1, r1, lsl #1
    73b0:	4252      	negs	r2, r2
    73b2:	eb63 0343 	sbc.w	r3, r3, r3, lsl #1
    73b6:	4770      	bx	lr
    73b8:	4252      	negs	r2, r2
    73ba:	eb63 0343 	sbc.w	r3, r3, r3, lsl #1
    73be:	f000 f82f 	bl	7420 <__udivmoddi4>
    73c2:	f8dd e004 	ldr.w	lr, [sp, #4]
    73c6:	e9dd 2302 	ldrd	r2, r3, [sp, #8]
    73ca:	b004      	add	sp, #16
    73cc:	4240      	negs	r0, r0
    73ce:	eb61 0141 	sbc.w	r1, r1, r1, lsl #1
    73d2:	4770      	bx	lr
    73d4:	4252      	negs	r2, r2
    73d6:	eb63 0343 	sbc.w	r3, r3, r3, lsl #1
    73da:	f000 f821 	bl	7420 <__udivmoddi4>
    73de:	f8dd e004 	ldr.w	lr, [sp, #4]
    73e2:	e9dd 2302 	ldrd	r2, r3, [sp, #8]
    73e6:	b004      	add	sp, #16
    73e8:	4252      	negs	r2, r2
    73ea:	eb63 0343 	sbc.w	r3, r3, r3, lsl #1
    73ee:	4770      	bx	lr

000073f0 <__aeabi_uldivmod>:
    73f0:	b953      	cbnz	r3, 7408 <__aeabi_uldivmod+0x18>
    73f2:	b94a      	cbnz	r2, 7408 <__aeabi_uldivmod+0x18>
    73f4:	2900      	cmp	r1, #0
    73f6:	bf08      	it	eq
    73f8:	2800      	cmpeq	r0, #0
    73fa:	bf1c      	itt	ne
    73fc:	f04f 31ff 	movne.w	r1, #4294967295
    7400:	f04f 30ff 	movne.w	r0, #4294967295
    7404:	f000 b96c 	b.w	76e0 <__aeabi_idiv0>
    7408:	f1ad 0c08 	sub.w	ip, sp, #8
    740c:	e96d ce04 	strd	ip, lr, [sp, #-16]!
    7410:	f000 f806 	bl	7420 <__udivmoddi4>
    7414:	f8dd e004 	ldr.w	lr, [sp, #4]
    7418:	e9dd 2302 	ldrd	r2, r3, [sp, #8]
    741c:	b004      	add	sp, #16
    741e:	4770      	bx	lr

00007420 <__udivmoddi4>:
    7420:	e92d 47f0 	stmdb	sp!, {r4, r5, r6, r7, r8, r9, sl, lr}
    7424:	9e08      	ldr	r6, [sp, #32]
    7426:	460d      	mov	r5, r1
    7428:	4604      	mov	r4, r0
    742a:	468e      	mov	lr, r1
    742c:	2b00      	cmp	r3, #0
    742e:	f040 8082 	bne.w	7536 <__udivmoddi4+0x116>
    7432:	428a      	cmp	r2, r1
    7434:	4617      	mov	r7, r2
    7436:	d946      	bls.n	74c6 <__udivmoddi4+0xa6>
    7438:	fab2 f282 	clz	r2, r2
    743c:	b14a      	cbz	r2, 7452 <__udivmoddi4+0x32>
    743e:	f1c2 0120 	rsb	r1, r2, #32
    7442:	fa05 f302 	lsl.w	r3, r5, r2
    7446:	fa20 f101 	lsr.w	r1, r0, r1
    744a:	4097      	lsls	r7, r2
    744c:	ea41 0e03 	orr.w	lr, r1, r3
    7450:	4094      	lsls	r4, r2
    7452:	ea4f 4817 	mov.w	r8, r7, lsr #16
    7456:	0c23      	lsrs	r3, r4, #16
    7458:	fbbe fcf8 	udiv	ip, lr, r8
    745c:	b2b9      	uxth	r1, r7
    745e:	fb08 ee1c 	mls	lr, r8, ip, lr
    7462:	ea43 430e 	orr.w	r3, r3, lr, lsl #16
    7466:	fb0c f001 	mul.w	r0, ip, r1
    746a:	4298      	cmp	r0, r3
    746c:	d90a      	bls.n	7484 <__udivmoddi4+0x64>
    746e:	18fb      	adds	r3, r7, r3
    7470:	f10c 35ff 	add.w	r5, ip, #4294967295
    7474:	f080 8116 	bcs.w	76a4 <__udivmoddi4+0x284>
    7478:	4298      	cmp	r0, r3
    747a:	f240 8113 	bls.w	76a4 <__udivmoddi4+0x284>
    747e:	f1ac 0c02 	sub.w	ip, ip, #2
    7482:	443b      	add	r3, r7
    7484:	1a1b      	subs	r3, r3, r0
    7486:	b2a4      	uxth	r4, r4
    7488:	fbb3 f0f8 	udiv	r0, r3, r8
    748c:	fb08 3310 	mls	r3, r8, r0, r3
    7490:	ea44 4403 	orr.w	r4, r4, r3, lsl #16
    7494:	fb00 f101 	mul.w	r1, r0, r1
    7498:	42a1      	cmp	r1, r4
    749a:	d909      	bls.n	74b0 <__udivmoddi4+0x90>
    749c:	193c      	adds	r4, r7, r4
    749e:	f100 33ff 	add.w	r3, r0, #4294967295
    74a2:	f080 8101 	bcs.w	76a8 <__udivmoddi4+0x288>
    74a6:	42a1      	cmp	r1, r4
    74a8:	f240 80fe 	bls.w	76a8 <__udivmoddi4+0x288>
    74ac:	3802      	subs	r0, #2
    74ae:	443c      	add	r4, r7
    74b0:	1a64      	subs	r4, r4, r1
    74b2:	ea40 400c 	orr.w	r0, r0, ip, lsl #16
    74b6:	2100      	movs	r1, #0
    74b8:	b11e      	cbz	r6, 74c2 <__udivmoddi4+0xa2>
    74ba:	40d4      	lsrs	r4, r2
    74bc:	2300      	movs	r3, #0
    74be:	e9c6 4300 	strd	r4, r3, [r6]
    74c2:	e8bd 87f0 	ldmia.w	sp!, {r4, r5, r6, r7, r8, r9, sl, pc}
    74c6:	b902      	cbnz	r2, 74ca <__udivmoddi4+0xaa>
    74c8:	deff      	udf	#255	; 0xff
    74ca:	fab2 f282 	clz	r2, r2
    74ce:	2a00      	cmp	r2, #0
    74d0:	d14f      	bne.n	7572 <__udivmoddi4+0x152>
    74d2:	1bcb      	subs	r3, r1, r7
    74d4:	ea4f 4e17 	mov.w	lr, r7, lsr #16
    74d8:	fa1f f887 	uxth.w	r8, r7
    74dc:	2101      	movs	r1, #1
    74de:	fbb3 fcfe 	udiv	ip, r3, lr
    74e2:	0c25      	lsrs	r5, r4, #16
    74e4:	fb0e 331c 	mls	r3, lr, ip, r3
    74e8:	ea45 4503 	orr.w	r5, r5, r3, lsl #16
    74ec:	fb08 f30c 	mul.w	r3, r8, ip
    74f0:	42ab      	cmp	r3, r5
    74f2:	d907      	bls.n	7504 <__udivmoddi4+0xe4>
    74f4:	197d      	adds	r5, r7, r5
    74f6:	f10c 30ff 	add.w	r0, ip, #4294967295
    74fa:	d202      	bcs.n	7502 <__udivmoddi4+0xe2>
    74fc:	42ab      	cmp	r3, r5
    74fe:	f200 80e7 	bhi.w	76d0 <__udivmoddi4+0x2b0>
    7502:	4684      	mov	ip, r0
    7504:	1aed      	subs	r5, r5, r3
    7506:	b2a3      	uxth	r3, r4
    7508:	fbb5 f0fe 	udiv	r0, r5, lr
    750c:	fb0e 5510 	mls	r5, lr, r0, r5
    7510:	ea43 4405 	orr.w	r4, r3, r5, lsl #16
    7514:	fb08 f800 	mul.w	r8, r8, r0
    7518:	45a0      	cmp	r8, r4
    751a:	d907      	bls.n	752c <__udivmoddi4+0x10c>
    751c:	193c      	adds	r4, r7, r4
    751e:	f100 33ff 	add.w	r3, r0, #4294967295
    7522:	d202      	bcs.n	752a <__udivmoddi4+0x10a>
    7524:	45a0      	cmp	r8, r4
    7526:	f200 80d7 	bhi.w	76d8 <__udivmoddi4+0x2b8>
    752a:	4618      	mov	r0, r3
    752c:	eba4 0408 	sub.w	r4, r4, r8
    7530:	ea40 400c 	orr.w	r0, r0, ip, lsl #16
    7534:	e7c0      	b.n	74b8 <__udivmoddi4+0x98>
    7536:	428b      	cmp	r3, r1
    7538:	d908      	bls.n	754c <__udivmoddi4+0x12c>
    753a:	2e00      	cmp	r6, #0
    753c:	f000 80af 	beq.w	769e <__udivmoddi4+0x27e>
    7540:	2100      	movs	r1, #0
    7542:	e9c6 0500 	strd	r0, r5, [r6]
    7546:	4608      	mov	r0, r1
    7548:	e8bd 87f0 	ldmia.w	sp!, {r4, r5, r6, r7, r8, r9, sl, pc}
    754c:	fab3 f183 	clz	r1, r3
    7550:	2900      	cmp	r1, #0
    7552:	d14b      	bne.n	75ec <__udivmoddi4+0x1cc>
    7554:	42ab      	cmp	r3, r5
    7556:	d302      	bcc.n	755e <__udivmoddi4+0x13e>
    7558:	4282      	cmp	r2, r0
    755a:	f200 80b7 	bhi.w	76cc <__udivmoddi4+0x2ac>
    755e:	1a84      	subs	r4, r0, r2
    7560:	eb65 0303 	sbc.w	r3, r5, r3
    7564:	2001      	movs	r0, #1
    7566:	469e      	mov	lr, r3
    7568:	2e00      	cmp	r6, #0
    756a:	d0aa      	beq.n	74c2 <__udivmoddi4+0xa2>
    756c:	e9c6 4e00 	strd	r4, lr, [r6]
    7570:	e7a7      	b.n	74c2 <__udivmoddi4+0xa2>
    7572:	f1c2 0c20 	rsb	ip, r2, #32
    7576:	fa01 f302 	lsl.w	r3, r1, r2
    757a:	4097      	lsls	r7, r2
    757c:	fa20 f00c 	lsr.w	r0, r0, ip
    7580:	ea4f 4e17 	mov.w	lr, r7, lsr #16
    7584:	fa21 fc0c 	lsr.w	ip, r1, ip
    7588:	4318      	orrs	r0, r3
    758a:	fbbc f1fe 	udiv	r1, ip, lr
    758e:	0c05      	lsrs	r5, r0, #16
    7590:	fb0e cc11 	mls	ip, lr, r1, ip
    7594:	fa1f f887 	uxth.w	r8, r7
    7598:	ea45 450c 	orr.w	r5, r5, ip, lsl #16
    759c:	fb01 f308 	mul.w	r3, r1, r8
    75a0:	42ab      	cmp	r3, r5
    75a2:	fa04 f402 	lsl.w	r4, r4, r2
    75a6:	d909      	bls.n	75bc <__udivmoddi4+0x19c>
    75a8:	197d      	adds	r5, r7, r5
    75aa:	f101 3cff 	add.w	ip, r1, #4294967295
    75ae:	f080 808b 	bcs.w	76c8 <__udivmoddi4+0x2a8>
    75b2:	42ab      	cmp	r3, r5
    75b4:	f240 8088 	bls.w	76c8 <__udivmoddi4+0x2a8>
    75b8:	3902      	subs	r1, #2
    75ba:	443d      	add	r5, r7
    75bc:	1aeb      	subs	r3, r5, r3
    75be:	b285      	uxth	r5, r0
    75c0:	fbb3 f0fe 	udiv	r0, r3, lr
    75c4:	fb0e 3310 	mls	r3, lr, r0, r3
    75c8:	ea45 4503 	orr.w	r5, r5, r3, lsl #16
    75cc:	fb00 f308 	mul.w	r3, r0, r8
    75d0:	42ab      	cmp	r3, r5
    75d2:	d907      	bls.n	75e4 <__udivmoddi4+0x1c4>
    75d4:	197d      	adds	r5, r7, r5
    75d6:	f100 3cff 	add.w	ip, r0, #4294967295
    75da:	d271      	bcs.n	76c0 <__udivmoddi4+0x2a0>
    75dc:	42ab      	cmp	r3, r5
    75de:	d96f      	bls.n	76c0 <__udivmoddi4+0x2a0>
    75e0:	3802      	subs	r0, #2
    75e2:	443d      	add	r5, r7
    75e4:	1aeb      	subs	r3, r5, r3
    75e6:	ea40 4101 	orr.w	r1, r0, r1, lsl #16
    75ea:	e778      	b.n	74de <__udivmoddi4+0xbe>
    75ec:	f1c1 0c20 	rsb	ip, r1, #32
    75f0:	408b      	lsls	r3, r1
    75f2:	fa22 f70c 	lsr.w	r7, r2, ip
    75f6:	431f      	orrs	r7, r3
    75f8:	fa20 f40c 	lsr.w	r4, r0, ip
    75fc:	fa05 f301 	lsl.w	r3, r5, r1
    7600:	ea4f 4e17 	mov.w	lr, r7, lsr #16
    7604:	fa25 f50c 	lsr.w	r5, r5, ip
    7608:	431c      	orrs	r4, r3
    760a:	0c23      	lsrs	r3, r4, #16
    760c:	fbb5 f9fe 	udiv	r9, r5, lr
    7610:	fa1f f887 	uxth.w	r8, r7
    7614:	fb0e 5519 	mls	r5, lr, r9, r5
    7618:	ea43 4505 	orr.w	r5, r3, r5, lsl #16
    761c:	fb09 fa08 	mul.w	sl, r9, r8
    7620:	45aa      	cmp	sl, r5
    7622:	fa02 f201 	lsl.w	r2, r2, r1
    7626:	fa00 f301 	lsl.w	r3, r0, r1
    762a:	d908      	bls.n	763e <__udivmoddi4+0x21e>
    762c:	197d      	adds	r5, r7, r5
    762e:	f109 30ff 	add.w	r0, r9, #4294967295
    7632:	d247      	bcs.n	76c4 <__udivmoddi4+0x2a4>
    7634:	45aa      	cmp	sl, r5
    7636:	d945      	bls.n	76c4 <__udivmoddi4+0x2a4>
    7638:	f1a9 0902 	sub.w	r9, r9, #2
    763c:	443d      	add	r5, r7
    763e:	eba5 050a 	sub.w	r5, r5, sl
    7642:	b2a4      	uxth	r4, r4
    7644:	fbb5 f0fe 	udiv	r0, r5, lr
    7648:	fb0e 5510 	mls	r5, lr, r0, r5
    764c:	ea44 4405 	orr.w	r4, r4, r5, lsl #16
    7650:	fb00 f808 	mul.w	r8, r0, r8
    7654:	45a0      	cmp	r8, r4
    7656:	d907      	bls.n	7668 <__udivmoddi4+0x248>
    7658:	193c      	adds	r4, r7, r4
    765a:	f100 35ff 	add.w	r5, r0, #4294967295
    765e:	d22d      	bcs.n	76bc <__udivmoddi4+0x29c>
    7660:	45a0      	cmp	r8, r4
    7662:	d92b      	bls.n	76bc <__udivmoddi4+0x29c>
    7664:	3802      	subs	r0, #2
    7666:	443c      	add	r4, r7
    7668:	ea40 4009 	orr.w	r0, r0, r9, lsl #16
    766c:	eba4 0408 	sub.w	r4, r4, r8
    7670:	fba0 8902 	umull	r8, r9, r0, r2
    7674:	454c      	cmp	r4, r9
    7676:	46c6      	mov	lr, r8
    7678:	464d      	mov	r5, r9
    767a:	d319      	bcc.n	76b0 <__udivmoddi4+0x290>
    767c:	d016      	beq.n	76ac <__udivmoddi4+0x28c>
    767e:	b15e      	cbz	r6, 7698 <__udivmoddi4+0x278>
    7680:	ebb3 020e 	subs.w	r2, r3, lr
    7684:	eb64 0405 	sbc.w	r4, r4, r5
    7688:	fa04 fc0c 	lsl.w	ip, r4, ip
    768c:	40ca      	lsrs	r2, r1
    768e:	ea4c 0202 	orr.w	r2, ip, r2
    7692:	40cc      	lsrs	r4, r1
    7694:	e9c6 2400 	strd	r2, r4, [r6]
    7698:	2100      	movs	r1, #0
    769a:	e8bd 87f0 	ldmia.w	sp!, {r4, r5, r6, r7, r8, r9, sl, pc}
    769e:	4631      	mov	r1, r6
    76a0:	4630      	mov	r0, r6
    76a2:	e70e      	b.n	74c2 <__udivmoddi4+0xa2>
    76a4:	46ac      	mov	ip, r5
    76a6:	e6ed      	b.n	7484 <__udivmoddi4+0x64>
    76a8:	4618      	mov	r0, r3
    76aa:	e701      	b.n	74b0 <__udivmoddi4+0x90>
    76ac:	4543      	cmp	r3, r8
    76ae:	d2e6      	bcs.n	767e <__udivmoddi4+0x25e>
    76b0:	ebb8 0e02 	subs.w	lr, r8, r2
    76b4:	eb69 0507 	sbc.w	r5, r9, r7
    76b8:	3801      	subs	r0, #1
    76ba:	e7e0      	b.n	767e <__udivmoddi4+0x25e>
    76bc:	4628      	mov	r0, r5
    76be:	e7d3      	b.n	7668 <__udivmoddi4+0x248>
    76c0:	4660      	mov	r0, ip
    76c2:	e78f      	b.n	75e4 <__udivmoddi4+0x1c4>
    76c4:	4681      	mov	r9, r0
    76c6:	e7ba      	b.n	763e <__udivmoddi4+0x21e>
    76c8:	4661      	mov	r1, ip
    76ca:	e777      	b.n	75bc <__udivmoddi4+0x19c>
    76cc:	4608      	mov	r0, r1
    76ce:	e74b      	b.n	7568 <__udivmoddi4+0x148>
    76d0:	f1ac 0c02 	sub.w	ip, ip, #2
    76d4:	443d      	add	r5, r7
    76d6:	e715      	b.n	7504 <__udivmoddi4+0xe4>
    76d8:	3802      	subs	r0, #2
    76da:	443c      	add	r4, r7
    76dc:	e726      	b.n	752c <__udivmoddi4+0x10c>
    76de:	bf00      	nop

000076e0 <__aeabi_idiv0>:
    76e0:	4770      	bx	lr
    76e2:	bf00      	nop

000076e4 <memcpy>:
    76e4:	4684      	mov	ip, r0
    76e6:	ea41 0300 	orr.w	r3, r1, r0
    76ea:	f013 0303 	ands.w	r3, r3, #3
    76ee:	d16d      	bne.n	77cc <memcpy+0xe8>
    76f0:	3a40      	subs	r2, #64	; 0x40
    76f2:	d341      	bcc.n	7778 <memcpy+0x94>
    76f4:	f851 3b04 	ldr.w	r3, [r1], #4
    76f8:	f840 3b04 	str.w	r3, [r0], #4
    76fc:	f851 3b04 	ldr.w	r3, [r1], #4
    7700:	f840 3b04 	str.w	r3, [r0], #4
    7704:	f851 3b04 	ldr.w	r3, [r1], #4
    7708:	f840 3b04 	str.w	r3, [r0], #4
    770c:	f851 3b04 	ldr.w	r3, [r1], #4
    7710:	f840 3b04 	str.w	r3, [r0], #4
    7714:	f851 3b04 	ldr.w	r3, [r1], #4
    7718:	f840 3b04 	str.w	r3, [r0], #4
    771c:	f851 3b04 	ldr.w	r3, [r1], #4
    7720:	f840 3b04 	str.w	r3, [r0], #4
    7724:	f851 3b04 	ldr.w	r3, [r1], #4
    7728:	f840 3b04 	str.w	r3, [r0], #4
    772c:	f851 3b04 	ldr.w	r3, [r1], #4
    7730:	f840 3b04 	str.w	r3, [r0], #4
    7734:	f851 3b04 	ldr.w	r3, [r1], #4
    7738:	f840 3b04 	str.w	r3, [r0], #4
    773c:	f851 3b04 	ldr.w	r3, [r1], #4
    7740:	f840 3b04 	str.w	r3, [r0], #4
    7744:	f851 3b04 	ldr.w	r3, [r1], #4
    7748:	f840 3b04 	str.w	r3, [r0], #4
    774c:	f851 3b04 	ldr.w	r3, [r1], #4
    7750:	f840 3b04 	str.w	r3, [r0], #4
    7754:	f851 3b04 	ldr.w	r3, [r1], #4
    7758:	f840 3b04 	str.w	r3, [r0], #4
    775c:	f851 3b04 	ldr.w	r3, [r1], #4
    7760:	f840 3b04 	str.w	r3, [r0], #4
    7764:	f851 3b04 	ldr.w	r3, [r1], #4
    7768:	f840 3b04 	str.w	r3, [r0], #4
    776c:	f851 3b04 	ldr.w	r3, [r1], #4
    7770:	f840 3b04 	str.w	r3, [r0], #4
    7774:	3a40      	subs	r2, #64	; 0x40
    7776:	d2bd      	bcs.n	76f4 <memcpy+0x10>
    7778:	3230      	adds	r2, #48	; 0x30
    777a:	d311      	bcc.n	77a0 <memcpy+0xbc>
    777c:	f851 3b04 	ldr.w	r3, [r1], #4
    7780:	f840 3b04 	str.w	r3, [r0], #4
    7784:	f851 3b04 	ldr.w	r3, [r1], #4
    7788:	f840 3b04 	str.w	r3, [r0], #4
    778c:	f851 3b04 	ldr.w	r3, [r1], #4
    7790:	f840 3b04 	str.w	r3, [r0], #4
    7794:	f851 3b04 	ldr.w	r3, [r1], #4
    7798:	f840 3b04 	str.w	r3, [r0], #4
    779c:	3a10      	subs	r2, #16
    779e:	d2ed      	bcs.n	777c <memcpy+0x98>
    77a0:	320c      	adds	r2, #12
    77a2:	d305      	bcc.n	77b0 <memcpy+0xcc>
    77a4:	f851 3b04 	ldr.w	r3, [r1], #4
    77a8:	f840 3b04 	str.w	r3, [r0], #4
    77ac:	3a04      	subs	r2, #4
    77ae:	d2f9      	bcs.n	77a4 <memcpy+0xc0>
    77b0:	3204      	adds	r2, #4
    77b2:	d008      	beq.n	77c6 <memcpy+0xe2>
    77b4:	07d2      	lsls	r2, r2, #31
    77b6:	bf1c      	itt	ne
    77b8:	f811 3b01 	ldrbne.w	r3, [r1], #1
    77bc:	f800 3b01 	strbne.w	r3, [r0], #1
    77c0:	d301      	bcc.n	77c6 <memcpy+0xe2>
    77c2:	880b      	ldrh	r3, [r1, #0]
    77c4:	8003      	strh	r3, [r0, #0]
    77c6:	4660      	mov	r0, ip
    77c8:	4770      	bx	lr
    77ca:	bf00      	nop
    77cc:	2a08      	cmp	r2, #8
    77ce:	d313      	bcc.n	77f8 <memcpy+0x114>
    77d0:	078b      	lsls	r3, r1, #30
    77d2:	d08d      	beq.n	76f0 <memcpy+0xc>
    77d4:	f010 0303 	ands.w	r3, r0, #3
    77d8:	d08a      	beq.n	76f0 <memcpy+0xc>
    77da:	f1c3 0304 	rsb	r3, r3, #4
    77de:	1ad2      	subs	r2, r2, r3
    77e0:	07db      	lsls	r3, r3, #31
    77e2:	bf1c      	itt	ne
    77e4:	f811 3b01 	ldrbne.w	r3, [r1], #1
    77e8:	f800 3b01 	strbne.w	r3, [r0], #1
    77ec:	d380      	bcc.n	76f0 <memcpy+0xc>
    77ee:	f831 3b02 	ldrh.w	r3, [r1], #2
    77f2:	f820 3b02 	strh.w	r3, [r0], #2
    77f6:	e77b      	b.n	76f0 <memcpy+0xc>
    77f8:	3a04      	subs	r2, #4
    77fa:	d3d9      	bcc.n	77b0 <memcpy+0xcc>
    77fc:	3a01      	subs	r2, #1
    77fe:	f811 3b01 	ldrb.w	r3, [r1], #1
    7802:	f800 3b01 	strb.w	r3, [r0], #1
    7806:	d2f9      	bcs.n	77fc <memcpy+0x118>
    7808:	780b      	ldrb	r3, [r1, #0]
    780a:	7003      	strb	r3, [r0, #0]
    780c:	784b      	ldrb	r3, [r1, #1]
    780e:	7043      	strb	r3, [r0, #1]
    7810:	788b      	ldrb	r3, [r1, #2]
    7812:	7083      	strb	r3, [r0, #2]
    7814:	4660      	mov	r0, ip
    7816:	4770      	bx	lr

00007818 <memset>:
    7818:	b4f0      	push	{r4, r5, r6, r7}
    781a:	0786      	lsls	r6, r0, #30
    781c:	d046      	beq.n	78ac <memset+0x94>
    781e:	1e54      	subs	r4, r2, #1
    7820:	2a00      	cmp	r2, #0
    7822:	d03c      	beq.n	789e <memset+0x86>
    7824:	b2ca      	uxtb	r2, r1
    7826:	4603      	mov	r3, r0
    7828:	e001      	b.n	782e <memset+0x16>
    782a:	3c01      	subs	r4, #1
    782c:	d337      	bcc.n	789e <memset+0x86>
    782e:	f803 2b01 	strb.w	r2, [r3], #1
    7832:	079d      	lsls	r5, r3, #30
    7834:	d1f9      	bne.n	782a <memset+0x12>
    7836:	2c03      	cmp	r4, #3
    7838:	d92a      	bls.n	7890 <memset+0x78>
    783a:	b2cd      	uxtb	r5, r1
    783c:	ea45 2505 	orr.w	r5, r5, r5, lsl #8
    7840:	2c0f      	cmp	r4, #15
    7842:	ea45 4505 	orr.w	r5, r5, r5, lsl #16
    7846:	d934      	bls.n	78b2 <memset+0x9a>
    7848:	f1a4 0210 	sub.w	r2, r4, #16
    784c:	f022 0c0f 	bic.w	ip, r2, #15
    7850:	f103 0720 	add.w	r7, r3, #32
    7854:	0916      	lsrs	r6, r2, #4
    7856:	4467      	add	r7, ip
    7858:	f103 0210 	add.w	r2, r3, #16
    785c:	e942 5504 	strd	r5, r5, [r2, #-16]
    7860:	e942 5502 	strd	r5, r5, [r2, #-8]
    7864:	3210      	adds	r2, #16
    7866:	42ba      	cmp	r2, r7
    7868:	d1f8      	bne.n	785c <memset+0x44>
    786a:	1c72      	adds	r2, r6, #1
    786c:	f014 0f0c 	tst.w	r4, #12
    7870:	eb03 1202 	add.w	r2, r3, r2, lsl #4
    7874:	f004 060f 	and.w	r6, r4, #15
    7878:	d013      	beq.n	78a2 <memset+0x8a>
    787a:	1f33      	subs	r3, r6, #4
    787c:	f023 0303 	bic.w	r3, r3, #3
    7880:	3304      	adds	r3, #4
    7882:	4413      	add	r3, r2
    7884:	f842 5b04 	str.w	r5, [r2], #4
    7888:	4293      	cmp	r3, r2
    788a:	d1fb      	bne.n	7884 <memset+0x6c>
    788c:	f006 0403 	and.w	r4, r6, #3
    7890:	b12c      	cbz	r4, 789e <memset+0x86>
    7892:	b2ca      	uxtb	r2, r1
    7894:	441c      	add	r4, r3
    7896:	f803 2b01 	strb.w	r2, [r3], #1
    789a:	429c      	cmp	r4, r3
    789c:	d1fb      	bne.n	7896 <memset+0x7e>
    789e:	bcf0      	pop	{r4, r5, r6, r7}
    78a0:	4770      	bx	lr
    78a2:	4634      	mov	r4, r6
    78a4:	4613      	mov	r3, r2
    78a6:	2c00      	cmp	r4, #0
    78a8:	d1f3      	bne.n	7892 <memset+0x7a>
    78aa:	e7f8      	b.n	789e <memset+0x86>
    78ac:	4614      	mov	r4, r2
    78ae:	4603      	mov	r3, r0
    78b0:	e7c1      	b.n	7836 <memset+0x1e>
    78b2:	461a      	mov	r2, r3
    78b4:	4626      	mov	r6, r4
    78b6:	e7e0      	b.n	787a <memset+0x62>
    78b8:	ffff ffff 			; <UNDEFINED> instruction: 0xffffffff
    78bc:	ffff ffff 			; <UNDEFINED> instruction: 0xffffffff

000078c0 <strlen>:
    78c0:	f890 f000 	pld	[r0]
    78c4:	e96d 4502 	strd	r4, r5, [sp, #-8]!
    78c8:	f020 0107 	bic.w	r1, r0, #7
    78cc:	f06f 0c00 	mvn.w	ip, #0
    78d0:	f010 0407 	ands.w	r4, r0, #7
    78d4:	f891 f020 	pld	[r1, #32]
    78d8:	f040 8049 	bne.w	796e <strlen+0xae>
    78dc:	f04f 0400 	mov.w	r4, #0
    78e0:	f06f 0007 	mvn.w	r0, #7
    78e4:	e9d1 2300 	ldrd	r2, r3, [r1]
    78e8:	f891 f040 	pld	[r1, #64]	; 0x40
    78ec:	f100 0008 	add.w	r0, r0, #8
    78f0:	fa82 f24c 	uadd8	r2, r2, ip
    78f4:	faa4 f28c 	sel	r2, r4, ip
    78f8:	fa83 f34c 	uadd8	r3, r3, ip
    78fc:	faa2 f38c 	sel	r3, r2, ip
    7900:	bb4b      	cbnz	r3, 7956 <strlen+0x96>
    7902:	e9d1 2302 	ldrd	r2, r3, [r1, #8]
    7906:	fa82 f24c 	uadd8	r2, r2, ip
    790a:	f100 0008 	add.w	r0, r0, #8
    790e:	faa4 f28c 	sel	r2, r4, ip
    7912:	fa83 f34c 	uadd8	r3, r3, ip
    7916:	faa2 f38c 	sel	r3, r2, ip
    791a:	b9e3      	cbnz	r3, 7956 <strlen+0x96>
    791c:	e9d1 2304 	ldrd	r2, r3, [r1, #16]
    7920:	fa82 f24c 	uadd8	r2, r2, ip
    7924:	f100 0008 	add.w	r0, r0, #8
    7928:	faa4 f28c 	sel	r2, r4, ip
    792c:	fa83 f34c 	uadd8	r3, r3, ip
    7930:	faa2 f38c 	sel	r3, r2, ip
    7934:	b97b      	cbnz	r3, 7956 <strlen+0x96>
    7936:	e9d1 2306 	ldrd	r2, r3, [r1, #24]
    793a:	f101 0120 	add.w	r1, r1, #32
    793e:	fa82 f24c 	uadd8	r2, r2, ip
    7942:	f100 0008 	add.w	r0, r0, #8
    7946:	faa4 f28c 	sel	r2, r4, ip
    794a:	fa83 f34c 	uadd8	r3, r3, ip
    794e:	faa2 f38c 	sel	r3, r2, ip
    7952:	2b00      	cmp	r3, #0
    7954:	d0c6      	beq.n	78e4 <strlen+0x24>
    7956:	2a00      	cmp	r2, #0
    7958:	bf04      	itt	eq
    795a:	3004      	addeq	r0, #4
    795c:	461a      	moveq	r2, r3
    795e:	ba12      	rev	r2, r2
    7960:	fab2 f282 	clz	r2, r2
    7964:	e8fd 4502 	ldrd	r4, r5, [sp], #8
    7968:	eb00 00d2 	add.w	r0, r0, r2, lsr #3
    796c:	4770      	bx	lr
    796e:	e9d1 2300 	ldrd	r2, r3, [r1]
    7972:	f004 0503 	and.w	r5, r4, #3
    7976:	f1c4 0000 	rsb	r0, r4, #0
    797a:	ea4f 05c5 	mov.w	r5, r5, lsl #3
    797e:	f014 0f04 	tst.w	r4, #4
    7982:	f891 f040 	pld	[r1, #64]	; 0x40
    7986:	fa0c f505 	lsl.w	r5, ip, r5
    798a:	ea62 0205 	orn	r2, r2, r5
    798e:	bf1c      	itt	ne
    7990:	ea63 0305 	ornne	r3, r3, r5
    7994:	4662      	movne	r2, ip
    7996:	f04f 0400 	mov.w	r4, #0
    799a:	e7a9      	b.n	78f0 <strlen+0x30>
    799c:	ffff ffff 			; <UNDEFINED> instruction: 0xffffffff

000079a0 <__ZIGBEE_MODEM_IRQHandler_veneer>:
    79a0:	f85f f000 	ldr.w	pc, [pc]	; 79a4 <__ZIGBEE_MODEM_IRQHandler_veneer+0x4>
    79a4:	03000151 	.word	0x03000151

000079a8 <__ZIGBEE_MAC_IRQHandler_veneer>:
    79a8:	f85f f000 	ldr.w	pc, [pc]	; 79ac <__ZIGBEE_MAC_IRQHandler_veneer+0x4>
    79ac:	03006b65 	.word	0x03006b65
    79b0:	75420a0d 	.word	0x75420a0d
    79b4:	6e6f7474 	.word	0x6e6f7474
    79b8:	776f4420 	.word	0x776f4420
    79bc:	754e206e 	.word	0x754e206e
    79c0:	7265626d 	.word	0x7265626d
    79c4:	6425203d 	.word	0x6425203d
    79c8:	440a0d00 	.word	0x440a0d00
    79cc:	53204f49 	.word	0x53204f49
    79d0:	65746174 	.word	0x65746174
    79d4:	20202020 	.word	0x20202020
    79d8:	3025203d 	.word	0x3025203d
    79dc:	0d007838 	.word	0x0d007838
    79e0:	6172540a 	.word	0x6172540a
    79e4:	7469736e 	.word	0x7469736e
    79e8:	206e6f69 	.word	0x206e6f69
    79ec:	65646f43 	.word	0x65646f43
    79f0:	25203d20 	.word	0x25203d20
    79f4:	0a0d0064 	.word	0x0a0d0064
    79f8:	74747542 	.word	0x74747542
    79fc:	55206e6f 	.word	0x55206e6f
    7a00:	754e2070 	.word	0x754e2070
    7a04:	7265626d 	.word	0x7265626d
    7a08:	6425203d 	.word	0x6425203d
	...

00007a0d <CSWTCH.5>:
    7a0d:	0e10100d 200a0d0f 6e655376 43414d64     ....... vSendMAC
    7a1d:	6d617246 68632065 656e6e61 203d206c     Frame channel = 
    7a2d:	20206425 200a0d00 43785262 6c706d6f     %d  ... bRxCompl
    7a3d:	20657465 61487620 656c646e 614d7852     ete  vHandleRxMa
    7a4d:	61724663 0020656d 4d200a0d 72204341     cFrame ... MAC r
    7a5d:	69656365 54206576 72656d69 70784520     eceive Timer Exp
    7a6d:	64657269 0a0d0020 6e655376 63654464     ired ...vSendDec
    7a7d:	696d6d6f 6f697373 43676e69 2928646d     ommissioingCmd()
    7a8d:	203e2d20 6e655376 43414d64 6d617246      -> vSendMACFram
    7a9d:	52542865 00294555 20200a20 656c4376     e(TRUE). .  vCle
    7aad:	65507261 73697372 746e6574 61746144     arPersistentData
    7abd:	c1c00020 c5c4c3c2 c9c8c7c6 cdcccbca      ...............
    7acd:	2000cfce 5720200a 69746972 6420676e     ... .  Writing d
    7add:	75616665 7620746c 65756c61 6f742073     efault values to
    7aed:	72657020 74736973 20746e65 6425203d      persistent = %d
    7afd:	200a0d00 646e6553 20676e69 7265706f     ... Sending oper
    7b0d:	6f697461 206c616e 6d6d6f63 20646e61     ational command 
    7b1d:	0a0d0020 6e456220 70797263 63654474      ... bEncryptDec
    7b2d:	4b747079 20207965 200a0d00 49434162     yptKey  ... bACI
    7b3d:	6972575f 654b6574 61662079 64656c69     _WriteKey failed
    7b4d:	5a002020 65426769 6c6c4165 636e6169       .ZigBeeAllianc
    7b5d:	00393065 76200a0d 646e6148 7852656c     e09... vHandleRx
    7b6d:	4663614d 656d6172 475f4520 435f4450     MacFrame E_GPD_C
    7b7d:	5f4d4d4f 4c504552 4d435f59 0d002044     OMM_REPLY_CMD ..
    7b8d:	4150200a 44495f4e 5449425f 444e495f     . PAN_ID_BIT_IND
    7b9d:	435f5845 5f4d4d4f 59504552 30203d20     EX_COMM_REPY = 0
    7bad:	78342578 0a0d0020 73496220 696c6156     x%4x ... bIsVali
    7bbd:	61724664 3d20656d 20642520 0a0d0020     dFrame = %d  ...
    7bcd:	69725020 6e69746e 654b2067 202c2079      Printing Key , 
    7bdd:	2079656b 65707974 25203d20 00202064     key type = %d  .
    7bed:	50200a0d 746e6972 20676e69 2079654b     .. Printing Key 
    7bfd:	646e6573 206e6920 61656c63 202c2072     send in clear , 
    7c0d:	2079656b 65707974 25203d20 00202064     key type = %d  .
    7c1d:	45200a0d 4450475f 4148435f 4c454e4e     .. E_GPD_CHANNEL
    7c2d:	4e4f435f 5f474946 20444d43 2064253d     _CONFIG_CMD =%d 
    7c3d:	68433875 656e6e61 203d206c 73206425     u8Channel = %d s
    7c4d:	65636552 64657669 61746144 3875702e     ReceivedData.pu8
    7c5d:	50646d43 6f6c7961 305b6461 3d20205d     CmdPayload[0]  =
    7c6d:	00642520 6f200a0d 61726570 6e6f6974      %d... operation
    7c7d:	63206c61 6e6e6168 3d206c65 20206425     al channel =%d  
    7c8d:	760a0d00 646e6148 7852656c 4663614d     ...vHandleRxMacF
    7c9d:	656d6172 6e75202c 776f6e6b 6f63206e     rame, unknown co
    7cad:	6e616d6d 203d2064 78257830 0a0d0020     mmand = 0x%x ...
    7cbd:	6e614820 52656c64 63614d78 6d617246      HandleRxMacFram
    7ccd:	61502c65 6e697372 61462067 64656c69     e,Parsing Failed
    7cdd:	0d002020 6553760a 6843646e 656e6e61       ...vSendChanne
    7ced:	7165526c 74736575 28646d43 3e2d2029     lRequestCmd() ->
    7cfd:	65537620 414d646e 61724643 4628656d      vSendMACFrame(F
    7d0d:	45534c41 0a0d0029 6e655376 6d6f4364     ALSE)...vSendCom
    7d1d:	7373696d 696e6f69 6d43676e 29612864     missioningCmd(a)
    7d2d:	203e2d20 6e655376 43414d64 6d617246      -> vSendMACFram
    7d3d:	52542865 00294555 53760a0d 47646e65     e(TRUE)...vSendG
    7d4d:	75534450 73656363 646d4373 2d202928     PDSuccessCmd() -
    7d5d:	5376203e 4d646e65 72464341 28656d61     > vSendMACFrame(
    7d6d:	45555254 0a0d0029 6e614820 47656c64     TRUE)... HandleG
    7d7d:	74534450 4d657461 69686361 0020656e     PDStateMachine .

00007d8d <au8ChannelList>:
    7d8d:	19140f0b 100e0d0c 15131211 0d181716     ................
    7d9d:	7250200a 69746e69 6e20676e 65636e6f     . Printing nonce
    7dad:	78300020 20207825 200a0d00 6c615662      .0x%x  ... bVal
    7dbd:	3d3d6469 20642520 200a0d00 636e4562     id== %d ... bEnc
    7dcd:	74707972 25203d3d 75202c64 654c6138     rypt== %d, u8aLe
    7ddd:	203d206e 2c206425 6e654c6d 25203d20     n = %d ,mLen = %
    7ded:	0d002064 7250200a 69746e69 7020676e     d ... Printing p
    7dfd:	61387561 65687475 6369746e 6f697461     au8authenticatio
    7e0d:	7461446e 0d002061 7250200a 69746e69     nData ... Printi
    7e1d:	6120676e 636e4575 74707972 754f6465     ng auEncryptedOu
    7e2d:	74757074 0a0d0020 69725020 6e69746e     tput ... Printin
    7e3d:	61752067 65684338 75536b63 0d00206d     g ua8CheckSum ..
    7e4d:	5047200a 45535f44 49525543 4c5f5954     . GPD_SECURITY_L
    7e5d:	4c455645 73696d20 6374616d 38752068     EVEL mismatch u8
    7e6d:	65636552 64657669 75636553 79746972     ReceivedSecurity
    7e7d:	6576654c 64253d6c 0a0d0020 44504720     Level=%d ... GPD
    7e8d:	554f535f 5f454352 6d204449 616d7369     _SOURCE_ID misma
    7e9d:	2c686374 32337520 76636552 44504764     tch, u32RecvdGPD
    7ead:	3d206449 6c382520 47202c78 535f4450     Id = %8lx, GPD_S
    7ebd:	4352554f 44495f45 25203d20 20786c38     OURCE_ID = %8lx 
    7ecd:	0a0d0020 32337520 76636552 61724664      ... u32RecvdFra
    7edd:	6f43656d 65746e75 696d2072 74616d73     meCounter mismat
    7eed:	75206863 65523233 46647663 656d6172     ch u32RecvdFrame
    7efd:	6e756f43 20726574 7830203d 6c323325     Counter = 0x%32l
    7f0d:	73202c78 20666c65 7830203d 6c323325     x, self = 0x%32l
    7f1d:	0d002078 2020200a 52323375 64766365     x ...   u32Recvd
    7f2d:	6d617246 756f4365 7265746e 30203d20     FrameCounter = 0
    7f3d:	32332578 202c786c 666c6573 30203d20     x%32lx, self = 0
    7f4d:	32332578 0020786c 44200a0d 79726365     x%32lx ... Decry
    7f5d:	6f697470 202f206e 2043494d 6620666f     ption / MIC of f
    7f6d:	656d6172 69616620 0064656c 62200a0d     rame failed... b
    7f7d:	5f445047 75636553 72466572 20656d61     GPD_SecureFrame 
    7f8d:	75746572 64656e72 75727420 2c202065     returned true  ,
    7f9d:	6c796170 4c64616f 74676e65 253d2068     payloadLength =%
    7fad:	0a0d0064 766e4920 64696c61 44504720     d... Invalid GPD
    7fbd:	61726620 0020656d 50470a0d 65535f44      frame ...GPD_Se
    7fcd:	7053646e 66696365 6f436369 6e616d6d     ndSpecificComman
    7fdd:	64252864 3e2d2029 65537620 414d646e     d(%d) -> vSendMA
    7fed:	61724643 5428656d 29455552 470a0d00     CFrame(TRUE)...G
    7ffd:	535f4450 4f646e65 61726570 6e6f6974     PD_SendOperation
    800d:	6f436c61 6e616d6d 20292864 76203e2d     alCommand() -> v
    801d:	646e6553 4643414d 656d6172 55525428     SendMACFrame(TRU
    802d:	47002945 20544e49 69502030 6e49206e     E).GINT 0 Pin In
    803d:	72726574 20747075 6e657665 65642074     terrupt event de
    804d:	74636574 25206465 000d0d78 20200a0d     tected %x.....  
    805d:	65766572 64657472 6425203d 7270202c     reverted= %d, pr
    806d:	6f697665 3d207375 00642520 43200a0d     evious = %d... C
    807d:	696d6d6f 6f697373 676e696e 0a0d0020     ommissioning ...
    808d:	5f4e4f20 53455250 20444553 646e6148      ON_PRESSED Hand
    809d:	5047656c 61745344 614d6574 6e696863     leGPDStateMachin
    80ad:	0d002065 5041200a 5f455f50 54545542     e ... APP_E_BUTT
    80bd:	5f534e4f 54545542 535f4e4f 00203257     ONS_BUTTON_SW2 .
    80cd:	41200a0d 455f5050 5455425f 534e4f54     .. APP_E_BUTTONS
    80dd:	5455425f 5f4e4f54 20335753 200a0d00     _BUTTON_SW3 ... 
    80ed:	415f5055 4f5f444e 4f545f4e 48544547     UP_AND_ON_TOGETH
    80fd:	505f5245 53534552 3d204445 2c642520     ER_PRESSED = %d,
    810d:	65727020 756f6976 203d2073 42006425      previous = %d.B
    811d:	6f747475 4e44206e 0d64253d 74754200     utton DN=%d..But
    812d:	206e6f74 253d5055 41000d69 55204c4c     ton UP=%i..ALL U
    813d:	                                         P..

00008140 <s_u8ButtonDIOLine>:
    8140:	070f1301 4c554e04 3d21204c 00686320     .....NULL != ch.
    8150:	2e2f2e2e 2e2e2f2e 2f2e2e2f 532f2e2e     ../../../../../S
    8160:	61504b44 67616b63 4b2f7365 30573233     DKPackages/K32W0
    8170:	4b443136 65642f36 65636976 334b2f73     61DK6/devices/K3
    8180:	36305732 74752f31 74696c69 2f736569     2W061/utilities/
    8190:	75626564 6f635f67 6c6f736e 73662f65     debug_console/fs
    81a0:	65645f6c 5f677562 736e6f63 2e656c6f     l_debug_console.
    81b0:	20300063 73203d21 00657a69 6174536b     c.0 != size.kSta
    81c0:	5f737574 69726553 614d6c61 6567616e     tus_SerialManage
    81d0:	75535f72 73656363 3d3d2073 61747320     r_Success == sta
    81e0:	00737574                                tus.

000081e4 <__func__.6677>:
    81e4:	43676244 6f736e6f 535f656c 44646e65     DbgConsole_SendD
    81f4:	52617461 61696c65 00656c62              ataReliable.

00008200 <__func__.6711>:
    8200:	43676244 6f736e6f 495f656c 0074696e     DbgConsole_Init.
    8210:	74736e69 65636e61 41203c20 59415252     instance < ARRAY
    8220:	5a49535f 5f732845 746e6967 65736142     _SIZE(s_gintBase
    8230:	2e002973 2e2e2f2e 2f2e2e2f 2e2f2e2e     s).../../../../.
    8240:	44532f2e 6361504b 6567616b 334b2f73     ./SDKPackages/K3
    8250:	36305732 364b4431 7665642f 73656369     2W061DK6/devices
    8260:	32334b2f 31363057 6972642f 73726576     /K32W061/drivers
    8270:	6c73662f 6e69675f 00632e74              /fsl_gint.c.

0000827c <__func__.6582>:
    827c:	544e4947 7465475f 74736e49 65636e61     GINT_GetInstance
    828c:	ffffff00                                ....

00008290 <BOARD_Clock32MCapacitanceCharacteristics>:
    8290:	00000258 00000014 00000028 6e69616d     X.......(...main
    82a0:	7361745f                                 _task.

000082a6 <gUseRtos_c>:
    82a6:	736e6900 636e6174 203c2065 74647777     .instance < wwdt
    82b6:	61727241 756f4379 2e00746e 2e2e2f2e     ArrayCount.../..
    82c6:	2f2e2e2f 2e2f2e2e 44532f2e 6361504b     /../../../SDKPac
    82d6:	6567616b 334b2f73 36305732 364b4431     kages/K32W061DK6
    82e6:	7665642f 73656369 32334b2f 31363057     /devices/K32W061
    82f6:	6972642f 73726576 6c73662f 6477775f     /drivers/fsl_wwd
    8306:	00632e74                                t.c.

0000830a <__func__.6581>:
    830a:	54445757 7465475f 74736e49 65636e61     WWDT_GetInstance
    831a:	4c554e00 3d21204c 6f6c6320 32336b63     .NULL != clock32
    832a:	7061434d 61684361 73636172 2f2e2e00     MCapaCharacs.../
    833a:	2e2f2e2e 2e2e2f2e 2f2e2e2f 504b4453     ../../../../SDKP
    834a:	616b6361 2f736567 5732334b 44313630     ackages/K32W061D
    835a:	642f364b 63697665 4b2f7365 30573233     K6/devices/K32W0
    836a:	642f3136 65766972 662f7372 635f6c73     61/drivers/fsl_c
    837a:	6b636f6c                                 lock.c.

00008381 <__func__.6855>:
    8381:	434f4c43 74585f4b 61426c61 54636973     CLOCK_XtalBasicT
    8391:	006d6972 50746962 3c20736f 75323320     rim.bitPos < 32u
    83a1:	2f2e2e00 2e2f2e2e 2e2e2f2e 2f2e2e2f     .../../../../../
    83b1:	504b4453 616b6361 2f736567 5732334b     SDKPackages/K32W
    83c1:	44313630 642f364b 63697665 4b2f7365     061DK6/devices/K
    83d1:	30573233 642f3136 65766972 662f7372     32W061/drivers/f
    83e1:	725f6c73 74657365                        sl_reset.c.

000083ec <__func__.6619>:
    83ec:	45534552 65535f54 72655074 65687069     RESET_SetPeriphe
    83fc:	526c6172 74657365                        ralReset.

00008405 <__func__.6632>:
    8405:	45534552 6c435f54 50726165 70697265     RESET_ClearPerip
    8415:	61726568 7365526c 66007465 65736c61     heralReset.false
    8425:	2f2e2e00 2e2f2e2e 2e2e2f2e 2f2e2e2f     .../../../../../
    8435:	504b4453 616b6361 2f736567 5732334b     SDKPackages/K32W
    8445:	44313630 642f364b 63697665 4b2f7365     061DK6/devices/K
    8455:	30573233 642f3136 65766972 662f7372     32W061/drivers/f
    8465:	755f6c73 74726173 4e00632e 204c4c55     sl_usart.c.NULL 
    8475:	63203d21 69666e6f 28210067 4c554e28     != config.!((NUL
    8485:	3d3d204c 73616220 7c202965 3028207c     L == base) || (0
    8495:	203d3d20 64756162 65746172 7370425f      == baudrate_Bps
    84a5:	7c7c2029 20302820 73203d3d 6c436372     ) || (0 == srcCl
    84b5:	5f6b636f 29297a48 28282100 4c4c554e     ock_Hz)).!((NULL
    84c5:	203d3d20 65736162 7c7c2029 554e2820      == base) || (NU
    84d5:	3d204c4c 6f63203d 6769666e 7c7c2029     LL == config) ||
    84e5:	20302820 73203d3d 6c436372 5f6b636f      (0 == srcClock_
    84f5:	29297a48 28282100 4c4c554e 203d3d20     Hz)).!((NULL == 
    8505:	65736162 7c7c2029 554e2820 3d204c4c     base) || (NULL =
    8515:	6164203d 29296174                        = data)).

0000851e <__func__.6801>:
    851e:	52415355 6e495f54                        USART_Init.

00008529 <__func__.6812>:
    8529:	52415355 65475f54 66654474 746c7561     USART_GetDefault
    8539:	666e6f43                                 Config.

00008540 <__func__.6825>:
    8540:	52415355 65535f54 75614274 74615264     USART_SetBaudRat
    8550:	                                         e.

00008552 <__func__.6835>:
    8552:	52415355 72575f54 42657469 6b636f6c     USART_WriteBlock
    8562:	00676e69 2e2f2e2e 2e2e2f2e 2f2e2e2f     ing.../../../../
    8572:	532f2e2e 61504b44 67616b63 4b2f7365     ../SDKPackages/K
    8582:	30573233 4b443136 65642f36 65636976     32W061DK6/device
    8592:	334b2f73 36305732 72642f31 72657669     s/K32W061/driver
    85a2:	73662f73 6c665f6c 6f637865 632e6d6d     s/fsl_flexcomm.c
    85b2:	665f7300 6378656c 496d6d6f 61487172     .s_flexcommIrqHa
    85c2:	656c646e 5d305b72 665f7300 6378656c     ndler[0].s_flexc
    85d2:	496d6d6f 61487172 656c646e 5d315b72     ommIrqHandler[1]
    85e2:	665f7300 6378656c 496d6d6f 61487172     .s_flexcommIrqHa
    85f2:	656c646e 5d325b72 665f7300 6378656c     ndler[2].s_flexc
    8602:	496d6d6f 61487172 656c646e 5d335b72     ommIrqHandler[3]
    8612:	665f7300 6378656c 496d6d6f 61487172     .s_flexcommIrqHa
    8622:	656c646e 5d345b72 665f7300 6378656c     ndler[4].s_flexc
    8632:	496d6d6f 61487172 656c646e 5d355b72     ommIrqHandler[5]
    8642:	665f7300 6378656c 496d6d6f 61487172     .s_flexcommIrqHa
    8652:	656c646e 5d365b72                        ndler[6].

0000865b <__func__.6566>:
    865b:	58454c46 4d4d4f43 7465475f 74736e49     FLEXCOMM_GetInst
    866b:	65636e61                                 ance.

00008670 <__func__.6586>:
    8670:	58454c46 4d4d4f43 72445f30 72657669     FLEXCOMM0_Driver
    8680:	48515249 6c646e61                        IRQHandler.

0000868b <__func__.6590>:
    868b:	58454c46 4d4d4f43 72445f31 72657669     FLEXCOMM1_Driver
    869b:	48515249 6c646e61                        IRQHandler.

000086a6 <__func__.6594>:
    86a6:	58454c46 4d4d4f43 72445f32 72657669     FLEXCOMM2_Driver
    86b6:	48515249 6c646e61                        IRQHandler.

000086c1 <__func__.6598>:
    86c1:	58454c46 4d4d4f43 72445f33 72657669     FLEXCOMM3_Driver
    86d1:	48515249 6c646e61                        IRQHandler.

000086dc <__func__.6602>:
    86dc:	58454c46 4d4d4f43 72445f34 72657669     FLEXCOMM4_Driver
    86ec:	48515249 6c646e61                        IRQHandler.

000086f7 <__func__.6606>:
    86f7:	58454c46 4d4d4f43 72445f35 72657669     FLEXCOMM5_Driver
    8707:	48515249 6c646e61                        IRQHandler.

00008712 <__func__.6610>:
    8712:	58454c46 4d4d4f43 72445f36 72657669     FLEXCOMM6_Driver
    8722:	48515249 6c646e61 ff007265               IRQHandler....

00008730 <s_flexcommBaseAddrs>:
    8730:	4008b000 4008c000 40003000 40004000     ...@...@.0.@.@.@
    8740:	4008d000 4008e000 40005000              ...@...@.P.@

0000874c <s_flexcommClocks>:
    874c:	0000010b 0000010c 0000010d 0000010e     ................
    875c:	0000010f 00000110 00000114              ............

00008768 <lowpower_ldovoltage_reset>:
    8768:	13181318 05060505 ffffff01              ............

00008774 <timer_param>:
    8774:	00000001 00000004 00000004 00000001     ................
    8784:	00000001 40000a24 40000a28 40000a30     ....$..@(..@0..@
    8794:	00000000 00000030 00000002 00000008     ....0...........
    87a4:	00000008 00000002 00000002 40000a2c     ............,..@
    87b4:	00000000 40000a38 00000000 00000031     ....8..@....1...
    87c4:	73200a0d 6b636174 6d756420 0a0d3a70     .. stack dump:..
    87d4:	25783000 30202078 20782578 42000a0d     .0x%x  0x%x ...B
    87e4:	535f4342 54535f4d 20455441 30347830     BC_SM_STATE 0x40
    87f4:	30316230 3d206337 25783020 000a0d78     0b107c = 0x%x...
    8804:	5f434242 54435854 2020204c 34783020     BBC_TXCTL    0x4
    8814:	31623030 20306331 7830203d 0a0d7825     00b11c0 = 0x%x..
    8824:	43424200 4358525f 20204c54 78302020     .BBC_RXCTL    0x
    8834:	62303034 30633231 30203d20 0d782578     400b12c0 = 0x%x.
    8844:	4850000a 434d5f59 204c5254 30202020     ..PHY_MCTRL    0
    8854:	30303478 31303062 203d2038 78257830     x400b0018 = 0x%x
    8864:	41000a0d 203a5050 63746157 676f6468     ...APP: Watchdog
    8874:	6c616820 20646574 69766564 21206563      halted device !
    8884:	0d31000a 0d30000a 4552000a 59535f47     ..1...0...REG_SY
    8894:	4d455453 4e41485f 52454c44 544e435f     STEM_HANDLER_CNT
    88a4:	535f4c52 45544154 75614620 4520746c     RL_STATE Fault E
    88b4:	6c62616e 6e492065 61636964 73726f74     nable Indicators
    88c4:	4d000a0d 41464d45 45544c55 203a204e     ...MEMFAULTEN : 
    88d4:	53554200 4c554146 204e4554 5500203a     .BUSFAULTEN : .U
    88e4:	41464753 45544c55 203a204e 47455200     SGFAULTEN : .REG
    88f4:	5359535f 5f4d4554 444e4148 5f52454c     _SYSTEM_HANDLER_
    8904:	52544e43 54535f4c 20455441 6c756146     CNTRL_STATE Faul
    8914:	63412074 65766974 646e4920 74616369     t Active Indicat
    8924:	0d73726f 454d000a 5541464d 4341544c     ors...MEMFAULTAC
    8934:	203a2054 53554200 4c554146 54434154     T : .BUSFAULTACT
    8944:	00203a20 46475355 544c5541 20544341      : .USGFAULTACT 
    8954:	5200203a 535f4745 45545359 41485f4d     : .REG_SYSTEM_HA
    8964:	454c444e 4e435f52 5f4c5254 54415453     NDLER_CNTRL_STAT
    8974:	61462045 20746c75 646e6550 49206465     E Fault Pended I
    8984:	6369646e 726f7461 000a0d73 464d454d     ndicators...MEMF
    8994:	544c5541 444e4550 3a204445 55420020     AULTPENDED : .BU
    89a4:	55414653 4550544c 4445444e 00203a20     SFAULTPENDED : .
    89b4:	46475355 544c5541 444e4550 3a204445     USGFAULTPENDED :
    89c4:	654d0020 6e614d6d 20656761 6c756146      .MemManage Faul
    89d4:	74532074 73757461 67655220 65747369     t Status Registe
    89e4:	000a0d72 43434149 4c4f4956 00203a20     r...IACCVIOL : .
    89f4:	43434144 4c4f4956 00203a20 534e554d     DACCVIOL : .MUNS
    8a04:	52454b54 203a2052 54534d00 5252454b     TKERR : .MSTKERR
    8a14:	00203a20 52414d4d 494c4156 203a2044      : .MMARVALID : 
    8a24:	73754200 6c756146 74532074 73757461     .BusFault Status
    8a34:	67655220 65747369 000a0d72 53554249      Register...IBUS
    8a44:	20525245 4900203a 4552504d 45534943     ERR : .IMPRECISE
    8a54:	3a205252 46420020 41565241 2044494c     RR : .BFARVALID 
    8a64:	5500203a 65676173 6c756146 74532074     : .UsageFault St
    8a74:	73757461 67655220 65747369 000a0d72     atus Register...
    8a84:	45444e55 534e4946 3a205254 4e490020     UNDEFINSTR : .IN
    8a94:	41545356 3a204554 4e490020 20435056     VSTATE : .INVPC 
    8aa4:	4e00203a 2050434f 5500203a 494c414e     : .NOCP : .UNALI
    8ab4:	44454e47 00203a20 42564944 52455a59     GNED : .DIVBYZER
    8ac4:	203a204f 200a0d00 2a2a2a2a 73754220     O : ... **** Bus
    8ad4:	75614620 4820746c 6c646e61 2a207265      Fault Handler *
    8ae4:	202a2a2a 0d000a0d 2a2a200a 53202a2a     *** ..... **** S
    8af4:	6b636174 67655220 65747369 75442072     tack Register Du
    8b04:	2a20706d 202a2a2a 52000a0d 203d2030     mp **** ...R0 = 
    8b14:	52007830 203d2031 52007830 203d2032     0x.R1 = 0x.R2 = 
    8b24:	52007830 203d2033 52007830 3d203231     0x.R3 = 0x.R12 =
    8b34:	00783020 5b20524c 5d343152 30203d20      0x.LR [R14] = 0
    8b44:	5b200078 72627553 6974756f 4320656e     x. [Subroutine C
    8b54:	206c6c61 75746552 41206e72 65726464     all Return Addre
    8b64:	0d5d7373 4350000a 31525b20 3d205d35     ss]...PC [R15] =
    8b74:	00783020 72505b20 6172676f 6f63206d      0x. [Program co
    8b84:	65746e75 0a0d5d72 52535000 30203d20     unter]...PSR = 0
    8b94:	45520078 59535f47 4d455453 4e41485f     x.REG_SYSTEM_HAN
    8ba4:	52454c44 544e435f 535f4c52 45544154     DLER_CNTRL_STATE
    8bb4:	30203d20 45520078 59535f47 4d455453      = 0x.REG_SYSTEM
    8bc4:	4e41485f 52454c44 544e435f 535f4c52     _HANDLER_CNTRL_S
    8bd4:	45544154 67655220 65747369 65442072     TATE Register De
    8be4:	6c696174 000a0d73 5f474552 46535542     tails...REG_BUSF
    8bf4:	544c5541 4444415f 53534552 30203d20     AULT_ADDRESS = 0
    8c04:	45520078 4f435f47 4749464e 42415255     x.REG_CONFIGURAB
    8c14:	465f454c 544c5541 4154535f 20535554     LE_FAULT_STATUS 
    8c24:	7830203d 47455200 4e4f435f 55474946     = 0x.REG_CONFIGU
    8c34:	4c424152 41465f45 5f544c55 54415453     RABLE_FAULT_STAT
    8c44:	52205355 73696765 20726574 61746544     US Register Deta
    8c54:	0d736c69 0a0d000a 2a2a2a20 7355202a     ils..... **** Us
    8c64:	20656761 6c756146 61482074 656c646e     age Fault Handle
    8c74:	2a2a2072 0d202a2a 0a0d000a 2a2a2a20     r **** ..... ***
    8c84:	654d202a 79726f6d 75614620 4820746c     * Memory Fault H
    8c94:	6c646e61 2a207265 202a2a2a 52000a0d     andler **** ...R
    8ca4:	4d5f4745 414d4d45 4547414e 5541465f     EG_MEMMANAGE_FAU
    8cb4:	415f544c 45524444 3d205353 00783020     LT_ADDRESS = 0x.
    8cc4:	64726148 6c756146 74532074 73757461     HardFault Status
    8cd4:	67655220 65747369 000a0d72 54434556      Register...VECT
    8ce4:	204c4254 4600203a 4543524f 203a2044     TBL : .FORCED : 
    8cf4:	42454400 56454755 203a2054 200a0d00     .DEBUGEVT : ... 
    8d04:	2a2a2a2a 72614820 61462064 20746c75     **** Hard Fault 
    8d14:	646e6148 2072656c 2a2a2a2a 000a0d20     Handler **** ...
    8d24:	5f474552 44524148 4c554146 54535f54     REG_HARDFAULT_ST
    8d34:	53555441 30203d20 45520078 41485f47     ATUS = 0x.REG_HA
    8d44:	41464452 5f544c55 54415453 52205355     RDFAULT_STATUS R
    8d54:	73696765 20726574 61746544 0d736c69     egister Details.
    8d64:	4552000a 45445f47 5f475542 4c554146     ..REG_DEBUG_FAUL
    8d74:	54535f54 53555441 30203d20 45520078     T_STATUS = 0x.RE
    8d84:	55415f47 494c4958 5f595241 4c554146     G_AUXILIARY_FAUL
    8d94:	54535f54 53555441 30203d20 ffff0078     T_STATUS = 0x...

00008da4 <s_ctimerBases>:
    8da4:	40021000 40022000 74736e69 65636e61     ...@. .@instance
    8db4:	41203c20 59415252 5a49535f 5f732845      < ARRAY_SIZE(s_
    8dc4:	42616d64 73657361 2e2e0029 2f2e2e2f     dmaBases).../../
    8dd4:	2e2f2e2e 2e2e2f2e 4b44532f 6b636150     ../../../SDKPack
    8de4:	73656761 32334b2f 31363057 2f364b44     ages/K32W061DK6/
    8df4:	69766564 2f736563 5732334b 2f313630     devices/K32W061/
    8e04:	76697264 2f737265 5f6c7366 2e616d64     drivers/fsl_dma.
    8e14:	                                         c.

00008e16 <__func__.6813>:
    8e16:	5f414d44 49746547 6174736e 0065636e     DMA_GetInstance.
    8e26:	2e2f2e2e 2e2e2f2e 2f2e2e2f 532f2e2e     ../../../../../S
    8e36:	61504b44 67616b63 4b2f7365 30573233     DKPackages/K32W0
    8e46:	4b443136 6f632f36 6e6f706d 73746e65     61DK6/components
    8e56:	7265732f 5f6c6169 616e616d 2f726567     /serial_manager/
    8e66:	69726573 6d5f6c61 67616e61 632e7265     serial_manager.c
    8e76:	72657300 486c6169 6c646e61 72770065     .serialHandle.wr
    8e86:	48657469 6c646e61 61680065 656c646e     iteHandle.handle
    8e96:	61657200 6e614864 00656c64 66667562     .readHandle.buff
    8ea6:	6c007265 74676e65                        er.length.

00008eb0 <__func__.6652>:
    8eb0:	69726553 614d6c61 6567616e 72575f72     SerialManager_Wr
    8ec0:	00657469                                ite.

00008ec4 <__func__.6667>:
    8ec4:	69726553 614d6c61 6567616e 6e495f72     SerialManager_In
    8ed4:	                                         it.

00008ed7 <__func__.6687>:
    8ed7:	69726553 614d6c61 6567616e 704f5f72     SerialManager_Op
    8ee7:	72576e65 48657469 6c646e61               enWriteHandle.

00008ef5 <__func__.6702>:
    8ef5:	69726553 614d6c61 6567616e 704f5f72     SerialManager_Op
    8f05:	65526e65 61486461 656c646e 72657300     enReadHandle.ser
    8f15:	436c6169 69666e6f 2e2e0067 2f2e2e2f     ialConfig.../../
    8f25:	2e2f2e2e 2e2e2f2e 4b44532f 6b636150     ../../../SDKPack
    8f35:	73656761 32334b2f 31363057 2f364b44     ages/K32W061DK6/
    8f45:	706d6f63 6e656e6f 732f7374 61697265     components/seria
    8f55:	616d5f6c 6567616e 65732f72 6c616972     l_manager/serial
    8f65:	726f705f 61755f74 632e7472               _port_uart.c.

00008f72 <__func__.6672>:
    8f72:	69726553 555f6c61 49747261 0074696e     Serial_UartInit.

00008f82 <__func__.6684>:
    8f82:	69726553 555f6c61 57747261 65746972     Serial_UartWrite
    8f92:	2f2e2e00 2e2f2e2e 2e2e2f2e 2f2e2e2f     .../../../../../
    8fa2:	504b4453 616b6361 2f736567 5732334b     SDKPackages/K32W
    8fb2:	44313630 632f364b 6f706d6f 746e656e     061DK6/component
    8fc2:	61752f73 752f7472 74726173 6164615f     s/uart/usart_ada
    8fd2:	72657470 6300632e 69666e6f 693e2d67     pter.c.config->i
    8fe2:	6174736e 2065636e 7328203c 6f657a69     nstance < (sizeo
    8ff2:	5f732866 72617355 61644174 72657470     f(s_UsartAdapter
    9002:	65736142 202f2029 657a6973 5528666f     Base) / sizeof(U
    9012:	54524153 7079545f 292a2065 5f730029     SART_Type *)).s_
    9022:	72617355 61644174 72657470 65736142     UsartAdapterBase
    9032:	6e6f635b 2d676966 736e693e 636e6174     [config->instanc
    9042:	64005d65 00617461                       e].data.

0000904a <__func__.6822>:
    904a:	5f4c4148 74726155 74696e49               HAL_UartInit.

00009057 <__func__.6842>:
    9057:	5f4c4148 74726155 646e6553 636f6c42     HAL_UartSendBloc
    9067:	676e696b                                 king.

0000906c <s_UsartAdapterBase>:
    906c:	4008b000 4008c000 45535341 45205452     ...@...@ASSERT E
    907c:	524f5252 25202220 3a222073 6c696620     RROR " %s ": fil
    908c:	25222065 4c202273 20656e69 22642522     e "%s" Line "%d"
    909c:	6e756620 6f697463 616e206e 2220656d      function name "
    90ac:	20227325 2117000a 21172117 0b21002f     %s" ...!.!.!/.!.
    90bc:	0b160b21 163507c2 161e0b21 2acf07c2     !.....5.!......*
    90cc:	2a250b21 2a3f07c2                        !.%*..?*..

000090d6 <assign_Synth_Cal_Op_Lock_init_regs>:
    90d6:	0081087c 00000364 004f0360 004d0360     |...d...`.O.`.M.
    90e6:	001f0318 040006b4 021e06c0 001406c4     ................
    90f6:	000a06c8 00400314 0000039c 006006b8     ......@.......`.
    9106:	06ff06bc 00060394 00ad05c4 07e705cc     ................

00009116 <assign_Synth_Cal_Startup_init_regs>:
    9116:	000206cc 012c05c0 20ad05c4 208005c8     ......,.... ... 
    9126:	0fe705cc 7d8b05d4 0bff06bc 00060394     .......}........
    9136:	00c1087c 000e0718 000006a8 0000038c     |...............
    9146:	7fff0388 00000434 00da0430 20000374     ....4...0...t.. 
    9156:	006006b8                                ..`.

0000915a <assign_TMU_init_regs>:
    915a:	002808a4 005008ac 006608e4 003208b4     ..(...P...f...2.
    916a:	004608bc 006408c4 001908cc 003708d4     ..F...d.......7.
    917a:	003c08dc 00a50814 000e08b8 000c08c0     ..<.............
    918a:	000a08c8 0000092c 00300c40 000c08ec     ....,...@.0.....
    919a:	001408a8 001208b0 0000080c              ............

000091a6 <assign_init_regs>:
    91a6:	00aa047c 00000480 00a80488 0001048c     |...............
    91b6:	b4a80348 0003034c 00aa0470 00000474     H...L...p...t...
    91c6:	35ca04b8 03160464 01e40444 000102d0     ...5d...D.......
    91d6:	00a40040 00000780 000a0980 000202f0     @...............
    91e6:	00170318 01fb0454 00000450 000000e4     ....T...P.......
    91f6:	00a70140 00db0144 00f30148 003a0150     @...D...H...P.:.
    9206:	00050154 0025016c 002f0170 003b0174     T...l.%.p./.t.;.

00009216 <assign_init_regs_ES2>:
    9216:	2a7c041c 007c0494 000803f0              ..|*..|.....

00009222 <assign_init_regs_ES2MF>:
    9222:	2a68041c 00500494 020803f0              ..h*..P.....

0000922e <assign_std_specific_banked_regs>:
    922e:	019a018c 01a0019e 000100a4 00000003     ................
    923e:	00000044 00000001 01010018 01010102     D...............
    924e:	30c40784 012008c1 011a0788 015a01e7     ...0.. .......Z.
    925e:	00400790 003c001e                       ..@...<.

00009266 <assign_unbanked_common_regs>:
    9266:	00010050 00010078 0008007c 001f0088     P...x...|.......
    9276:	0014008c 003f0284 00070468 000a00a8     ......?.h.......
    9286:	005001a0 01ff0300                       ..P.....

0000928e <assign_unbanked_std_specific_regs>:
    928e:	00ac0040 00ce00cd 00100780 00120011     @...............

0000929e <assign_unbanked_zbble_specific_regs>:
    929e:	20000058 00684000 00020003 00030084     X.. .@h.........
    92ae:	02600008 0a940a14 43280224 022847ff     ..`.....$.(C.G(.
    92be:	e3556b55 00010280 09800003 002e004e     UkU.........N...
    92ce:	002808a4 08ac0019 00370050 003208b4     ..(.....P.7...2.
    92de:	08bc001e 00320046 006408c4 08e40051     ....F.2...d.Q...
    92ee:	00530066 000e08b8 08c00007 0006000c     f.S.............
    92fe:	000a08c8 092c0005 00000000 001408a8     ......,.........
    930e:	08b0000a 00090012 000808d0 08d80003     ................
    931e:	00020006 000408e0 08ec0001 000f000c     ................
    932e:	000108f0 02640000 18283646              ......d.F6(.

0000933a <assign_zbble_specific_banked_regs>:
    933a:	00040220 02080002 0000000f 000a01f4      ...............
    934a:	01fc0000 00a000dc 01980188 004c019c     ..............L.
    935a:	029b0293 002001a4 01900011 020101e2     ...... .........
    936a:	20500194 01982010 32353237 0c1b01a8     ..P . ..7252....
    937a:	079c0c15 00000401                        ..........

00009384 <freq_prog>:
    9384:	00000962 00000004 00000000 00000020     b........... ...
    9394:	00000000 00000962 00000004 00000000     ....b...........
    93a4:	00000020 00000000 00000980 00000004      ...............
    93b4:	0000000c 00000015 00000055 00000980     ........U.......
    93c4:	00001404 0000000c 00000015 00000055     ............U...
    93d4:	000009a2 00000004 00000000 00000010     ................
    93e4:	00000000 00000991 00001404 0000000c     ................
    93f4:	00000015 00000055 0000098a 00000004     ....U...........
    9404:	00000000 00000010 00000000              ............

00009410 <lut_defaults>:
    9410:	00020001 00020002 00030003 00040003     ................
    9420:	00050004 00060005 00070006 00090008     ................
    9430:	000b000a 000e000d 00120010 00170015     ................
    9440:	001e001a 00260021 0031002b 00400038     ....!.&.+.1.8.@.
    9450:	0055004a 00740063 00a20089 00f100c5     J.U.c.t.........
    9460:	01d6014a 01ff01ff 01ff01ff              J...........

0000946c <lut_hiTx_defaults>:
    946c:	00010001 00020002 00020002 00030002     ................
    947c:	00030003 00040004 00050005 00060006     ................
    948c:	00080007 000a0009 000d000b 0010000e     ................
    949c:	00140012 001a0017 0021001d 002a0025     ..........!.%.*.
    94ac:	00360030 0047003e 005e0051 007f006d     0.6.>.G.Q.^.m...
    94bc:	00b10095 011400d6 01ff0169              ........i...
